
Build/codec/pisplit_lc3i_codec_position_independent.splitload.lib:     file format elf32-xtensa-le


Disassembly of section .text:

00000000 <_init-0x448>:
       0:	00000494 00009b1c 0000b5bc 00000000     ................
      10:	0000b580 00000000 0000b5a4 0000b7c4     ................
      20:	0000b5e0 000009f8 0000b5f4 00000a5c     ............\...
      30:	0000b608 00000ac0 0000b5d0 0000b7c8     ................
      40:	0000b7ca 0000b7cc 0000b7d0 0000b7fc     ................
      50:	0000b800 0000b804 0000b808 0000b80c     ................
      60:	0000b810 0000b814 0000b818 0000b81c     ................
      70:	0000b820 0000b844 0000b848 0000b84c      ...D...H...L...
      80:	0000b870 0000b874 0000b878 0000b8a4     p...t...x.......
      90:	0000b8a8 0000b8d4 0000b8d8 0000b8dc     ................
      a0:	0000b8e0 0000b8e4 0000b8e8 0000b8ec     ................
      b0:	0000b8f0 0000b8f4 0000b8f8 0000b8fc     ................
      c0:	0000b900 0000b904 0000b908 0000b90c     ................
      d0:	0000b910 0000b93c 0000b940 0000b96c     ....<...@...l...
      e0:	0000b984 0000b974 0000b978 0000b97c     ....t...x...|...
      f0:	0000b980 0000b970 0000b988 0000b9a0     ....p...........
     100:	0000b9a4 0000b9a8 0000b9ac 0000b9b0     ................
     110:	0000b9b4 0000b9b8 0000b9bc 0000b9c0     ................
     120:	0000b9c4 0000b9c8 0000b9cc 0000b9d0     ................
     130:	0000b9d4 0000b9d8 0000b9dc 0000b9f0     ................
     140:	0000b9f4 0000b9f8 0000b9fc 0000ba00     ................
     150:	0000ba04 0000ba08 0000ba0c 0000ba1c     ................
     160:	0000ba20 0000ba24 0000ba28 0000ba2c      ...$...(...,...
     170:	0000ba30 0000ba34 0000ba38 0000ba3c     0...4...8...<...
     180:	0000ba40 0000ba44 0000ba48 0000ba4c     @...D...H...L...
     190:	0000ba50 0000ba54 0000ba58 0000ba5c     P...T...X...\...
     1a0:	0000ba60 0000ba64 0000ba68 0000ba6c     `...d...h...l...
     1b0:	0000ba70 0000baa0 0000baa4 0000bab8     p...............
     1c0:	0000babc 0000bac0 0000bac4 0000bac8     ................
     1d0:	0000ba74 0000ba78 0000ba7c 0000ba80     t...x...|.......
     1e0:	0000ba84 0000ba88 0000ba8c 0000ba90     ................
     1f0:	0000ba94 0000ba98 0000ba9c 0000baa8     ................
     200:	0000baac 0000bab0 0000bab4 000004dc     ................
     210:	00000b50 00000ad4 00000bd8 00000b6c     P...........l...
     220:	00000af0 00007e6c 00000b8c 00003a40     ....l~......@:..
     230:	3dffffff 0016302f 00009ba0 00000f0c     ...=/0..........
     240:	80000001 00001218 00001548 00003338     ........H...83..
     250:	000020ec 0000bae0 0000badc 0000bad8     . ..............
     260:	0000bad4 00000bf8 0fff0000 00002dbc     .............-..
     270:	00009c5c 00008794 00000c14 0000316c     \...........l1..
     280:	0000a0d4 00003140 00002f30 000030f0     ....@1..0/...0..
     290:	00009c4c 00002e20 00009b54 00002e7c     L... ...T...|...
     2a0:	00000e0c 00003210 003cbe80 00000cdc     .....2....<.....
     2b0:	00000fd0 000015f0 00003a08 00010001     .........:......
     2c0:	000041bc 00009b40 00003770 00002194     .A..@...p7...!..
     2d0:	00002838 00002cb8 0000a5b4 00004970     8(...,......pI..
     2e0:	00003498 00004ac8 00001790 0000a530     .4...J......0...
     2f0:	0000a4f0 00008e1c 000034f8 00004cc4     .........4...L..
     300:	00004288 00000ef8 00004788 00000f88     .B.......G......
     310:	000095e4 0000a63c 00004c88 000012f8     ....<....L......
     320:	00001364 0009cccd 00000c30 436e439a     d.......0....CnC
     330:	f0523471 0003c7ae fffe0a3c 0009cccc     q4R.....<.......
     340:	3fff0000 1fff8000 00001434 00001028     ...?....4...(...
     350:	000010c4 fff80020 00000e88 0000b630     .... .......0...
     360:	00006d7b 00006f10 000070dc 51eb851f     {m...o...p.....Q
     370:	3ffffff0 7ffffffe 0000149c e56d0000     ...?..........m.
     380:	00001150 7fff0000 00005598 13333333     P........U..333.
     390:	6ccccccd 00005814 00007378 00005ea8     ...l.X..xs...^..
     3a0:	000070f8 000062f8 00005930 00004e70     .p...b..0Y..pN..
     3b0:	000067c8 00006074 00005138 000075a8     .g..t`..8Q...u..
     3c0:	000028f8 00007928 00005278 00006ab0     .(..(y..xR...j..
     3d0:	00004d68 0000a660 00006168 000084b0     hM..`...ha......
     3e0:	000018b8 0000b650 00008c44 000086e0     ....P...D.......
     3f0:	0000a6c8 00009598 000096e4 00010ccd     ................
     400:	00008d90 00008cfc 00004d30 78780000     ........0M....xx
     410:	00008f58 e0000001 0000929c 0000b7b0     X...............
     420:	00008ff8 0000b6a0 00009334 000094a4     ........4.......
     430:	0000b680 0000b670 0000b660 00009640     ....p...`...@...
     440:	0000b588 00000460                       ....`...

00000448 <_init>:
     448:	008136        	entry	a1, 64
     44b:	feed81        	l32r	a8, 0 (494 <frame_dummy>)
     44e:	f03d           	nop.n
     450:	0008e0        	callx8	a8
     453:	feec81        	l32r	a8, 4 (9b1c <__do_global_ctors_aux>)
     456:	f03d           	nop.n
     458:	0008e0        	callx8	a8
     45b:	f01d           	retw.n

0000045d <_init+0x15>:
     45d:	000000                                        ...

00000460 <__do_global_dtors_aux>:
     460:	004136        	entry	a1, 32
     463:	fee921        	l32r	a2, 8 (b5bc <__do_global_dtors_aux.completed>)
     466:	000232        	l8ui	a3, a2, 0
     469:	23ec           	bnez.n	a3, 48f <__do_global_dtors_aux+0x2f>

0000046b <__do_global_dtors_aux+0xb>:
     46b:	1248           	l32i.n	a4, a2, 4
     46d:	0438           	l32i.n	a3, a4, 0
     46f:	444b           	addi.n	a4, a4, 4
     471:	738c           	beqz.n	a3, 47c <__do_global_dtors_aux+0x1c>
     473:	1249           	s32i.n	a4, a2, 4
     475:	0003e0        	callx8	a3
     478:	fffbc6        	j	46b <__do_global_dtors_aux+0xb>

0000047b <__do_global_dtors_aux+0x1b>:
	...

0000047c <__do_global_dtors_aux+0x1c>:
     47c:	fee431        	l32r	a3, c (0 <_text_start>)
     47f:	fee4a1        	l32r	a10, 10 (b580 <__FRAME_END__>)
     482:	438c           	beqz.n	a3, 48a <__do_global_dtors_aux+0x2a>
     484:	fee281        	l32r	a8, c (0 <_text_start>)
     487:	0008e0        	callx8	a8
     48a:	130c           	movi.n	a3, 1
     48c:	004232        	s8i	a3, a2, 0
     48f:	f01d           	retw.n

00000491 <__do_global_dtors_aux+0x31>:
     491:	000000                                        ...

00000494 <frame_dummy>:
     494:	004136        	entry	a1, 32
     497:	fedf21        	l32r	a2, 14 (0 <_text_start>)
     49a:	fedda1        	l32r	a10, 10 (b580 <__FRAME_END__>)
     49d:	fedeb1        	l32r	a11, 18 (b5a4 <frame_dummy.object>)
     4a0:	428c           	beqz.n	a2, 4a8 <frame_dummy+0x14>
     4a2:	fedc81        	l32r	a8, 14 (0 <_text_start>)
     4a5:	0008e0        	callx8	a8

000004a8 <frame_dummy+0x14>:
     4a8:	f01d           	retw.n

000004aa <frame_dummy+0x16>:
	...

000004ac <_start>:
     4ac:	004136        	entry	a1, 32
     4af:	fedb31        	l32r	a3, 1c (b7c4 <printf_ptr>)
     4b2:	0228           	l32i.n	a2, a2, 0
     4b4:	fedba1        	l32r	a10, 20 (b5e0 <export_parameter_array+0x10>)
     4b7:	fedbb1        	l32r	a11, 24 (9f8 <LC3I_Enc_Prcs>)
     4ba:	0329           	s32i.n	a2, a3, 0
     4bc:	0002e0        	callx8	a2
     4bf:	0328           	l32i.n	a2, a3, 0
     4c1:	fed9a1        	l32r	a10, 28 (b5f4 <export_parameter_array+0x24>)
     4c4:	fedab1        	l32r	a11, 2c (a5c <LC3I_Dec_Prcs>)
     4c7:	0002e0        	callx8	a2
     4ca:	0328           	l32i.n	a2, a3, 0
     4cc:	fed9a1        	l32r	a10, 30 (b608 <export_parameter_array+0x38>)
     4cf:	fed9b1        	l32r	a11, 34 (ac0 <LC3I_Dec_Get_Param>)
     4d2:	0002e0        	callx8	a2
     4d5:	fed821        	l32r	a2, 38 (b5d0 <export_parameter_array>)
     4d8:	f01d           	retw.n

000004da <_start+0x2e>:
	...

000004dc <LC3I_Tab_Link>:
     4dc:	004136        	entry	a1, 32
     4df:	fedae1        	l32r	a14, 48 (b7d0 <plc_preemph_fac>)
     4e2:	fed741        	l32r	a4, 40 (b7ca <NN_thresh_exp>)
     4e5:	fed7c1        	l32r	a12, 44 (b7cc <BW_thresh_quiet_exp>)
     4e8:	fed961        	l32r	a6, 4c (b7fc <LowDelayShapes_n960_len>)
     4eb:	72eb           	addi.n	a7, a2, 14
     4ed:	fed881        	l32r	a8, 50 (b800 <LowDelayShapes_n960_la_zeroes>)
     4f0:	fed9a1        	l32r	a10, 54 (b804 <LowDelayShapes_n960>)
     4f3:	0e79           	s32i.n	a7, a14, 0
     4f5:	0592d2        	l16si	a13, a2, 10
     4f8:	0692f2        	l16si	a15, a2, 12
     4fb:	18c292        	addi	a9, a2, 24
     4fe:	fed7e1        	l32r	a14, 5c (b80c <LowDelayShapes_n960_la_zeroes_7_5ms>)
     501:	6cfd           	ae_s16i.n	a15, a12, 0
     503:	0699           	s32i.n	a9, a6, 0
     505:	64dd           	ae_s16i.n	a13, a4, 0
     507:	22c2b2        	addi	a11, a2, 34
     50a:	2cc2d2        	addi	a13, a2, 44
     50d:	fed2c1        	l32r	a12, 58 (b808 <LowDelayShapes_n960_len_7_5ms>)
     510:	fed461        	l32r	a6, 60 (b810 <LowDelayShapes_n960_7_5ms>)
     513:	08b9           	s32i.n	a11, a8, 0
     515:	0ad9           	s32i.n	a13, a10, 0
     517:	4ac272        	addi	a7, a2, 74
     51a:	fec831        	l32r	a3, 3c (b7c8 <NN_thresh>)
     51d:	fed181        	l32r	a8, 64 (b814 <BW_cutoff_bits_all>)
     520:	fed2a1        	l32r	a10, 68 (b818 <BW_thresh_quiet>)
     523:	0e79           	s32i.n	a7, a14, 0
     525:	40c2f2        	addi	a15, a2, 64
     528:	54c292        	addi	a9, a2, 84
     52b:	fed0e1        	l32r	a14, 6c (b81c <BW_thresh_brickwall>)
     52e:	0cf9           	s32i.n	a15, a12, 0
     530:	0699           	s32i.n	a9, a6, 0
     532:	049252        	l16si	a5, a2, 8
     535:	68c2b2        	addi	a11, a2, 104
     538:	74c2d2        	addi	a13, a2, 116
     53b:	84a0c2        	movi	a12, 132
     53e:	fecc61        	l32r	a6, 70 (b820 <BW_brickwall_dist>)
     541:	08b9           	s32i.n	a11, a8, 0
     543:	0ad9           	s32i.n	a13, a10, 0
     545:	635d           	ae_s16i.n	a5, a3, 0
     547:	32ca           	add.n	a3, a2, a12
     549:	8ca0f2        	movi	a15, 140
     54c:	feca81        	l32r	a8, 74 (b844 <BW_warp_idx_start_all>)
     54f:	fecaa1        	l32r	a10, 78 (b848 <BW_warp_idx_stop_all>)
     552:	0e39           	s32i.n	a3, a14, 0
     554:	52fa           	add.n	a5, a2, a15
     556:	d4a072        	movi	a7, 212
     559:	e4a092        	movi	a9, 228
     55c:	fec8c1        	l32r	a12, 7c (b84c <BW_brickwall_dist_7_5ms>)
     55f:	fec8e1        	l32r	a14, 80 (b870 <BW_warp_idx_start_all_7_5ms>)
     562:	0659           	s32i.n	a5, a6, 0
     564:	427a           	add.n	a4, a2, a7
     566:	529a           	add.n	a5, a2, a9
     568:	f4a0b2        	movi	a11, 244
     56b:	3ca1d2        	movi	a13, 0x13c
     56e:	fec561        	l32r	a6, 84 (b874 <BW_warp_idx_stop_all_7_5ms>)
     571:	0849           	s32i.n	a4, a8, 0
     573:	0a59           	s32i.n	a5, a10, 0
     575:	42ba           	add.n	a4, a2, a11
     577:	52da           	add.n	a5, a2, a13
     579:	4ca1f2        	movi	a15, 0x14c
     57c:	fec4a1        	l32r	a10, 8c (b8a4 <tns_subdiv_startfreq>)
     57f:	0c49           	s32i.n	a4, a12, 0
     581:	42fa           	add.n	a4, a2, a15
     583:	0e59           	s32i.n	a5, a14, 0
     585:	e0a192        	movi	a9, 0x1e0
     588:	fec3e1        	l32r	a14, 94 (b8d4 <tns_subdiv_startfreq_7_5ms>)
     58b:	0649           	s32i.n	a4, a6, 0
     58d:	429a           	add.n	a4, a2, a9
     58f:	febe81        	l32r	a8, 88 (b878 <BW_cutoff_bin_all>)
     592:	80a2d2        	movi	a13, 0x280
     595:	0a49           	s32i.n	a4, a10, 0
     597:	42da           	add.n	a4, a2, a13
     599:	5ca172        	movi	a7, 0x15c
     59c:	febdc1        	l32r	a12, 90 (b8a8 <tns_subdiv_stopfreq>)
     59f:	527a           	add.n	a5, a2, a7
     5a1:	0e49           	s32i.n	a4, a14, 0
     5a3:	f4a1b2        	movi	a11, 0x1f4
     5a6:	febc41        	l32r	a4, 98 (b8d8 <tns_subdiv_stopfreq_7_5ms>)
     5a9:	0859           	s32i.n	a5, a8, 0
     5ab:	52ba           	add.n	a5, a2, a11
     5ad:	94a2f2        	movi	a15, 0x294
     5b0:	febb71        	l32r	a7, 9c (b8dc <Tab_esc_nb>)
     5b3:	0c59           	s32i.n	a5, a12, 0
     5b5:	52fa           	add.n	a5, a2, a15
     5b7:	a8a262        	movi	a6, 0x2a8
     5ba:	0459           	s32i.n	a5, a4, 0
     5bc:	426a           	add.n	a4, a2, a6
     5be:	2ba1a2        	movi	a10, 0x12b
     5c1:	feb8b1        	l32r	a11, a4 (b8e4 <ari_spec_cumfreq>)
     5c4:	0749           	s32i.n	a4, a7, 0
     5c6:	114ac0        	slli	a4, a10, 4
     5c9:	feb591        	l32r	a9, a0 (b8e0 <ari_spec_lookup>)
     5cc:	b0a282        	movi	a8, 0x2b0
     5cf:	424a           	add.n	a4, a2, a4
     5d1:	3ba2e2        	movi	a14, 0x23b
     5d4:	feb6f1        	l32r	a15, ac (b8ec <ari_spec_bits>)
     5d7:	528a           	add.n	a5, a2, a8
     5d9:	0b49           	s32i.n	a4, a11, 0
     5db:	114ec0        	slli	a4, a14, 4
     5de:	b3a1c2        	movi	a12, 0x1b3
     5e1:	feb1d1        	l32r	a13, a8 (b8e8 <ari_spec_freq>)
     5e4:	0959           	s32i.n	a5, a9, 0
     5e6:	115cc0        	slli	a5, a12, 4
     5e9:	424a           	add.n	a4, a2, a4
     5eb:	c5a282        	movi	a8, 0x2c5
     5ee:	feb191        	l32r	a9, b4 (b8f4 <tnsQuantPts>)
     5f1:	0f49           	s32i.n	a4, a15, 0
     5f3:	1148c0        	slli	a4, a8, 4
     5f6:	525a           	add.n	a5, a2, a5
     5f8:	c3a262        	movi	a6, 0x2c3
     5fb:	fead71        	l32r	a7, b0 (b8f0 <tnsAcfWindow>)
     5fe:	0d59           	s32i.n	a5, a13, 0
     600:	1156c0        	slli	a5, a6, 4
     603:	424a           	add.n	a4, a2, a4
     605:	5ea6c2        	movi	a12, 0x65e
     608:	feadd1        	l32r	a13, bc (b8fc <ac_tns_order_bits>)
     60b:	0949           	s32i.n	a4, a9, 0
     60d:	f04cc0        	subx8	a4, a12, a12
     610:	525a           	add.n	a5, a2, a5
     612:	72a0a2        	movi	a10, 114
     615:	fea8b1        	l32r	a11, b8 (b8f8 <tnsQuantThr>)
     618:	0759           	s32i.n	a5, a7, 0
     61a:	2cda52        	addmi	a5, a10, 0x2c00
     61d:	424a           	add.n	a4, a2, a4
     61f:	d2a062        	movi	a6, 210
     622:	fea871        	l32r	a7, c4 (b904 <ac_tns_order_cumfreq>)
     625:	0d49           	s32i.n	a4, a13, 0
     627:	2cd642        	addmi	a4, a6, 0x2c00
     62a:	525a           	add.n	a5, a2, a5
     62c:	b2a0e2        	movi	a14, 178
     62f:	fea4f1        	l32r	a15, c0 (b900 <ac_tns_order_freq>)
     632:	0b59           	s32i.n	a5, a11, 0
     634:	2cde52        	addmi	a5, a14, 0x2c00
     637:	424a           	add.n	a4, a2, a4
     639:	2a0c           	movi.n	a10, 2
     63b:	fea4b1        	l32r	a11, cc (b90c <ac_tns_coef_freq>)
     63e:	0749           	s32i.n	a4, a7, 0
     640:	2eda42        	addmi	a4, a10, 0x2e00
     643:	525a           	add.n	a5, a2, a5
     645:	f2a082        	movi	a8, 242
     648:	fea091        	l32r	a9, c8 (b908 <ac_tns_coef_bits>)
     64b:	0f59           	s32i.n	a5, a15, 0
     64d:	2cd852        	addmi	a5, a8, 0x2c00
     650:	424a           	add.n	a4, a2, a4
     652:	4e2c           	movi.n	a14, 36
     654:	fea0f1        	l32r	a15, d4 (b93c <lpc_pre_emphasis>)
     657:	0b49           	s32i.n	a4, a11, 0
     659:	30de42        	addmi	a4, a14, 0x3000
     65c:	525a           	add.n	a5, a2, a5
     65e:	2c1c           	movi.n	a12, 18
     660:	fe9cd1        	l32r	a13, d0 (b910 <ac_tns_coef_cumfreq>)
     663:	0959           	s32i.n	a5, a9, 0
     665:	2fdc52        	addmi	a5, a12, 0x2f00
     668:	424a           	add.n	a4, a2, a4
     66a:	c84c           	movi.n	a8, 76
     66c:	fe9c91        	l32r	a9, dc (b96c <bands_offset>)
     66f:	0f49           	s32i.n	a4, a15, 0
     671:	30d842        	addmi	a4, a8, 0x3000
     674:	525a           	add.n	a5, a2, a5
     676:	07a662        	movi	a6, 0x607
     679:	fe9771        	l32r	a7, d8 (b940 <lpc_pre_emphasis_e>)
     67c:	0d59           	s32i.n	a5, a13, 0
     67e:	1156d0        	slli	a5, a6, 3
     681:	424a           	add.n	a4, a2, a4
     683:	eca6c2        	movi	a12, 0x6ec
     686:	fe97d1        	l32r	a13, e4 (b974 <bands_offset_with_one_max>)
     689:	0949           	s32i.n	a4, a9, 0
     68b:	f04cc0        	subx8	a4, a12, a12
     68e:	525a           	add.n	a5, a2, a5
     690:	83a1a2        	movi	a10, 0x183
     693:	fe93b1        	l32r	a11, e0 (b984 <bands_offset_7_5ms>)
     696:	0759           	s32i.n	a5, a7, 0
     698:	115ab0        	slli	a5, a10, 5
     69b:	424a           	add.n	a4, a2, a4
     69d:	11a662        	movi	a6, 0x611
     6a0:	fe9371        	l32r	a7, ec (b97c <bands_offset_with_one_max_7_5ms>)
     6a3:	0d49           	s32i.n	a4, a13, 0
     6a5:	1146d0        	slli	a4, a6, 3
     6a8:	525a           	add.n	a5, a2, a5
     6aa:	7ea0e2        	movi	a14, 126
     6ad:	fe8ef1        	l32r	a15, e8 (b978 <bands_offset_with_two_max>)
     6b0:	0b59           	s32i.n	a5, a11, 0
     6b2:	30de52        	addmi	a5, a14, 0x3000
     6b5:	424a           	add.n	a4, a2, a4
     6b7:	9ca0a2        	movi	a10, 156
     6ba:	fe8eb1        	l32r	a11, f4 (b970 <bands_number_7_5ms>)
     6bd:	0749           	s32i.n	a4, a7, 0
     6bf:	30da42        	addmi	a4, a10, 0x3000
     6c2:	525a           	add.n	a5, a2, a5
     6c4:	92a082        	movi	a8, 146
     6c7:	fe8a91        	l32r	a9, f0 (b980 <bands_offset_with_two_max_7_5ms>)
     6ca:	0f59           	s32i.n	a5, a15, 0
     6cc:	30d852        	addmi	a5, a8, 0x3000
     6cf:	424a           	add.n	a4, a2, a4
     6d1:	1da6e2        	movi	a14, 0x61d
     6d4:	fe8af1        	l32r	a15, fc (b9a0 <resamp_filts>)
     6d7:	0b49           	s32i.n	a4, a11, 0
     6d9:	114ed0        	slli	a4, a14, 3
     6dc:	525a           	add.n	a5, a2, a5
     6de:	a6a0c2        	movi	a12, 166
     6e1:	fe85d1        	l32r	a13, f8 (b988 <bands_nrg_scale>)
     6e4:	0959           	s32i.n	a5, a9, 0
     6e6:	30dc52        	addmi	a5, a12, 0x3000
     6e9:	424a           	add.n	a4, a2, a4
     6eb:	482c           	movi.n	a8, 36
     6ed:	fe8591        	l32r	a9, 104 (b9a8 <highpass50_filt_num>)
     6f0:	0f49           	s32i.n	a4, a15, 0
     6f2:	31d842        	addmi	a4, a8, 0x3100
     6f5:	525a           	add.n	a5, a2, a5
     6f7:	fca062        	movi	a6, 252
     6fa:	fe8171        	l32r	a7, 100 (b9a4 <resamp_params>)
     6fd:	0d59           	s32i.n	a5, a13, 0
     6ff:	30d652        	addmi	a5, a6, 0x3000
     702:	424a           	add.n	a4, a2, a4
     704:	13a3c2        	movi	a12, 0x313
     707:	fe81d1        	l32r	a13, 10c (b9b0 <olpa_ac_weighting>)
     70a:	0949           	s32i.n	a4, a9, 0
     70c:	114cc0        	slli	a4, a12, 4
     70f:	525a           	add.n	a5, a2, a5
     711:	ca2c           	movi.n	a10, 44
     713:	fe7db1        	l32r	a11, 108 (b9ac <highpass50_filt_den>)
     716:	0759           	s32i.n	a5, a7, 0
     718:	31da52        	addmi	a5, a10, 0x3100
     71b:	424a           	add.n	a4, a2, a4
     71d:	74a062        	movi	a6, 116
     720:	fe7d71        	l32r	a7, 114 (b9b8 <inter_filter>)
     723:	0d49           	s32i.n	a4, a13, 0
     725:	32d642        	addmi	a4, a6, 0x3200
     728:	525a           	add.n	a5, a2, a5
     72a:	f4a0e2        	movi	a14, 244
     72d:	fe78f1        	l32r	a15, 110 (b9b4 <ltpf_ac_interp_filt>)
     730:	0b59           	s32i.n	a5, a11, 0
     732:	31de52        	addmi	a5, a14, 0x3100
     735:	424a           	add.n	a4, a2, a4
     737:	ea5c           	movi.n	a10, 94
     739:	fe78b1        	l32r	a11, 11c (b9c0 <inter_filter_len>)
     73c:	0749           	s32i.n	a4, a7, 0
     73e:	34da42        	addmi	a4, a10, 0x3400
     741:	525a           	add.n	a5, a2, a5
     743:	485c           	movi.n	a8, 84
     745:	fe7491        	l32r	a9, 118 (b9bc <inter_filter_shift>)
     748:	0f59           	s32i.n	a5, a15, 0
     74a:	34d852        	addmi	a5, a8, 0x3400
     74d:	424a           	add.n	a4, a2, a4
     74f:	d4a5e2        	movi	a14, 0x5d4
     752:	fe74f1        	l32r	a15, 124 (b9c8 <tilt_filter_EVEN>)
     755:	0b49           	s32i.n	a4, a11, 0
     757:	b04ee0        	addx8	a4, a14, a14
     75a:	525a           	add.n	a5, a2, a5
     75c:	8da6c2        	movi	a12, 0x68d
     75f:	fe70d1        	l32r	a13, 120 (b9c4 <tilt_filter_len_EO>)
     762:	0959           	s32i.n	a5, a9, 0
     764:	115cd0        	slli	a5, a12, 3
     767:	424a           	add.n	a4, a2, a4
     769:	483c           	movi.n	a8, 52
     76b:	fe7091        	l32r	a9, 12c (b9d0 <tilt_filter_len>)
     76e:	0f49           	s32i.n	a4, a15, 0
     770:	38d842        	addmi	a4, a8, 0x3800
     773:	525a           	add.n	a5, a2, a5
     775:	465c           	movi.n	a6, 84
     777:	fe6c71        	l32r	a7, 128 (b9cc <tilt_filter_ODD>)
     77a:	0d59           	s32i.n	a5, a13, 0
     77c:	36d652        	addmi	a5, a6, 0x3600
     77f:	424a           	add.n	a4, a2, a4
     781:	6c4c           	movi.n	a12, 70
     783:	fe6cd1        	l32r	a13, 134 (b9d8 <pitch_scale>)
     786:	0949           	s32i.n	a4, a9, 0
     788:	38dc42        	addmi	a4, a12, 0x3800
     78b:	525a           	add.n	a5, a2, a5
     78d:	ea3c           	movi.n	a10, 62
     78f:	fe68b1        	l32r	a11, 130 (b9d4 <gain_scale_fac>)
     792:	0759           	s32i.n	a5, a7, 0
     794:	38da52        	addmi	a5, a10, 0x3800
     797:	424a           	add.n	a4, a2, a4
     799:	71a062        	movi	a6, 113
     79c:	fe6871        	l32r	a7, 13c (b9f0 <sns_gaintabPtr>)
     79f:	0d49           	s32i.n	a4, a13, 0
     7a1:	114690        	slli	a4, a6, 7
     7a4:	525a           	add.n	a5, a2, a5
     7a6:	85a3e2        	movi	a14, 0x385
     7a9:	fe63f1        	l32r	a15, 138 (b9dc <ltpf_overlap_len>)
     7ac:	0b59           	s32i.n	a5, a11, 0
     7ae:	115ec0        	slli	a5, a14, 4
     7b1:	424a           	add.n	a4, a2, a4
     7b3:	13a7a2        	movi	a10, 0x713
     7b6:	fe63b1        	l32r	a11, 144 (b9f8 <sns_gainMSBbits>)
     7b9:	0749           	s32i.n	a4, a7, 0
     7bb:	114ad0        	slli	a4, a10, 3
     7be:	525a           	add.n	a5, a2, a5
     7c0:	89a382        	movi	a8, 0x389
     7c3:	fe5f91        	l32r	a9, 140 (b9f4 <sns_gainSz>)
     7c6:	0f59           	s32i.n	a5, a15, 0
     7c8:	1158c0        	slli	a5, a8, 4
     7cb:	424a           	add.n	a4, a2, a4
     7cd:	15a7e2        	movi	a14, 0x715
     7d0:	fe5ff1        	l32r	a15, 14c (ba00 <sns_Kval>)
     7d3:	0b49           	s32i.n	a4, a11, 0
     7d5:	114ed0        	slli	a4, a14, 3
     7d8:	525a           	add.n	a5, a2, a5
     7da:	c5a1c2        	movi	a12, 0x1c5
     7dd:	fe5ad1        	l32r	a13, 148 (b9fc <sns_gainLSBbits>)
     7e0:	0959           	s32i.n	a5, a9, 0
     7e2:	115cb0        	slli	a5, a12, 5
     7e5:	424a           	add.n	a4, a2, a4
     7e7:	1ba782        	movi	a8, 0x71b
     7ea:	fe5a91        	l32r	a9, 154 (ba08 <st1SCF0_7_base5_32x8_Q14>)
     7ed:	0f49           	s32i.n	a4, a15, 0
     7ef:	1148d0        	slli	a4, a8, 3
     7f2:	525a           	add.n	a5, a2, a5
     7f4:	17a762        	movi	a6, 0x717
     7f7:	fe5671        	l32r	a7, 150 (ba04 <sns_MPVQ_Sz>)
     7fa:	0d59           	s32i.n	a5, a13, 0
     7fc:	1156d0        	slli	a5, a6, 3
     7ff:	424a           	add.n	a4, a2, a4
     801:	7ba0c2        	movi	a12, 123
     804:	fe56d1        	l32r	a13, 15c (ba1c <MPVQ_offs_ptr>)
     807:	0949           	s32i.n	a4, a9, 0
     809:	114c90        	slli	a4, a12, 7
     80c:	525a           	add.n	a5, a2, a5
     80e:	5ba7a2        	movi	a10, 0x75b
     811:	fe51b1        	l32r	a11, 158 (ba0c <st1SCF8_15_base5_32x8_Q14>)
     814:	0759           	s32i.n	a5, a7, 0
     816:	115ad0        	slli	a5, a10, 3
     819:	424a           	add.n	a4, a2, a4
     81b:	e6a062        	movi	a6, 230
     81e:	fe5171        	l32r	a7, 164 (ba24 <isqrt_Q16tab>)
     821:	0d49           	s32i.n	a4, a13, 0
     823:	3dd642        	addmi	a4, a6, 0x3d00
     826:	525a           	add.n	a5, a2, a5
     828:	c4a0e2        	movi	a14, 196
     82b:	fe4df1        	l32r	a15, 160 (ba20 <tabledKMAX>)
     82e:	0b59           	s32i.n	a5, a11, 0
     830:	3dde52        	addmi	a5, a14, 0x3d00
     833:	424a           	add.n	a4, a2, a4
     835:	9aa0a2        	movi	a10, 154
     838:	fe4db1        	l32r	a11, 16c (ba2c <BitReverseTable256>)
     83b:	0749           	s32i.n	a4, a7, 0
     83d:	3eda42        	addmi	a4, a10, 0x3e00
     840:	525a           	add.n	a5, a2, a5
     842:	cda782        	movi	a8, 0x7cd
     845:	fe4891        	l32r	a9, 168 (ba28 <adjust_global_gain_tables>)
     848:	0f59           	s32i.n	a5, a15, 0
     84a:	1158d0        	slli	a5, a8, 3
     84d:	424a           	add.n	a4, a2, a4
     84f:	7ca0e2        	movi	a14, 124
     852:	fe48f1        	l32r	a15, 174 (ba34 <Bit_Shft>)
     855:	0b49           	s32i.n	a4, a11, 0
     857:	40de42        	addmi	a4, a14, 0x4000
     85a:	525a           	add.n	a5, a2, a5
     85c:	9aa0c2        	movi	a12, 154
     85f:	fe44d1        	l32r	a13, 170 (ba30 <Tab_T>)
     862:	0959           	s32i.n	a5, a9, 0
     864:	3fdc52        	addmi	a5, a12, 0x3f00
     867:	424a           	add.n	a4, a2, a4
     869:	cca082        	movi	a8, 204
     86c:	fe4491        	l32r	a9, 17c (ba3c <Tab_esc_Dec>)
     86f:	0f49           	s32i.n	a4, a15, 0
     871:	40d842        	addmi	a4, a8, 0x4000
     874:	525a           	add.n	a5, a2, a5
     876:	2ca762        	movi	a6, 0x72c
     879:	fe3f71        	l32r	a7, 178 (ba38 <AB_Shft>)
     87c:	0d59           	s32i.n	a5, a13, 0
     87e:	b05660        	addx8	a5, a6, a6
     881:	424a           	add.n	a4, a2, a4
     883:	38a7c2        	movi	a12, 0x738
     886:	fe3fd1        	l32r	a13, 184 (ba44 <ldCoeff_Hifi5>)
     889:	0949           	s32i.n	a4, a9, 0
     88b:	b04cc0        	addx8	a4, a12, a12
     88e:	525a           	add.n	a5, a2, a5
     890:	e8a0a2        	movi	a10, 232
     893:	fe3bb1        	l32r	a11, 180 (ba40 <ldCoeff>)
     896:	0759           	s32i.n	a5, a7, 0
     898:	40da52        	addmi	a5, a10, 0x4000
     89b:	424a           	add.n	a4, a2, a4
     89d:	48a762        	movi	a6, 0x748
     8a0:	fe3b71        	l32r	a7, 18c (ba4c <exp2w_tab_long>)
     8a3:	0d49           	s32i.n	a4, a13, 0
     8a5:	b04660        	addx8	a4, a6, a6
     8a8:	525a           	add.n	a5, a2, a5
     8aa:	8e0c           	movi.n	a14, 8
     8ac:	fe37f1        	l32r	a15, 188 (ba48 <exp2_tab_long>)
     8af:	0b59           	s32i.n	a5, a11, 0
     8b1:	41de52        	addmi	a5, a14, 0x4100
     8b4:	424a           	add.n	a4, a2, a4
     8b6:	88a0a2        	movi	a10, 136
     8b9:	fe36b1        	l32r	a11, 194 (ba54 <SqrtTable>)
     8bc:	0749           	s32i.n	a4, a7, 0
     8be:	42da42        	addmi	a4, a10, 0x4200
     8c1:	525a           	add.n	a5, a2, a5
     8c3:	880c           	movi.n	a8, 8
     8c5:	fe3291        	l32r	a9, 190 (ba50 <exp2x_tab_long>)
     8c8:	0f59           	s32i.n	a5, a15, 0
     8ca:	42d852        	addmi	a5, a8, 0x4200
     8cd:	424a           	add.n	a4, a2, a4
     8cf:	8e4c           	movi.n	a14, 72
     8d1:	fe32f1        	l32r	a15, 19c (ba5c <ISqrtTable>)
     8d4:	0b49           	s32i.n	a4, a11, 0
     8d6:	43de42        	addmi	a4, a14, 0x4300
     8d9:	525a           	add.n	a5, a2, a5
     8db:	8c0c           	movi.n	a12, 8
     8dd:	fe2ed1        	l32r	a13, 198 (ba58 <SqrtDiffTable>)
     8e0:	0959           	s32i.n	a5, a9, 0
     8e2:	43dc52        	addmi	a5, a12, 0x4300
     8e5:	424a           	add.n	a4, a2, a4
     8e7:	880c           	movi.n	a8, 8
     8e9:	fe2e91        	l32r	a9, 1a4 (ba64 <InvTable>)
     8ec:	0f49           	s32i.n	a4, a15, 0
     8ee:	44d842        	addmi	a4, a8, 0x4400
     8f1:	525a           	add.n	a5, a2, a5
     8f3:	0d59           	s32i.n	a5, a13, 0
     8f5:	424a           	add.n	a4, a2, a4
     8f7:	c8a0c2        	movi	a12, 200
     8fa:	fe2cd1        	l32r	a13, 1ac (ba6c <InvIntTable>)
     8fd:	0949           	s32i.n	a4, a9, 0
     8ff:	44dc42        	addmi	a4, a12, 0x4400
     902:	88a762        	movi	a6, 0x788
     905:	fe2671        	l32r	a7, 1a0 (ba60 <ISqrtDiffTable>)
     908:	b05660        	addx8	a5, a6, a6
     90b:	424a           	add.n	a4, a2, a4
     90d:	8e3c           	movi.n	a14, 56
     90f:	fe29f1        	l32r	a15, 1b4 (baa0 <RealFFT80_twid>)
     912:	0d49           	s32i.n	a4, a13, 0
     914:	45de42        	addmi	a4, a14, 0x4500
     917:	525a           	add.n	a5, a2, a5
     919:	0759           	s32i.n	a5, a7, 0
     91b:	424a           	add.n	a4, a2, a4
     91d:	59a462        	movi	a6, 0x459
     920:	fe2671        	l32r	a7, 1b8 (baa4 <RotVector_40_32>)
     923:	0f49           	s32i.n	a4, a15, 0
     925:	1146c0        	slli	a4, a6, 4
     928:	88a0a2        	movi	a10, 136
     92b:	fe1fb1        	l32r	a11, 1a8 (ba68 <InvDiffTable>)
     92e:	44da52        	addmi	a5, a10, 0x4400
     931:	424a           	add.n	a4, a2, a4
     933:	8da082        	movi	a8, 141
     936:	fe2191        	l32r	a9, 1bc (bab8 <isqrt_table>)
     939:	525a           	add.n	a5, a2, a5
     93b:	0749           	s32i.n	a4, a7, 0
     93d:	114890        	slli	a4, a8, 7
     940:	0b59           	s32i.n	a5, a11, 0
     942:	424a           	add.n	a4, a2, a4
     944:	88a0a2        	movi	a10, 136
     947:	fe1eb1        	l32r	a11, 1c0 (babc <Log2_16_table1>)
     94a:	0949           	s32i.n	a4, a9, 0
     94c:	48da42        	addmi	a4, a10, 0x4800
     94f:	424a           	add.n	a4, a2, a4
     951:	c8a0c2        	movi	a12, 200
     954:	fe1cd1        	l32r	a13, 1c4 (bac0 <Log2_16_table2>)
     957:	0b49           	s32i.n	a4, a11, 0
     959:	48dc42        	addmi	a4, a12, 0x4800
     95c:	424a           	add.n	a4, a2, a4
     95e:	e8a0e2        	movi	a14, 232
     961:	fe19f1        	l32r	a15, 1c8 (bac4 <InvLog2_16_table1>)
     964:	0d49           	s32i.n	a4, a13, 0
     966:	48de42        	addmi	a4, a14, 0x4800
     969:	424a           	add.n	a4, a2, a4
     96b:	e8a052        	movi	a5, 232
     96e:	fe1761        	l32r	a6, 1cc (bac8 <InvLog2_16_table2>)
     971:	0f49           	s32i.n	a4, a15, 0
     973:	49d542        	addmi	a4, a5, 0x4900
     976:	424a           	add.n	a4, a2, a4
     978:	fe1681        	l32r	a8, 1d0 (ba74 <SineTable360>)
     97b:	fe17c1        	l32r	a12, 1d8 (ba7c <SineWindow60>)
     97e:	fe17e1        	l32r	a14, 1dc (ba80 <SineWindow80>)
     981:	0649           	s32i.n	a4, a6, 0
     983:	45d242        	addmi	a4, a2, 0x4500
     986:	fe13a1        	l32r	a10, 1d4 (ba78 <SineTable320>)
     989:	3498           	l32i.n	a9, a4, 12
     98b:	54d8           	l32i.n	a13, a4, 20
     98d:	64f8           	l32i.n	a15, a4, 24
     98f:	fe0831        	l32r	a3, 1b0 (ba70 <SineTable480>)
     992:	0899           	s32i.n	a9, a8, 0
     994:	0cd9           	s32i.n	a13, a12, 0
     996:	0ef9           	s32i.n	a15, a14, 0
     998:	44b8           	l32i.n	a11, a4, 16
     99a:	fe1161        	l32r	a6, 1e0 (ba84 <SineWindow120>)
     99d:	fe1181        	l32r	a8, 1e4 (ba88 <SineWindow160>)
     9a0:	fe13c1        	l32r	a12, 1ec (ba90 <SineWindow240>)
     9a3:	fe13e1        	l32r	a14, 1f0 (ba94 <SineWindow320>)
     9a6:	0ab9           	s32i.n	a11, a10, 0
     9a8:	2478           	l32i.n	a7, a4, 8
     9aa:	fe0fa1        	l32r	a10, 1e8 (ba8c <SineWindow180>)
     9ad:	0379           	s32i.n	a7, a3, 0
     9af:	7478           	l32i.n	a7, a4, 28
     9b1:	8498           	l32i.n	a9, a4, 32
     9b3:	a4d8           	l32i.n	a13, a4, 40
     9b5:	b4f8           	l32i.n	a15, a4, 44
     9b7:	0679           	s32i.n	a7, a6, 0
     9b9:	0899           	s32i.n	a9, a8, 0
     9bb:	94b8           	l32i.n	a11, a4, 36
     9bd:	0cd9           	s32i.n	a13, a12, 0
     9bf:	0ef9           	s32i.n	a15, a14, 0
     9c1:	fe0c51        	l32r	a5, 1f4 (ba98 <SineWindow360>)
     9c4:	fe0d71        	l32r	a7, 1f8 (ba9c <SineWindow480>)
     9c7:	fe0d81        	l32r	a8, 1fc (baa8 <RotVector_480>)
     9ca:	fe0d91        	l32r	a9, 200 (baac <RotVector_360>)
     9cd:	fe0dc1        	l32r	a12, 204 (bab0 <RotVector_320>)
     9d0:	fe0ee1        	l32r	a14, 208 (bab4 <RotVector_15_6>)
     9d3:	0ab9           	s32i.n	a11, a10, 0
     9d5:	46d2a2        	addmi	a10, a2, 0x4600
     9d8:	c468           	l32i.n	a6, a4, 48
     9da:	d448           	l32i.n	a4, a4, 52
     9dc:	1c2ab2        	l32i	a11, a10, 112
     9df:	1d2ad2        	l32i	a13, a10, 116
     9e2:	1e2af2        	l32i	a15, a10, 120
     9e5:	1f2a22        	l32i	a2, a10, 124
     9e8:	0569           	s32i.n	a6, a5, 0
     9ea:	0749           	s32i.n	a4, a7, 0
     9ec:	08b9           	s32i.n	a11, a8, 0
     9ee:	09d9           	s32i.n	a13, a9, 0
     9f0:	0cf9           	s32i.n	a15, a12, 0
     9f2:	0e29           	s32i.n	a2, a14, 0
     9f4:	f01d           	retw.n

000009f6 <LC3I_Tab_Link+0x51a>:
	...

000009f8 <LC3I_Enc_Prcs>:
     9f8:	008136        	entry	a1, 64
     9fb:	06dd           	mov.n	a13, a6
     9fd:	0268           	l32i.n	a6, a2, 0
     9ff:	438d           	ae_l16ui.n	a8, a3, 0
     a01:	4159           	s32i.n	a5, a1, 16
     a03:	269692        	l16si	a9, a6, 76
     a06:	2159           	s32i.n	a5, a1, 8
     a08:	4b0c           	movi.n	a11, 4
     a0a:	90a950        	addx2	a10, a9, a5
     a0d:	a0f950        	addx4	a15, a9, a5
     a10:	51a9           	s32i.n	a10, a1, 20
     a12:	31f9           	s32i.n	a15, a1, 12
     a14:	1f6827        	bbci	a8, 2, a37 <LC3I_Enc_Prcs+0x3f>
     a17:	3058b0        	xor	a5, a8, a11
     a1a:	635d           	ae_s16i.n	a5, a3, 0
     a1c:	fdfc51        	l32r	a5, 20c (4dc <LC3I_Tab_Link>)
     a1f:	03ad           	mov.n	a10, a3
     a21:	7129           	s32i.n	a2, a1, 28
     a23:	042d           	mov.n	a2, a4
     a25:	0d4d           	mov.n	a4, a13
     a27:	0005e0        	callx8	a5
     a2a:	0758           	l32i.n	a5, a7, 0
     a2c:	03ad           	mov.n	a10, a3
     a2e:	0005e0        	callx8	a5
     a31:	04dd           	mov.n	a13, a4
     a33:	024d           	mov.n	a4, a2
     a35:	7128           	l32i.n	a2, a1, 28

00000a37 <LC3I_Enc_Prcs+0x3f>:
     a37:	279632        	l16si	a3, a6, 78
     a3a:	12e8           	l32i.n	a14, a2, 4
     a3c:	151c           	movi.n	a5, 17
     a3e:	072357        	blt	a3, a5, a49 <LC3I_Enc_Prcs+0x51>
     a41:	fdf331        	l32r	a3, 210 (b50 <lc3_enc24>)
     a44:	b18b           	addi.n	a11, a1, 8
     a46:	000146        	j	a4f <LC3I_Enc_Prcs+0x57>

00000a49 <LC3I_Enc_Prcs+0x51>:
     a49:	fdf231        	l32r	a3, 214 (ad4 <lc3_enc16>)
     a4c:	10c1b2        	addi	a11, a1, 16
     a4f:	06ad           	mov.n	a10, a6
     a51:	04cd           	mov.n	a12, a4
     a53:	07fd           	mov.n	a15, a7
     a55:	0003e0        	callx8	a3
     a58:	0a2d           	mov.n	a2, a10
     a5a:	f01d           	retw.n

00000a5c <LC3I_Dec_Prcs>:
     a5c:	008136        	entry	a1, 64
     a5f:	438d           	ae_l16ui.n	a8, a3, 0
     a61:	05dd           	mov.n	a13, a5
     a63:	0258           	l32i.n	a5, a2, 0
     a65:	1121f2        	l32i	a15, a1, 68
     a68:	51f9           	s32i.n	a15, a1, 20
     a6a:	236817        	bbci	a8, 1, a91 <LC3I_Dec_Prcs+0x35>
     a6d:	2f0c           	movi.n	a15, 2
     a6f:	3088f0        	xor	a8, a8, a15
     a72:	638d           	ae_s16i.n	a8, a3, 0
     a74:	fde681        	l32r	a8, 20c (4dc <LC3I_Tab_Link>)
     a77:	03ad           	mov.n	a10, a3
     a79:	6149           	s32i.n	a4, a1, 24
     a7b:	094d           	mov.n	a4, a9
     a7d:	71d9           	s32i.n	a13, a1, 28
     a7f:	0008e0        	callx8	a8
     a82:	5188           	l32i.n	a8, a1, 20
     a84:	03ad           	mov.n	a10, a3
     a86:	0898           	l32i.n	a9, a8, 0
     a88:	0009e0        	callx8	a9
     a8b:	049d           	mov.n	a9, a4
     a8d:	6148           	l32i.n	a4, a1, 24
     a8f:	71d8           	l32i.n	a13, a1, 28

00000a91 <LC3I_Dec_Prcs+0x35>:
     a91:	1f9532        	l16si	a3, a5, 62
     a94:	1021f2        	l32i	a15, a1, 64
     a97:	117700        	slli	a7, a7, 16
     a9a:	181c           	movi.n	a8, 17
     a9c:	20c760        	or	a12, a7, a6
     a9f:	072387        	blt	a3, a8, aaa <LC3I_Dec_Prcs+0x4e>
     aa2:	12e8           	l32i.n	a14, a2, 4
     aa4:	fddd21        	l32r	a2, 218 (bd8 <lc3_dec24>)
     aa7:	000106        	j	aaf <LC3I_Dec_Prcs+0x53>

00000aaa <LC3I_Dec_Prcs+0x4e>:
     aaa:	12e8           	l32i.n	a14, a2, 4
     aac:	fddc21        	l32r	a2, 21c (b6c <lc3_dec16>)
     aaf:	5138           	l32i.n	a3, a1, 20
     ab1:	05ad           	mov.n	a10, a5
     ab3:	04bd           	mov.n	a11, a4
     ab5:	0139           	s32i.n	a3, a1, 0
     ab7:	0002e0        	callx8	a2
     aba:	0a2d           	mov.n	a2, a10
     abc:	f01d           	retw.n

00000abe <LC3I_Dec_Prcs+0x62>:
	...

00000ac0 <LC3I_Dec_Get_Param>:
     ac0:	004136        	entry	a1, 32
     ac3:	0228           	l32i.n	a2, a2, 0
     ac5:	1e9252        	l16si	a5, a2, 60
     ac8:	209222        	l16si	a2, a2, 64
     acb:	0359           	s32i.n	a5, a3, 0
     acd:	0429           	s32i.n	a2, a4, 0
     acf:	f01d           	retw.n

00000ad1 <LC3I_Dec_Get_Param+0x11>:
     ad1:	000000                                        ...

00000ad4 <lc3_enc16>:
     ad4:	006136        	entry	a1, 48
     ad7:	fdd281        	l32r	a8, 220 (af0 <lc3_enc>)
     ada:	0c1c           	movi.n	a12, 16
     adc:	02ad           	mov.n	a10, a2
     ade:	03bd           	mov.n	a11, a3
     ae0:	04dd           	mov.n	a13, a4
     ae2:	05ed           	mov.n	a14, a5
     ae4:	06fd           	mov.n	a15, a6
     ae6:	0179           	s32i.n	a7, a1, 0
     ae8:	0008e0        	callx8	a8
     aeb:	0a2d           	mov.n	a2, a10
     aed:	f01d           	retw.n

00000aef <lc3_enc16+0x1b>:
	...

00000af0 <lc3_enc>:
     af0:	006136        	entry	a1, 48
     af3:	02ad           	mov.n	a10, a2
     af5:	d20c           	movi.n	a2, 13
     af7:	0aac           	beqz.n	a10, b1b <lc3_enc+0x2b>
     af9:	e39c           	beqz.n	a3, b1b <lc3_enc+0x2b>
     afb:	c59c           	beqz.n	a5, b1b <lc3_enc+0x2b>
     afd:	a69c           	beqz.n	a6, b1b <lc3_enc+0x2b>
     aff:	879c           	beqz.n	a7, b1b <lc3_enc+0x2b>
     b01:	109ab2        	l16si	a11, a10, 32
     b04:	c198           	l32i.n	a9, a1, 48
     b06:	8b1b           	addi.n	a8, a11, 1
     b08:	a0bb30        	addx4	a11, a11, a3
     b0b:	fccbb2        	addi	a11, a11, -4

00000b0e <lc3_enc+0x1e>:
     b0e:	880b           	addi.n	a8, a8, -1
     b10:	0918a6        	blti	a8, 1, b1d <lc3_enc+0x2d>
     b13:	0bc8           	l32i.n	a12, a11, 0
     b15:	fccbb2        	addi	a11, a11, -4
     b18:	ff2c56        	bnez	a12, b0e <lc3_enc+0x1e>
     b1b:	f01d           	retw.n

00000b1d <lc3_enc+0x2d>:
     b1d:	820c           	movi.n	a2, 8
     b1f:	20b420        	or	a11, a4, a2
     b22:	881c           	movi.n	a8, 24
     b24:	920c           	movi.n	a2, 9
     b26:	f19b87        	bne	a11, a8, b1b <lc3_enc+0x2b>
     b29:	260a22        	l8ui	a2, a10, 38
     b2c:	03bd           	mov.n	a11, a3
     b2e:	04cd           	mov.n	a12, a4
     b30:	729c           	beqz.n	a2, b4b <lc3_enc+0x5b>
     b32:	0628           	l32i.n	a2, a6, 0
     b34:	05dd           	mov.n	a13, a5
     b36:	07ed           	mov.n	a14, a7
     b38:	821b           	addi.n	a8, a2, 1
     b3a:	62f820        	saltu	a15, a8, a2
     b3d:	fdb921        	l32r	a2, 224 (7e6c <Enc_LC3>)
     b40:	0199           	s32i.n	a9, a1, 0
     b42:	0002e0        	callx8	a2
     b45:	020c           	movi.n	a2, 0
     b47:	06a9           	s32i.n	a10, a6, 0
     b49:	f01d           	retw.n

00000b4b <lc3_enc+0x5b>:
     b4b:	420c           	movi.n	a2, 4
     b4d:	f01d           	retw.n

00000b4f <lc3_enc+0x5f>:
	...

00000b50 <lc3_enc24>:
     b50:	006136        	entry	a1, 48
     b53:	fdb381        	l32r	a8, 220 (af0 <lc3_enc>)
     b56:	8c1c           	movi.n	a12, 24
     b58:	02ad           	mov.n	a10, a2
     b5a:	03bd           	mov.n	a11, a3
     b5c:	04dd           	mov.n	a13, a4
     b5e:	05ed           	mov.n	a14, a5
     b60:	06fd           	mov.n	a15, a6
     b62:	0179           	s32i.n	a7, a1, 0
     b64:	0008e0        	callx8	a8
     b67:	0a2d           	mov.n	a2, a10
     b69:	f01d           	retw.n

00000b6b <lc3_enc24+0x1b>:
	...

00000b6c <lc3_dec16>:
     b6c:	006136        	entry	a1, 48
     b6f:	fdae81        	l32r	a8, 228 (b8c <lc3_dec>)
     b72:	c198           	l32i.n	a9, a1, 48
     b74:	0e1c           	movi.n	a14, 16
     b76:	02ad           	mov.n	a10, a2
     b78:	03bd           	mov.n	a11, a3
     b7a:	04cd           	mov.n	a12, a4
     b7c:	05dd           	mov.n	a13, a5
     b7e:	06fd           	mov.n	a15, a6
     b80:	1199           	s32i.n	a9, a1, 4
     b82:	0179           	s32i.n	a7, a1, 0
     b84:	0008e0        	callx8	a8
     b87:	0a2d           	mov.n	a2, a10
     b89:	f01d           	retw.n

00000b8b <lc3_dec16+0x1f>:
	...

00000b8c <lc3_dec>:
     b8c:	006136        	entry	a1, 48
     b8f:	180c           	movi.n	a8, 1
     b91:	0f0c           	movi.n	a15, 0
     b93:	628380        	saltu	a8, a3, a8
     b96:	62bf40        	saltu	a11, a15, a4
     b99:	02ad           	mov.n	a10, a2
     b9b:	1088b0        	and	a8, a8, a11
     b9e:	e2f9           	s32i.n	a15, a2, 56
     ba0:	88ec           	bnez.n	a8, bcc <lc3_dec+0x40>
     ba2:	65ac           	beqz.n	a5, bcc <lc3_dec+0x40>
     ba4:	47ac           	beqz.n	a7, bcc <lc3_dec+0x40>
     ba6:	820c           	movi.n	a2, 8
     ba8:	881c           	movi.n	a8, 24
     baa:	202620        	or	a2, a6, a2
     bad:	209287        	bne	a2, a8, bd1 <lc3_dec+0x45>
     bb0:	d128           	l32i.n	a2, a1, 52
     bb2:	1129           	s32i.n	a2, a1, 4
     bb4:	fd9e21        	l32r	a2, 22c (3a40 <Dec_LC3>)
     bb7:	c198           	l32i.n	a9, a1, 48
     bb9:	03bd           	mov.n	a11, a3
     bbb:	04cd           	mov.n	a12, a4
     bbd:	05dd           	mov.n	a13, a5
     bbf:	06ed           	mov.n	a14, a6
     bc1:	07fd           	mov.n	a15, a7
     bc3:	0199           	s32i.n	a9, a1, 0
     bc5:	0002e0        	callx8	a2
     bc8:	0a2d           	mov.n	a2, a10
     bca:	f01d           	retw.n

00000bcc <lc3_dec+0x40>:
     bcc:	d20c           	movi.n	a2, 13
     bce:	000046        	j	bd3 <lc3_dec+0x47>

00000bd1 <lc3_dec+0x45>:
     bd1:	920c           	movi.n	a2, 9
     bd3:	ea29           	s32i.n	a2, a10, 56
     bd5:	f01d           	retw.n

00000bd7 <lc3_dec+0x4b>:
	...

00000bd8 <lc3_dec24>:
     bd8:	006136        	entry	a1, 48
     bdb:	fd9381        	l32r	a8, 228 (b8c <lc3_dec>)
     bde:	c198           	l32i.n	a9, a1, 48
     be0:	8e1c           	movi.n	a14, 24
     be2:	02ad           	mov.n	a10, a2
     be4:	03bd           	mov.n	a11, a3
     be6:	04cd           	mov.n	a12, a4
     be8:	05dd           	mov.n	a13, a5
     bea:	06fd           	mov.n	a15, a6
     bec:	1199           	s32i.n	a9, a1, 4
     bee:	0179           	s32i.n	a7, a1, 0
     bf0:	0008e0        	callx8	a8
     bf3:	0a2d           	mov.n	a2, a10
     bf5:	f01d           	retw.n

00000bf7 <lc3_dec24+0x1f>:
	...

00000bf8 <basop_memset>:
     bf8:	004136        	entry	a1, 32
     bfb:	415140        	srli	a5, a4, 1
     bfe:	fec222        	addi	a2, a2, -2
     c01:	758c           	beqz.n	a5, c0c <basop_memset+0x14>
     c03:	300334        	ae_cvtp24a16x2.ll	aep0, a3, a3
     c06:	028576        	loop	a5, c0c <basop_memset+0x14>
     c09:	428214        	ae_sp16f.l.iu	aep0, a2, 2

00000c0c <basop_memset+0x14>:
     c0c:	026407        	bbci	a4, 0, c12 <basop_memset+0x1a>
     c0f:	024232        	s8i	a3, a2, 2

00000c12 <basop_memset+0x1a>:
     c12:	f01d           	retw.n

00000c14 <basop_memmove>:
     c14:	004136        	entry	a1, 32
     c17:	414140        	srli	a4, a4, 1
     c1a:	d48c           	beqz.n	a4, c2b <basop_memmove+0x17>
     c1c:	408304        	ae_lp16f.iu	aep0, a3, 0
     c1f:	fec222        	addi	a2, a2, -2
     c22:	058476        	loop	a4, c2b <basop_memmove+0x17>
     c25:	428214        	ae_sp16f.l.iu	aep0, a2, 2
     c28:	408314        	ae_lp16f.iu	aep0, a3, 2

00000c2b <basop_memmove+0x17>:
     c2b:	f01d           	retw.n

00000c2d <basop_memmove+0x19>:
     c2d:	000000                                        ...

00000c30 <BASOP_Util_Log2>:
     c30:	004136        	entry	a1, 32
     c33:	09c216        	beqz	a2, cd3 <BASOP_Util_Log2+0xa3>
     c36:	40e230        	nsa	a3, a2
     c39:	834d           	ae_sext16	a4, a3
     c3b:	605040        	neg	a5, a4
     c3e:	400500        	ssr	a5
     c41:	b15020        	sra	a5, a2
     c44:	401400        	ssl	a4
     c47:	a16200        	sll	a6, a2
     c4a:	fe7c           	movi.n	a14, -1
     c4c:	a36540        	movltz	a6, a5, a4
     c4f:	4141e0        	srli	a4, a14, 1
     c52:	c04460        	sub	a4, a4, a6
     c55:	f54040        	extui	a4, a4, 16, 16
     c58:	fd4ad1        	l32r	a13, 180 (ba40 <ldCoeff>)
     c5b:	300444        	ae_cvtp24a16x2.ll	aep0, a4, a4
     c5e:	ea0340aaff 	{ movi	a15, 170; ae_mulfs32p16s.ll	aeq1, aep0, aep0 }
     c63:	0d28           	l32i.n	a2, a13, 0
     c65:	099d24        	ae_truncp24q48x2	aep2, aeq1, aeq1
     c68:	0922a4        	ae_truncp16	aep2, aep2
     c6b:	eb0b6d920f 	{ ae_lp16x2f.iu	aep1, a2, 0; ae_mulfs32p16s.ll	aeq3, aep2, aep0 }
     c70:	e820ade21f 	{ ae_lp16x2f.iu	aep6, a2, 4; ae_mulfp24s.hh	aeq0, aep0, aep1 }
     c75:	fade6dc21f 	{ ae_lp16x2f.iu	aep4, a2, 4; ae_truncp24q48x2	aep5, aeq3, aeq3 }
     c7a:	012134        	ae_mulafp24s.ll	aeq0, aep2, aep1
     c7d:	095294        	ae_truncp16	aep1, aep5
     c80:	009074        	ae_mulfs32p16s.ll	aeq2, aep1, aep0
     c83:	011604        	ae_mulafp24s.hh	aeq0, aep1, aep6
     c86:	09ae74        	ae_truncp24q48x2	aep7, aeq2, aeq2
     c89:	097294        	ae_truncp16	aep1, aep7
     c8c:	009874        	ae_mulfs32p16s.ll	aeq3, aep1, aep0
     c8f:	e2c7ade21f 	{ ae_lp16x2f.iu	aep6, a2, 4; ae_mulafp24s.ll	aeq0, aep1, aep6 }
     c94:	09bf34        	ae_truncp24q48x2	aep3, aeq3, aeq3
     c97:	093294        	ae_truncp16	aep1, aep3
     c9a:	009074        	ae_mulfs32p16s.ll	aeq2, aep1, aep0
     c9d:	011404        	ae_mulafp24s.hh	aeq0, aep1, aep4
     ca0:	09ae54        	ae_truncp24q48x2	aep5, aeq2, aeq2
     ca3:	095294        	ae_truncp16	aep1, aep5
     ca6:	009874        	ae_mulfs32p16s.ll	aeq3, aep1, aep0
     ca9:	011434        	ae_mulafp24s.ll	aeq0, aep1, aep4
     cac:	09bf04        	ae_truncp24q48x2	aep0, aeq3, aeq3
     caf:	090284        	ae_truncp16	aep0, aep0
     cb2:	010604        	ae_mulafp24s.hh	aeq0, aep0, aep6
     cb5:	38df52        	addmi	a5, a15, 0x3800
     cb8:	f84258f55f 	{ ae_cvtp24a16x2.ll	aep7, a5, a5; ae_truncp24q48x2	aep1, aeq0, aeq0 }
     cbd:	f8c7fb001f 	{ ae_sraiq56	aeq0, aeq0, 1; ae_truncp16	aep1, aep1 }
     cc2:	021704        	ae_mulap24s.hh	aeq0, aep1, aep7
     cc5:	013370        	slli	a3, a3, 25
     cc8:	368204        	ae_trunca32q48	a2, aeq0
     ccb:	212520        	srai	a2, a2, 5
     cce:	c02230        	sub	a2, a2, a3
     cd1:	f01d           	retw.n

00000cd3 <BASOP_Util_Log2+0xa3>:
     cd3:	f27c           	movi.n	a2, -1
     cd5:	012210        	slli	a2, a2, 31
     cd8:	f01d           	retw.n

00000cda <BASOP_Util_Log2+0xaa>:
	...

00000cdc <BASOP_Util_InvLog2>:
     cdc:	004136        	entry	a1, 32
     cdf:	146c           	movi.n	a4, -31
     ce1:	023d           	mov.n	a3, a2
     ce3:	014470        	slli	a4, a4, 25
     ce6:	020c           	movi.n	a2, 0
     ce8:	02a347        	bge	a3, a4, cee <BASOP_Util_InvLog2+0x12>
     ceb:	002286        	j	d79 <BASOP_Util_InvLog2+0x9d>
     cee:	fd5041        	l32r	a4, 230 (3dffffff <_end+0x3dff4517>)
     cf1:	f27c           	movi.n	a2, -1
     cf3:	412120        	srli	a2, a2, 1
     cf6:	7f2437        	blt	a4, a3, d79 <BASOP_Util_InvLog2+0x9d>
     cf9:	07c316        	beqz	a3, d79 <BASOP_Util_InvLog2+0x9d>
     cfc:	fd2571        	l32r	a7, 190 (ba50 <exp2x_tab_long>)
     cff:	fd22c1        	l32r	a12, 188 (ba48 <exp2_tab_long>)
     d02:	fd22e1        	l32r	a14, 18c (ba4c <exp2w_tab_long>)
     d05:	0778           	l32i.n	a7, a7, 0
     d07:	314930        	srai	a4, a3, 25
     d0a:	f51c           	movi.n	a5, 31
     d0c:	60a040        	neg	a10, a4
     d0f:	448a30        	extui	a8, a3, 10, 5
     d12:	a07870        	addx4	a7, a8, a7
     d15:	c05540        	sub	a5, a5, a4
     d18:	b3a430        	movgez	a10, a4, a3
     d1b:	0c48           	l32i.n	a4, a12, 0
     d1d:	0e88           	l32i.n	a8, a14, 0
     d1f:	060c           	movi.n	a6, 0
     d21:	45d430        	extui	a13, a3, 20, 5
     d24:	44ff30        	extui	a15, a3, 15, 5
     d27:	a04d40        	addx4	a4, a13, a4
     d2a:	726630        	salt	a6, a6, a3
     d2d:	942030        	extui	a2, a3, 0, 10
     d30:	a03f80        	addx4	a3, a15, a8
     d33:	fd4091        	l32r	a9, 234 (16302f <_end+0x157547>)
     d36:	0448           	l32i.n	a4, a4, 0
     d38:	0338           	l32i.n	a3, a3, 0
     d3a:	822290        	mull	a2, a2, a9
     d3d:	07c8           	l32i.n	a12, a7, 0
     d3f:	b2d430        	mulsh	a13, a4, a3
     d42:	823430        	mull	a3, a4, a3
     d45:	93a560        	movnez	a10, a5, a6
     d48:	3b0c           	movi.n	a11, 3
     d4a:	f52020        	extui	a2, a2, 16, 16
     d4d:	053f30        	extui	a3, a3, 31, 1
     d50:	c05ba0        	sub	a5, a11, a10
     d53:	2c2a           	add.n	a2, a12, a2
     d55:	903d30        	addx2	a3, a13, a3
     d58:	401500        	ssl	a5
     d5b:	825320        	mull	a5, a3, a2
     d5e:	b22320        	mulsh	a2, a3, a2
     d61:	05ff50        	extui	a15, a5, 31, 1
     d64:	9022f0        	addx2	a2, a2, a15
     d67:	fdca62        	addi	a6, a10, -3
     d6a:	a13200        	sll	a3, a2
     d6d:	400600        	ssr	a6
     d70:	72eab0        	salt	a14, a10, a11
     d73:	b12020        	sra	a2, a2
     d76:	9323e0        	movnez	a2, a3, a14

00000d79 <BASOP_Util_InvLog2+0x9d>:
     d79:	f01d           	retw.n

00000d7b <BASOP_Util_InvLog2+0x9f>:
	...

00000d7c <Sqrt16>:
     d7c:	004136        	entry	a1, 32
     d7f:	40e240        	nsa	a4, a2
     d82:	f0c462        	addi	a6, a4, -16
     d85:	836220        	moveqz	a6, a2, a2
     d88:	235d           	ae_l16si.n	a5, a3, 0
     d8a:	864d           	ae_sext16	a4, a6
     d8c:	00a496        	bltz	a4, d9a <Sqrt16+0x1e>
     d8f:	401400        	ssl	a4
     d92:	a12200        	sll	a2, a2
     d95:	824d           	ae_sext16	a4, a2
     d97:	000206        	j	da3 <Sqrt16+0x27>

00000d9a <Sqrt16+0x1e>:
     d9a:	604040        	neg	a4, a4
     d9d:	400400        	ssr	a4
     da0:	b14020        	sra	a4, a2
     da3:	c02560        	sub	a2, a5, a6
     da6:	059416        	beqz	a4, e03 <Sqrt16+0x87>
     da9:	fcfa61        	l32r	a6, 194 (ba54 <SqrtTable>)
     dac:	fcfb71        	l32r	a7, 198 (ba58 <SqrtDiffTable>)
     daf:	c0d452        	addmi	a5, a4, 0xffffc000
     db2:	0668           	l32i.n	a6, a6, 0
     db4:	0778           	l32i.n	a7, a7, 0
     db6:	115590        	slli	a5, a5, 7
     db9:	315050        	srai	a5, a5, 16
     dbc:	a06560        	addx4	a6, a5, a6
     dbf:	905570        	addx2	a5, a5, a7
     dc2:	255d           	ae_l16si.n	a5, a5, 0
     dc4:	84d040        	extui	a13, a4, 0, 9
     dc7:	0668           	l32i.n	a6, a6, 0
     dc9:	114df0        	slli	a4, a13, 1
     dcc:	1e0c           	movi.n	a14, 1
     dce:	117e10        	slli	a7, a14, 15
     dd1:	d14450        	mul16s	a4, a4, a5
     dd4:	f67a           	add.n	a15, a6, a7
     dd6:	44fa           	add.n	a4, a4, a15
     dd8:	f54040        	extui	a4, a4, 16, 16
     ddb:	126207        	bbci	a2, 0, df1 <Sqrt16+0x75>
     dde:	82a052        	movi	a5, 130
     de1:	5ad552        	addmi	a5, a5, 0x5a00
     de4:	844d           	ae_sext16	a4, a4
     de6:	d14450        	mul16s	a4, a4, a5
     de9:	40d442        	addmi	a4, a4, 0x4000
     dec:	214f40        	srai	a4, a4, 15
     def:	a44d           	ae_clamps16	a4, a4
     df1:	825d           	ae_sext16	a5, a2
     df3:	f51b           	addi.n	a15, a5, 1
     df5:	842d           	ae_sext16	a2, a4
     df7:	114f20        	slli	a4, a15, 14
     dfa:	214f40        	srai	a4, a4, 15
     dfd:	a44d           	ae_clamps16	a4, a4
     dff:	634d           	ae_s16i.n	a4, a3, 0
     e01:	f01d           	retw.n

00000e03 <Sqrt16+0x87>:
     e03:	040c           	movi.n	a4, 0
     e05:	d5e207        	bbsi	a2, 0, dde <Sqrt16+0x62>
     e08:	fff946        	j	df1 <Sqrt16+0x75>

00000e0b <Sqrt16+0x8f>:
	...

00000e0c <ISqrt16>:
     e0c:	004136        	entry	a1, 32
     e0f:	40e240        	nsa	a4, a2
     e12:	f0c442        	addi	a4, a4, -16
     e15:	236d           	ae_l16si.n	a6, a3, 0
     e17:	834220        	moveqz	a4, a2, a2
     e1a:	845d           	ae_sext16	a5, a4
     e1c:	c04640        	sub	a4, a6, a4
     e1f:	00a596        	bltz	a5, e2d <ISqrt16+0x21>
     e22:	401500        	ssl	a5
     e25:	a12200        	sll	a2, a2
     e28:	822d           	ae_sext16	a2, a2
     e2a:	000206        	j	e36 <ISqrt16+0x2a>

00000e2d <ISqrt16+0x21>:
     e2d:	605050        	neg	a5, a5
     e30:	400500        	ssr	a5
     e33:	b12020        	sra	a2, a2
     e36:	fcd961        	l32r	a6, 19c (ba5c <ISqrtTable>)
     e39:	fcd971        	l32r	a7, 1a0 (ba60 <ISqrtDiffTable>)
     e3c:	c0d252        	addmi	a5, a2, 0xffffc000
     e3f:	0668           	l32i.n	a6, a6, 0
     e41:	0778           	l32i.n	a7, a7, 0
     e43:	115590        	slli	a5, a5, 7
     e46:	315050        	srai	a5, a5, 16
     e49:	a06560        	addx4	a6, a5, a6
     e4c:	905570        	addx2	a5, a5, a7
     e4f:	25bd           	ae_l16si.n	a11, a5, 0
     e51:	06a8           	l32i.n	a10, a6, 0
     e53:	fcf951        	l32r	a5, 238 (9ba0 <msu_r>)
     e56:	84c020        	extui	a12, a2, 0, 9
     e59:	0005e0        	callx8	a5
     e5c:	0a2d           	mov.n	a2, a10
     e5e:	10e407        	bbsi	a4, 0, e72 <ISqrt16+0x66>
     e61:	82a062        	movi	a6, 130
     e64:	5ad662        	addmi	a6, a6, 0x5a00
     e67:	d12260        	mul16s	a2, a2, a6
     e6a:	40d222        	addmi	a2, a2, 0x4000
     e6d:	212f20        	srai	a2, a2, 15
     e70:	a22d           	ae_clamps16	a2, a2
     e72:	1a0c           	movi.n	a10, 1
     e74:	1c0c           	movi.n	a12, 1
     e76:	84bd           	ae_sext16	a11, a4
     e78:	11aa10        	slli	a10, a10, 15
     e7b:	11cc20        	slli	a12, a12, 14
     e7e:	0005e0        	callx8	a5
     e81:	822d           	ae_sext16	a2, a2
     e83:	63ad           	ae_s16i.n	a10, a3, 0
     e85:	f01d           	retw.n

00000e87 <ISqrt16+0x7b>:
	...

00000e88 <Inv16>:
     e88:	004136        	entry	a1, 32
     e8b:	140c           	movi.n	a4, 1
     e8d:	80d442        	addmi	a4, a4, 0xffff8000
     e90:	534240        	max	a4, a2, a4
     e93:	604140        	abs	a4, a4
     e96:	846d           	ae_sext16	a6, a4
     e98:	40e650        	nsa	a5, a6
     e9b:	f0c552        	addi	a5, a5, -16
     e9e:	835440        	moveqz	a5, a4, a4
     ea1:	434d           	ae_l16ui.n	a4, a3, 0
     ea3:	855d           	ae_sext16	a5, a5
     ea5:	00a596        	bltz	a5, eb3 <Inv16+0x2b>
     ea8:	401500        	ssl	a5
     eab:	a16600        	sll	a6, a6
     eae:	866d           	ae_sext16	a6, a6
     eb0:	000206        	j	ebc <Inv16+0x34>

00000eb3 <Inv16+0x2b>:
     eb3:	607050        	neg	a7, a5
     eb6:	400700        	ssr	a7
     eb9:	b16060        	sra	a6, a6
     ebc:	fcba81        	l32r	a8, 1a4 (ba64 <InvTable>)
     ebf:	fcba91        	l32r	a9, 1a8 (ba68 <InvDiffTable>)
     ec2:	c0d672        	addmi	a7, a6, 0xffffc000
     ec5:	0888           	l32i.n	a8, a8, 0
     ec7:	0998           	l32i.n	a9, a9, 0
     ec9:	117790        	slli	a7, a7, 7
     ecc:	317070        	srai	a7, a7, 16
     ecf:	a08780        	addx4	a8, a7, a8
     ed2:	907790        	addx2	a7, a7, a9
     ed5:	84f060        	extui	a15, a6, 0, 9
     ed8:	08a8           	l32i.n	a10, a8, 0
     eda:	27bd           	ae_l16si.n	a11, a7, 0
     edc:	fcd761        	l32r	a6, 238 (9ba0 <msu_r>)
     edf:	11cff0        	slli	a12, a15, 1
     ee2:	0006e0        	callx8	a6
     ee5:	c04540        	sub	a4, a5, a4
     ee8:	60f0a0        	neg	a15, a10
     eeb:	b3fa20        	movgez	a15, a10, a2
     eee:	441b           	addi.n	a4, a4, 1
     ef0:	8f2d           	ae_sext16	a2, a15
     ef2:	634d           	ae_s16i.n	a4, a3, 0
     ef4:	f01d           	retw.n

00000ef6 <Inv16+0x6e>:
	...

00000ef8 <getScaleFactor16>:
     ef8:	004136        	entry	a1, 32
     efb:	fcd041        	l32r	a4, 23c (f0c <getScaleFactor16_0>)
     efe:	02ad           	mov.n	a10, a2
     f00:	03bd           	mov.n	a11, a3
     f02:	0004e0        	callx8	a4
     f05:	3420a0        	extui	a2, a10, 0, 4
     f08:	f01d           	retw.n

00000f0a <getScaleFactor16+0x12>:
	...

00000f0c <getScaleFactor16_0>:
     f0c:	004136        	entry	a1, 32
     f0f:	fc2080034f 	{ movi	a4, 3; ae_zerop48	aep0 }
     f14:	fc20ff00bf 	{ ae_movp48	aep2, aep0; ae_zerop48	aep1 }
     f19:	0e0427        	bnone	a4, a2, f2b <getScaleFactor16_0+0x1f>
     f1c:	422b           	addi.n	a4, a2, 2
     f1e:	409204        	ae_lp16f.iu	aep1, a2, 0
     f21:	d9220ff33e 	{ addi	a3, a3, -1; ae_maxp24s	aep2, aep0, aep1 }
     f26:	d822d3244f 	{ or	a2, a4, a4; ae_minp24s	aep1, aep0, aep1 }

00000f2b <getScaleFactor16_0+0x1f>:
     f2b:	833d           	ae_sext16	a3, a3
     f2d:	44b204        	ae_lp16x2f.iu	aep3, a2, 0
     f30:	0d23a6        	blti	a3, 2, f41 <getScaleFactor16_0+0x35>
     f33:	214130        	srai	a4, a3, 1
     f36:	078476        	loop	a4, f41 <getScaleFactor16_0+0x35>
     f39:	072b24        	ae_maxp24s	aep2, aep2, aep3
     f3c:	d866edb21f 	{ ae_lp16x2f.iu	aep3, a2, 4; ae_minp24s	aep1, aep1, aep3 }

00000f41 <getScaleFactor16_0+0x35>:
     f41:	086307        	bbci	a3, 0, f4d <getScaleFactor16_0+0x41>
     f44:	1ab804        	ae_selp24.hl	aep0, aep3, aep0
     f47:	072824        	ae_maxp24s	aep2, aep2, aep0
     f4a:	071894        	ae_minp24s	aep1, aep1, aep0

00000f4d <getScaleFactor16_0+0x41>:
     f4d:	dd25fe222f 	{ ae_selp24.lh	aep0, aep2, aep2; ae_selp24.lh	aep3, aep1, aep1 }
     f52:	d80a00104f 	{ movi	a4, 16; ae_maxp24s	aep0, aep2, aep0 }
     f57:	d866ff026f 	{ ae_trunca16p24s.l	a2, aep0; ae_minp24s	aep1, aep1, aep3 }
     f5c:	361324        	ae_trunca16p24s.l	a3, aep1
     f5f:	40e250        	nsa	a5, a2
     f62:	40e360        	nsa	a6, a3
     f65:	f0c552        	addi	a5, a5, -16
     f68:	f0c662        	addi	a6, a6, -16
     f6b:	115500        	slli	a5, a5, 16
     f6e:	116600        	slli	a6, a6, 16
     f71:	922d           	ae_zext16	a2, a2
     f73:	315050        	srai	a5, a5, 16
     f76:	933d           	ae_zext16	a3, a3
     f78:	316060        	srai	a6, a6, 16
     f7b:	835420        	moveqz	a5, a4, a2
     f7e:	836430        	moveqz	a6, a4, a3
     f81:	432560        	min	a2, a5, a6
     f84:	f01d           	retw.n

00000f86 <getScaleFactor16_0+0x7a>:
	...

00000f88 <getScaleFactor32_Q>:
     f88:	004136        	entry	a1, 32
     f8b:	0a1084        	ae_zeroq56	aeq0
     f8e:	fd24bf01bf 	{ ae_movq56	aeq2, aeq0; ae_zeroq56	aeq1 }
     f93:	0d13a6        	blti	a3, 1, fa4 <getScaleFactor32_Q+0x1c>
     f96:	60d204        	ae_lq32f.iu	aeq3, a2, 0
     f99:	078376        	loop	a3, fa4 <getScaleFactor32_Q+0x1c>
     f9c:	01b2c4        	ae_maxq56s	aeq2, aeq2, aeq3
     f9f:	f91ebd721f 	{ ae_lq32f.iu	aeq3, a2, 4; ae_minq56s	aeq1, aeq1, aeq3 }

00000fa4 <getScaleFactor32_Q+0x1c>:
     fa4:	d4c03f22af 	{ ae_nsaq56s	a2, aeq2; ae_eqq56	b0, aeq2, aeq0 }
     fa9:	365404        	ae_nsaq56s	a4, aeq1
     fac:	032c           	movi.n	a3, 32
     fae:	f8c222        	addi	a2, a2, -8
     fb1:	112200        	slli	a2, a2, 16
     fb4:	312020        	srai	a2, a2, 16
     fb7:	f8c442        	addi	a4, a4, -8
     fba:	d44416230f 	{ movt	a2, a3, b0; ae_eqq56	b0, aeq1, aeq0 }
     fbf:	114400        	slli	a4, a4, 16
     fc2:	314040        	srai	a4, a4, 16
     fc5:	d34300        	movt	a4, a3, b0
     fc8:	432240        	min	a2, a2, a4
     fcb:	442020        	extui	a2, a2, 0, 5
     fce:	f01d           	retw.n

00000fd0 <getScaleFactor32_0>:
     fd0:	004136        	entry	a1, 32
     fd3:	fc20efb20f 	{ ae_lp24x2f.iu	aep3, a2, 0; ae_zerop48	aep1 }
     fd8:	fc20bf10bf 	{ ae_movp48	aep2, aep1; ae_zerop48	aep0 }
     fdd:	0f23a6        	blti	a3, 2, ff0 <getScaleFactor32_0+0x20>
     fe0:	214130        	srai	a4, a3, 1
     fe3:	f03d           	nop.n
     fe5:	078476        	loop	a4, ff0 <getScaleFactor32_0+0x20>
     fe8:	072b24        	ae_maxp24s	aep2, aep2, aep3
     feb:	d862afb21f 	{ ae_lp24x2f.iu	aep3, a2, 8; ae_minp24s	aep0, aep0, aep3 }

00000ff0 <getScaleFactor32_0+0x20>:
     ff0:	086307        	bbci	a3, 0, ffc <getScaleFactor32_0+0x2c>
     ff3:	1ab914        	ae_selp24.hl	aep1, aep3, aep1
     ff6:	072924        	ae_maxp24s	aep2, aep2, aep1
     ff9:	070984        	ae_minp24s	aep0, aep0, aep1

00000ffc <getScaleFactor32_0+0x2c>:
     ffc:	df01fe226f 	{ ae_selp24.lh	aep1, aep2, aep2; ae_selp24.lh	aep7, aep0, aep0 }
    1001:	d82a40203f 	{ movi	a3, 32; ae_maxp24s	aep1, aep2, aep1 }
    1006:	d8e2bf125f 	{ ae_cvta32p24.l	a2, aep1; ae_minp24s	aep0, aep0, aep7 }
    100b:	0004d4        	ae_cvta32p24.l	a4, aep0
    100e:	40e250        	nsa	a5, a2
    1011:	855d           	ae_sext16	a5, a5
    1013:	40e4f0        	nsa	a15, a4
    1016:	835320        	moveqz	a5, a3, a2
    1019:	8f2d           	ae_sext16	a2, a15
    101b:	832340        	moveqz	a2, a3, a4
    101e:	432520        	min	a2, a5, a2
    1021:	442020        	extui	a2, a2, 0, 5
    1024:	f01d           	retw.n

00001026 <getScaleFactor32_0+0x56>:
	...

00001028 <BASOP_Util_Divide3216_Scale>:
    1028:	006136        	entry	a1, 48
    102b:	050216        	beqz	a2, 107f <BASOP_Util_Divide3216_Scale+0x57>
    102e:	fc8461        	l32r	a6, 240 (80000001 <_end+0x7fff4519>)
    1031:	170c           	movi.n	a7, 1
    1033:	f55020        	extui	a5, a2, 16, 16
    1036:	53c260        	max	a12, a2, a6
    1039:	60e1c0        	abs	a14, a12
    103c:	40ee20        	nsa	a2, a14
    103f:	80d772        	addmi	a7, a7, 0xffff8000
    1042:	832ee0        	moveqz	a2, a14, a14
    1045:	53d370        	max	a13, a3, a7
    1048:	220b           	addi.n	a2, a2, -1
    104a:	305530        	xor	a5, a5, a3
    104d:	6031d0        	abs	a3, a13
    1050:	836d           	ae_sext16	a6, a3
    1052:	822d           	ae_sext16	a2, a2
    1054:	40e680        	nsa	a8, a6
    1057:	609020        	neg	a9, a2
    105a:	f0c882        	addi	a8, a8, -16
    105d:	400900        	ssr	a9
    1060:	838330        	moveqz	a8, a3, a3
    1063:	b1f0e0        	sra	a15, a14
    1066:	401200        	ssl	a2
    1069:	a17e00        	sll	a7, a14
    106c:	883d           	ae_sext16	a3, a8
    106e:	a37f20        	movltz	a7, a15, a2
    1071:	012396        	bltz	a3, 1087 <BASOP_Util_Divide3216_Scale+0x5f>
    1074:	401300        	ssl	a3
    1077:	a16600        	sll	a6, a6
    107a:	866d           	ae_sext16	a6, a6
    107c:	000406        	j	1090 <BASOP_Util_Divide3216_Scale+0x68>

0000107f <BASOP_Util_Divide3216_Scale+0x57>:
    107f:	030c           	movi.n	a3, 0
    1081:	020c           	movi.n	a2, 0
    1083:	643d           	ae_s16i.n	a3, a4, 0
    1085:	f01d           	retw.n

00001087 <BASOP_Util_Divide3216_Scale+0x5f>:
    1087:	608030        	neg	a8, a3
    108a:	400800        	ssr	a8
    108d:	b16060        	sra	a6, a6
    1090:	360734        	ae_cvtq48a32s	aeq0, a7
    1093:	f86395232f 	{ sub	a2, a3, a2; ae_roundsp16q48asym	aep0, aeq0 }
    1098:	420164        	ae_sp16f.l.i	aep0, a1, 12
    109b:	061172        	l16ui	a7, a1, 12
    109e:	968d           	ae_zext16	a8, a6
    10a0:	855d           	ae_sext16	a5, a5
    10a2:	642d           	ae_s16i.n	a2, a4, 0
    10a4:	089787        	bne	a7, a8, 10b0 <BASOP_Util_Divide3216_Scale+0x88>
    10a7:	ffa022        	movi	a2, 255
    10aa:	7fd222        	addmi	a2, a2, 0x7f00
    10ad:	0001c6        	j	10b8 <BASOP_Util_Divide3216_Scale+0x90>

000010b0 <BASOP_Util_Divide3216_Scale+0x88>:
    10b0:	872d           	ae_sext16	a2, a7
    10b2:	112210        	slli	a2, a2, 15
    10b5:	d22260        	quos	a2, a2, a6
    10b8:	603020        	neg	a3, a2
    10bb:	b33250        	movgez	a3, a2, a5
    10be:	832d           	ae_sext16	a2, a3
    10c0:	f01d           	retw.n

000010c2 <BASOP_Util_Divide3216_Scale+0x9a>:
	...

000010c4 <BASOP_Util_Divide1616_Scale>:
    10c4:	004136        	entry	a1, 32
    10c7:	f67c           	movi.n	a6, -1
    10c9:	605120        	abs	a5, a2
    10cc:	f46060        	extui	a6, a6, 0, 16
    10cf:	1a0657        	bnone	a6, a5, 10ed <BASOP_Util_Divide1616_Scale+0x29>
    10d2:	855d           	ae_sext16	a5, a5
    10d4:	40e570        	nsa	a7, a5
    10d7:	f0c762        	addi	a6, a7, -16
    10da:	868d           	ae_sext16	a8, a6
    10dc:	606130        	abs	a6, a3
    10df:	012896        	bltz	a8, 10f5 <BASOP_Util_Divide1616_Scale+0x31>
    10e2:	401800        	ssl	a8
    10e5:	a15500        	sll	a5, a5
    10e8:	855d           	ae_sext16	a5, a5
    10ea:	000406        	j	10fe <BASOP_Util_Divide1616_Scale+0x3a>

000010ed <BASOP_Util_Divide1616_Scale+0x29>:
    10ed:	030c           	movi.n	a3, 0
    10ef:	020c           	movi.n	a2, 0
    10f1:	643d           	ae_s16i.n	a3, a4, 0
    10f3:	f01d           	retw.n

000010f5 <BASOP_Util_Divide1616_Scale+0x31>:
    10f5:	608080        	neg	a8, a8
    10f8:	400800        	ssr	a8
    10fb:	b15050        	sra	a5, a5
    10fe:	868d           	ae_sext16	a8, a6
    1100:	191c           	movi.n	a9, 17
    1102:	40e8f0        	nsa	a15, a8
    1105:	c07970        	sub	a7, a9, a7
    1108:	f0cf92        	addi	a9, a15, -16
    110b:	839660        	moveqz	a9, a6, a6
    110e:	896d           	ae_sext16	a6, a9
    1110:	215150        	srai	a5, a5, 1
    1113:	647d           	ae_s16i.n	a7, a4, 0
    1115:	00a696        	bltz	a6, 1123 <BASOP_Util_Divide1616_Scale+0x5f>
    1118:	401600        	ssl	a6
    111b:	a18800        	sll	a8, a8
    111e:	888d           	ae_sext16	a8, a8
    1120:	000206        	j	112c <BASOP_Util_Divide1616_Scale+0x68>

00001123 <BASOP_Util_Divide1616_Scale+0x5f>:
    1123:	609060        	neg	a9, a6
    1126:	400900        	ssr	a9
    1129:	b18080        	sra	a8, a8
    112c:	f67a           	add.n	a15, a6, a7
    112e:	302320        	xor	a2, a3, a2
    1131:	64fd           	ae_s16i.n	a15, a4, 0
    1133:	089587        	bne	a5, a8, 113f <BASOP_Util_Divide1616_Scale+0x7b>
    1136:	ffa032        	movi	a3, 255
    1139:	7fd332        	addmi	a3, a3, 0x7f00
    113c:	000146        	j	1145 <BASOP_Util_Divide1616_Scale+0x81>

0000113f <BASOP_Util_Divide1616_Scale+0x7b>:
    113f:	113510        	slli	a3, a5, 15
    1142:	d23380        	quos	a3, a3, a8
    1145:	604030        	neg	a4, a3
    1148:	b34320        	movgez	a4, a3, a2
    114b:	842d           	ae_sext16	a2, a4
    114d:	f01d           	retw.n

0000114f <BASOP_Util_Divide1616_Scale+0x8b>:
	...

00001150 <Norm32Norm>:
    1150:	006136        	entry	a1, 48
    1153:	fc24bd520f 	{ ae_lq32f.iu	aeq2, a2, 0; ae_zeroq56	aeq0 }
    1158:	0a5084        	ae_zeroq56	aeq1
    115b:	1d24a6        	blti	a4, 2, 117c <Norm32Norm+0x2c>
    115e:	216140        	srai	a6, a4, 1
    1161:	178676        	loop	a6, 117c <Norm32Norm+0x2c>
    1164:	60d214        	ae_lq32f.iu	aeq3, a2, 4
    1167:	fc24fea38f 	{ ae_slaasq56s	aeq2, aeq2, a3; nop }
    116c:	f877beb3cf 	{ ae_slaasq56s	aeq3, aeq3, a3; ae_roundsp24q48asym	aep0, aeq2 }
    1171:	e4027d521f 	{ ae_lq32f.iu	aeq2, a2, 4; ae_mulap24s.hh	aeq1, aep0, aep0 }
    1176:	1bbd74        	ae_roundsp24q48asym	aep7, aeq3
    1179:	027f04        	ae_mulap24s.hh	aeq1, aep7, aep7

0000117c <Norm32Norm+0x2c>:
    117c:	0a6407        	bbci	a4, 0, 118a <Norm32Norm+0x3a>
    117f:	fc24fea38f 	{ ae_slaasq56s	aeq2, aeq2, a3; nop }
    1184:	1bad04        	ae_roundsp24q48asym	aep0, aeq2
    1187:	020804        	ae_mulap24s.hh	aeq1, aep0, aep0

0000118a <Norm32Norm+0x3a>:
    118a:	d4443f12af 	{ ae_nsaq56s	a2, aeq1; ae_eqq56	b0, aeq1, aeq0 }
    118f:	a70c           	movi.n	a7, 10
    1191:	160c           	movi.n	a6, 1
    1193:	c02720        	sub	a2, a7, a2
    1196:	217120        	srai	a7, a2, 1
    1199:	d37600        	movt	a7, a6, b0
    119c:	11f7f0        	slli	a15, a7, 1
    119f:	34dfb4        	ae_sraaq56	aeq3, aeq1, a15
    11a2:	36b204        	ae_trunca32q48	a2, aeq3
    11a5:	c03370        	sub	a3, a3, a7
    11a8:	40e470        	nsa	a7, a4
    11ab:	429c           	beqz.n	a2, 11c3 <Norm32Norm+0x73>
    11ad:	f0c772        	addi	a7, a7, -16
    11b0:	837440        	moveqz	a7, a4, a4
    11b3:	877d           	ae_sext16	a7, a7
    11b5:	00f796        	bltz	a7, 11c8 <Norm32Norm+0x78>
    11b8:	401700        	ssl	a7
    11bb:	a14400        	sll	a4, a4
    11be:	844d           	ae_sext16	a4, a4
    11c0:	000346        	j	11d1 <Norm32Norm+0x81>

000011c3 <Norm32Norm+0x73>:
    11c3:	020c           	movi.n	a2, 0
    11c5:	001146        	j	120e <Norm32Norm+0xbe>

000011c8 <Norm32Norm+0x78>:
    11c8:	608070        	neg	a8, a7
    11cb:	400800        	ssr	a8
    11ce:	b14040        	sra	a4, a4
    11d1:	d87c           	movi.n	a8, -3
    11d3:	f48080        	extui	a8, a8, 0, 16
    11d6:	f90c           	movi.n	a9, 15
    11d8:	c07970        	sub	a7, a9, a7
    11db:	82c480        	mull	a12, a4, a8
    11de:	877d           	ae_sext16	a7, a7
    11e0:	b2d480        	mulsh	a13, a4, a8
    11e3:	419fc0        	srli	a9, a12, 15
    11e6:	60e070        	neg	a14, a7
    11e9:	400e00        	ssr	a14
    11ec:	1bed90        	depbits	a9, a13, 17, 15
    11ef:	b14090        	sra	a4, a9
    11f2:	401700        	ssl	a7
    11f5:	a19900        	sll	a9, a9
    11f8:	a39470        	movltz	a9, a4, a7
    11fb:	3129           	s32i.n	a2, a1, 12
    11fd:	2199           	s32i.n	a9, a1, 8
    11ff:	600134        	ae_lq32f.i	aeq0, a1, 12
    1202:	604124        	ae_lq32f.i	aeq1, a1, 8
    1205:	060904        	ae_addsq56s	aeq0, aeq0, aeq1
    1208:	060844        	ae_satq48s	aeq0, aeq0
    120b:	368204        	ae_trunca32q48	a2, aeq0
    120e:	1133f0        	slli	a3, a3, 1
    1211:	c03630        	sub	a3, a6, a3
    1214:	653d           	ae_s16i.n	a3, a5, 0
    1216:	f01d           	retw.n

00001218 <Scale_sig>:
    1218:	004136        	entry	a1, 32
    121b:	360c           	movi.n	a6, 3
    121d:	945d           	ae_zext16	a5, a4
    121f:	1c0627        	bnone	a6, a2, 123f <Scale_sig+0x27>
    1222:	1214a6        	blti	a4, 1, 1238 <Scale_sig+0x20>
    1225:	f60c           	movi.n	a6, 15
    1227:	227d           	ae_l16si.n	a7, a2, 0
    1229:	436560        	min	a6, a5, a6
    122c:	401600        	ssl	a6
    122f:	a1a700        	sll	a10, a7

00001232 <Scale_sig+0x1a>:
    1232:	62ad           	ae_s16i.n	a10, a2, 0
    1234:	0000c6        	j	123b <Scale_sig+0x23>

00001237 <Scale_sig+0x1f>:
	...

00001238 <Scale_sig+0x20>:
    1238:	06a496        	bltz	a4, 12a6 <Scale_sig+0x8e>
    123b:	222b           	addi.n	a2, a2, 2
    123d:	330b           	addi.n	a3, a3, -1
    123f:	2914a6        	blti	a4, 1, 126c <Scale_sig+0x54>
    1242:	f60c           	movi.n	a6, 15
    1244:	436560        	min	a6, a5, a6
    1247:	835d           	ae_sext16	a5, a3
    1249:	448204        	ae_lp16x2f.iu	aep0, a2, 0
    124c:	031664        	wur.ae_sar	a6
    124f:	0d25a6        	blti	a5, 2, 1260 <Scale_sig+0x48>
    1252:	216150        	srai	a6, a5, 1
    1255:	078676        	loop	a6, 1260 <Scale_sig+0x48>
    1258:	f823ed821f 	{ ae_lp16x2f.iu	aep0, a2, 4; ae_sllssp24s	aep1, aep0 }
    125d:	4612f4        	ae_sp16x2f.i	aep1, a2, -4

00001260 <Scale_sig+0x48>:
    1260:	086507        	bbci	a5, 0, 126c <Scale_sig+0x54>
    1263:	0b0084        	ae_sllssp24s	aep0, aep0
    1266:	1a8084        	ae_selp24.lh	aep0, aep0, aep0
    1269:	420204        	ae_sp16f.l.i	aep0, a2, 0

0000126c <Scale_sig+0x54>:
    126c:	001496        	bltz	a4, 1271 <Scale_sig+0x59>
    126f:	f01d           	retw.n

00001271 <Scale_sig+0x59>:
    1271:	157c           	movi.n	a5, -15
    1273:	534450        	max	a4, a4, a5
    1276:	604040        	neg	a4, a4
    1279:	833d           	ae_sext16	a3, a3
    127b:	448204        	ae_lp16x2f.iu	aep0, a2, 0
    127e:	031644        	wur.ae_sar	a4
    1281:	1023a6        	blti	a3, 2, 1295 <Scale_sig+0x7d>
    1284:	214130        	srai	a4, a3, 1
    1287:	0a8476        	loop	a4, 1295 <Scale_sig+0x7d>
    128a:	f8a3ed821f 	{ ae_lp16x2f.iu	aep0, a2, 4; ae_srasp24	aep1, aep0 }
    128f:	091194        	ae_roundsp16asym	aep1, aep1
    1292:	4612f4        	ae_sp16x2f.i	aep1, a2, -4

00001295 <Scale_sig+0x7d>:
    1295:	d66307        	bbci	a3, 0, 126f <Scale_sig+0x57>
    1298:	0b0384        	ae_srasp24	aep0, aep0
    129b:	090184        	ae_roundsp16asym	aep0, aep0
    129e:	1a8084        	ae_selp24.lh	aep0, aep0, aep0
    12a1:	420204        	ae_sp16f.l.i	aep0, a2, 0
    12a4:	f01d           	retw.n

000012a6 <Scale_sig+0x8e>:
    12a6:	167c           	movi.n	a6, -15
    12a8:	536460        	max	a6, a4, a6
    12ab:	f77c           	movi.n	a7, -1
    12ad:	606060        	neg	a6, a6
    12b0:	400600        	ssr	a6
    12b3:	117710        	slli	a7, a7, 15
    12b6:	22bd           	ae_l16si.n	a11, a2, 0
    12b8:	fbe061        	l32r	a6, 238 (9ba0 <msu_r>)
    12bb:	b1c070        	sra	a12, a7
    12be:	0a0c           	movi.n	a10, 0
    12c0:	0006e0        	callx8	a6
    12c3:	ffdac6        	j	1232 <Scale_sig+0x1a>

000012c6 <Scale_sig+0xae>:
	...

000012c8 <Copy_Scale_sig>:
    12c8:	004136        	entry	a1, 32
    12cb:	ffaf62        	movi	a6, -1
    12ce:	416160        	srli	a6, a6, 1
    12d1:	110647        	bnone	a6, a4, 12e6 <Copy_Scale_sig+0x1e>
    12d4:	107460        	and	a7, a4, a6
    12d7:	408204        	ae_lp16f.iu	aep0, a2, 0
    12da:	fec362        	addi	a6, a3, -2
    12dd:	058776        	loop	a7, 12e6 <Copy_Scale_sig+0x1e>
    12e0:	428614        	ae_sp16f.l.iu	aep0, a6, 2
    12e3:	408214        	ae_lp16f.iu	aep0, a2, 2

000012e6 <Copy_Scale_sig+0x1e>:
    12e6:	a58c           	beqz.n	a5, 12f4 <Copy_Scale_sig+0x2c>
    12e8:	fbd721        	l32r	a2, 244 (1218 <Scale_sig>)
    12eb:	03ad           	mov.n	a10, a3
    12ed:	04bd           	mov.n	a11, a4
    12ef:	05cd           	mov.n	a12, a5
    12f1:	0002e0        	callx8	a2

000012f4 <Copy_Scale_sig+0x2c>:
    12f4:	f01d           	retw.n

000012f6 <Copy_Scale_sig+0x2e>:
	...

000012f8 <BASOP_Util_Add_Mant32Exp>:
    12f8:	004136        	entry	a1, 32
    12fb:	833520        	moveqz	a3, a5, a2
    12fe:	835340        	moveqz	a5, a3, a4
    1301:	c08350        	sub	a8, a3, a5
    1304:	176c           	movi.n	a7, -31
    1306:	888d           	ae_sext16	a8, a8
    1308:	537780        	max	a7, a7, a8
    130b:	fe1c           	movi.n	a14, 31
    130d:	438e70        	min	a8, a14, a7
    1310:	ff7c           	movi.n	a15, -1
    1312:	f470f0        	extui	a7, a15, 0, 16
    1315:	00b896        	bltz	a8, 1324 <BASOP_Util_Add_Mant32Exp+0x2c>
    1318:	110787        	bnone	a7, a8, 132d <BASOP_Util_Add_Mant32Exp+0x35>
    131b:	400800        	ssr	a8
    131e:	b14040        	sra	a4, a4
    1321:	000206        	j	132d <BASOP_Util_Add_Mant32Exp+0x35>

00001324 <BASOP_Util_Add_Mant32Exp+0x2c>:
    1324:	608080        	neg	a8, a8
    1327:	400800        	ssr	a8
    132a:	b12020        	sra	a2, a2
    132d:	212120        	srai	a2, a2, 1
    1330:	21f140        	srai	a15, a4, 1
    1333:	2f2a           	add.n	a2, a15, a2
    1335:	535350        	max	a5, a3, a5
    1338:	40e230        	nsa	a3, a2
    133b:	833220        	moveqz	a3, a2, a2
    133e:	451b           	addi.n	a4, a5, 1
    1340:	130737        	bnone	a7, a3, 1357 <BASOP_Util_Add_Mant32Exp+0x5f>
    1343:	835d           	ae_sext16	a5, a3
    1345:	607050        	neg	a7, a5
    1348:	400700        	ssr	a7
    134b:	b17020        	sra	a7, a2
    134e:	401500        	ssl	a5
    1351:	a12200        	sll	a2, a2
    1354:	a32750        	movltz	a2, a7, a5
    1357:	c03430        	sub	a3, a4, a3
    135a:	833220        	moveqz	a3, a2, a2
    135d:	663d           	ae_s16i.n	a3, a6, 0
    135f:	f01d           	retw.n

00001361 <BASOP_Util_Add_Mant32Exp+0x69>:
    1361:	000000                                        ...

00001364 <BASOP_Util_Cmp_Mant32Exp>:
    1364:	004136        	entry	a1, 32
    1367:	f77c           	movi.n	a7, -1
    1369:	026d           	mov.n	a6, a2
    136b:	40e220        	nsa	a2, a2
    136e:	f47070        	extui	a7, a7, 0, 16
    1371:	832660        	moveqz	a2, a6, a6
    1374:	160727        	bnone	a7, a2, 138e <BASOP_Util_Cmp_Mant32Exp+0x2a>
    1377:	828d           	ae_sext16	a8, a2
    1379:	60f080        	neg	a15, a8
    137c:	400f00        	ssr	a15
    137f:	c03320        	sub	a3, a3, a2
    1382:	b12060        	sra	a2, a6
    1385:	401800        	ssl	a8
    1388:	a16600        	sll	a6, a6
    138b:	a36280        	movltz	a6, a2, a8

0000138e <BASOP_Util_Cmp_Mant32Exp+0x2a>:
    138e:	40e420        	nsa	a2, a4
    1391:	832440        	moveqz	a2, a4, a4
    1394:	160727        	bnone	a7, a2, 13ae <BASOP_Util_Cmp_Mant32Exp+0x4a>
    1397:	828d           	ae_sext16	a8, a2
    1399:	60f080        	neg	a15, a8
    139c:	400f00        	ssr	a15
    139f:	c05520        	sub	a5, a5, a2
    13a2:	b12040        	sra	a2, a4
    13a5:	401800        	ssl	a8
    13a8:	a14400        	sll	a4, a4
    13ab:	a34280        	movltz	a4, a2, a8
    13ae:	833560        	moveqz	a3, a5, a6
    13b1:	020c           	movi.n	a2, 0
    13b3:	090c           	movi.n	a9, 0
    13b5:	03ad           	mov.n	a10, a3
    13b7:	24ac           	beqz.n	a4, 13dd <BASOP_Util_Cmp_Mant32Exp+0x79>
    13b9:	059f40        	extui	a9, a4, 31, 1
    13bc:	0416a6        	blti	a6, 1, 13c4 <BASOP_Util_Cmp_Mant32Exp+0x60>
    13bf:	180c           	movi.n	a8, 1
    13c1:	00b496        	bltz	a4, 13d0 <BASOP_Util_Cmp_Mant32Exp+0x6c>
    13c4:	05ad           	mov.n	a10, a5
    13c6:	0136d6        	bgez	a6, 13dd <BASOP_Util_Cmp_Mant32Exp+0x79>
    13c9:	f87c           	movi.n	a8, -1
    13cb:	05ad           	mov.n	a10, a5
    13cd:	0c14a6        	blti	a4, 1, 13dd <BASOP_Util_Cmp_Mant32Exp+0x79>
    13d0:	c03350        	sub	a3, a3, a5
    13d3:	120c           	movi.n	a2, 1
    13d5:	935d           	ae_zext16	a5, a3
    13d7:	625520        	saltu	a5, a5, a2
    13da:	000586        	j	13f4 <BASOP_Util_Cmp_Mant32Exp+0x90>

000013dd <BASOP_Util_Cmp_Mant32Exp+0x79>:
    13dd:	c033a0        	sub	a3, a3, a10
    13e0:	c08640        	sub	a8, a6, a4
    13e3:	150c           	movi.n	a5, 1
    13e5:	93ad           	ae_zext16	a10, a3
    13e7:	625a50        	saltu	a5, a10, a5
    13ea:	68cc           	bnez.n	a8, 13f4 <BASOP_Util_Cmp_Mant32Exp+0x90>
    13ec:	fa7c           	movi.n	a10, -1
    13ee:	f4a0a0        	extui	a10, a10, 0, 16
    13f1:	380a37        	bnone	a10, a3, 142d <BASOP_Util_Cmp_Mant32Exp+0xc9>
    13f4:	01e696        	bltz	a6, 1416 <BASOP_Util_Cmp_Mant32Exp+0xb2>
    13f7:	120c           	movi.n	a2, 1
    13f9:	09cc           	bnez.n	a9, 13fd <BASOP_Util_Cmp_Mant32Exp+0x99>
    13fb:	f27c           	movi.n	a2, -1
    13fd:	02c496        	bltz	a4, 142d <BASOP_Util_Cmp_Mant32Exp+0xc9>
    1400:	833d           	ae_sext16	a3, a3
    1402:	040c           	movi.n	a4, 0
    1404:	160c           	movi.n	a6, 1
    1406:	458c           	beqz.n	a5, 140e <BASOP_Util_Cmp_Mant32Exp+0xaa>
    1408:	725480        	salt	a5, a4, a8
    140b:	932650        	movnez	a2, a6, a5
    140e:	723430        	salt	a3, a4, a3
    1411:	932630        	movnez	a2, a6, a3
    1414:	f01d           	retw.n

00001416 <BASOP_Util_Cmp_Mant32Exp+0xb2>:
    1416:	072d           	mov.n	a2, a7
    1418:	199c           	beqz.n	a9, 142d <BASOP_Util_Cmp_Mant32Exp+0xc9>
    141a:	833d           	ae_sext16	a3, a3
    141c:	f47c           	movi.n	a4, -1
    141e:	658c           	beqz.n	a5, 1428 <BASOP_Util_Cmp_Mant32Exp+0xc4>
    1420:	020c           	movi.n	a2, 0
    1422:	722280        	salt	a2, a2, a8
    1425:	904240        	addx2	a4, a2, a4
    1428:	120c           	movi.n	a2, 1
    142a:	b32430        	movgez	a2, a4, a3
    142d:	822d           	ae_sext16	a2, a2
    142f:	f01d           	retw.n

00001431 <BASOP_Util_Cmp_Mant32Exp+0xcd>:
    1431:	000000                                        ...

00001434 <Isqrt>:
    1434:	004136        	entry	a1, 32
    1437:	5512a6        	blti	a2, 1, 1490 <Isqrt+0x5c>
    143a:	fb6041        	l32r	a4, 1bc (bab8 <isqrt_table>)
    143d:	656720        	extui	a6, a2, 23, 7
    1440:	e4e820        	extui	a14, a2, 8, 15
    1443:	0448           	l32i.n	a4, a4, 0
    1445:	435d           	ae_l16ui.n	a5, a3, 0
    1447:	a04640        	addx4	a4, a6, a4
    144a:	1468           	l32i.n	a6, a4, 4
    144c:	0478           	l32i.n	a7, a4, 0
    144e:	854d           	ae_sext16	a4, a5
    1450:	82a092        	movi	a9, 130
    1453:	c06670        	sub	a6, a6, a7
    1456:	8286e0        	mull	a8, a6, a14
    1459:	b226e0        	mulsh	a2, a6, a14
    145c:	41ff80        	srli	a15, a8, 15
    145f:	1be2f0        	depbits	a15, a2, 17, 15
    1462:	27fa           	add.n	a2, a7, a15
    1464:	176507        	bbci	a5, 0, 147f <Isqrt+0x4b>
    1467:	5ad962        	addmi	a6, a9, 0x5a00
    146a:	82e260        	mull	a14, a2, a6
    146d:	045050        	extui	a5, a5, 0, 1
    1470:	b2f260        	mulsh	a15, a2, a6
    1473:	401500        	ssl	a5
    1476:	415fe0        	srli	a5, a14, 15
    1479:	1bef50        	depbits	a5, a15, 17, 15
    147c:	a12500        	sll	a2, a5

0000147f <Isqrt+0x4b>:
    147f:	150c           	movi.n	a5, 1
    1481:	115500        	slli	a5, a5, 16
    1484:	114410        	slli	a4, a4, 15
    1487:	c04540        	sub	a4, a5, a4
    148a:	f54040        	extui	a4, a4, 16, 16
    148d:	000186        	j	1497 <Isqrt+0x63>

00001490 <Isqrt+0x5c>:
    1490:	f27c           	movi.n	a2, -1
    1492:	412120        	srli	a2, a2, 1
    1495:	040c           	movi.n	a4, 0
    1497:	634d           	ae_s16i.n	a4, a3, 0
    1499:	f01d           	retw.n

0000149b <Isqrt+0x67>:
	...

0000149c <BASOP_Util_Log2_16>:
    149c:	006136        	entry	a1, 48
    149f:	063216        	beqz	a2, 1506 <BASOP_Util_Log2_16+0x6a>
    14a2:	360234        	ae_cvtq48a32s	aeq0, a2
    14a5:	364604        	ae_nsaq56s	a6, aeq0
    14a8:	dfaf42        	movi	a4, -33
    14ab:	114410        	slli	a4, a4, 15
    14ae:	eec662        	addi	a6, a6, -18
    14b1:	116600        	slli	a6, a6, 16
    14b4:	316060        	srai	a6, a6, 16
    14b7:	fc24fe860f 	{ ae_slaasq56s	aeq0, aeq0, a6; nop }
    14bc:	364434        	ae_cvtq48a32s	aeq1, a4
    14bf:	fb41b1        	l32r	a11, 1c4 (bac0 <Log2_16_table2>)
    14c2:	f9660fffaf 	{ movi	a10, -1; ae_addq56	aeq1, aeq0, aeq1 }
    14c7:	fb3e51        	l32r	a5, 1c0 (babc <Log2_16_table1>)
    14ca:	f86bb00b4e 	{ l32i	a4, a11, 0; ae_roundsp16q48asym	aep0, aeq1 }
    14cf:	420164        	ae_sp16f.l.i	aep0, a1, 12
    14d2:	3026a0        	xor	a2, a6, a10
    14d5:	069162        	l16si	a6, a1, 12
    14d8:	0558           	l32i.n	a5, a5, 0
    14da:	368d04        	ae_trunca32q48	a13, aeq0
    14dd:	904640        	addx2	a4, a6, a4
    14e0:	a05650        	addx4	a5, a6, a5
    14e3:	244d           	ae_l16si.n	a4, a4, 0
    14e5:	223a           	add.n	a2, a2, a3
    14e7:	9436d0        	extui	a3, a13, 6, 10
    14ea:	0558           	l32i.n	a5, a5, 0
    14ec:	1133f0        	slli	a3, a3, 1
    14ef:	1e0c           	movi.n	a14, 1
    14f1:	116e10        	slli	a6, a14, 15
    14f4:	d13340        	mul16s	a3, a3, a4
    14f7:	f56a           	add.n	a15, a5, a6
    14f9:	33fa           	add.n	a3, a3, a15
    14fb:	112270        	slli	a2, a2, 9
    14fe:	f53030        	extui	a3, a3, 16, 16
    1501:	223a           	add.n	a2, a2, a3
    1503:	000106        	j	150b <BASOP_Util_Log2_16+0x6f>

00001506 <BASOP_Util_Log2_16+0x6a>:
    1506:	120c           	movi.n	a2, 1
    1508:	112210        	slli	a2, a2, 15
    150b:	822d           	ae_sext16	a2, a2
    150d:	f01d           	retw.n

0000150f <BASOP_Util_Log2_16+0x73>:
	...

00001510 <BASOP_Util_InvLog2_16>:
    1510:	004136        	entry	a1, 32
    1513:	fb2e51        	l32r	a5, 1cc (bac8 <InvLog2_16_table2>)
    1516:	fb2c41        	l32r	a4, 1c8 (bac4 <InvLog2_16_table1>)
    1519:	547520        	extui	a7, a2, 5, 6
    151c:	0558           	l32i.n	a5, a5, 0
    151e:	0448           	l32i.n	a4, a4, 0
    1520:	44c020        	extui	a12, a2, 0, 5
    1523:	905750        	addx2	a5, a7, a5
    1526:	a04740        	addx4	a4, a7, a4
    1529:	25dd           	ae_l16si.n	a13, a5, 0
    152b:	0448           	l32i.n	a4, a4, 0
    152d:	160c           	movi.n	a6, 1
    152f:	11ecb0        	slli	a14, a12, 5
    1532:	418b20        	srli	a8, a2, 11
    1535:	116610        	slli	a6, a6, 15
    1538:	d12ed0        	mul16s	a2, a14, a13
    153b:	446a           	add.n	a4, a4, a6
    153d:	224a           	add.n	a2, a2, a4
    153f:	f81b           	addi.n	a15, a8, 1
    1541:	312020        	srai	a2, a2, 16
    1544:	63fd           	ae_s16i.n	a15, a3, 0
    1546:	f01d           	retw.n

00001548 <BASOP_getTables>:
    1548:	004136        	entry	a1, 32
    154b:	fb1961        	l32r	a6, 1b0 (ba70 <SineTable480>)
    154e:	b3a072        	movi	a7, 179
    1551:	1da757        	bge	a7, a5, 1572 <BASOP_getTables+0x2a>
    1554:	3fa172        	movi	a7, 0x13f
    1557:	30a757        	bge	a7, a5, 158b <BASOP_getTables+0x43>
    155a:	40a172        	movi	a7, 0x140
    155d:	531577        	beq	a5, a7, 15b4 <BASOP_getTables+0x6c>
    1560:	68a172        	movi	a7, 0x168
    1563:	581577        	beq	a5, a7, 15bf <BASOP_getTables+0x77>
    1566:	e0a172        	movi	a7, 0x1e0
    1569:	7c9577        	bne	a5, a7, 15e9 <BASOP_getTables+0xa1>
    156c:	fb2351        	l32r	a5, 1f8 (ba9c <SineWindow480>)
    156f:	0011c6        	j	15ba <BASOP_getTables+0x72>

00001572 <BASOP_getTables+0x2a>:
    1572:	77a072        	movi	a7, 119
    1575:	242757        	blt	a7, a5, 159d <BASOP_getTables+0x55>
    1578:	c73c           	movi.n	a7, 60
    157a:	491577        	beq	a5, a7, 15c7 <BASOP_getTables+0x7f>
    157d:	065c           	movi.n	a6, 80
    157f:	669567        	bne	a5, a6, 15e9 <BASOP_getTables+0xa1>
    1582:	fb1651        	l32r	a5, 1dc (ba80 <SineWindow80>)
    1585:	fb1361        	l32r	a6, 1d4 (ba78 <SineTable320>)
    1588:	001446        	j	15dd <BASOP_getTables+0x95>

0000158b <BASOP_getTables+0x43>:
    158b:	b4a072        	movi	a7, 180
    158e:	3d1577        	beq	a5, a7, 15cf <BASOP_getTables+0x87>
    1591:	f0a072        	movi	a7, 240
    1594:	519577        	bne	a5, a7, 15e9 <BASOP_getTables+0xa1>
    1597:	fb1551        	l32r	a5, 1ec (ba90 <SineWindow240>)
    159a:	000446        	j	15af <BASOP_getTables+0x67>

0000159d <BASOP_getTables+0x55>:
    159d:	78a072        	movi	a7, 120
    15a0:	361577        	beq	a5, a7, 15da <BASOP_getTables+0x92>
    15a3:	a0a062        	movi	a6, 160
    15a6:	3f9567        	bne	a5, a6, 15e9 <BASOP_getTables+0xa1>
    15a9:	fb0e51        	l32r	a5, 1e4 (ba88 <SineWindow160>)
    15ac:	fb0a61        	l32r	a6, 1d4 (ba78 <SineTable320>)
    15af:	470c           	movi.n	a7, 4
    15b1:	000a86        	j	15df <BASOP_getTables+0x97>

000015b4 <BASOP_getTables+0x6c>:
    15b4:	fb0f51        	l32r	a5, 1f0 (ba94 <SineWindow320>)
    15b7:	fb0761        	l32r	a6, 1d4 (ba78 <SineTable320>)
    15ba:	270c           	movi.n	a7, 2
    15bc:	0007c6        	j	15df <BASOP_getTables+0x97>

000015bf <BASOP_getTables+0x77>:
    15bf:	fb0d51        	l32r	a5, 1f4 (ba98 <SineWindow360>)
    15c2:	270c           	movi.n	a7, 2
    15c4:	000306        	j	15d4 <BASOP_getTables+0x8c>

000015c7 <BASOP_getTables+0x7f>:
    15c7:	fb0451        	l32r	a5, 1d8 (ba7c <SineWindow60>)
    15ca:	071c           	movi.n	a7, 16
    15cc:	0003c6        	j	15df <BASOP_getTables+0x97>

000015cf <BASOP_getTables+0x87>:
    15cf:	fb0651        	l32r	a5, 1e8 (ba8c <SineWindow180>)
    15d2:	470c           	movi.n	a7, 4
    15d4:	faff61        	l32r	a6, 1d0 (ba74 <SineTable360>)
    15d7:	000106        	j	15df <BASOP_getTables+0x97>

000015da <BASOP_getTables+0x92>:
    15da:	fb0151        	l32r	a5, 1e0 (ba84 <SineWindow120>)
    15dd:	870c           	movi.n	a7, 8
    15df:	0668           	l32i.n	a6, a6, 0
    15e1:	0369           	s32i.n	a6, a3, 0
    15e3:	0538           	l32i.n	a3, a5, 0
    15e5:	647d           	ae_s16i.n	a7, a4, 0
    15e7:	0239           	s32i.n	a3, a2, 0
    15e9:	f01d           	retw.n

000015eb <BASOP_getTables+0xa3>:
    15eb:	00000000                                 .....

000015f0 <dct_IV_XT>:
    15f0:	00a136        	entry	a1, 80
    15f3:	9139           	s32i.n	a3, a1, 36
    15f5:	fb1431        	l32r	a3, 248 (1548 <BASOP_getTables>)
    15f8:	1cc1a2        	addi	a10, a1, 28
    15fb:	18c1b2        	addi	a11, a1, 24
    15fe:	14c1c2        	addi	a12, a1, 20
    1601:	05dd           	mov.n	a13, a5
    1603:	b169           	s32i.n	a6, a1, 44
    1605:	8179           	s32i.n	a7, a1, 32
    1607:	216150        	srai	a6, a5, 1
    160a:	0003e0        	callx8	a3
    160d:	06cd           	mov.n	a12, a6
    160f:	a06520        	addx4	a6, a5, a2
    1612:	f8c632        	addi	a3, a6, -8
    1615:	fcc672        	addi	a7, a6, -4
    1618:	5e25a6        	blti	a5, 2, 167a <dct_IV_XT+0x8a>
    161b:	072182        	l32i	a8, a1, 28
    161e:	209770        	or	a9, a7, a7
    1621:	01ccb2        	addi	a11, a12, 1
    1624:	20a220        	or	a10, a2, a2
    1627:	601904        	ae_lq32f.iu	aeq0, a9, 0
    162a:	605a04        	ae_lq32f.iu	aeq1, a10, 0
    162d:	41b1b0        	srli	a11, a11, 1
    1630:	fc24fe944f 	{ ae_slaasq56s	aeq1, aeq1, a4; nop }
    1635:	fc24fe840f 	{ ae_slaasq56s	aeq0, aeq0, a4; nop }
    163a:	448804        	ae_lp16x2f.iu	aep0, a8, 0
    163d:	398b76        	loop	a11, 167a <dct_IV_XT+0x8a>
    1640:	2500bd6a1f 	{ ae_lq32f.i	aeq3, a10, 4; ae_mulzaaq32sp16s.lh	aeq2, aeq0, aep0, aeq1, aep0 }
    1645:	84012d981f 	{ ae_lp16x2f.iu	aep1, a8, 4; ae_mulzsaq32sp16s.lh	aeq0, aeq1, aep0, aeq0, aep0 }
    164a:	622a04        	ae_sq32f.i	aeq2, a10, 0
    164d:	6089f4        	ae_lq32f.i	aeq2, a9, -4
    1650:	fc24feb4cf 	{ ae_slaasq56s	aeq3, aeq3, a4; nop }
    1655:	fc24fea44f 	{ ae_slaasq56s	aeq1, aeq2, a4; nop }
    165a:	5725b98a1f 	{ ae_sq32f.i	aeq0, a10, 4; ae_mulzasq32sp16s.lh	aeq2, aeq3, aep1, aeq1, aep1 }
    165f:	2427ed881f 	{ ae_lp16x2f.iu	aep0, a8, 4; ae_mulzaaq32sp16s.lh	aeq1, aeq1, aep1, aeq3, aep1 }
    1664:	622904        	ae_sq32f.i	aeq2, a9, 0
    1667:	6219f4        	ae_sq32f.i	aeq1, a9, -4
    166a:	6019e4        	ae_lq32f.iu	aeq0, a9, -8
    166d:	60da24        	ae_lq32f.iu	aeq3, a10, 8
    1670:	fc24fe840f 	{ ae_slaasq56s	aeq0, aeq0, a4; nop }
    1675:	fc24feb44f 	{ ae_slaasq56s	aeq1, aeq3, a4; nop }

0000167a <dct_IV_XT+0x8a>:
    167a:	faf441        	l32r	a4, 24c (3338 <BASOP_cfft>)
    167d:	91e8           	l32i.n	a14, a1, 36
    167f:	b1f8           	l32i.n	a15, a1, 44
    1681:	8188           	l32i.n	a8, a1, 32
    1683:	b24b           	addi.n	a11, a2, 4
    1685:	2d0c           	movi.n	a13, 2
    1687:	02ad           	mov.n	a10, a2
    1689:	a1c9           	s32i.n	a12, a1, 40
    168b:	0189           	s32i.n	a8, a1, 0
    168d:	0004e0        	callx8	a4
    1690:	0a9142        	l16si	a4, a1, 20
    1693:	6188           	l32i.n	a8, a1, 24
    1695:	12a8           	l32i.n	a10, a2, 4
    1697:	0398           	l32i.n	a9, a3, 0
    1699:	a08480        	addx4	a8, a4, a8
    169c:	28cd           	ae_l16si.n	a12, a8, 0
    169e:	13b8           	l32i.n	a11, a3, 4
    16a0:	38dd           	ae_l16si.n	a13, a8, 2
    16a2:	21a1a0        	srai	a10, a10, 1
    16a5:	60a0a0        	neg	a10, a10
    16a8:	13a9           	s32i.n	a10, a3, 4
    16aa:	8239c0        	mull	a3, a9, a12
    16ad:	82ebd0        	mull	a14, a11, a13
    16b0:	8149           	s32i.n	a4, a1, 32
    16b2:	8249d0        	mull	a4, a9, a13
    16b5:	b2a9c0        	mulsh	a10, a9, a12
    16b8:	b2fbd0        	mulsh	a15, a11, a13
    16bb:	b299d0        	mulsh	a9, a9, a13
    16be:	82dbc0        	mull	a13, a11, a12
    16c1:	b2bbc0        	mulsh	a11, a11, a12
    16c4:	413f30        	srli	a3, a3, 15
    16c7:	41efe0        	srli	a14, a14, 15
    16ca:	414f40        	srli	a4, a4, 15
    16cd:	41dfd0        	srli	a13, a13, 15
    16d0:	1bea30        	depbits	a3, a10, 17, 15
    16d3:	1befe0        	depbits	a14, a15, 17, 15
    16d6:	1be940        	depbits	a4, a9, 17, 15
    16d9:	0851c2        	s16i	a12, a1, 16
    16dc:	02c8           	l32i.n	a12, a2, 0
    16de:	1bebd0        	depbits	a13, a11, 17, 15
    16e1:	213130        	srai	a3, a3, 1
    16e4:	21e1e0        	srai	a14, a14, 1
    16e7:	214140        	srai	a4, a4, 1
    16ea:	21f1d0        	srai	a15, a13, 1
    16ed:	c033e0        	sub	a3, a3, a14
    16f0:	4f4a           	add.n	a4, a15, a4
    16f2:	21a1c0        	srai	a10, a12, 1
    16f5:	360334        	ae_cvtq48a32s	aeq0, a3
    16f8:	364434        	ae_cvtq48a32s	aeq1, a4
    16fb:	02a9           	s32i.n	a10, a2, 0
    16fd:	620214        	ae_sq32f.i	aeq0, a2, 4
    1700:	6216e4        	ae_sq32f.i	aeq1, a6, -8
    1703:	601224        	ae_lq32f.iu	aeq0, a2, 8
    1706:	448804        	ae_lp16x2f.iu	aep0, a8, 0
    1709:	604214        	ae_lq32f.i	aeq1, a2, 4
    170c:	3995a6        	blti	a5, 10, 1749 <dct_IV_XT+0x159>
    170f:	a138           	l32i.n	a3, a1, 40
    1711:	81f8           	l32i.n	a15, a1, 32
    1713:	331b           	addi.n	a3, a3, 1
    1715:	213130        	srai	a3, a3, 1
    1718:	ffc332        	addi	a3, a3, -1
    171b:	ffc342        	addi	a4, a3, -1
    171e:	113fe0        	slli	a3, a15, 2
    1721:	248476        	loop	a4, 1749 <dct_IV_XT+0x159>
    1724:	c08044        	ae_mulzaaq32sp16s.lh	aeq2, aeq1, aep0, aeq0, aep0
    1727:	54009b883f 	{ ae_lp16x2f.xu	aep0, a8, a3; ae_mulzasq32sp16s.lh	aeq0, aeq0, aep0, aeq1, aep0 }
    172c:	622204        	ae_sq32f.i	aeq2, a2, 0
    172f:	6057e4        	ae_lq32f.iu	aeq1, a7, -8
    1732:	6087f4        	ae_lq32f.i	aeq2, a7, -4
    1735:	850379870f 	{ ae_sq32f.i	aeq0, a7, 0; ae_mulzsaq32sp16s.lh	aeq3, aeq1, aep0, aeq2, aep0 }
    173a:	c08094        	ae_mulzaaq32sp16s.lh	aeq2, aeq2, aep0, aeq1, aep0
    173d:	623214        	ae_sq32f.i	aeq3, a2, 4
    1740:	6227f4        	ae_sq32f.i	aeq2, a7, -4
    1743:	601224        	ae_lq32f.iu	aeq0, a2, 8
    1746:	604214        	ae_lq32f.i	aeq1, a2, 4
    1749:	250100823f 	{ movi	a3, 130; ae_mulzaaq32sp16s.lh	aeq2, aeq1, aep0, aeq0, aep0 }
    174e:	8400f0915e 	{ l32i	a5, a1, 36; ae_mulzsaq32sp16s.lh	aeq1, aeq0, aep0, aeq1, aep0 }
    1753:	5ad332        	addmi	a3, a3, 0x5a00
    1756:	fc14b9a20f 	{ ae_sq32f.i	aeq2, a2, 0; ae_negq56	aeq0, aeq1 }
    175b:	60d7e4        	ae_lq32f.iu	aeq3, a7, -8
    175e:	10c142        	addi	a4, a1, 16
    1761:	085132        	s16i	a3, a1, 16
    1764:	25fd           	ae_l16si.n	a15, a5, 0
    1766:	407404        	ae_lp16f.i	aep7, a4, 0
    1769:	fabd7d47ff 	{ ae_lq32f.i	aeq2, a7, -4; ae_mulq32sp16s.l	aeq1, aeq3, aep7 }
    176e:	fbbc002f3e 	{ addi	a3, a15, 2; ae_mulq32sp16s.l	aeq2, aeq2, aep7 }
    1773:	653d           	ae_s16i.n	a3, a5, 0
    1775:	fb7639870f 	{ ae_sq32f.i	aeq0, a7, 0; ae_addq56	aeq3, aeq2, aeq1 }
    177a:	f936f9b7ff 	{ ae_sq32f.i	aeq3, a7, -4; ae_subq56	aeq1, aeq2, aeq1 }
    177f:	621214        	ae_sq32f.i	aeq1, a2, 4
    1782:	f01d           	retw.n

00001784 <dct_IV>:
    1784:	004136        	entry	a1, 32
    1787:	f01d           	retw.n

00001789 <dct_IV+0x5>:
    1789:	00000000                                 .......

00001790 <processSnsInterpolateScf_fx>:
    1790:	004136        	entry	a1, 32
    1793:	190c           	movi.n	a9, 1
    1795:	180c           	movi.n	a8, 1
    1797:	119940        	slli	a9, a9, 12
    179a:	60a070        	neg	a10, a7
    179d:	118830        	slli	a8, a8, 13
    17a0:	301994        	ae_cvtp24a16x2.ll	aep1, a9, a9
    17a3:	2490a0        	extui	a9, a10, 0, 3
    17a6:	300884        	ae_cvtp24a16x2.ll	aep0, a8, a8
    17a9:	22bd           	ae_l16si.n	a11, a2, 0
    17ab:	879a           	add.n	a8, a7, a9
    17ad:	68bd           	ae_s16i.n	a11, a8, 0
    17af:	22fd           	ae_l16si.n	a15, a2, 0
    17b1:	fc0c           	movi.n	a12, 15
    17b3:	78fd           	ae_s16i.n	a15, a8, 2
    17b5:	02ad           	mov.n	a10, a2
    17b7:	06c8b2        	addi	a11, a8, 6
    17ba:	40aa04        	ae_lp16f.iu	aep2, a10, 0
    17bd:	328c76        	loop	a12, 17f3 <processSnsInterpolateScf_fx+0x63>
    17c0:	403a14        	ae_lp16f.i	aep3, a10, 2
    17c3:	dd4ea002ce 	{ l16si	a12, a2, 0; ae_subsp24s	aep2, aep3, aep2 }
    17c8:	ea298febee 	{ addi	a14, a11, -2; ae_mulfp24s.ll	aeq0, aep2, aep1 }
    17cd:	eb09c0222e 	{ addi	a2, a2, 2; ae_mulfp24s.ll	aeq3, aep2, aep0 }
    17d2:	1b8f74        	ae_roundsp16q48asym	aep7, aeq0
    17d5:	f97bbf7d6f 	{ ae_trunca16p24s.l	a13, aep7; ae_roundsp16q48asym	aep2, aeq3 }
    17da:	dcda           	add.n	a13, a12, a13
    17dc:	362c24        	ae_trunca16p24s.l	a12, aep2
    17df:	40aa14        	ae_lp16f.iu	aep2, a10, 2
    17e2:	6edd           	ae_s16i.n	a13, a14, 0
    17e4:	ddca           	add.n	a13, a13, a12
    17e6:	6bdd           	ae_s16i.n	a13, a11, 0
    17e8:	ddca           	add.n	a13, a13, a12
    17ea:	7bdd           	ae_s16i.n	a13, a11, 2
    17ec:	ddca           	add.n	a13, a13, a12
    17ee:	025bd2        	s16i	a13, a11, 4
    17f1:	bb8b           	addi.n	a11, a11, 8

000017f3 <processSnsInterpolateScf_fx+0x63>:
    17f3:	3d9822        	l16si	a2, a8, 122
    17f6:	c0c6a2        	addi	a10, a6, -64
    17f9:	8aad           	ae_sext16	a10, a10
    17fb:	22ca           	add.n	a2, a2, a12
    17fd:	3e5822        	s16i	a2, a8, 124
    1800:	22ca           	add.n	a2, a2, a12
    1802:	3f5822        	s16i	a2, a8, 126
    1805:	04bad6        	bgez	a10, 1854 <processSnsInterpolateScf_fx+0xc4>
    1808:	024c           	movi.n	a2, 64
    180a:	c02260        	sub	a2, a2, a6
    180d:	822d           	ae_sext16	a2, a2
    180f:	2212a6        	blti	a2, 1, 1835 <processSnsInterpolateScf_fx+0xa5>
    1812:	92cd           	ae_zext16	a12, a2
    1814:	08ad           	mov.n	a10, a8
    1816:	20b880        	or	a11, a8, a8
    1819:	158c76        	loop	a12, 1832 <processSnsInterpolateScf_fx+0xa2>
    181c:	2acd           	ae_l16si.n	a12, a10, 0
    181e:	3add           	ae_l16si.n	a13, a10, 2
    1820:	aa4b           	addi.n	a10, a10, 4
    1822:	cdca           	add.n	a12, a13, a12
    1824:	cc1b           	addi.n	a12, a12, 1
    1826:	11cc10        	slli	a12, a12, 15
    1829:	31c0c0        	srai	a12, a12, 16
    182c:	6bcd           	ae_s16i.n	a12, a11, 0
    182e:	02cd           	mov.n	a12, a2
    1830:	bb2b           	addi.n	a11, a11, 2
    1832:	000046        	j	1837 <processSnsInterpolateScf_fx+0xa7>

00001835 <processSnsInterpolateScf_fx+0xa5>:
    1835:	0c0c           	movi.n	a12, 0
    1837:	19ac67        	bge	a12, a6, 1854 <processSnsInterpolateScf_fx+0xc4>
    183a:	b2ca           	add.n	a11, a2, a12
    183c:	90ac90        	addx2	a10, a12, a9
    183f:	c0e6c0        	sub	a14, a6, a12
    1842:	90fb90        	addx2	a15, a11, a9
    1845:	27aa           	add.n	a2, a7, a10
    1847:	77fa           	add.n	a7, a7, a15
    1849:	078e76        	loop	a14, 1854 <processSnsInterpolateScf_fx+0xc4>
    184c:	279d           	ae_l16si.n	a9, a7, 0
    184e:	629d           	ae_s16i.n	a9, a2, 0
    1850:	772b           	addi.n	a7, a7, 2
    1852:	222b           	addi.n	a2, a2, 2

00001854 <processSnsInterpolateScf_fx+0xc4>:
    1854:	121566        	bnei	a5, 1, 186a <processSnsInterpolateScf_fx+0xda>
    1857:	0f16a6        	blti	a6, 1, 186a <processSnsInterpolateScf_fx+0xda>
    185a:	965d           	ae_zext16	a5, a6
    185c:	082d           	mov.n	a2, a8
    185e:	088576        	loop	a5, 186a <processSnsInterpolateScf_fx+0xda>
    1861:	225d           	ae_l16si.n	a5, a2, 0
    1863:	605050        	neg	a5, a5
    1866:	625d           	ae_s16i.n	a5, a2, 0
    1868:	222b           	addi.n	a2, a2, 2
    186a:	4316a6        	blti	a6, 1, 18b1 <processSnsInterpolateScf_fx+0x121>
    186d:	fa5621        	l32r	a2, 1c8 (bac4 <InvLog2_16_table1>)
    1870:	fa5751        	l32r	a5, 1cc (bac8 <InvLog2_16_table2>)
    1873:	967d           	ae_zext16	a7, a6
    1875:	0228           	l32i.n	a2, a2, 0
    1877:	0558           	l32i.n	a5, a5, 0
    1879:	1f0c           	movi.n	a15, 1
    187b:	116f10        	slli	a6, a15, 15
    187e:	2f8776        	loop	a7, 18b1 <processSnsInterpolateScf_fx+0x121>
    1881:	287d           	ae_l16si.n	a7, a8, 0
    1883:	549570        	extui	a9, a7, 5, 6
    1886:	a0a920        	addx4	a10, a9, a2
    1889:	909950        	addx2	a9, a9, a5
    188c:	299d           	ae_l16si.n	a9, a9, 0
    188e:	447070        	extui	a7, a7, 0, 5
    1891:	0aa8           	l32i.n	a10, a10, 0
    1893:	1177b0        	slli	a7, a7, 5
    1896:	d17790        	mul16s	a7, a7, a9
    1899:	fa6a           	add.n	a15, a10, a6
    189b:	77fa           	add.n	a7, a7, a15
    189d:	317070        	srai	a7, a7, 16
    18a0:	637d           	ae_s16i.n	a7, a3, 0
    18a2:	287d           	ae_l16si.n	a7, a8, 0
    18a4:	332b           	addi.n	a3, a3, 2
    18a6:	882b           	addi.n	a8, a8, 2
    18a8:	417b70        	srli	a7, a7, 11
    18ab:	771b           	addi.n	a7, a7, 1
    18ad:	647d           	ae_s16i.n	a7, a4, 0
    18af:	442b           	addi.n	a4, a4, 2
    18b1:	f01d           	retw.n

000018b3 <processSnsInterpolateScf_fx+0x123>:
    18b3:	00000000                                 .....

000018b8 <processAriEncoder_fx>:
    18b8:	010136        	entry	a1, 128
    18bb:	202182        	l32i	a8, a1, 128
    18be:	f47c           	movi.n	a4, -1
    18c0:	fd7c           	movi.n	a13, -1
    18c2:	030c           	movi.n	a3, 0
    18c4:	f169           	s32i.n	a6, a1, 60
    18c6:	414840        	srli	a4, a4, 8
    18c9:	f460d0        	extui	a6, a13, 0, 16
    18cc:	2621e2        	l32i	a14, a1, 152
    18cf:	2221f2        	l32i	a15, a1, 136
    18d2:	146152        	s32i	a5, a1, 80
    18d5:	085132        	s16i	a3, a1, 16
    18d8:	5139           	s32i.n	a3, a1, 20
    18da:	1661e2        	s32i	a14, a1, 88
    18dd:	116192        	s32i	a9, a1, 68
    18e0:	e1f9           	s32i.n	a15, a1, 56
    18e2:	105132        	s16i	a3, a1, 32
    18e5:	6149           	s32i.n	a4, a1, 24
    18e7:	7169           	s32i.n	a6, a1, 28
    18e9:	0218e6        	bgei	a8, 1, 18ef <processAriEncoder_fx+0x37>
    18ec:	002786        	j	198e <processAriEncoder_fx+0xd6>
    18ef:	272132        	l32i	a3, a1, 156
    18f2:	112142        	l32i	a4, a1, 68
    18f5:	fa56f1        	l32r	a15, 250 (20ec <ac_encode_fx>)
    18f8:	212142        	l32i	a4, a1, 132
    18fb:	1133c0        	slli	a3, a3, 4
    18fe:	a149           	s32i.n	a4, a1, 40
    1900:	c139           	s32i.n	a3, a1, 48

00001902 <processAriEncoder_fx+0x4a>:
    1902:	273d           	ae_l16si.n	a3, a7, 0
    1904:	b189           	s32i.n	a8, a1, 44
    1906:	f9ef41        	l32r	a4, c4 (b904 <ac_tns_order_cumfreq>)
    1909:	7113a6        	blti	a3, 1, 197e <processAriEncoder_fx+0xc6>
    190c:	f9ed51        	l32r	a5, c0 (b900 <ac_tns_order_freq>)
    190f:	c168           	l32i.n	a6, a1, 48
    1911:	0448           	l32i.n	a4, a4, 0
    1913:	0558           	l32i.n	a5, a5, 0
    1915:	933d           	ae_zext16	a3, a3
    1917:	330b           	addi.n	a3, a3, -1
    1919:	1133f0        	slli	a3, a3, 1
    191c:	446a           	add.n	a4, a4, a6
    191e:	556a           	add.n	a5, a5, a6
    1920:	443a           	add.n	a4, a4, a3
    1922:	353a           	add.n	a3, a5, a3
    1924:	24dd           	ae_l16si.n	a13, a4, 0
    1926:	23ed           	ae_l16si.n	a14, a3, 0
    1928:	10c1b2        	addi	a11, a1, 16
    192b:	14c1c2        	addi	a12, a1, 20
    192e:	02ad           	mov.n	a10, a2
    1930:	9179           	s32i.n	a7, a1, 36
    1932:	0f6d           	mov.n	a6, a15
    1934:	000fe0        	callx8	a15
    1937:	9178           	l32i.n	a7, a1, 36
    1939:	f9e591        	l32r	a9, d0 (b910 <ac_tns_coef_cumfreq>)
    193c:	06fd           	mov.n	a15, a6
    193e:	273d           	ae_l16si.n	a3, a7, 0
    1940:	a158           	l32i.n	a5, a1, 40
    1942:	040c           	movi.n	a4, 0
    1944:	3613a6        	blti	a3, 1, 197e <processAriEncoder_fx+0xc6>
    1947:	030c           	movi.n	a3, 0
    1949:	f9e071        	l32r	a7, cc (b90c <ac_tns_coef_freq>)
    194c:	0988           	l32i.n	a8, a9, 0
    194e:	25fd           	ae_l16si.n	a15, a5, 0
    1950:	07a8           	l32i.n	a10, a7, 0
    1952:	10c1b2        	addi	a11, a1, 16
    1955:	908f80        	addx2	a8, a15, a8
    1958:	909fa0        	addx2	a9, a15, a10
    195b:	883a           	add.n	a8, a8, a3
    195d:	993a           	add.n	a9, a9, a3
    195f:	28dd           	ae_l16si.n	a13, a8, 0
    1961:	29ed           	ae_l16si.n	a14, a9, 0
    1963:	14c1c2        	addi	a12, a1, 20
    1966:	02ad           	mov.n	a10, a2
    1968:	0006e0        	callx8	a6
    196b:	9178           	l32i.n	a7, a1, 36
    196d:	f9d891        	l32r	a9, d0 (b910 <ac_tns_coef_cumfreq>)
    1970:	441b           	addi.n	a4, a4, 1
    1972:	278d           	ae_l16si.n	a8, a7, 0
    1974:	06fd           	mov.n	a15, a6
    1976:	552b           	addi.n	a5, a5, 2
    1978:	22c332        	addi	a3, a3, 34
    197b:	ca2487        	blt	a4, a8, 1949 <processAriEncoder_fx+0x91>
    197e:	a138           	l32i.n	a3, a1, 40
    1980:	b188           	l32i.n	a8, a1, 44
    1982:	772b           	addi.n	a7, a7, 2
    1984:	10c332        	addi	a3, a3, 16
    1987:	880b           	addi.n	a8, a8, -1
    1989:	a139           	s32i.n	a3, a1, 40
    198b:	f73856        	bnez	a8, 1902 <processAriEncoder_fx+0x4a>
    198e:	e148           	l32i.n	a4, a1, 56
    1990:	1621e2        	l32i	a14, a1, 88
    1993:	112152        	l32i	a5, a1, 68
    1996:	2821f2        	l32i	a15, a1, 160
    1999:	2321d2        	l32i	a13, a1, 140
    199c:	fa2e91        	l32r	a9, 254 (bae0 <g_p_enc_stream>)
    199f:	213140        	srai	a3, a4, 1
    19a2:	176132        	s32i	a3, a1, 92
    19a5:	26ce16        	beqz	a14, 1c15 <processAriEncoder_fx+0x35d>
    19a8:	f188           	l32i.n	a8, a1, 60
    19aa:	0f3d           	mov.n	a3, a15
    19ac:	0224e6        	bgei	a4, 2, 19b2 <processAriEncoder_fx+0xfa>
    19af:	011cc6        	j	1e26 <processAriEncoder_fx+0x56e>
    19b2:	0f3d           	mov.n	a3, a15
    19b4:	61f8           	l32i.n	a15, a1, 24
    19b6:	51a8           	l32i.n	a10, a1, 20
    19b8:	0f11b2        	l16ui	a11, a1, 30
    19bb:	101172        	l16ui	a7, a1, 32
    19be:	0e1162        	l16ui	a6, a1, 28
    19c1:	0811c2        	l16ui	a12, a1, 16
    19c4:	ffa092        	movi	a9, 255
    19c7:	040c           	movi.n	a4, 0
    19c9:	119900        	slli	a9, a9, 16
    19cc:	136132        	s32i	a3, a1, 76
    19cf:	126132        	s32i	a3, a1, 72
    19d2:	001206        	j	1a1e <processAriEncoder_fx+0x166>

000019d5 <processAriEncoder_fx+0x11d>:
    19d5:	a138           	l32i.n	a3, a1, 40
    19d7:	dd2b           	addi.n	a13, a13, 2
    19d9:	1261d2        	s32i	a13, a1, 72
    19dc:	213130        	srai	a3, a3, 1
    19df:	b139           	s32i.n	a3, a1, 44
    19e1:	0edd           	mov.n	a13, a14
    19e3:	c148           	l32i.n	a4, a1, 48
    19e5:	f37c           	movi.n	a3, -1
    19e7:	f43030        	extui	a3, a3, 0, 16
    19ea:	0b0347        	bnone	a3, a4, 19f9 <processAriEncoder_fx+0x141>
    19ed:	fa1941        	l32r	a4, 254 (bae0 <g_p_enc_stream>)
    19f0:	d1e8           	l32i.n	a14, a1, 52
    19f2:	0438           	l32i.n	a3, a4, 0
    19f4:	1113e4        	ae_sbi	a3, a14, 1
    19f7:	0439           	s32i.n	a3, a4, 0
    19f9:	b148           	l32i.n	a4, a1, 44
    19fb:	f37c           	movi.n	a3, -1
    19fd:	f43030        	extui	a3, a3, 0, 16
    1a00:	090347        	bnone	a3, a4, 1a0d <processAriEncoder_fx+0x155>
    1a03:	fa1441        	l32r	a4, 254 (bae0 <g_p_enc_stream>)
    1a06:	0438           	l32i.n	a3, a4, 0
    1a08:	111354        	ae_sbi	a3, a5, 1
    1a0b:	0439           	s32i.n	a3, a4, 0
    1a0d:	e148           	l32i.n	a4, a1, 56
    1a0f:	172132        	l32i	a3, a1, 92
    1a12:	dd6b           	addi.n	a13, a13, 6
    1a14:	441b           	addi.n	a4, a4, 1
    1a16:	884b           	addi.n	a8, a8, 4
    1a18:	022437        	blt	a4, a3, 1a1e <processAriEncoder_fx+0x166>
    1a1b:	00fac6        	j	1e0a <processAriEncoder_fx+0x552>
    1a1e:	f9a031        	l32r	a3, a0 (b8e0 <ari_spec_lookup>)
    1a21:	e149           	s32i.n	a4, a1, 56
    1a23:	0d4d           	mov.n	a4, a13
    1a25:	485d           	ae_l16ui.n	a5, a8, 0
    1a27:	58dd           	ae_l16ui.n	a13, a8, 2
    1a29:	0338           	l32i.n	a3, a3, 0
    1a2b:	24ed           	ae_l16si.n	a14, a4, 0
    1a2d:	9139           	s32i.n	a3, a1, 36
    1a2f:	a1e9           	s32i.n	a14, a1, 40
    1a31:	8d3d           	ae_sext16	a3, a13
    1a33:	f189           	s32i.n	a8, a1, 60
    1a35:	858d           	ae_sext16	a8, a5
    1a37:	d159           	s32i.n	a5, a1, 52
    1a39:	1061d2        	s32i	a13, a1, 64
    1a3c:	9158           	l32i.n	a5, a1, 36
    1a3e:	a1d8           	l32i.n	a13, a1, 40
    1a40:	04ed           	mov.n	a14, a4
    1a42:	344d           	ae_l16si.n	a4, a4, 2
    1a44:	608180        	abs	a8, a8
    1a47:	603130        	abs	a3, a3
    1a4a:	d5da           	add.n	a13, a5, a13
    1a4c:	885d           	ae_sext16	a5, a8
    1a4e:	b139           	s32i.n	a3, a1, 44
    1a50:	833d           	ae_sext16	a3, a3
    1a52:	c189           	s32i.n	a8, a1, 48
    1a54:	9159           	s32i.n	a5, a1, 36
    1a56:	a139           	s32i.n	a3, a1, 40
    1a58:	0214e6        	bgei	a4, 1, 1a5e <processAriEncoder_fx+0x1a6>
    1a5b:	002dc6        	j	1b16 <processAriEncoder_fx+0x25e>
    1a5e:	050c           	movi.n	a5, 0
    1a60:	330c           	movi.n	a3, 3
    1a62:	634530        	minu	a4, a5, a3
    1a65:	114460        	slli	a4, a4, 10
    1a68:	4d4a           	add.n	a4, a13, a4
    1a6a:	000442        	l8ui	a4, a4, 0
    1a6d:	f98d81        	l32r	a8, a4 (b8e4 <ari_spec_cumfreq>)
    1a70:	41faf0        	srli	a15, a15, 10
    1a73:	234400        	sext	a4, a4, 7
    1a76:	1134b0        	slli	a3, a4, 5
    1a79:	903430        	addx2	a3, a4, a3
    1a7c:	f98b41        	l32r	a4, a8 (b8e8 <ari_spec_freq>)
    1a7f:	0888           	l32i.n	a8, a8, 0
    1a81:	0448           	l32i.n	a4, a4, 0
    1a83:	883a           	add.n	a8, a8, a3
    1a85:	101882        	l16ui	a8, a8, 32
    1a88:	343a           	add.n	a3, a4, a3
    1a8a:	101332        	l16ui	a3, a3, 32
    1a8d:	824f80        	mull	a4, a15, a8
    1a90:	82ff30        	mull	a15, a15, a3
    1a93:	34aa           	add.n	a3, a4, a10
    1a95:	fa7c           	movi.n	a10, -1
    1a97:	4188a0        	srli	a8, a10, 8
    1a9a:	10a380        	and	a10, a3, a8
    1a9d:	754830        	extui	a4, a3, 24, 8
    1aa0:	180c           	movi.n	a8, 1
    1aa2:	93b840        	movnez	a11, a8, a4
    1aa5:	601fb6        	bltui	a15, 0x10000, 1b09 <processAriEncoder_fx+0x251>
    1aa8:	a59c           	beqz.n	a5, 1ac6 <processAriEncoder_fx+0x20e>
    1aaa:	f9ea81        	l32r	a8, 254 (bae0 <g_p_enc_stream>)
    1aad:	9148           	l32i.n	a4, a1, 36
    1aaf:	400500        	ssr	a5
    1ab2:	0838           	l32i.n	a3, a8, 0
    1ab4:	b14040        	sra	a4, a4
    1ab7:	111344        	ae_sbi	a3, a4, 1
    1aba:	a148           	l32i.n	a4, a1, 40
    1abc:	0839           	s32i.n	a3, a8, 0
    1abe:	b14040        	sra	a4, a4
    1ac1:	111344        	ae_sbi	a3, a4, 1
    1ac4:	0839           	s32i.n	a3, a8, 0
    1ac6:	3e4d           	ae_l16si.n	a4, a14, 2
    1ac8:	551b           	addi.n	a5, a5, 1
    1aca:	922547        	blt	a5, a4, 1a60 <processAriEncoder_fx+0x1a8>
    1acd:	001146        	j	1b16 <processAriEncoder_fx+0x25e>

00001ad0 <processAriEncoder_fx+0x218>:
    1ad0:	863d           	ae_sext16	a3, a6
    1ad2:	00c396        	bltz	a3, 1ae2 <processAriEncoder_fx+0x22a>
    1ad5:	8c8d           	ae_sext16	a8, a12
    1ad7:	fc1b           	addi.n	a15, a12, 1
    1ad9:	3b6a           	add.n	a3, a11, a6
    1adb:	828a           	add.n	a8, a2, a8
    1add:	0fcd           	mov.n	a12, a15
    1adf:	004832        	s8i	a3, a8, 0
    1ae2:	873d           	ae_sext16	a3, a7
    1ae4:	1113a6        	blti	a3, 1, 1af9 <processAriEncoder_fx+0x241>
    1ae7:	973d           	ae_zext16	a3, a7
    1ae9:	6b0b           	addi.n	a6, a11, -1
    1aeb:	088376        	loop	a3, 1af7 <processAriEncoder_fx+0x23f>
    1aee:	8c3d           	ae_sext16	a3, a12
    1af0:	323a           	add.n	a3, a2, a3
    1af2:	cc1b           	addi.n	a12, a12, 1
    1af4:	004362        	s8i	a6, a3, 0

00001af7 <processAriEncoder_fx+0x23f>:
    1af7:	070c           	movi.n	a7, 0

00001af9 <processAriEncoder_fx+0x241>:
    1af9:	f560a0        	extui	a6, a10, 16, 16
    1afc:	0b0c           	movi.n	a11, 0
    1afe:	9a3d           	ae_zext16	a3, a10
    1b00:	11f480        	slli	a15, a4, 8
    1b03:	11a380        	slli	a10, a3, 8
    1b06:	9ef4f6        	bgeui	a4, 0x100, 1aa8 <processAriEncoder_fx+0x1f0>
    1b09:	0f4d           	mov.n	a4, a15
    1b0b:	c13a97        	bltu	a10, a9, 1ad0 <processAriEncoder_fx+0x218>
    1b0e:	be1b26        	beqi	a11, 1, 1ad0 <processAriEncoder_fx+0x218>
    1b11:	771b           	addi.n	a7, a7, 1
    1b13:	fff9c6        	j	1afe <processAriEncoder_fx+0x246>

00001b16 <processAriEncoder_fx+0x25e>:
    1b16:	843d           	ae_sext16	a3, a4
    1b18:	380c           	movi.n	a8, 3
    1b1a:	433380        	min	a3, a3, a8
    1b1d:	113360        	slli	a3, a3, 10
    1b20:	3d3a           	add.n	a3, a13, a3
    1b22:	000332        	l8ui	a3, a3, 0
    1b25:	f95fd1        	l32r	a13, a4 (b8e4 <ari_spec_cumfreq>)
    1b28:	415af0        	srli	a5, a15, 10
    1b2b:	f95ff1        	l32r	a15, a8 (b8e8 <ari_spec_freq>)
    1b2e:	0d88           	l32i.n	a8, a13, 0
    1b30:	233300        	sext	a3, a3, 7
    1b33:	11d3b0        	slli	a13, a3, 5
    1b36:	156152        	s32i	a5, a1, 84
    1b39:	0f58           	l32i.n	a5, a15, 0
    1b3b:	029ef2        	l16si	a15, a14, 4
    1b3e:	9033d0        	addx2	a3, a3, a13
    1b41:	883a           	add.n	a8, a8, a3
    1b43:	353a           	add.n	a3, a5, a3
    1b45:	908f80        	addx2	a8, a15, a8
    1b48:	903f30        	addx2	a3, a15, a3
    1b4b:	488d           	ae_l16ui.n	a8, a8, 0
    1b4d:	1521f2        	l32i	a15, a1, 84
    1b50:	433d           	ae_l16ui.n	a3, a3, 0
    1b52:	0edd           	mov.n	a13, a14
    1b54:	828f80        	mull	a8, a15, a8
    1b57:	82ff30        	mull	a15, a15, a3
    1b5a:	38aa           	add.n	a3, a8, a10
    1b5c:	fa7c           	movi.n	a10, -1
    1b5e:	4188a0        	srli	a8, a10, 8
    1b61:	10a380        	and	a10, a3, a8
    1b64:	755830        	extui	a5, a3, 24, 8
    1b67:	180c           	movi.n	a8, 1
    1b69:	93b850        	movnez	a11, a8, a5
    1b6c:	f188           	l32i.n	a8, a1, 60
    1b6e:	3b1fb6        	bltui	a15, 0x10000, 1bad <processAriEncoder_fx+0x2f5>
    1b71:	0011c6        	j	1bbc <processAriEncoder_fx+0x304>

00001b74 <processAriEncoder_fx+0x2bc>:
    1b74:	863d           	ae_sext16	a3, a6
    1b76:	00c396        	bltz	a3, 1b86 <processAriEncoder_fx+0x2ce>
    1b79:	8cfd           	ae_sext16	a15, a12
    1b7b:	5c1b           	addi.n	a5, a12, 1
    1b7d:	3b6a           	add.n	a3, a11, a6
    1b7f:	62fa           	add.n	a6, a2, a15
    1b81:	05cd           	mov.n	a12, a5
    1b83:	004632        	s8i	a3, a6, 0
    1b86:	873d           	ae_sext16	a3, a7
    1b88:	1113a6        	blti	a3, 1, 1b9d <processAriEncoder_fx+0x2e5>
    1b8b:	973d           	ae_zext16	a3, a7
    1b8d:	5b0b           	addi.n	a5, a11, -1
    1b8f:	088376        	loop	a3, 1b9b <processAriEncoder_fx+0x2e3>
    1b92:	8c3d           	ae_sext16	a3, a12
    1b94:	323a           	add.n	a3, a2, a3
    1b96:	cc1b           	addi.n	a12, a12, 1
    1b98:	004352        	s8i	a5, a3, 0

00001b9b <processAriEncoder_fx+0x2e3>:
    1b9b:	070c           	movi.n	a7, 0

00001b9d <processAriEncoder_fx+0x2e5>:
    1b9d:	f560a0        	extui	a6, a10, 16, 16
    1ba0:	0b0c           	movi.n	a11, 0
    1ba2:	9a3d           	ae_zext16	a3, a10
    1ba4:	11f480        	slli	a15, a4, 8
    1ba7:	11a380        	slli	a10, a3, 8
    1baa:	0cf4f6        	bgeui	a4, 0x100, 1bba <processAriEncoder_fx+0x302>
    1bad:	0f4d           	mov.n	a4, a15
    1baf:	c13a97        	bltu	a10, a9, 1b74 <processAriEncoder_fx+0x2bc>
    1bb2:	be1b26        	beqi	a11, 1, 1b74 <processAriEncoder_fx+0x2bc>
    1bb5:	771b           	addi.n	a7, a7, 1
    1bb7:	fff9c6        	j	1ba2 <processAriEncoder_fx+0x2ea>

00001bba <processAriEncoder_fx+0x302>:
    1bba:	5d4d           	ae_l16ui.n	a4, a13, 2
    1bbc:	d138           	l32i.n	a3, a1, 52
    1bbe:	102152        	l32i	a5, a1, 64
    1bc1:	413f30        	srli	a3, a3, 15
    1bc4:	d139           	s32i.n	a3, a1, 52
    1bc6:	843d           	ae_sext16	a3, a4
    1bc8:	415f50        	srli	a5, a5, 15
    1bcb:	0213e6        	bgei	a3, 1, 1bd1 <processAriEncoder_fx+0x319>
    1bce:	ff8446        	j	19e3 <processAriEncoder_fx+0x12b>
    1bd1:	106152        	s32i	a5, a1, 64
    1bd4:	c158           	l32i.n	a5, a1, 48
    1bd6:	b148           	l32i.n	a4, a1, 44
    1bd8:	1221d2        	l32i	a13, a1, 72
    1bdb:	043050        	extui	a3, a5, 0, 1
    1bde:	044040        	extui	a4, a4, 0, 1
    1be1:	6d3d           	ae_s16i.n	a3, a13, 0
    1be3:	0d3d           	mov.n	a3, a13
    1be5:	081566        	bnei	a5, 1, 1bf1 <processAriEncoder_fx+0x339>
    1be8:	d158           	l32i.n	a5, a1, 52
    1bea:	d34b           	addi.n	a13, a3, 4
    1bec:	735d           	ae_s16i.n	a5, a3, 2
    1bee:	000046        	j	1bf3 <processAriEncoder_fx+0x33b>

00001bf1 <processAriEncoder_fx+0x339>:
    1bf1:	d32b           	addi.n	a13, a3, 2
    1bf3:	9138           	l32i.n	a3, a1, 36
    1bf5:	6d4d           	ae_s16i.n	a4, a13, 0
    1bf7:	b148           	l32i.n	a4, a1, 44
    1bf9:	102152        	l32i	a5, a1, 64
    1bfc:	213130        	srai	a3, a3, 1
    1bff:	c139           	s32i.n	a3, a1, 48
    1c01:	021426        	beqi	a4, 1, 1c07 <processAriEncoder_fx+0x34f>
    1c04:	ff7346        	j	19d5 <processAriEncoder_fx+0x11d>
    1c07:	3d4b           	addi.n	a3, a13, 4
    1c09:	7d5d           	ae_s16i.n	a5, a13, 2
    1c0b:	0d0c           	movi.n	a13, 0
    1c0d:	126132        	s32i	a3, a1, 72
    1c10:	b1d9           	s32i.n	a13, a1, 44
    1c12:	ff72c6        	j	19e1 <processAriEncoder_fx+0x129>

00001c15 <processAriEncoder_fx+0x35d>:
    1c15:	f168           	l32i.n	a6, a1, 60
    1c17:	030c           	movi.n	a3, 0
    1c19:	9139           	s32i.n	a3, a1, 36
    1c1b:	0224e6        	bgei	a4, 2, 1c21 <processAriEncoder_fx+0x369>
    1c1e:	008b06        	j	1e4e <processAriEncoder_fx+0x596>
    1c21:	1361f2        	s32i	a15, a1, 76
    1c24:	6148           	l32i.n	a4, a1, 24
    1c26:	5158           	l32i.n	a5, a1, 20
    1c28:	0f1192        	l16ui	a9, a1, 30
    1c2b:	1011f2        	l16ui	a15, a1, 32
    1c2e:	0e1132        	l16ui	a3, a1, 28
    1c31:	081172        	l16ui	a7, a1, 16
    1c34:	ffa0e2        	movi	a14, 255
    1c37:	0b0c           	movi.n	a11, 0
    1c39:	11ee00        	slli	a14, a14, 16
    1c3c:	d1b9           	s32i.n	a11, a1, 52
    1c3e:	f918b1        	l32r	a11, a0 (b8e0 <ari_spec_lookup>)
    1c41:	46cd           	ae_l16ui.n	a12, a6, 0
    1c43:	568d           	ae_l16ui.n	a8, a6, 2
    1c45:	0ba8           	l32i.n	a10, a11, 0
    1c47:	2dbd           	ae_l16si.n	a11, a13, 0
    1c49:	f169           	s32i.n	a6, a1, 60
    1c4b:	3d6d           	ae_l16si.n	a6, a13, 2
    1c4d:	1561c2        	s32i	a12, a1, 84
    1c50:	8ccd           	ae_sext16	a12, a12
    1c52:	aaba           	add.n	a10, a10, a11
    1c54:	106182        	s32i	a8, a1, 64
    1c57:	888d           	ae_sext16	a8, a8
    1c59:	91d9           	s32i.n	a13, a1, 36
    1c5b:	e1c9           	s32i.n	a12, a1, 56
    1c5d:	a1a9           	s32i.n	a10, a1, 40
    1c5f:	c189           	s32i.n	a8, a1, 48
    1c61:	0216e6        	bgei	a6, 1, 1c67 <processAriEncoder_fx+0x3af>
    1c64:	003246        	j	1d31 <processAriEncoder_fx+0x479>
    1c67:	e188           	l32i.n	a8, a1, 56
    1c69:	c168           	l32i.n	a6, a1, 48
    1c6b:	0b0c           	movi.n	a11, 0
    1c6d:	60c180        	abs	a12, a8
    1c70:	606160        	abs	a6, a6
    1c73:	8c8d           	ae_sext16	a8, a12
    1c75:	86dd           	ae_sext16	a13, a6
    1c77:	b189           	s32i.n	a8, a1, 44
    1c79:	360c           	movi.n	a6, 3
    1c7b:	a188           	l32i.n	a8, a1, 40
    1c7d:	636b60        	minu	a6, a11, a6
    1c80:	116660        	slli	a6, a6, 10
    1c83:	686a           	add.n	a6, a8, a6
    1c85:	000662        	l8ui	a6, a6, 0
    1c88:	f907a1        	l32r	a10, a4 (b8e4 <ari_spec_cumfreq>)
    1c8b:	f907c1        	l32r	a12, a8 (b8e8 <ari_spec_freq>)
    1c8e:	236600        	sext	a6, a6, 7
    1c91:	0a88           	l32i.n	a8, a10, 0
    1c93:	11a6b0        	slli	a10, a6, 5
    1c96:	9066a0        	addx2	a6, a6, a10
    1c99:	0ca8           	l32i.n	a10, a12, 0
    1c9b:	886a           	add.n	a8, a8, a6
    1c9d:	101882        	l16ui	a8, a8, 32
    1ca0:	6a6a           	add.n	a6, a10, a6
    1ca2:	414a40        	srli	a4, a4, 10
    1ca5:	101662        	l16ui	a6, a6, 32
    1ca8:	828480        	mull	a8, a4, a8
    1cab:	fa7c           	movi.n	a10, -1
    1cad:	585a           	add.n	a5, a8, a5
    1caf:	824460        	mull	a4, a4, a6
    1cb2:	756850        	extui	a6, a5, 24, 8
    1cb5:	4188a0        	srli	a8, a10, 8
    1cb8:	1c0c           	movi.n	a12, 1
    1cba:	105580        	and	a5, a5, a8
    1cbd:	939c60        	movnez	a9, a12, a6
    1cc0:	6014b6        	bltui	a4, 0x10000, 1d24 <processAriEncoder_fx+0x46c>
    1cc3:	f964c1        	l32r	a12, 254 (bae0 <g_p_enc_stream>)
    1cc6:	b168           	l32i.n	a6, a1, 44
    1cc8:	400b00        	ssr	a11
    1ccb:	0c88           	l32i.n	a8, a12, 0
    1ccd:	b16060        	sra	a6, a6
    1cd0:	b1a0d0        	sra	a10, a13
    1cd3:	111864        	ae_sbi	a8, a6, 1
    1cd6:	0c89           	s32i.n	a8, a12, 0
    1cd8:	bb1b           	addi.n	a11, a11, 1
    1cda:	1118a4        	ae_sbi	a8, a10, 1
    1cdd:	91a8           	l32i.n	a10, a1, 36
    1cdf:	0c89           	s32i.n	a8, a12, 0
    1ce1:	5a6d           	ae_l16ui.n	a6, a10, 2
    1ce3:	86ad           	ae_sext16	a10, a6
    1ce5:	902ba7        	blt	a11, a10, 1c79 <processAriEncoder_fx+0x3c1>
    1ce8:	001146        	j	1d31 <processAriEncoder_fx+0x479>

00001ceb <processAriEncoder_fx+0x433>:
    1ceb:	834d           	ae_sext16	a4, a3
    1ced:	00c496        	bltz	a4, 1cfd <processAriEncoder_fx+0x445>
    1cf0:	87cd           	ae_sext16	a12, a7
    1cf2:	471b           	addi.n	a4, a7, 1
    1cf4:	393a           	add.n	a3, a9, a3
    1cf6:	82ca           	add.n	a8, a2, a12
    1cf8:	047d           	mov.n	a7, a4
    1cfa:	004832        	s8i	a3, a8, 0
    1cfd:	8f3d           	ae_sext16	a3, a15
    1cff:	1113a6        	blti	a3, 1, 1d14 <processAriEncoder_fx+0x45c>
    1d02:	9f4d           	ae_zext16	a4, a15
    1d04:	390b           	addi.n	a3, a9, -1
    1d06:	088476        	loop	a4, 1d12 <processAriEncoder_fx+0x45a>
    1d09:	874d           	ae_sext16	a4, a7
    1d0b:	424a           	add.n	a4, a2, a4
    1d0d:	771b           	addi.n	a7, a7, 1
    1d0f:	004432        	s8i	a3, a4, 0

00001d12 <processAriEncoder_fx+0x45a>:
    1d12:	0f0c           	movi.n	a15, 0

00001d14 <processAriEncoder_fx+0x45c>:
    1d14:	f53050        	extui	a3, a5, 16, 16
    1d17:	090c           	movi.n	a9, 0
    1d19:	955d           	ae_zext16	a5, a5
    1d1b:	114680        	slli	a4, a6, 8
    1d1e:	115580        	slli	a5, a5, 8
    1d21:	9ef6f6        	bgeui	a6, 0x100, 1cc3 <processAriEncoder_fx+0x40b>
    1d24:	046d           	mov.n	a6, a4
    1d26:	c135e7        	bltu	a5, a14, 1ceb <processAriEncoder_fx+0x433>
    1d29:	be1926        	beqi	a9, 1, 1ceb <processAriEncoder_fx+0x433>
    1d2c:	ff1b           	addi.n	a15, a15, 1
    1d2e:	fff9c6        	j	1d19 <processAriEncoder_fx+0x461>

00001d31 <processAriEncoder_fx+0x479>:
    1d31:	866d           	ae_sext16	a6, a6
    1d33:	380c           	movi.n	a8, 3
    1d35:	a1a8           	l32i.n	a10, a1, 40
    1d37:	436680        	min	a6, a6, a8
    1d3a:	116660        	slli	a6, a6, 10
    1d3d:	6a6a           	add.n	a6, a10, a6
    1d3f:	000662        	l8ui	a6, a6, 0
    1d42:	f8d8b1        	l32r	a11, a4 (b8e4 <ari_spec_cumfreq>)
    1d45:	91d8           	l32i.n	a13, a1, 36
    1d47:	f8d8a1        	l32r	a10, a8 (b8e8 <ari_spec_freq>)
    1d4a:	0b88           	l32i.n	a8, a11, 0
    1d4c:	236600        	sext	a6, a6, 7
    1d4f:	11b6b0        	slli	a11, a6, 5
    1d52:	029dc2        	l16si	a12, a13, 4
    1d55:	9066b0        	addx2	a6, a6, a11
    1d58:	0aa8           	l32i.n	a10, a10, 0
    1d5a:	886a           	add.n	a8, a8, a6
    1d5c:	908c80        	addx2	a8, a12, a8
    1d5f:	6a6a           	add.n	a6, a10, a6
    1d61:	488d           	ae_l16ui.n	a8, a8, 0
    1d63:	906c60        	addx2	a6, a12, a6
    1d66:	414a40        	srli	a4, a4, 10
    1d69:	466d           	ae_l16ui.n	a6, a6, 0
    1d6b:	828480        	mull	a8, a4, a8
    1d6e:	fb7c           	movi.n	a11, -1
    1d70:	585a           	add.n	a5, a8, a5
    1d72:	4188b0        	srli	a8, a11, 8
    1d75:	824460        	mull	a4, a4, a6
    1d78:	d1b8           	l32i.n	a11, a1, 52
    1d7a:	75a850        	extui	a10, a5, 24, 8
    1d7d:	1c0c           	movi.n	a12, 1
    1d7f:	105580        	and	a5, a5, a8
    1d82:	939ca0        	movnez	a9, a12, a10
    1d85:	7414b6        	bltui	a4, 0x10000, 1dfd <processAriEncoder_fx+0x545>
    1d88:	e168           	l32i.n	a6, a1, 56
    1d8a:	f932a1        	l32r	a10, 254 (bae0 <g_p_enc_stream>)
    1d8d:	152182        	l32i	a8, a1, 84
    1d90:	868c           	beqz.n	a6, 1d9c <processAriEncoder_fx+0x4e4>
    1d92:	0a68           	l32i.n	a6, a10, 0
    1d94:	418f80        	srli	a8, a8, 15
    1d97:	111684        	ae_sbi	a6, a8, 1
    1d9a:	0a69           	s32i.n	a6, a10, 0
    1d9c:	c168           	l32i.n	a6, a1, 48
    1d9e:	f92da1        	l32r	a10, 254 (bae0 <g_p_enc_stream>)
    1da1:	102182        	l32i	a8, a1, 64
    1da4:	868c           	beqz.n	a6, 1db0 <processAriEncoder_fx+0x4f8>
    1da6:	0a68           	l32i.n	a6, a10, 0
    1da8:	418f80        	srli	a8, a8, 15
    1dab:	111684        	ae_sbi	a6, a8, 1
    1dae:	0a69           	s32i.n	a6, a10, 0
    1db0:	f168           	l32i.n	a6, a1, 60
    1db2:	172182        	l32i	a8, a1, 92
    1db5:	bb1b           	addi.n	a11, a11, 1
    1db7:	dd6b           	addi.n	a13, a13, 6
    1db9:	664b           	addi.n	a6, a6, 4
    1dbb:	02ab87        	bge	a11, a8, 1dc1 <processAriEncoder_fx+0x509>
    1dbe:	ff9e86        	j	1c3c <processAriEncoder_fx+0x384>
    1dc1:	001b06        	j	1e31 <processAriEncoder_fx+0x579>

00001dc4 <processAriEncoder_fx+0x50c>:
    1dc4:	834d           	ae_sext16	a4, a3
    1dc6:	00c496        	bltz	a4, 1dd6 <processAriEncoder_fx+0x51e>
    1dc9:	87cd           	ae_sext16	a12, a7
    1dcb:	471b           	addi.n	a4, a7, 1
    1dcd:	393a           	add.n	a3, a9, a3
    1dcf:	82ca           	add.n	a8, a2, a12
    1dd1:	047d           	mov.n	a7, a4
    1dd3:	004832        	s8i	a3, a8, 0
    1dd6:	8f3d           	ae_sext16	a3, a15
    1dd8:	1113a6        	blti	a3, 1, 1ded <processAriEncoder_fx+0x535>
    1ddb:	9f4d           	ae_zext16	a4, a15
    1ddd:	390b           	addi.n	a3, a9, -1
    1ddf:	088476        	loop	a4, 1deb <processAriEncoder_fx+0x533>
    1de2:	874d           	ae_sext16	a4, a7
    1de4:	424a           	add.n	a4, a2, a4
    1de6:	771b           	addi.n	a7, a7, 1
    1de8:	004432        	s8i	a3, a4, 0

00001deb <processAriEncoder_fx+0x533>:
    1deb:	0f0c           	movi.n	a15, 0

00001ded <processAriEncoder_fx+0x535>:
    1ded:	f53050        	extui	a3, a5, 16, 16
    1df0:	090c           	movi.n	a9, 0
    1df2:	955d           	ae_zext16	a5, a5
    1df4:	114680        	slli	a4, a6, 8
    1df7:	115580        	slli	a5, a5, 8
    1dfa:	8af6f6        	bgeui	a6, 0x100, 1d88 <processAriEncoder_fx+0x4d0>
    1dfd:	046d           	mov.n	a6, a4
    1dff:	c135e7        	bltu	a5, a14, 1dc4 <processAriEncoder_fx+0x50c>
    1e02:	be1926        	beqi	a9, 1, 1dc4 <processAriEncoder_fx+0x50c>
    1e05:	ff1b           	addi.n	a15, a15, 1
    1e07:	fff9c6        	j	1df2 <processAriEncoder_fx+0x53a>

00001e0a <processAriEncoder_fx+0x552>:
    1e0a:	61f9           	s32i.n	a15, a1, 24
    1e0c:	f91291        	l32r	a9, 254 (bae0 <g_p_enc_stream>)
    1e0f:	112152        	l32i	a5, a1, 68
    1e12:	1321f2        	l32i	a15, a1, 76
    1e15:	122132        	l32i	a3, a1, 72
    1e18:	51a9           	s32i.n	a10, a1, 20
    1e1a:	0f51b2        	s16i	a11, a1, 30
    1e1d:	105172        	s16i	a7, a1, 32
    1e20:	0e5162        	s16i	a6, a1, 28
    1e23:	0851c2        	s16i	a12, a1, 16
    1e26:	c033f0        	sub	a3, a3, a15
    1e29:	413130        	srli	a3, a3, 1
    1e2c:	9139           	s32i.n	a3, a1, 36
    1e2e:	000706        	j	1e4e <processAriEncoder_fx+0x596>

00001e31 <processAriEncoder_fx+0x579>:
    1e31:	1051f2        	s16i	a15, a1, 32
    1e34:	0f0c           	movi.n	a15, 0
    1e36:	5159           	s32i.n	a5, a1, 20
    1e38:	0f5192        	s16i	a9, a1, 30
    1e3b:	91f9           	s32i.n	a15, a1, 36
    1e3d:	f90591        	l32r	a9, 254 (bae0 <g_p_enc_stream>)
    1e40:	112152        	l32i	a5, a1, 68
    1e43:	1321f2        	l32i	a15, a1, 76
    1e46:	6149           	s32i.n	a4, a1, 24
    1e48:	0e5132        	s16i	a3, a1, 28
    1e4b:	085172        	s16i	a7, a1, 16
    1e4e:	f90261        	l32r	a6, 258 (badc <g_p_enc_based>)
    1e51:	0e9172        	l16si	a7, a1, 28
    1e54:	1091a2        	l16si	a10, a1, 32
    1e57:	61b8           	l32i.n	a11, a1, 24
    1e59:	640c           	movi.n	a4, 6
    1e5b:	e87c           	movi.n	a8, -2
    1e5d:	a38470        	movltz	a8, a4, a7
    1e60:	0938           	l32i.n	a3, a9, 0
    1e62:	06c8           	l32i.n	a12, a6, 0
    1e64:	114ad0        	slli	a4, a10, 3
    1e67:	0e0c           	movi.n	a14, 0
    1e69:	606040        	neg	a6, a4
    1e6c:	0d0c           	movi.n	a13, 0
    1e6e:	142142        	l32i	a4, a1, 80
    1e71:	a1e9           	s32i.n	a14, a1, 40
    1e73:	72eda0        	salt	a14, a13, a10
    1e76:	40fbd0        	nsau	a13, a11
    1e79:	c0c3c0        	sub	a12, a3, a12
    1e7c:	83dbb0        	moveqz	a13, a11, a11
    1e7f:	c034d0        	sub	a3, a4, a13
    1e82:	93e6e0        	movnez	a14, a6, a14
    1e85:	0042c4        	rur.ae_bitptr	a4
    1e88:	6c2b           	addi.n	a6, a12, 2
    1e8a:	338a           	add.n	a3, a3, a8
    1e8c:	118610        	slli	a8, a6, 15
    1e8f:	418c80        	srli	a8, a8, 12
    1e92:	e3ea           	add.n	a14, a3, a14
    1e94:	081132        	l16ui	a3, a1, 16
    1e97:	884a           	add.n	a8, a8, a4
    1e99:	b189           	s32i.n	a8, a1, 44
    1e9b:	c08e80        	sub	a8, a14, a8
    1e9e:	1621e2        	l32i	a14, a1, 88
    1ea1:	11c3d0        	slli	a12, a3, 3
    1ea4:	c048c0        	sub	a4, a8, a12
    1ea7:	844d           	ae_sext16	a4, a4
    1ea9:	158e16        	beqz	a14, 2005 <processAriEncoder_fx+0x74d>
    1eac:	9158           	l32i.n	a5, a1, 36
    1eae:	0968           	l32i.n	a6, a9, 0
    1eb0:	080c           	movi.n	a8, 0
    1eb2:	855d           	ae_sext16	a5, a5
    1eb4:	434540        	min	a4, a5, a4
    1eb7:	9149           	s32i.n	a4, a1, 36
    1eb9:	114400        	slli	a4, a4, 16
    1ebc:	1114a6        	blti	a4, 1, 1ed1 <processAriEncoder_fx+0x619>
    1ebf:	91e8           	l32i.n	a14, a1, 36
    1ec1:	a189           	s32i.n	a8, a1, 40
    1ec3:	064d           	mov.n	a4, a6
    1ec5:	088e76        	loop	a14, 1ed1 <processAriEncoder_fx+0x619>
    1ec8:	4fcd           	ae_l16ui.n	a12, a15, 0
    1eca:	ff2b           	addi.n	a15, a15, 2
    1ecc:	1114c4        	ae_sbi	a4, a12, 1
    1ecf:	0949           	s32i.n	a4, a9, 0

00001ed1 <processAriEncoder_fx+0x619>:
    1ed1:	f67c           	movi.n	a6, -1
    1ed3:	f9cdc2        	addi	a12, a13, -7
    1ed6:	5148           	l32i.n	a4, a1, 20
    1ed8:	400c00        	ssr	a12
    1edb:	416860        	srli	a6, a6, 8
    1ede:	190c           	movi.n	a9, 1
    1ee0:	91e060        	srl	a14, a6
    1ee3:	84ea           	add.n	a8, a4, a14
    1ee5:	f4ba           	add.n	a15, a4, a11
    1ee7:	019980        	slli	a9, a9, 24
    1eea:	30be60        	xor	a11, a14, a6
    1eed:	625680        	saltu	a5, a6, a8
    1ef0:	629f90        	saltu	a9, a15, a9
    1ef3:	10bb80        	and	a11, a11, a8
    1ef6:	1d1957        	beq	a9, a5, 1f17 <processAriEncoder_fx+0x65f>
    1ef9:	105f60        	and	a5, a15, a6
    1efc:	8bea           	add.n	a8, a11, a14
    1efe:	0d3857        	bltu	a8, a5, 1f0f <processAriEncoder_fx+0x657>
    1f01:	4151e0        	srli	a5, a14, 1
    1f04:	845a           	add.n	a8, a4, a5
    1f06:	305560        	xor	a5, a5, a6
    1f09:	facdc2        	addi	a12, a13, -6
    1f0c:	10b850        	and	a11, a8, a5

00001f0f <processAriEncoder_fx+0x657>:
    1f0f:	04bb47        	bgeu	a11, a4, 1f17 <processAriEncoder_fx+0x65f>
    1f12:	140c           	movi.n	a4, 1
    1f14:	0f5142        	s16i	a4, a1, 30
    1f17:	f8cf91        	l32r	a9, 254 (bae0 <g_p_enc_stream>)
    1f1a:	8c4d           	ae_sext16	a4, a12
    1f1c:	51b9           	s32i.n	a11, a1, 20
    1f1e:	6d14a6        	blti	a4, 1, 1f8f <processAriEncoder_fx+0x6d7>
    1f21:	0f1142        	l16ui	a4, a1, 30
    1f24:	ffa0f2        	movi	a15, 255
    1f27:	9ced           	ae_zext16	a14, a12
    1f29:	dc0b           	addi.n	a13, a12, -1
    1f2b:	11ff00        	slli	a15, a15, 16
    1f2e:	000e46        	j	1f6b <processAriEncoder_fx+0x6b3>

00001f31 <processAriEncoder_fx+0x679>:
	...

00001f32 <processAriEncoder_fx+0x67a>:
    1f32:	875d           	ae_sext16	a5, a7
    1f34:	00c596        	bltz	a5, 1f44 <processAriEncoder_fx+0x68c>
    1f37:	838d           	ae_sext16	a8, a3
    1f39:	631b           	addi.n	a6, a3, 1
    1f3b:	547a           	add.n	a5, a4, a7
    1f3d:	828a           	add.n	a8, a2, a8
    1f3f:	063d           	mov.n	a3, a6
    1f41:	004852        	s8i	a5, a8, 0
    1f44:	8a5d           	ae_sext16	a5, a10
    1f46:	1115a6        	blti	a5, 1, 1f5b <processAriEncoder_fx+0x6a3>
    1f49:	9a5d           	ae_zext16	a5, a10
    1f4b:	440b           	addi.n	a4, a4, -1
    1f4d:	088576        	loop	a5, 1f59 <processAriEncoder_fx+0x6a1>
    1f50:	835d           	ae_sext16	a5, a3
    1f52:	525a           	add.n	a5, a2, a5
    1f54:	331b           	addi.n	a3, a3, 1
    1f56:	004542        	s8i	a4, a5, 0

00001f59 <processAriEncoder_fx+0x6a1>:
    1f59:	0a0c           	movi.n	a10, 0

00001f5b <processAriEncoder_fx+0x6a3>:
    1f5b:	f570b0        	extui	a7, a11, 16, 16
    1f5e:	040c           	movi.n	a4, 0
    1f60:	9b5d           	ae_zext16	a5, a11
    1f62:	f8cee2        	addi	a14, a14, -8
    1f65:	11b580        	slli	a11, a5, 8
    1f68:	0a1ea6        	blti	a14, 1, 1f76 <processAriEncoder_fx+0x6be>
    1f6b:	c33bf7        	bltu	a11, a15, 1f32 <processAriEncoder_fx+0x67a>
    1f6e:	c01426        	beqi	a4, 1, 1f32 <processAriEncoder_fx+0x67a>
    1f71:	aa1b           	addi.n	a10, a10, 1
    1f73:	fffa46        	j	1f60 <processAriEncoder_fx+0x6a8>

00001f76 <processAriEncoder_fx+0x6be>:
    1f76:	857c           	movi.n	a5, -8
    1f78:	10fd50        	and	a15, a13, a5
    1f7b:	0f5142        	s16i	a4, a1, 30
    1f7e:	c04cf0        	sub	a4, a12, a15
    1f81:	f8c4c2        	addi	a12, a4, -8
    1f84:	1051a2        	s16i	a10, a1, 32
    1f87:	0e5172        	s16i	a7, a1, 28
    1f8a:	085132        	s16i	a3, a1, 16
    1f8d:	51b9           	s32i.n	a11, a1, 20
    1f8f:	8a4d           	ae_sext16	a4, a10
    1f91:	bc8b           	addi.n	a11, a12, 8
    1f93:	0214e6        	bgei	a4, 1, 1f99 <processAriEncoder_fx+0x6e1>
    1f96:	002786        	j	2038 <processAriEncoder_fx+0x780>
    1f99:	834d           	ae_sext16	a4, a3
    1f9b:	d31b           	addi.n	a13, a3, 1
    1f9d:	424a           	add.n	a4, a2, a4
    1f9f:	9a3d           	ae_zext16	a3, a10
    1fa1:	004472        	s8i	a7, a4, 0
    1fa4:	8d4d           	ae_sext16	a4, a13
    1fa6:	0851d2        	s16i	a13, a1, 16
    1fa9:	1e1326        	beqi	a3, 1, 1fcb <processAriEncoder_fx+0x713>
    1fac:	530b           	addi.n	a5, a3, -1
    1fae:	ffa072        	movi	a7, 255
    1fb1:	ad1b           	addi.n	a10, a13, 1
    1fb3:	0c8576        	loop	a5, 1fc3 <processAriEncoder_fx+0x70b>
    1fb6:	424a           	add.n	a4, a2, a4
    1fb8:	004472        	s8i	a7, a4, 0
    1fbb:	330b           	addi.n	a3, a3, -1
    1fbd:	0add           	mov.n	a13, a10
    1fbf:	8a4d           	ae_sext16	a4, a10
    1fc1:	aa1b           	addi.n	a10, a10, 1

00001fc3 <processAriEncoder_fx+0x70b>:
    1fc3:	5a0b           	addi.n	a5, a10, -1
    1fc5:	105132        	s16i	a3, a1, 32
    1fc8:	085152        	s16i	a5, a1, 16

00001fcb <processAriEncoder_fx+0x713>:
    1fcb:	324a           	add.n	a3, a2, a4
    1fcd:	000342        	l8ui	a4, a3, 0
    1fd0:	6070c0        	neg	a7, a12
    1fd3:	8c5d           	ae_sext16	a5, a12
    1fd5:	987c           	movi.n	a8, -7
    1fd7:	400700        	ssr	a7
    1fda:	202587        	blt	a5, a8, 1ffe <processAriEncoder_fx+0x746>
    1fdd:	ffa052        	movi	a5, 255
    1fe0:	8b8d           	ae_sext16	a8, a11
    1fe2:	80a0a2        	movi	a10, 128
    1fe5:	070c           	movi.n	a7, 0
    1fe7:	91c050        	srl	a12, a5
    1fea:	108876        	loop	a8, 1ffe <processAriEncoder_fx+0x746>
    1fed:	105ac0        	and	a5, a10, a12
    1ff0:	204a40        	or	a4, a10, a4
    1ff3:	4181a0        	srli	a8, a10, 1
    1ff6:	93a750        	movnez	a10, a7, a5
    1ff9:	c044a0        	sub	a4, a4, a10
    1ffc:	08ad           	mov.n	a10, a8

00001ffe <processAriEncoder_fx+0x746>:
    1ffe:	004342        	s8i	a4, a3, 0
    2001:	001906        	j	2069 <processAriEncoder_fx+0x7b1>

00002004 <processAriEncoder_fx+0x74c>:
	...

00002005 <processAriEncoder_fx+0x74d>:
    2005:	252162        	l32i	a6, a1, 148
    2008:	09c8           	l32i.n	a12, a9, 0
    200a:	0e0c           	movi.n	a14, 0
    200c:	434640        	min	a4, a6, a4
    200f:	a149           	s32i.n	a4, a1, 40
    2011:	114400        	slli	a4, a4, 16
    2014:	0214e6        	bgei	a4, 1, 201a <processAriEncoder_fx+0x762>
    2017:	ffad86        	j	1ed1 <processAriEncoder_fx+0x619>
    201a:	a158           	l32i.n	a5, a1, 40
    201c:	242142        	l32i	a4, a1, 144
    201f:	85fd           	ae_sext16	a15, a5
    2021:	0e8f76        	loop	a15, 2033 <processAriEncoder_fx+0x77b>
    2024:	f4ea           	add.n	a15, a4, a14
    2026:	000ff2        	l8ui	a15, a15, 0
    2029:	ee1b           	addi.n	a14, a14, 1
    202b:	23ff00        	sext	a15, a15, 7
    202e:	111cf4        	ae_sbi	a12, a15, 1
    2031:	09c9           	s32i.n	a12, a9, 0

00002033 <processAriEncoder_fx+0x77b>:
    2033:	ffa686        	j	1ed1 <processAriEncoder_fx+0x619>

00002036 <processAriEncoder_fx+0x77e>:
	...

00002038 <processAriEncoder_fx+0x780>:
    2038:	834d           	ae_sext16	a4, a3
    203a:	424a           	add.n	a4, a2, a4
    203c:	0004a2        	l8ui	a10, a4, 0
    203f:	8c5d           	ae_sext16	a5, a12
    2041:	987c           	movi.n	a8, -7
    2043:	1d2587        	blt	a5, a8, 2064 <processAriEncoder_fx+0x7ac>
    2046:	8b5d           	ae_sext16	a5, a11
    2048:	80a0d2        	movi	a13, 128
    204b:	0c0c           	movi.n	a12, 0
    204d:	108576        	loop	a5, 2061 <processAriEncoder_fx+0x7a9>
    2050:	105d70        	and	a5, a13, a7
    2053:	208da0        	or	a8, a13, a10
    2056:	4191d0        	srli	a9, a13, 1
    2059:	93dc50        	movnez	a13, a12, a5
    205c:	c0a8d0        	sub	a10, a8, a13
    205f:	09dd           	mov.n	a13, a9

00002061 <processAriEncoder_fx+0x7a9>:
    2061:	f87c91        	l32r	a9, 254 (bae0 <g_p_enc_stream>)

00002064 <processAriEncoder_fx+0x7ac>:
    2064:	03dd           	mov.n	a13, a3
    2066:	0044a2        	s8i	a10, a4, 0
    2069:	f87b41        	l32r	a4, 258 (badc <g_p_enc_based>)
    206c:	142132        	l32i	a3, a1, 80
    206f:	0958           	l32i.n	a5, a9, 0
    2071:	0448           	l32i.n	a4, a4, 0
    2073:	330b           	addi.n	a3, a3, -1
    2075:	833d           	ae_sext16	a3, a3
    2077:	213330        	srai	a3, a3, 3
    207a:	c0f540        	sub	a15, a5, a4
    207d:	223a           	add.n	a2, a2, a3
    207f:	3f2b           	addi.n	a3, a15, 2
    2081:	117310        	slli	a7, a3, 15
    2084:	f83a31        	l32r	a3, 16c (ba2c <BitReverseTable256>)
    2087:	1617a6        	blti	a7, 1, 20a1 <processAriEncoder_fx+0x7e9>
    208a:	215f70        	srai	a5, a7, 15
    208d:	108576        	loop	a5, 20a1 <processAriEncoder_fx+0x7e9>
    2090:	000472        	l8ui	a7, a4, 0
    2093:	0358           	l32i.n	a5, a3, 0
    2095:	441b           	addi.n	a4, a4, 1
    2097:	557a           	add.n	a5, a5, a7
    2099:	000552        	l8ui	a5, a5, 0
    209c:	004252        	s8i	a5, a2, 0
    209f:	220b           	addi.n	a2, a2, -1

000020a1 <processAriEncoder_fx+0x7e9>:
    20a1:	0072c4        	rur.ae_bitptr	a7
    20a4:	0358           	l32i.n	a5, a3, 0
    20a6:	e34f10        	rur.ae_bithead	a4
    20a9:	37ac           	beqz.n	a7, 20d0 <processAriEncoder_fx+0x818>
    20ab:	758840        	extui	a8, a4, 24, 8
    20ae:	558a           	add.n	a5, a5, a8
    20b0:	000592        	l8ui	a9, a5, 0
    20b3:	9f0c           	movi.n	a15, 9
    20b5:	0e37f7        	bltu	a7, a15, 20c7 <processAriEncoder_fx+0x80f>
    20b8:	004292        	s8i	a9, a2, 0
    20bb:	0338           	l32i.n	a3, a3, 0
    20bd:	754040        	extui	a4, a4, 16, 8
    20c0:	220b           	addi.n	a2, a2, -1
    20c2:	334a           	add.n	a3, a3, a4
    20c4:	000392        	l8ui	a9, a3, 0

000020c7 <processAriEncoder_fx+0x80f>:
    20c7:	000232        	l8ui	a3, a2, 0
    20ca:	203390        	or	a3, a3, a9
    20cd:	004232        	s8i	a3, a2, 0
    20d0:	b128           	l32i.n	a2, a1, 44
    20d2:	142132        	l32i	a3, a1, 80
    20d5:	a148           	l32i.n	a4, a1, 40
    20d7:	91f8           	l32i.n	a15, a1, 36
    20d9:	22ba           	add.n	a2, a2, a11
    20db:	c03340        	sub	a3, a3, a4
    20de:	b02d20        	addx8	a2, a13, a2
    20e1:	c033f0        	sub	a3, a3, a15
    20e4:	c02320        	sub	a2, a3, a2
    20e7:	822d           	ae_sext16	a2, a2
    20e9:	f01d           	retw.n

000020eb <processAriEncoder_fx+0x833>:
	...

000020ec <ac_encode_fx>:
    20ec:	004136        	entry	a1, 32
    20ef:	1478           	l32i.n	a7, a4, 4
    20f1:	0498           	l32i.n	a9, a4, 0
    20f3:	1f0c           	movi.n	a15, 1
    20f5:	418a70        	srli	a8, a7, 10
    20f8:	825850        	mull	a5, a8, a5
    20fb:	fa7c           	movi.n	a10, -1
    20fd:	759a           	add.n	a7, a5, a9
    20ff:	015f80        	slli	a5, a15, 24
    2102:	0479           	s32i.n	a7, a4, 0
    2104:	0c3757        	bltu	a7, a5, 2114 <ac_encode_fx+0x28>
    2107:	4198a0        	srli	a9, a10, 8
    210a:	107790        	and	a7, a7, a9
    210d:	150c           	movi.n	a5, 1
    210f:	055452        	s16i	a5, a4, 10
    2112:	0479           	s32i.n	a7, a4, 0

00002114 <ac_encode_fx+0x28>:
    2114:	828860        	mull	a8, a8, a6
    2117:	1489           	s32i.n	a8, a4, 4
    2119:	7318f6        	bgeui	a8, 0x10000, 2190 <ac_encode_fx+0xa4>
    211c:	ffa052        	movi	a5, 255
    211f:	115500        	slli	a5, a5, 16
    2122:	060c           	movi.n	a6, 0
    2124:	000386        	j	2136 <ac_encode_fx+0x4a>

00002127 <ac_encode_fx+0x3b>:
    2127:	9a1b           	addi.n	a9, a10, 1
    2129:	065492        	s16i	a9, a4, 12
    212c:	977d           	ae_zext16	a7, a7
    212e:	117780        	slli	a7, a7, 8
    2131:	0479           	s32i.n	a7, a4, 0
    2133:	5918f6        	bgeui	a8, 0x10000, 2190 <ac_encode_fx+0xa4>
    2136:	118880        	slli	a8, a8, 8
    2139:	1489           	s32i.n	a8, a4, 4
    213b:	083757        	bltu	a7, a5, 2147 <ac_encode_fx+0x5b>
    213e:	051492        	l16ui	a9, a4, 10
    2141:	0694a2        	l16si	a10, a4, 12
    2144:	df1966        	bnei	a9, 1, 2127 <ac_encode_fx+0x3b>
    2147:	049472        	l16si	a7, a4, 8
    214a:	0a0482        	l8ui	a8, a4, 10
    214d:	00c796        	bltz	a7, 215d <ac_encode_fx+0x71>
    2150:	239d           	ae_l16si.n	a9, a3, 0
    2152:	787a           	add.n	a7, a8, a7
    2154:	f91b           	addi.n	a15, a9, 1
    2156:	929a           	add.n	a9, a2, a9
    2158:	63fd           	ae_s16i.n	a15, a3, 0
    215a:	004972        	s8i	a7, a9, 0
    215d:	069472        	l16si	a7, a4, 12
    2160:	1c17a6        	blti	a7, 1, 2180 <ac_encode_fx+0x94>
    2163:	0a0472        	l8ui	a7, a4, 10
    2166:	238d           	ae_l16si.n	a8, a3, 0
    2168:	770b           	addi.n	a7, a7, -1
    216a:	981b           	addi.n	a9, a8, 1
    216c:	828a           	add.n	a8, a2, a8
    216e:	639d           	ae_s16i.n	a9, a3, 0
    2170:	004872        	s8i	a7, a8, 0
    2173:	069472        	l16si	a7, a4, 12
    2176:	770b           	addi.n	a7, a7, -1
    2178:	87fd           	ae_sext16	a15, a7
    217a:	065472        	s16i	a7, a4, 12
    217d:	e21fe6        	bgei	a15, 1, 2163 <ac_encode_fx+0x77>
    2180:	0478           	l32i.n	a7, a4, 0
    2182:	055462        	s16i	a6, a4, 10
    2185:	318070        	srai	a8, a7, 16
    2188:	045482        	s16i	a8, a4, 8
    218b:	1488           	l32i.n	a8, a4, 4
    218d:	ffe6c6        	j	212c <ac_encode_fx+0x40>

00002190 <ac_encode_fx+0xa4>:
    2190:	f01d           	retw.n

00002192 <ac_encode_fx+0xa6>:
	...

00002194 <processAriDecoder_fx>:
    2194:	010136        	entry	a1, 128
    2197:	f83281        	l32r	a8, 260 (bad4 <g_p_dec_based>)
    219a:	f830e1        	l32r	a14, 25c (bad8 <g_p_dec_stream>)
    219d:	a04770        	addx4	a4, a7, a7
    21a0:	1144b0        	slli	a4, a4, 5
    21a3:	a44d           	ae_clamps16	a4, a4
    21a5:	0e78           	l32i.n	a7, a14, 0
    21a7:	0888           	l32i.n	a8, a8, 0
    21a9:	00b2c4        	rur.ae_bitptr	a11
    21ac:	c0c540        	sub	a12, a5, a4
    21af:	60afd2        	movi	a13, -160
    21b2:	4cda           	add.n	a4, a12, a13
    21b4:	ec7c           	movi.n	a12, -2
    21b6:	7f0c           	movi.n	a15, 7
    21b8:	21e350        	srai	a14, a5, 3
    21bb:	2169           	s32i.n	a6, a1, 8
    21bd:	6e1b           	addi.n	a6, a14, 1
    21bf:	62bfb0        	saltu	a11, a15, a11
    21c2:	c08780        	sub	a8, a7, a8
    21c5:	f4c0c0        	extui	a12, a12, 0, 16
    21c8:	10d8c0        	and	a13, a8, a12
    21cb:	166162        	s32i	a6, a1, 88
    21ce:	c066b0        	sub	a6, a6, a11
    21d1:	c066d0        	sub	a6, a6, a13
    21d4:	2f21a2        	l32i	a10, a1, 188
    21d7:	2d2192        	l32i	a9, a1, 180
    21da:	2721f2        	l32i	a15, a1, 156
    21dd:	41a9           	s32i.n	a10, a1, 16
    21df:	5199           	s32i.n	a9, a1, 20
    21e1:	636d           	ae_s16i.n	a6, a3, 0
    21e3:	116132        	s32i	a3, a1, 68
    21e6:	1261f2        	s32i	a15, a1, 72
    21e9:	252162        	l32i	a6, a1, 148
    21ec:	232192        	l32i	a9, a1, 140
    21ef:	2e21a2        	l32i	a10, a1, 184
    21f2:	2c21e2        	l32i	a14, a1, 176
    21f5:	2b21c2        	l32i	a12, a1, 172
    21f8:	2a2172        	l32i	a7, a1, 168
    21fb:	2921d2        	l32i	a13, a1, 164
    21fe:	262182        	l32i	a8, a1, 152
    2201:	2421f2        	l32i	a15, a1, 144
    2204:	202132        	l32i	a3, a1, 128
    2207:	6169           	s32i.n	a6, a1, 24
    2209:	d199           	s32i.n	a9, a1, 52
    220b:	2221b2        	l32i	a11, a1, 136
    220e:	212162        	l32i	a6, a1, 132
    2211:	844d           	ae_sext16	a4, a4
    2213:	390c           	movi.n	a9, 3
    2215:	a1b9           	s32i.n	a11, a1, 40
    2217:	9149           	s32i.n	a4, a1, 36
    2219:	7169           	s32i.n	a6, a1, 28
    221b:	00a0b2        	movi	a11, 0
    221e:	204220        	or	a4, a2, a2
    2221:	098976        	loop	a9, 222e <processAriDecoder_fx+0x9a>
    2224:	000492        	l8ui	a9, a4, 0
    2227:	116b80        	slli	a6, a11, 8
    222a:	441b           	addi.n	a4, a4, 1
    222c:	b69a           	add.n	a11, a6, a9

0000222e <processAriDecoder_fx+0x9a>:
    222e:	7148           	l32i.n	a4, a1, 28
    2230:	1061a2        	s32i	a10, a1, 64
    2233:	8179           	s32i.n	a7, a1, 32
    2235:	136182        	s32i	a8, a1, 76
    2238:	f1c9           	s32i.n	a12, a1, 60
    223a:	e1d9           	s32i.n	a13, a1, 56
    223c:	156152        	s32i	a5, a1, 84
    223f:	1461e2        	s32i	a14, a1, 80
    2242:	1761f2        	s32i	a15, a1, 92
    2245:	0214e6        	bgei	a4, 1, 224b <processAriDecoder_fx+0xb7>
    2248:	0066c6        	j	23e7 <processAriDecoder_fx+0x253>
    224b:	f79e41        	l32r	a4, c4 (b904 <ac_tns_order_cumfreq>)
    224e:	f79c51        	l32r	a5, c0 (b900 <ac_tns_order_freq>)
    2251:	1133c0        	slli	a3, a3, 4
    2254:	0448           	l32i.n	a4, a4, 0
    2256:	0558           	l32i.n	a5, a5, 0
    2258:	6188           	l32i.n	a8, a1, 24
    225a:	443a           	add.n	a4, a4, a3
    225c:	060c           	movi.n	a6, 0
    225e:	353a           	add.n	a3, a5, a3
    2260:	f48b           	addi.n	a15, a4, 8
    2262:	fe7c           	movi.n	a14, -1
    2264:	1169           	s32i.n	a6, a1, 4
    2266:	4168e0        	srli	a6, a14, 8
    2269:	370c           	movi.n	a7, 3
    226b:	b139           	s32i.n	a3, a1, 44
    226d:	c149           	s32i.n	a4, a1, 48
    226f:	31f9           	s32i.n	a15, a1, 12

00002271 <processAriDecoder_fx+0xdd>:
    2271:	283d           	ae_l16si.n	a3, a8, 0
    2273:	3198           	l32i.n	a9, a1, 12
    2275:	415a60        	srli	a5, a6, 10
    2278:	0213e6        	bgei	a3, 1, 227e <processAriDecoder_fx+0xea>
    227b:	0052c6        	j	23ca <processAriDecoder_fx+0x236>
    227e:	140c           	movi.n	a4, 1
    2280:	293d           	ae_l16si.n	a3, a9, 0
    2282:	2c0c           	movi.n	a12, 2
    2284:	b1f8           	l32i.n	a15, a1, 44
    2286:	823530        	mull	a3, a5, a3
    2289:	00aca2        	movi	a10, 0xfffffc00
    228c:	623b30        	saltu	a3, a11, a3
    228f:	303340        	xor	a3, a3, a4
    2292:	a043c0        	addx4	a4, a3, a12
    2295:	c1c8           	l32i.n	a12, a1, 48
    2297:	1133e0        	slli	a3, a3, 2
    229a:	10e6a0        	and	a14, a6, a10
    229d:	9094c0        	addx2	a9, a4, a12
    22a0:	299d           	ae_l16si.n	a9, a9, 0
    22a2:	829590        	mull	a9, a5, a9
    22a5:	629b90        	saltu	a9, a11, a9
    22a8:	833490        	moveqz	a3, a4, a9
    22ab:	431b           	addi.n	a4, a3, 1
    22ad:	90d4c0        	addx2	a13, a4, a12
    22b0:	2d9d           	ae_l16si.n	a9, a13, 0
    22b2:	829590        	mull	a9, a5, a9
    22b5:	629b90        	saltu	a9, a11, a9
    22b8:	833490        	moveqz	a3, a4, a9
    22bb:	431b           	addi.n	a4, a3, 1
    22bd:	9093c0        	addx2	a9, a3, a12
    22c0:	684d           	ae_s16i.n	a4, a8, 0
    22c2:	9033f0        	addx2	a3, a3, a15
    22c5:	299d           	ae_l16si.n	a9, a9, 0
    22c7:	233d           	ae_l16si.n	a3, a3, 0
    22c9:	624be0        	saltu	a4, a11, a14
    22cc:	829950        	mull	a9, a9, a5
    22cf:	826530        	mull	a6, a5, a3
    22d2:	c0bb90        	sub	a11, a11, a9
    22d5:	1716f6        	bgeui	a6, 0x10000, 22f0 <processAriDecoder_fx+0x15c>
    22d8:	0b3d           	mov.n	a3, a11
    22da:	875d           	ae_sext16	a5, a7
    22dc:	525a           	add.n	a5, a2, a5
    22de:	0005b2        	l8ui	a11, a5, 0
    22e1:	06fd           	mov.n	a15, a6
    22e3:	771b           	addi.n	a7, a7, 1
    22e5:	8af3b0        	depbits	a11, a3, 8, 16
    22e8:	116680        	slli	a6, a6, 8
    22eb:	0b3d           	mov.n	a3, a11
    22ed:	e9ffb6        	bltui	a15, 0x100, 22da <processAriDecoder_fx+0x146>
    22f0:	f778d1        	l32r	a13, d0 (b910 <ac_tns_coef_cumfreq>)
    22f3:	f776e1        	l32r	a14, cc (b90c <ac_tns_coef_freq>)
    22f6:	1138           	l32i.n	a3, a1, 4
    22f8:	150c           	movi.n	a5, 1
    22fa:	0df8           	l32i.n	a15, a13, 0
    22fc:	833540        	moveqz	a3, a5, a4
    22ff:	0e98           	l32i.n	a9, a14, 0
    2301:	5148           	l32i.n	a4, a1, 20
    2303:	050c           	movi.n	a5, 0
    2305:	1139           	s32i.n	a3, a1, 4
    2307:	112132        	l32i	a3, a1, 68
    230a:	41ca60        	srli	a12, a6, 10
    230d:	1d0c           	movi.n	a13, 1
    230f:	233d           	ae_l16si.n	a3, a3, 0
    2311:	4e0c           	movi.n	a14, 4
    2313:	c03370        	sub	a3, a3, a7
    2316:	833d           	ae_sext16	a3, a3
    2318:	2f1396        	bltz	a3, 260d <processAriDecoder_fx+0x479>
    231b:	089f32        	l16si	a3, a15, 16
    231e:	08ad           	mov.n	a10, a8
    2320:	823c30        	mull	a3, a12, a3
    2323:	623b30        	saltu	a3, a11, a3
    2326:	3033d0        	xor	a3, a3, a13
    2329:	b0d3e0        	addx8	a13, a3, a14
    232c:	90edf0        	addx2	a14, a13, a15
    232f:	2eed           	ae_l16si.n	a14, a14, 0
    2331:	1133d0        	slli	a3, a3, 3
    2334:	82ece0        	mull	a14, a12, a14
    2337:	62ebe0        	saltu	a14, a11, a14
    233a:	833de0        	moveqz	a3, a13, a14
    233d:	d32b           	addi.n	a13, a3, 2
    233f:	908df0        	addx2	a8, a13, a15
    2342:	28ed           	ae_l16si.n	a14, a8, 0
    2344:	82ece0        	mull	a14, a12, a14
    2347:	62ebe0        	saltu	a14, a11, a14
    234a:	833de0        	moveqz	a3, a13, a14
    234d:	d31b           	addi.n	a13, a3, 1
    234f:	908df0        	addx2	a8, a13, a15
    2352:	28ed           	ae_l16si.n	a14, a8, 0
    2354:	828ce0        	mull	a8, a12, a14
    2357:	03ed           	mov.n	a14, a3
    2359:	283b87        	bltu	a11, a8, 2385 <processAriDecoder_fx+0x1f1>
    235c:	e80c           	movi.n	a8, 14
    235e:	0ded           	mov.n	a14, a13
    2360:	219387        	bne	a3, a8, 2385 <processAriDecoder_fx+0x1f1>
    2363:	109f32        	l16si	a3, a15, 32
    2366:	0e1c           	movi.n	a14, 16
    2368:	00ac82        	movi	a8, 0xfffffc00
    236b:	823c30        	mull	a3, a12, a3
    236e:	106680        	and	a6, a6, a8
    2371:	623b30        	saltu	a3, a11, a3
    2374:	83de30        	moveqz	a13, a14, a3
    2377:	1138           	l32i.n	a3, a1, 4
    2379:	626b60        	saltu	a6, a11, a6
    237c:	1e0c           	movi.n	a14, 1
    237e:	833e60        	moveqz	a3, a14, a6
    2381:	0ded           	mov.n	a14, a13
    2383:	1139           	s32i.n	a3, a1, 4
    2385:	113ef0        	slli	a3, a14, 1
    2388:	6f3a           	add.n	a6, a15, a3
    238a:	64ed           	ae_s16i.n	a14, a4, 0
    238c:	393a           	add.n	a3, a9, a3
    238e:	266d           	ae_l16si.n	a6, a6, 0
    2390:	233d           	ae_l16si.n	a3, a3, 0
    2392:	8286c0        	mull	a8, a6, a12
    2395:	826c30        	mull	a6, a12, a3
    2398:	c0bb80        	sub	a11, a11, a8
    239b:	1716f6        	bgeui	a6, 0x10000, 23b6 <processAriDecoder_fx+0x222>
    239e:	0b3d           	mov.n	a3, a11
    23a0:	878d           	ae_sext16	a8, a7
    23a2:	828a           	add.n	a8, a2, a8
    23a4:	0008b2        	l8ui	a11, a8, 0
    23a7:	06ed           	mov.n	a14, a6
    23a9:	771b           	addi.n	a7, a7, 1
    23ab:	8af3b0        	depbits	a11, a3, 8, 16
    23ae:	116680        	slli	a6, a6, 8
    23b1:	0b3d           	mov.n	a3, a11
    23b3:	e9feb6        	bltui	a14, 0x100, 23a0 <processAriDecoder_fx+0x20c>
    23b6:	2a3d           	ae_l16si.n	a3, a10, 0
    23b8:	551b           	addi.n	a5, a5, 1
    23ba:	0a8d           	mov.n	a8, a10
    23bc:	22cff2        	addi	a15, a15, 34
    23bf:	22c992        	addi	a9, a9, 34
    23c2:	442b           	addi.n	a4, a4, 2
    23c4:	02a537        	bge	a5, a3, 23ca <processAriDecoder_fx+0x236>
    23c7:	ffcf06        	j	2307 <processAriDecoder_fx+0x173>
    23ca:	5138           	l32i.n	a3, a1, 20
    23cc:	71f8           	l32i.n	a15, a1, 28
    23ce:	882b           	addi.n	a8, a8, 2
    23d0:	10c332        	addi	a3, a3, 16
    23d3:	5139           	s32i.n	a3, a1, 20
    23d5:	3f0b           	addi.n	a3, a15, -1
    23d7:	7139           	s32i.n	a3, a1, 28
    23d9:	e94356        	bnez	a3, 2271 <processAriDecoder_fx+0xdd>
    23dc:	1138           	l32i.n	a3, a1, 4
    23de:	0213a6        	blti	a3, 1, 23e4 <processAriDecoder_fx+0x250>
    23e1:	008a06        	j	260d <processAriDecoder_fx+0x479>
    23e4:	000286        	j	23f2 <processAriDecoder_fx+0x25e>

000023e7 <processAriDecoder_fx+0x253>:
    23e7:	f67c           	movi.n	a6, -1
    23e9:	030c           	movi.n	a3, 0
    23eb:	416860        	srli	a6, a6, 8
    23ee:	370c           	movi.n	a7, 3
    23f0:	1139           	s32i.n	a3, a1, 4
    23f2:	2138           	l32i.n	a3, a1, 8
    23f4:	d1d8           	l32i.n	a13, a1, 52
    23f6:	fc208000cf 	{ movi	a12, 0; ae_zerop48	aep0 }
    23fb:	21e130        	srai	a14, a3, 1
    23fe:	0f0c           	movi.n	a15, 0
    2400:	31c9           	s32i.n	a12, a1, 12
    2402:	61e9           	s32i.n	a14, a1, 24
    2404:	021de6        	bgei	a13, 1, 240a <processAriDecoder_fx+0x276>
    2407:	0082c6        	j	2616 <processAriDecoder_fx+0x482>
    240a:	f75ad1        	l32r	a13, 174 (ba34 <Bit_Shft>)
    240d:	9138           	l32i.n	a3, a1, 36
    240f:	f75a41        	l32r	a4, 178 (ba38 <AB_Shft>)
    2412:	8158           	l32i.n	a5, a1, 32
    2414:	0dd8           	l32i.n	a13, a13, 0
    2416:	723f30        	salt	a3, a15, a3
    2419:	04f8           	l32i.n	a15, a4, 0
    241b:	080c           	movi.n	a8, 0
    241d:	fcc5c2        	addi	a12, a5, -4
    2420:	b1f9           	s32i.n	a15, a1, 44
    2422:	c139           	s32i.n	a3, a1, 48
    2424:	090c           	movi.n	a9, 0
    2426:	e0a052        	movi	a5, 224
    2429:	3189           	s32i.n	a8, a1, 12
    242b:	040c           	movi.n	a4, 0
    242d:	0f0c           	movi.n	a15, 0
    242f:	001e46        	j	24ac <processAriDecoder_fx+0x318>

00002432 <processAriDecoder_fx+0x29e>:
    2432:	e30c           	movi.n	a3, 14
    2434:	029437        	bne	a4, a3, 243a <processAriDecoder_fx+0x2a6>
    2437:	007486        	j	260d <processAriDecoder_fx+0x479>
    243a:	a138           	l32i.n	a3, a1, 40
    243c:	61e8           	l32i.n	a14, a1, 24
    243e:	91f8           	l32i.n	a15, a1, 36
    2440:	51c8           	l32i.n	a12, a1, 20
    2442:	0e1366        	bnei	a3, 1, 2454 <processAriDecoder_fx+0x2c0>
    2445:	3188           	l32i.n	a8, a1, 12
    2447:	4198           	l32i.n	a9, a1, 16
    2449:	381b           	addi.n	a3, a8, 1
    244b:	888d           	ae_sext16	a8, a8
    244d:	908890        	addx2	a8, a8, a9
    2450:	3139           	s32i.n	a3, a1, 12
    2452:	68fd           	ae_s16i.n	a15, a8, 0
    2454:	b188           	l32i.n	a8, a1, 44
    2456:	1135e0        	slli	a3, a5, 2
    2459:	031644        	wur.ae_sar	a4
    245c:	452834        	ae_lp16x2f.x	aep2, a8, a3
    245f:	0b20a4        	ae_sllssp24s	aep2, aep2
    2462:	079214        	ae_addsp24s	aep1, aep1, aep2
    2465:	469c14        	ae_sp16x2f.iu	aep1, a12, 4
    2468:	2cad           	ae_l16si.n	a10, a12, 0
    246a:	f77c91        	l32r	a9, 25c (bad8 <g_p_dec_stream>)
    246d:	038f14        	ae_lbi	a8, 1
    2470:	101aa6        	blti	a10, 1, 2484 <processAriDecoder_fx+0x2f0>
    2473:	0938           	l32i.n	a3, a9, 0
    2475:	0013f4        	ae_dbi	a3, 1
    2478:	0939           	s32i.n	a3, a9, 0
    247a:	061866        	bnei	a8, 1, 2484 <processAriDecoder_fx+0x2f0>
    247d:	2c3d           	ae_l16si.n	a3, a12, 0
    247f:	603030        	neg	a3, a3
    2482:	6c3d           	ae_s16i.n	a3, a12, 0
    2484:	3c3d           	ae_l16si.n	a3, a12, 2
    2486:	f77591        	l32r	a9, 25c (bad8 <g_p_dec_stream>)
    2489:	038f14        	ae_lbi	a8, 1
    248c:	1013a6        	blti	a3, 1, 24a0 <processAriDecoder_fx+0x30c>
    248f:	0938           	l32i.n	a3, a9, 0
    2491:	0013f4        	ae_dbi	a3, 1
    2494:	0939           	s32i.n	a3, a9, 0
    2496:	061866        	bnei	a8, 1, 24a0 <processAriDecoder_fx+0x30c>
    2499:	3c3d           	ae_l16si.n	a3, a12, 2
    249b:	603030        	neg	a3, a3
    249e:	7c3d           	ae_s16i.n	a3, a12, 2
    24a0:	d138           	l32i.n	a3, a1, 52
    24a2:	7198           	l32i.n	a9, a1, 28
    24a4:	ff2b           	addi.n	a15, a15, 2
    24a6:	022f37        	blt	a15, a3, 24ac <processAriDecoder_fx+0x318>
    24a9:	005a46        	j	2616 <processAriDecoder_fx+0x482>
    24ac:	f73131        	l32r	a3, 170 (ba30 <Tab_T>)
    24af:	1144c0        	slli	a4, a4, 4
    24b2:	454a           	add.n	a4, a5, a4
    24b4:	0338           	l32i.n	a3, a3, 0
    24b6:	348090        	extui	a8, a9, 0, 4
    24b9:	51c9           	s32i.n	a12, a1, 20
    24bb:	334a           	add.n	a3, a3, a4
    24bd:	000332        	l8ui	a3, a3, 0
    24c0:	f6f8a1        	l32r	a10, a0 (b8e0 <ari_spec_lookup>)
    24c3:	c1c8           	l32i.n	a12, a1, 48
    24c5:	1198c0        	slli	a9, a8, 4
    24c8:	593a           	add.n	a5, a9, a3
    24ca:	0a38           	l32i.n	a3, a10, 0
    24cc:	7159           	s32i.n	a5, a1, 28
    24ce:	9a0c50        	depbits	a5, a12, 9, 1
    24d1:	724ef0        	salt	a4, a14, a15
    24d4:	01d592        	addmi	a9, a5, 0x100
    24d7:	839540        	moveqz	a9, a5, a4
    24da:	339a           	add.n	a3, a3, a9
    24dc:	000332        	l8ui	a3, a3, 0
    24df:	f6f281        	l32r	a8, a8 (b8e8 <ari_spec_freq>)
    24e2:	f6f0a1        	l32r	a10, a4 (b8e4 <ari_spec_cumfreq>)
    24e5:	233300        	sext	a3, a3, 7
    24e8:	0848           	l32i.n	a4, a8, 0
    24ea:	0a58           	l32i.n	a5, a10, 0
    24ec:	11c3b0        	slli	a12, a3, 5
    24ef:	9083c0        	addx2	a8, a3, a12
    24f2:	a58a           	add.n	a10, a5, a8
    24f4:	448a           	add.n	a4, a4, a8
    24f6:	413a60        	srli	a3, a6, 10
    24f9:	151c           	movi.n	a5, 17
    24fb:	22c442        	addi	a4, a4, 34
    24fe:	20cac2        	addi	a12, a10, 32
    2501:	2c8d           	ae_l16si.n	a8, a12, 0
    2503:	feccc2        	addi	a12, a12, -2
    2506:	550b           	addi.n	a5, a5, -1
    2508:	828380        	mull	a8, a3, a8
    250b:	fec442        	addi	a4, a4, -2
    250e:	ef3b87        	bltu	a11, a8, 2501 <processAriDecoder_fx+0x36d>
    2511:	24cd           	ae_l16si.n	a12, a4, 0
    2513:	624b60        	saltu	a4, a11, a6
    2516:	c0bb80        	sub	a11, a11, a8
    2519:	8263c0        	mull	a6, a3, a12
    251c:	0b3d           	mov.n	a3, a11
    251e:	1516f6        	bgeui	a6, 0x10000, 2537 <processAriDecoder_fx+0x3a3>
    2521:	878d           	ae_sext16	a8, a7
    2523:	828a           	add.n	a8, a2, a8
    2525:	0008b2        	l8ui	a11, a8, 0
    2528:	06cd           	mov.n	a12, a6
    252a:	771b           	addi.n	a7, a7, 1
    252c:	8af3b0        	depbits	a11, a3, 8, 16
    252f:	116680        	slli	a6, a6, 8
    2532:	0b3d           	mov.n	a3, a11
    2534:	e9fcb6        	bltui	a12, 0x100, 2521 <processAriDecoder_fx+0x38d>
    2537:	fc20f0118e 	{ l32i	a8, a1, 4; ae_zerop48	aep1 }
    253c:	130c           	movi.n	a3, 1
    253e:	51c8           	l32i.n	a12, a1, 20
    2540:	838340        	moveqz	a8, a3, a4
    2543:	040c           	movi.n	a4, 0
    2545:	1189           	s32i.n	a8, a1, 4
    2547:	02b5e6        	bgei	a5, 16, 254d <processAriDecoder_fx+0x3b9>
    254a:	ffc186        	j	2454 <processAriDecoder_fx+0x2c0>
    254d:	a138           	l32i.n	a3, a1, 40
    254f:	91f9           	s32i.n	a15, a1, 36
    2551:	f74281        	l32r	a8, 25c (bad8 <g_p_dec_stream>)
    2554:	13dc           	bnez.n	a3, 2569 <processAriDecoder_fx+0x3d5>
    2556:	034f24        	ae_lbi	a4, 2
    2559:	0838           	l32i.n	a3, a8, 0
    255b:	1144e0        	slli	a4, a4, 2
    255e:	0023f4        	ae_dbi	a3, 2
    2561:	0839           	s32i.n	a3, a8, 0
    2563:	451d44        	ae_lp16x2f.x	aep1, a13, a4
    2566:	078114        	ae_addsp24s	aep1, aep0, aep1
    2569:	140c           	movi.n	a4, 1
    256b:	0f0c           	movi.n	a15, 0
    256d:	f70331        	l32r	a3, 17c (ba3c <Tab_esc_Dec>)
    2570:	f6cc81        	l32r	a8, a0 (b8e0 <ari_spec_lookup>)
    2573:	f6ccc1        	l32r	a12, a4 (b8e4 <ari_spec_cumfreq>)
    2576:	0338           	l32i.n	a3, a3, 0
    2578:	0888           	l32i.n	a8, a8, 0
    257a:	0cc8           	l32i.n	a12, a12, 0
    257c:	33fa           	add.n	a3, a3, a15
    257e:	333d           	ae_l16si.n	a3, a3, 2
    2580:	41ea60        	srli	a14, a6, 10
    2583:	393a           	add.n	a3, a9, a3
    2585:	383a           	add.n	a3, a8, a3
    2587:	000332        	l8ui	a3, a3, 0
    258a:	233300        	sext	a3, a3, 7
    258d:	11a3b0        	slli	a10, a3, 5
    2590:	9033a0        	addx2	a3, a3, a10
    2593:	a51b           	addi.n	a10, a5, 1
    2595:	903530        	addx2	a3, a5, a3
    2598:	0a5d           	mov.n	a5, a10
    259a:	8c3a           	add.n	a8, a12, a3
    259c:	488d           	ae_l16ui.n	a8, a8, 0
    259e:	fec332        	addi	a3, a3, -2
    25a1:	550b           	addi.n	a5, a5, -1
    25a3:	828e80        	mull	a8, a14, a8
    25a6:	f03b87        	bltu	a11, a8, 259a <processAriDecoder_fx+0x406>
    25a9:	f6bfc1        	l32r	a12, a8 (b8e8 <ari_spec_freq>)
    25ac:	0cc8           	l32i.n	a12, a12, 0
    25ae:	3c3a           	add.n	a3, a12, a3
    25b0:	53cd           	ae_l16ui.n	a12, a3, 2
    25b2:	623b60        	saltu	a3, a11, a6
    25b5:	c0bb80        	sub	a11, a11, a8
    25b8:	826ec0        	mull	a6, a14, a12
    25bb:	0b8d           	mov.n	a8, a11
    25bd:	1516f6        	bgeui	a6, 0x10000, 25d6 <processAriDecoder_fx+0x442>
    25c0:	87bd           	ae_sext16	a11, a7
    25c2:	b2ba           	add.n	a11, a2, a11
    25c4:	000bb2        	l8ui	a11, a11, 0
    25c7:	06cd           	mov.n	a12, a6
    25c9:	771b           	addi.n	a7, a7, 1
    25cb:	8af8b0        	depbits	a11, a8, 8, 16
    25ce:	116680        	slli	a6, a6, 8
    25d1:	0b8d           	mov.n	a8, a11
    25d3:	e9fcb6        	bltui	a12, 0x100, 25c0 <processAriDecoder_fx+0x42c>
    25d6:	11a8           	l32i.n	a10, a1, 4
    25d8:	180c           	movi.n	a8, 1
    25da:	03ef24        	ae_lbi	a14, 2
    25dd:	83a830        	moveqz	a10, a8, a3
    25e0:	11a9           	s32i.n	a10, a1, 4
    25e2:	02b5e6        	bgei	a5, 16, 25e8 <processAriDecoder_fx+0x454>
    25e5:	ff9246        	j	2432 <processAriDecoder_fx+0x29e>
    25e8:	f71dc1        	l32r	a12, 25c (bad8 <g_p_dec_stream>)
    25eb:	031644        	wur.ae_sar	a4
    25ee:	118ee0        	slli	a8, a14, 2
    25f1:	0c38           	l32i.n	a3, a12, 0
    25f3:	441b           	addi.n	a4, a4, 1
    25f5:	452d84        	ae_lp16x2f.x	aep2, a13, a8
    25f8:	0023f4        	ae_dbi	a3, 2
    25fb:	f92b940c3f 	{ s32i.n	a3, a12, 0; ae_sllssp24s	aep2, aep2 }
    2600:	d845400eef 	{ movi	a14, 14; ae_addsp24s	aep1, aep1, aep2 }
    2605:	ff2b           	addi.n	a15, a15, 2
    2607:	0214e7        	beq	a4, a14, 260d <processAriDecoder_fx+0x479>
    260a:	ffd7c6        	j	256d <processAriDecoder_fx+0x3d9>
    260d:	172132        	l32i	a3, a1, 92
    2610:	120c           	movi.n	a2, 1
    2612:	632d           	ae_s16i.n	a2, a3, 0
    2614:	f01d           	retw.n

00002616 <processAriDecoder_fx+0x482>:
    2616:	f71121        	l32r	a2, 25c (bad8 <g_p_dec_stream>)
    2619:	f71131        	l32r	a3, 260 (bad4 <g_p_dec_based>)
    261c:	0042c4        	rur.ae_bitptr	a4
    261f:	0228           	l32i.n	a2, a2, 0
    2621:	0338           	l32i.n	a3, a3, 0
    2623:	1621c2        	l32i	a12, a1, 88
    2626:	7b0c           	movi.n	a11, 7
    2628:	c02230        	sub	a2, a2, a3
    262b:	112210        	slli	a2, a2, 15
    262e:	623b40        	saltu	a3, a11, a4
    2631:	312020        	srai	a2, a2, 16
    2634:	1121d2        	l32i	a13, a1, 68
    2637:	11e8           	l32i.n	a14, a1, 4
    2639:	c03c30        	sub	a3, a12, a3
    263c:	1122f0        	slli	a2, a2, 1
    263f:	c02320        	sub	a2, a3, a2
    2642:	6d2d           	ae_s16i.n	a2, a13, 0
    2644:	c51ee6        	bgei	a14, 1, 260d <processAriDecoder_fx+0x479>
    2647:	873d           	ae_sext16	a3, a7
    2649:	822d           	ae_sext16	a2, a2
    264b:	c02320        	sub	a2, a3, a2
    264e:	bb42e6        	bgei	a2, 4, 260d <processAriDecoder_fx+0x479>
    2651:	2128           	l32i.n	a2, a1, 8
    2653:	8138           	l32i.n	a3, a1, 32
    2655:	21e8           	l32i.n	a14, a1, 8
    2657:	10af27        	bge	a15, a2, 266b <processAriDecoder_fx+0x4d7>
    265a:	0b0c           	movi.n	a11, 0
    265c:	90af30        	addx2	a10, a15, a3
    265f:	c02ef0        	sub	a2, a14, a15
    2662:	11c2f0        	slli	a12, a2, 1
    2665:	f6ff21        	l32r	a2, 264 (bf8 <basop_memset>)
    2668:	0002e0        	callx8	a2
    266b:	f6fc31        	l32r	a3, 25c (bad8 <g_p_dec_stream>)
    266e:	f6fc41        	l32r	a4, 260 (bad4 <g_p_dec_based>)
    2671:	f6fde1        	l32r	a14, 268 (fff0000 <_end+0xffe4518>)
    2674:	0338           	l32i.n	a3, a3, 0
    2676:	0448           	l32i.n	a4, a4, 0
    2678:	1521d2        	l32i	a13, a1, 84
    267b:	00f2c4        	rur.ae_bitptr	a15
    267e:	c03340        	sub	a3, a3, a4
    2681:	113310        	slli	a3, a3, 15
    2684:	40f620        	nsau	a2, a6
    2687:	1157d0        	slli	a5, a7, 3
    268a:	33ea           	add.n	a3, a3, a14
    268c:	413c30        	srli	a3, a3, 12
    268f:	832660        	moveqz	a2, a6, a6
    2692:	c05d50        	sub	a5, a13, a5
    2695:	c02520        	sub	a2, a5, a2
    2698:	33fa           	add.n	a3, a3, a15
    269a:	c02230        	sub	a2, a2, a3
    269d:	1ec222        	addi	a2, a2, 30
    26a0:	822d           	ae_sext16	a2, a2
    26a2:	f67296        	bltz	a2, 260d <processAriDecoder_fx+0x479>
    26a5:	a138           	l32i.n	a3, a1, 40
    26a7:	e1f8           	l32i.n	a15, a1, 56
    26a9:	3148           	l32i.n	a4, a1, 12
    26ab:	120316        	beqz	a3, 27cf <processAriDecoder_fx+0x63b>
    26ae:	030c           	movi.n	a3, 0
    26b0:	6f3d           	ae_s16i.n	a3, a15, 0
    26b2:	1021b2        	l32i	a11, a1, 64
    26b5:	81c8           	l32i.n	a12, a1, 32
    26b7:	f1d8           	l32i.n	a13, a1, 60
    26b9:	61f8           	l32i.n	a15, a1, 24
    26bb:	846d           	ae_sext16	a6, a4
    26bd:	0216e6        	bgei	a6, 1, 26c3 <processAriDecoder_fx+0x52f>
    26c0:	003186        	j	278a <processAriDecoder_fx+0x5f6>
    26c3:	f47c           	movi.n	a4, -1
    26c5:	f44040        	extui	a4, a4, 0, 16
    26c8:	f57c           	movi.n	a5, -1
    26ca:	bc8676        	loop	a6, 278a <processAriDecoder_fx+0x5f6>
    26cd:	0b9216        	beqz	a2, 278a <processAriDecoder_fx+0x5f6>
    26d0:	4168           	l32i.n	a6, a1, 16
    26d2:	f6e2e1        	l32r	a14, 25c (bad8 <g_p_dec_stream>)
    26d5:	037f14        	ae_lbi	a7, 1
    26d8:	266d           	ae_l16si.n	a6, a6, 0
    26da:	0e98           	l32i.n	a9, a14, 0
    26dc:	11a700        	slli	a10, a7, 16
    26df:	9066c0        	addx2	a6, a6, a12
    26e2:	267d           	ae_l16si.n	a7, a6, 0
    26e4:	0019f4        	ae_dbi	a9, 1
    26e7:	820b           	addi.n	a8, a2, -1
    26e9:	886d           	ae_sext16	a6, a8
    26eb:	0e99           	s32i.n	a9, a14, 0
    26ed:	311aa6        	blti	a10, 1, 2722 <processAriDecoder_fx+0x58e>
    26f0:	729370        	salt	a9, a3, a7
    26f3:	779a           	add.n	a7, a7, a9
    26f5:	877d           	ae_sext16	a7, a7
    26f7:	025796        	bltz	a7, 2720 <processAriDecoder_fx+0x58c>
    26fa:	47ec           	bnez.n	a7, 2722 <processAriDecoder_fx+0x58e>
    26fc:	028487        	bany	a4, a8, 2702 <processAriDecoder_fx+0x56e>
    26ff:	0021c6        	j	278a <processAriDecoder_fx+0x5f6>
    2702:	f6d691        	l32r	a9, 25c (bad8 <g_p_dec_stream>)
    2705:	036f14        	ae_lbi	a6, 1
    2708:	fec222        	addi	a2, a2, -2
    270b:	0988           	l32i.n	a8, a9, 0
    270d:	170c           	movi.n	a7, 1
    270f:	112200        	slli	a2, a2, 16
    2712:	0018f4        	ae_dbi	a8, 1
    2715:	937560        	movnez	a7, a5, a6
    2718:	316020        	srai	a6, a2, 16
    271b:	0989           	s32i.n	a8, a9, 0
    271d:	000046        	j	2722 <processAriDecoder_fx+0x58e>

00002720 <processAriDecoder_fx+0x58c>:
    2720:	770b           	addi.n	a7, a7, -1
    2722:	4128           	l32i.n	a2, a1, 16
    2724:	4188           	l32i.n	a8, a1, 16
    2726:	f6cde1        	l32r	a14, 25c (bad8 <g_p_dec_stream>)
    2729:	222d           	ae_l16si.n	a2, a2, 0
    272b:	03af14        	ae_lbi	a10, 1
    272e:	0e98           	l32i.n	a9, a14, 0
    2730:	9022c0        	addx2	a2, a2, a12
    2733:	627d           	ae_s16i.n	a7, a2, 0
    2735:	051616        	beqz	a6, 278a <processAriDecoder_fx+0x5f6>
    2738:	282d           	ae_l16si.n	a2, a8, 0
    273a:	11aa00        	slli	a10, a10, 16
    273d:	0019f4        	ae_dbi	a9, 1
    2740:	9022c0        	addx2	a2, a2, a12
    2743:	327d           	ae_l16si.n	a7, a2, 2
    2745:	860b           	addi.n	a8, a6, -1
    2747:	882d           	ae_sext16	a2, a8
    2749:	0e99           	s32i.n	a9, a14, 0
    274b:	2e1aa6        	blti	a10, 1, 277d <processAriDecoder_fx+0x5e9>
    274e:	729370        	salt	a9, a3, a7
    2751:	779a           	add.n	a7, a7, a9
    2753:	877d           	ae_sext16	a7, a7
    2755:	022796        	bltz	a7, 277b <processAriDecoder_fx+0x5e7>
    2758:	17ec           	bnez.n	a7, 277d <processAriDecoder_fx+0x5e9>
    275a:	2c0487        	bnone	a4, a8, 278a <processAriDecoder_fx+0x5f6>
    275d:	f6bf91        	l32r	a9, 25c (bad8 <g_p_dec_stream>)
    2760:	032f14        	ae_lbi	a2, 1
    2763:	170c           	movi.n	a7, 1
    2765:	0988           	l32i.n	a8, a9, 0
    2767:	fec6e2        	addi	a14, a6, -2
    276a:	937520        	movnez	a7, a5, a2
    276d:	112e00        	slli	a2, a14, 16
    2770:	0018f4        	ae_dbi	a8, 1
    2773:	312020        	srai	a2, a2, 16
    2776:	0989           	s32i.n	a8, a9, 0
    2778:	000046        	j	277d <processAriDecoder_fx+0x5e9>

0000277b <processAriDecoder_fx+0x5e7>:
    277b:	770b           	addi.n	a7, a7, -1
    277d:	4188           	l32i.n	a8, a1, 16
    277f:	286d           	ae_l16si.n	a6, a8, 0
    2781:	882b           	addi.n	a8, a8, 2
    2783:	4189           	s32i.n	a8, a1, 16
    2785:	9066c0        	addx2	a6, a6, a12
    2788:	767d           	ae_s16i.n	a7, a6, 2

0000278a <processAriDecoder_fx+0x5f6>:
    278a:	2128           	l32i.n	a2, a1, 8
    278c:	230c           	movi.n	a3, 2
    278e:	fc2498833f 	{ ae_cvtp24a16x2.ll	aep0, a3, a3; ae_zeroq56	aeq0 }
    2793:	1c22a6        	blti	a2, 2, 27b3 <processAriDecoder_fx+0x61f>
    2796:	0c2d           	mov.n	a2, a12
    2798:	44a204        	ae_lp16x2f.iu	aep2, a2, 0
    279b:	130c           	movi.n	a3, 1
    279d:	00a042        	movi	a4, 0
    27a0:	fd4018943f 	{ ae_cvtp24a16x2.ll	aep1, a4, a3; ae_absp24	aep2, aep2 }
    27a5:	0a8f76        	loop	a15, 27b3 <processAriDecoder_fx+0x61f>
    27a8:	e228adf21f 	{ ae_lp16x2f.iu	aep7, a2, 4; ae_mulaap24s.hh.ll	aeq0, aep2, aep1 }
    27ad:	079014        	ae_addsp24s	aep1, aep1, aep0
    27b0:	07bf24        	ae_absp24	aep2, aep7
    27b3:	d1f8           	l32i.n	a15, a1, 52
    27b5:	368204        	ae_trunca32q48	a2, aeq0
    27b8:	6d2d           	ae_s16i.n	a2, a13, 0
    27ba:	0a2f66        	bnei	a15, 2, 27c8 <processAriDecoder_fx+0x634>
    27bd:	4c2d           	ae_l16ui.n	a2, a12, 0
    27bf:	132132        	l32i	a3, a1, 76
    27c2:	122142        	l32i	a4, a1, 72
    27c5:	053216        	beqz	a2, 281c <processAriDecoder_fx+0x688>

000027c8 <processAriDecoder_fx+0x634>:
    27c8:	020c           	movi.n	a2, 0
    27ca:	6b2d           	ae_s16i.n	a2, a11, 0
    27cc:	f01d           	retw.n

000027ce <processAriDecoder_fx+0x63a>:
	...

000027cf <processAriDecoder_fx+0x63b>:
    27cf:	e178           	l32i.n	a7, a1, 56
    27d1:	2148           	l32i.n	a4, a1, 8
    27d3:	1021b2        	l32i	a11, a1, 64
    27d6:	81c8           	l32i.n	a12, a1, 32
    27d8:	f1d8           	l32i.n	a13, a1, 60
    27da:	61f8           	l32i.n	a15, a1, 24
    27dc:	023d           	mov.n	a3, a2
    27de:	672d           	ae_s16i.n	a2, a7, 0
    27e0:	3014a6        	blti	a4, 1, 2814 <processAriDecoder_fx+0x680>
    27e3:	2148           	l32i.n	a4, a1, 8
    27e5:	142182        	l32i	a8, a1, 80
    27e8:	f69d61        	l32r	a6, 25c (bad8 <g_p_dec_stream>)
    27eb:	0c3d           	mov.n	a3, a12
    27ed:	1f8476        	loop	a4, 2810 <processAriDecoder_fx+0x67c>
    27f0:	434d           	ae_l16ui.n	a4, a3, 0
    27f2:	06e8           	l32i.n	a14, a6, 0
    27f4:	920b           	addi.n	a9, a2, -1
    27f6:	449c           	beqz.n	a4, 280e <processAriDecoder_fx+0x67a>
    27f8:	52bc           	beqz.n	a2, 2831 <processAriDecoder_fx+0x69d>
    27fa:	034f14        	ae_lbi	a4, 1
    27fd:	684d           	ae_s16i.n	a4, a8, 0
    27ff:	582b           	addi.n	a5, a8, 2
    2801:	112900        	slli	a2, a9, 16
    2804:	001ef4        	ae_dbi	a14, 1
    2807:	312020        	srai	a2, a2, 16
    280a:	058d           	mov.n	a8, a5
    280c:	06e9           	s32i.n	a14, a6, 0
    280e:	332b           	addi.n	a3, a3, 2

00002810 <processAriDecoder_fx+0x67c>:
    2810:	023d           	mov.n	a3, a2
    2812:	472d           	ae_l16ui.n	a2, a7, 0

00002814 <processAriDecoder_fx+0x680>:
    2814:	c02230        	sub	a2, a2, a3
    2817:	672d           	ae_s16i.n	a2, a7, 0
    2819:	ffdb46        	j	278a <processAriDecoder_fx+0x5f6>

0000281c <processAriDecoder_fx+0x688>:
    281c:	a87366        	bnei	a3, 7, 27c8 <processAriDecoder_fx+0x634>
    281f:	3c2d           	ae_l16si.n	a2, a12, 2
    2821:	f37c           	movi.n	a3, -1
    2823:	f43030        	extui	a3, a3, 0, 16
    2826:	202240        	or	a2, a2, a4
    2829:	9b8327        	bany	a3, a2, 27c8 <processAriDecoder_fx+0x634>
    282c:	120c           	movi.n	a2, 1
    282e:	ffe606        	j	27ca <processAriDecoder_fx+0x636>

00002831 <processAriDecoder_fx+0x69d>:
    2831:	020c           	movi.n	a2, 0
    2833:	fff646        	j	2810 <processAriDecoder_fx+0x67c>

00002836 <processAriDecoder_fx+0x6a2>:
	...

00002838 <processAriDecoderScaling_fx>:
    2838:	004136        	entry	a1, 32
    283b:	fc20ed820f 	{ ae_lp16x2f.iu	aep0, a2, 0; ae_zerop48	aep1 }
    2840:	216130        	srai	a6, a3, 1
    2843:	1123a6        	blti	a3, 2, 2858 <processAriDecoderScaling_fx+0x20>
    2846:	f96293722f 	{ or	a7, a2, a2; ae_movp48	aep2, aep0 }
    284b:	f03d           	nop.n
    284d:	078676        	loop	a6, 2858 <processAriDecoderScaling_fx+0x20>
    2850:	fd486da71f 	{ ae_lp16x2f.iu	aep2, a7, 4; ae_abssp24s	aep3, aep2 }
    2855:	0f9b14        	ae_orp48	aep1, aep1, aep3

00002858 <processAriDecoderScaling_fx+0x20>:
    2858:	dd25800f7f 	{ movi	a7, 15; ae_selp24.lh	aep2, aep1, aep1 }
    285d:	071a14        	ae_maxp24s	aep1, aep1, aep2
    2860:	361824        	ae_trunca16p24s.l	a8, aep1
    2863:	40e890        	nsa	a9, a8
    2866:	98ad           	ae_zext16	a10, a8
    2868:	f0c982        	addi	a8, a9, -16
    286b:	8387a0        	moveqz	a8, a7, a10
    286e:	031684        	wur.ae_sar	a8
    2871:	0d23a6        	blti	a3, 2, 2882 <processAriDecoderScaling_fx+0x4a>
    2874:	f8c432        	addi	a3, a4, -8
    2877:	078676        	loop	a6, 2882 <processAriDecoderScaling_fx+0x4a>
    287a:	f823ed821f 	{ ae_lp16x2f.iu	aep0, a2, 4; ae_sllssp24s	aep1, aep0 }
    287f:	5e9314        	ae_sp24x2f.iu	aep1, a3, 8
    2882:	c02780        	sub	a2, a7, a8
    2885:	652d           	ae_s16i.n	a2, a5, 0
    2887:	f01d           	retw.n

00002889 <processAriDecoderScaling_fx+0x51>:
    2889:	000000                                        ...

0000288c <find_last_nz_pair>:
    288c:	006136        	entry	a1, 48
    288f:	216130        	srai	a6, a3, 1
    2892:	217230        	srai	a7, a3, 2
    2895:	055162        	s16i	a6, a1, 10
    2898:	676a           	add.n	a6, a7, a6
    289a:	41e330        	srli	a14, a3, 3
    289d:	440c           	movi.n	a4, 4
    289f:	76ea           	add.n	a7, a6, a14
    28a1:	ff7c           	movi.n	a15, -1
    28a3:	065162        	s16i	a6, a1, 12
    28a6:	075172        	s16i	a7, a1, 14
    28a9:	51eb           	addi.n	a5, a1, 14
    28ab:	060c           	movi.n	a6, 0
    28ad:	017ff0        	slli	a7, a15, 17
    28b0:	fcc222        	addi	a2, a2, -4
    28b3:	045142        	s16i	a4, a1, 8

000028b6 <find_last_nz_pair+0x2a>:
    28b6:	440b           	addi.n	a4, a4, -1
    28b8:	034496        	bltz	a4, 28f0 <find_last_nz_pair+0x64>
    28bb:	259d           	ae_l16si.n	a9, a5, 0
    28bd:	908320        	addx2	a8, a3, a2
    28c0:	262397        	blt	a3, a9, 28ea <find_last_nz_pair+0x5e>
    28c3:	c09390        	sub	a9, a3, a9
    28c6:	992b           	addi.n	a9, a9, 2
    28c8:	41a190        	srli	a10, a9, 1
    28cb:	119300        	slli	a9, a3, 16
    28ce:	188a76        	loop	a10, 28ea <find_last_nz_pair+0x5e>
    28d1:	48bd           	ae_l16ui.n	a11, a8, 0
    28d3:	31a090        	srai	a10, a9, 16
    28d6:	1b8c           	beqz.n	a11, 28db <find_last_nz_pair+0x4f>
    28d8:	5366a0        	max	a6, a6, a10
    28db:	58bd           	ae_l16ui.n	a11, a8, 2
    28dd:	1b8c           	beqz.n	a11, 28e2 <find_last_nz_pair+0x56>
    28df:	5366a0        	max	a6, a6, a10
    28e2:	fec332        	addi	a3, a3, -2
    28e5:	fcc882        	addi	a8, a8, -4
    28e8:	997a           	add.n	a9, a9, a7

000028ea <find_last_nz_pair+0x5e>:
    28ea:	fec552        	addi	a5, a5, -2
    28ed:	c516a6        	blti	a6, 1, 28b6 <find_last_nz_pair+0x2a>

000028f0 <find_last_nz_pair+0x64>:
    28f0:	220c           	movi.n	a2, 2
    28f2:	532620        	max	a2, a6, a2
    28f5:	f01d           	retw.n

000028f7 <find_last_nz_pair+0x6b>:
	...

000028f8 <processSnsQuantizeScfEncoder_fx>:
    28f8:	016136        	entry	a1, 176
    28fb:	f616e1        	l32r	a14, 154 (ba08 <st1SCF0_7_base5_32x8_Q14>)
    28fe:	186132        	s32i	a3, a1, 96
    2901:	f615f1        	l32r	a15, 158 (ba0c <st1SCF8_15_base5_32x8_Q14>)
    2904:	0e38           	l32i.n	a3, a14, 0
    2906:	056d           	mov.n	a6, a5
    2908:	f65951        	l32r	a5, 26c (2dbc <stage1_base>)
    290b:	047d           	mov.n	a7, a4
    290d:	0f48           	l32i.n	a4, a15, 0
    290f:	02ad           	mov.n	a10, a2
    2911:	03bd           	mov.n	a11, a3
    2913:	0005e0        	callx8	a5
    2916:	059d           	mov.n	a9, a5
    2918:	0a5d           	mov.n	a5, a10
    291a:	10c2a2        	addi	a10, a2, 16
    291d:	04bd           	mov.n	a11, a4
    291f:	105652        	s16i	a5, a6, 32
    2922:	0009e0        	callx8	a9
    2925:	1155d0        	slli	a5, a5, 3
    2928:	118ad0        	slli	a8, a10, 3
    292b:	855d           	ae_sext16	a5, a5
    292d:	888d           	ae_sext16	a8, a8
    292f:	890c           	movi.n	a9, 8
    2931:	903530        	addx2	a3, a5, a3
    2934:	1156a2        	s16i	a10, a6, 34
    2937:	904840        	addx2	a4, a8, a4
    293a:	075d           	mov.n	a5, a7
    293c:	226172        	s32i	a7, a1, 136
    293f:	0e8976        	loop	a9, 2951 <processSnsQuantizeScfEncoder_fx+0x59>
    2942:	237d           	ae_l16si.n	a7, a3, 0
    2944:	657d           	ae_s16i.n	a7, a5, 0
    2946:	247d           	ae_l16si.n	a7, a4, 0
    2948:	085572        	s16i	a7, a5, 16
    294b:	332b           	addi.n	a3, a3, 2
    294d:	442b           	addi.n	a4, a4, 2
    294f:	552b           	addi.n	a5, a5, 2

00002951 <processSnsQuantizeScfEncoder_fx+0x59>:
    2951:	182172        	l32i	a7, a1, 96
    2954:	109632        	l16si	a3, a6, 32
    2957:	24c6f2        	addi	a15, a6, 36
    295a:	0739           	s32i.n	a3, a7, 0
    295c:	222132        	l32i	a3, a1, 136
    295f:	119642        	l16si	a4, a6, 34
    2962:	051c           	movi.n	a5, 16
    2964:	1749           	s32i.n	a4, a7, 4
    2966:	064d           	mov.n	a4, a6
    2968:	1d61f2        	s32i	a15, a1, 116
    296b:	0e8576        	loop	a5, 297d <processSnsQuantizeScfEncoder_fx+0x85>
    296e:	225d           	ae_l16si.n	a5, a2, 0
    2970:	237d           	ae_l16si.n	a7, a3, 0
    2972:	222b           	addi.n	a2, a2, 2
    2974:	332b           	addi.n	a3, a3, 2
    2976:	c05570        	sub	a5, a5, a7
    2979:	645d           	ae_s16i.n	a5, a4, 0
    297b:	442b           	addi.n	a4, a4, 2
    297d:	f5f341        	l32r	a4, 14c (ba00 <sns_Kval>)
    2980:	64a152        	movi	a5, 0x164
    2983:	aca1a2        	movi	a10, 0x1ac
    2986:	04c8           	l32i.n	a12, a4, 0
    2988:	565a           	add.n	a5, a6, a5
    298a:	98a182        	movi	a8, 0x198
    298d:	069c42        	l16si	a4, a12, 12
    2990:	d25642        	s16i	a4, a6, 0x1a4
    2993:	049c42        	l16si	a4, a12, 8
    2996:	d35642        	s16i	a4, a6, 0x1a6
    2999:	029c42        	l16si	a4, a12, 4
    299c:	d45642        	s16i	a4, a6, 0x1a8
    299f:	3c4d           	ae_l16si.n	a4, a12, 2
    29a1:	a4a192        	movi	a9, 0x1a4
    29a4:	b4a132        	movi	a3, 0x1b4
    29a7:	c4a1d2        	movi	a13, 0x1c4
    29aa:	44a122        	movi	a2, 0x144
    29ad:	1f6152        	s32i	a5, a1, 124
    29b0:	568a           	add.n	a5, a6, a8
    29b2:	a6aa           	add.n	a10, a6, a10
    29b4:	84a1f2        	movi	a15, 0x184
    29b7:	d55642        	s16i	a4, a6, 0x1aa
    29ba:	f62d81        	l32r	a8, 270 (9c5c <dct16_fx>)
    29bd:	b62a           	add.n	a11, a6, a2
    29bf:	26fa           	add.n	a2, a6, a15
    29c1:	069cf2        	l16si	a15, a12, 12
    29c4:	070c           	movi.n	a7, 0
    29c6:	d4a1e2        	movi	a14, 0x1d4
    29c9:	969a           	add.n	a9, a6, a9
    29cb:	1c61a2        	s32i	a10, a1, 112
    29ce:	363a           	add.n	a3, a6, a3
    29d0:	d6da           	add.n	a13, a6, a13
    29d2:	06ad           	mov.n	a10, a6
    29d4:	1b6132        	s32i	a3, a1, 108
    29d7:	216122        	s32i	a2, a1, 132
    29da:	206152        	s32i	a5, a1, 128
    29dd:	196192        	s32i	a9, a1, 100
    29e0:	1a61d2        	s32i	a13, a1, 104
    29e3:	46ea           	add.n	a4, a6, a14
    29e5:	d75672        	s16i	a7, a6, 0x1ae
    29e8:	d85672        	s16i	a7, a6, 0x1b0
    29eb:	d95672        	s16i	a7, a6, 0x1b2
    29ee:	d656f2        	s16i	a15, a6, 0x1ac
    29f1:	0b3d           	mov.n	a3, a11
    29f3:	1e61b2        	s32i	a11, a1, 120
    29f6:	0008e0        	callx8	a8
    29f9:	aa0c           	movi.n	a10, 10
    29fb:	091c           	movi.n	a9, 16
    29fd:	1c21e2        	l32i	a14, a1, 112
    2a00:	1921f2        	l32i	a15, a1, 100
    2a03:	41a9           	s32i.n	a10, a1, 16
    2a05:	3199           	s32i.n	a9, a1, 12
    2a07:	21e9           	s32i.n	a14, a1, 8
    2a09:	11f9           	s32i.n	a15, a1, 4
    2a0b:	f61a81        	l32r	a8, 274 (8794 <pvq_enc_search_fx>)
    2a0e:	1f21c2        	l32i	a12, a1, 124
    2a11:	1b21f2        	l32i	a15, a1, 108
    2a14:	1a2192        	l32i	a9, a1, 104
    2a17:	03ad           	mov.n	a10, a3
    2a19:	04bd           	mov.n	a11, a4
    2a1b:	02dd           	mov.n	a13, a2
    2a1d:	05ed           	mov.n	a14, a5
    2a1f:	0199           	s32i.n	a9, a1, 0
    2a21:	0008e0        	callx8	a8
    2a24:	24a182        	movi	a8, 0x124
    2a27:	368a           	add.n	a3, a6, a8
    2a29:	a4a0a2        	movi	a10, 164
    2a2c:	1b6132        	s32i	a3, a1, 108
    2a2f:	04a192        	movi	a9, 0x104
    2a32:	f61131        	l32r	a3, 278 (c14 <basop_memmove>)
    2a35:	44c622        	addi	a2, a6, 68
    2a38:	64c6e2        	addi	a14, a6, 100
    2a3b:	56aa           	add.n	a5, a6, a10
    2a3d:	a69a           	add.n	a10, a6, a9
    2a3f:	84a0f2        	movi	a15, 132
    2a42:	0c2c           	movi.n	a12, 32
    2a44:	04bd           	mov.n	a11, a4
    2a46:	196122        	s32i	a2, a1, 100
    2a49:	1a61e2        	s32i	a14, a1, 104
    2a4c:	26fa           	add.n	a2, a6, a15
    2a4e:	1c61a2        	s32i	a10, a1, 112
    2a51:	236142        	s32i	a4, a1, 140
    2a54:	0003e0        	callx8	a3
    2a57:	034d           	mov.n	a4, a3
    2a59:	1d2132        	l32i	a3, a1, 116
    2a5c:	1f21b2        	l32i	a11, a1, 124
    2a5f:	0c2c           	movi.n	a12, 32
    2a61:	03ad           	mov.n	a10, a3
    2a63:	0004e0        	callx8	a4
    2a66:	1e21b2        	l32i	a11, a1, 120
    2a69:	0c2c           	movi.n	a12, 32
    2a6b:	02ad           	mov.n	a10, a2
    2a6d:	0004e0        	callx8	a4
    2a70:	f5b741        	l32r	a4, 14c (ba00 <sns_Kval>)
    2a73:	0d1c           	movi.n	a13, 16
    2a75:	05ad           	mov.n	a10, a5
    2a77:	0448           	l32i.n	a4, a4, 0
    2a79:	03bd           	mov.n	a11, a3
    2a7b:	1e6152        	s32i	a5, a1, 120
    2a7e:	0494c2        	l16si	a12, a4, 8
    2a81:	f5fe41        	l32r	a4, 27c (316c <pvq_dec_en1_normQ14_fx>)
    2a84:	0004e0        	callx8	a4
    2a87:	f5b131        	l32r	a3, 14c (ba00 <sns_Kval>)
    2a8a:	1b21a2        	l32i	a10, a1, 108
    2a8d:	1c21b2        	l32i	a11, a1, 112
    2a90:	03f8           	l32i.n	a15, a3, 0
    2a92:	0d1c           	movi.n	a13, 16
    2a94:	069fc2        	l16si	a12, a15, 12
    2a97:	0004e0        	callx8	a4
    2a9a:	212132        	l32i	a3, a1, 132
    2a9d:	1921a2        	l32i	a10, a1, 100
    2aa0:	f5f641        	l32r	a4, 278 (c14 <basop_memmove>)
    2aa3:	4c1c           	movi.n	a12, 20
    2aa5:	03bd           	mov.n	a11, a3
    2aa7:	0004e0        	callx8	a4
    2aaa:	1a21a2        	l32i	a10, a1, 104
    2aad:	4c1c           	movi.n	a12, 20
    2aaf:	03bd           	mov.n	a11, a3
    2ab1:	0004e0        	callx8	a4
    2ab4:	202192        	l32i	a9, a1, 128
    2ab7:	140c           	movi.n	a4, 1
    2ab9:	650c           	movi.n	a5, 6
    2abb:	58c632        	addi	a3, a6, 88
    2abe:	114400        	slli	a4, a4, 16
    2ac1:	0c8576        	loop	a5, 2ad1 <processSnsQuantizeScfEncoder_fx+0x1d9>
    2ac4:	215f70        	srai	a5, a7, 15
    2ac7:	595a           	add.n	a5, a9, a5
    2ac9:	255d           	ae_l16si.n	a5, a5, 0
    2acb:	635d           	ae_s16i.n	a5, a3, 0
    2acd:	774a           	add.n	a7, a7, a4
    2acf:	332b           	addi.n	a3, a3, 2
    2ad1:	e4a042        	movi	a4, 228
    2ad4:	f5e451        	l32r	a5, 264 (bf8 <basop_memset>)
    2ad7:	c4a032        	movi	a3, 196
    2ada:	764a           	add.n	a7, a6, a4
    2adc:	78c6a2        	addi	a10, a6, 120
    2adf:	0b0c           	movi.n	a11, 0
    2ae1:	cc0c           	movi.n	a12, 12
    2ae3:	363a           	add.n	a3, a6, a3
    2ae5:	1d6172        	s32i	a7, a1, 116
    2ae8:	060c           	movi.n	a6, 0
    2aea:	0005e0        	callx8	a5
    2aed:	f59751        	l32r	a5, 14c (ba00 <sns_Kval>)
    2af0:	1921b2        	l32i	a11, a1, 100
    2af3:	f5e241        	l32r	a4, 27c (316c <pvq_dec_en1_normQ14_fx>)
    2af6:	0558           	l32i.n	a5, a5, 0
    2af8:	0d1c           	movi.n	a13, 16
    2afa:	03ad           	mov.n	a10, a3
    2afc:	25cd           	ae_l16si.n	a12, a5, 0
    2afe:	0004e0        	callx8	a4
    2b01:	f59251        	l32r	a5, 14c (ba00 <sns_Kval>)
    2b04:	1a21b2        	l32i	a11, a1, 104
    2b07:	0d1c           	movi.n	a13, 16
    2b09:	0558           	l32i.n	a5, a5, 0
    2b0b:	07ad           	mov.n	a10, a7
    2b0d:	0295c2        	l16si	a12, a5, 4
    2b10:	0004e0        	callx8	a4
    2b13:	f58a51        	l32r	a5, 13c (b9f0 <sns_gaintabPtr>)
    2b16:	f58a71        	l32r	a7, 140 (b9f4 <sns_gainSz>)
    2b19:	f87c           	movi.n	a8, -1
    2b1b:	0558           	l32i.n	a5, a5, 0
    2b1d:	07a8           	l32i.n	a10, a7, 0
    2b1f:	8139           	s32i.n	a3, a1, 32
    2b21:	418180        	srli	a8, a8, 1
    2b24:	1d2142        	l32i	a4, a1, 116
    2b27:	360834        	ae_cvtq48a32s	aeq0, a8
    2b2a:	0588           	l32i.n	a8, a5, 0
    2b2c:	4acd           	ae_l16ui.n	a12, a10, 0
    2b2e:	9149           	s32i.n	a4, a1, 36
    2b30:	1e21d2        	l32i	a13, a1, 120
    2b33:	1598           	l32i.n	a9, a5, 4
    2b35:	3abd           	ae_l16si.n	a11, a10, 2
    2b37:	a1d9           	s32i.n	a13, a1, 40
    2b39:	1b21f2        	l32i	a15, a1, 108
    2b3c:	156192        	s32i	a9, a1, 84
    2b3f:	25e8           	l32i.n	a14, a5, 8
    2b41:	029a92        	l16si	a9, a10, 4
    2b44:	b1f9           	s32i.n	a15, a1, 44
    2b46:	3558           	l32i.n	a5, a5, 12
    2b48:	039aa2        	l16si	a10, a10, 6
    2b4b:	146182        	s32i	a8, a1, 80
    2b4e:	0d51b2        	s16i	a11, a1, 26
    2b51:	0e5192        	s16i	a9, a1, 28
    2b54:	0f51a2        	s16i	a10, a1, 30
    2b57:	1ac132        	addi	a3, a1, 26
    2b5a:	f47c           	movi.n	a4, -1
    2b5c:	20c172        	addi	a7, a1, 32
    2b5f:	1661e2        	s32i	a14, a1, 88
    2b62:	50c182        	addi	a8, a1, 80
    2b65:	890c           	movi.n	a9, 8
    2b67:	8cbd           	ae_sext16	a11, a12
    2b69:	0c51c2        	s16i	a12, a1, 24
    2b6c:	176152        	s32i	a5, a1, 92

00002b6f <processSnsQuantizeScfEncoder_fx+0x277>:
    2b6f:	8c5d           	ae_sext16	a5, a12
    2b71:	4415a6        	blti	a5, 1, 2bb9 <processSnsQuantizeScfEncoder_fx+0x2c1>
    2b74:	fd24b008ce 	{ l32i	a12, a8, 0; ae_zeroq56	aeq1 }
    2b79:	07d8           	l32i.n	a13, a7, 0
    2b7b:	0e0c           	movi.n	a14, 0
    2b7d:	0c5d           	mov.n	a5, a12
    2b7f:	408504        	ae_lp16f.iu	aep0, a5, 0
    2b82:	0dfd           	mov.n	a15, a13
    2b84:	205220        	or	a5, a2, a2
    2b87:	449f04        	ae_lp16x2f.iu	aep1, a15, 0
    2b8a:	44a504        	ae_lp16x2f.iu	aep2, a5, 0
    2b8d:	128976        	loop	a9, 2ba3 <processSnsQuantizeScfEncoder_fx+0x2ab>
    2b90:	008164        	ae_mulfs32p16s.lh	aeq2, aep0, aep1
    2b93:	008974        	ae_mulfs32p16s.ll	aeq3, aep0, aep1
    2b96:	09af14        	ae_truncp24q48x2	aep1, aeq2, aeq3
    2b99:	dd2aad9f1f 	{ ae_lp16x2f.iu	aep1, a15, 4; ae_subsp24s	aep2, aep2, aep1 }
    2b9e:	e248eda51f 	{ ae_lp16x2f.iu	aep2, a5, 4; ae_mulaap24s.hh.ll	aeq1, aep2, aep2 }

00002ba3 <processSnsQuantizeScfEncoder_fx+0x2ab>:
    2ba3:	098104        	ae_ltq56s	b0, aeq1, aeq0
    2ba6:	060076        	bf	b0, 2bb0 <processSnsQuantizeScfEncoder_fx+0x2b8>
    2ba9:	fc0c53466f 	{ or	a4, a6, a6; ae_movq56	aeq0, aeq1 }
    2bae:	0ead           	mov.n	a10, a14

00002bb0 <processSnsQuantizeScfEncoder_fx+0x2b8>:
    2bb0:	ee1b           	addi.n	a14, a14, 1
    2bb2:	cc2b           	addi.n	a12, a12, 2
    2bb4:	fd249c5ebe 	{ blt	a14, a11, 2b7d <processSnsQuantizeScfEncoder_fx+0x285>; ae_zeroq56	aeq1 }
    2bb9:	0e3626        	beqi	a6, 3, 2bcb <processSnsQuantizeScfEncoder_fx+0x2d3>
    2bbc:	23bd           	ae_l16si.n	a11, a3, 0
    2bbe:	661b           	addi.n	a6, a6, 1
    2bc0:	774b           	addi.n	a7, a7, 4
    2bc2:	884b           	addi.n	a8, a8, 4
    2bc4:	332b           	addi.n	a3, a3, 2
    2bc6:	0bcd           	mov.n	a12, a11
    2bc8:	ffe8c6        	j	2b6f <processSnsQuantizeScfEncoder_fx+0x277>

00002bcb <processSnsQuantizeScfEncoder_fx+0x2d3>:
    2bcb:	113a00        	slli	a3, a10, 16
    2bce:	213e30        	srai	a3, a3, 14
    2bd1:	541b           	addi.n	a5, a4, 1
    2bd3:	734a           	add.n	a7, a3, a4
    2bd5:	837450        	moveqz	a7, a4, a5
    2bd8:	20c162        	addi	a6, a1, 32
    2bdb:	143070        	extui	a3, a7, 0, 2
    2bde:	a0f360        	addx4	a15, a3, a6
    2be1:	0fa8           	l32i.n	a10, a15, 0
    2be3:	f5a741        	l32r	a4, 280 (a0d4 <idct16_fx>)
    2be6:	02bd           	mov.n	a11, a2
    2be8:	0004e0        	callx8	a4
    2beb:	50c142        	addi	a4, a1, 80
    2bee:	a04340        	addx4	a4, a3, a4
    2bf1:	0468           	l32i.n	a6, a4, 0
    2bf3:	115720        	slli	a5, a7, 14
    2bf6:	314050        	srai	a4, a5, 16
    2bf9:	905460        	addx2	a5, a4, a6
    2bfc:	25bd           	ae_l16si.n	a11, a5, 0
    2bfe:	f5a151        	l32r	a5, 284 (3140 <pvq_dec_scale_vec_fx>)
    2c01:	2221c2        	l32i	a12, a1, 136
    2c04:	02ad           	mov.n	a10, a2
    2c06:	0005e0        	callx8	a5
    2c09:	182162        	l32i	a6, a1, 96
    2c0c:	045070        	extui	a5, a7, 0, 1
    2c0f:	f54f21        	l32r	a2, 14c (ba00 <sns_Kval>)
    2c12:	2639           	s32i.n	a3, a6, 8
    2c14:	4ae717        	bbsi	a7, 1, 2c62 <processSnsQuantizeScfEncoder_fx+0x36a>
    2c17:	f54d21        	l32r	a2, 14c (ba00 <sns_Kval>)
    2c1a:	2121b2        	l32i	a11, a1, 132
    2c1d:	20c1a2        	addi	a10, a1, 32
    2c20:	0228           	l32i.n	a2, a2, 0
    2c22:	ac0c           	movi.n	a12, 10
    2c24:	a02320        	addx4	a2, a3, a2
    2c27:	22dd           	ae_l16si.n	a13, a2, 0
    2c29:	f59731        	l32r	a3, 288 (2f30 <mpvq_index_fx>)
    2c2c:	0003e0        	callx8	a3
    2c2f:	1821f2        	l32i	a15, a1, 96
    2c32:	9168           	l32i.n	a6, a1, 36
    2c34:	182172        	l32i	a7, a1, 96
    2c37:	1821e2        	l32i	a14, a1, 96
    2c3a:	5f69           	s32i.n	a6, a15, 20
    2c3c:	182162        	l32i	a6, a1, 96
    2c3f:	109122        	l16si	a2, a1, 32
    2c42:	3749           	s32i.n	a4, a7, 12
    2c44:	4e29           	s32i.n	a2, a14, 16
    2c46:	b5fc           	bnez.n	a5, 2c85 <processSnsQuantizeScfEncoder_fx+0x38d>
    2c48:	2021b2        	l32i	a11, a1, 128
    2c4b:	20c1a2        	addi	a10, a1, 32
    2c4e:	6c0c           	movi.n	a12, 6
    2c50:	1d0c           	movi.n	a13, 1
    2c52:	620c           	movi.n	a2, 6
    2c54:	0003e0        	callx8	a3
    2c57:	109132        	l16si	a3, a1, 32
    2c5a:	9148           	l32i.n	a4, a1, 36
    2c5c:	903430        	addx2	a3, a4, a3
    2c5f:	001346        	j	2cb0 <processSnsQuantizeScfEncoder_fx+0x3b8>

00002c62 <processSnsQuantizeScfEncoder_fx+0x36a>:
    2c62:	3649           	s32i.n	a4, a6, 12
    2c64:	45ec           	bnez.n	a5, 2c8c <processSnsQuantizeScfEncoder_fx+0x394>
    2c66:	0228           	l32i.n	a2, a2, 0
    2c68:	1f21b2        	l32i	a11, a1, 124
    2c6b:	20c1a2        	addi	a10, a1, 32
    2c6e:	a02320        	addx4	a2, a3, a2
    2c71:	22dd           	ae_l16si.n	a13, a2, 0
    2c73:	f58521        	l32r	a2, 288 (2f30 <mpvq_index_fx>)
    2c76:	0c1c           	movi.n	a12, 16
    2c78:	0002e0        	callx8	a2
    2c7b:	101122        	l16ui	a2, a1, 32
    2c7e:	9138           	l32i.n	a3, a1, 36
    2c80:	f47c           	movi.n	a4, -1
    2c82:	000886        	j	2ca8 <processSnsQuantizeScfEncoder_fx+0x3b0>

00002c85 <processSnsQuantizeScfEncoder_fx+0x38d>:
    2c85:	e37c           	movi.n	a3, -2
    2c87:	620c           	movi.n	a2, 6
    2c89:	0008c6        	j	2cb0 <processSnsQuantizeScfEncoder_fx+0x3b8>

00002c8c <processSnsQuantizeScfEncoder_fx+0x394>:
    2c8c:	0228           	l32i.n	a2, a2, 0
    2c8e:	2321b2        	l32i	a11, a1, 140
    2c91:	20c1a2        	addi	a10, a1, 32
    2c94:	a02320        	addx4	a2, a3, a2
    2c97:	22dd           	ae_l16si.n	a13, a2, 0
    2c99:	f57b21        	l32r	a2, 288 (2f30 <mpvq_index_fx>)
    2c9c:	0c1c           	movi.n	a12, 16
    2c9e:	0002e0        	callx8	a2
    2ca1:	101122        	l16ui	a2, a1, 32
    2ca4:	9138           	l32i.n	a3, a1, 36
    2ca6:	e47c           	movi.n	a4, -2
    2ca8:	5639           	s32i.n	a3, a6, 20
    2caa:	823d           	ae_sext16	a3, a2
    2cac:	420c           	movi.n	a2, 4
    2cae:	6649           	s32i.n	a4, a6, 24
    2cb0:	a02260        	addx4	a2, a2, a6
    2cb3:	0239           	s32i.n	a3, a2, 0
    2cb5:	f01d           	retw.n

00002cb7 <processSnsQuantizeScfEncoder_fx+0x3bf>:
	...

00002cb8 <processSnsQuantizeScfDecoder_fx>:
    2cb8:	006136        	entry	a1, 48
    2cbb:	026d           	mov.n	a6, a2
    2cbd:	f52691        	l32r	a9, 158 (ba0c <st1SCF8_15_base5_32x8_Q14>)
    2cc0:	f525f1        	l32r	a15, 154 (ba08 <st1SCF0_7_base5_32x8_Q14>)
    2cc3:	225d           	ae_l16si.n	a5, a2, 0
    2cc5:	029282        	l16si	a8, a2, 4
    2cc8:	0f28           	l32i.n	a2, a15, 0
    2cca:	0998           	l32i.n	a9, a9, 0
    2ccc:	1155d0        	slli	a5, a5, 3
    2ccf:	1188d0        	slli	a8, a8, 3
    2cd2:	888d           	ae_sext16	a8, a8
    2cd4:	855d           	ae_sext16	a5, a5
    2cd6:	870c           	movi.n	a7, 8
    2cd8:	902520        	addx2	a2, a5, a2
    2cdb:	908890        	addx2	a8, a8, a9
    2cde:	035d           	mov.n	a5, a3
    2ce0:	3139           	s32i.n	a3, a1, 12
    2ce2:	0e8776        	loop	a7, 2cf4 <processSnsQuantizeScfDecoder_fx+0x3c>
    2ce5:	227d           	ae_l16si.n	a7, a2, 0
    2ce7:	657d           	ae_s16i.n	a7, a5, 0
    2ce9:	287d           	ae_l16si.n	a7, a8, 0
    2ceb:	085572        	s16i	a7, a5, 16
    2cee:	222b           	addi.n	a2, a2, 2
    2cf0:	882b           	addi.n	a8, a8, 2
    2cf2:	552b           	addi.n	a5, a5, 2

00002cf4 <processSnsQuantizeScfDecoder_fx+0x3c>:
    2cf4:	f51251        	l32r	a5, 13c (b9f0 <sns_gaintabPtr>)
    2cf7:	2638           	l32i.n	a3, a6, 8
    2cf9:	f514a1        	l32r	a10, 14c (ba00 <sns_Kval>)
    2cfc:	05b8           	l32i.n	a11, a5, 0
    2cfe:	602040        	neg	a2, a4
    2d01:	11d300        	slli	a13, a3, 16
    2d04:	242020        	extui	a2, a2, 0, 3
    2d07:	0ac8           	l32i.n	a12, a10, 0
    2d09:	21aed0        	srai	a10, a13, 14
    2d0c:	742a           	add.n	a7, a4, a2
    2d0e:	2baa           	add.n	a2, a11, a10
    2d10:	3688           	l32i.n	a8, a6, 12
    2d12:	02f8           	l32i.n	a15, a2, 0
    2d14:	5caa           	add.n	a5, a12, a10
    2d16:	455d           	ae_l16ui.n	a5, a5, 0
    2d18:	4698           	l32i.n	a9, a6, 16
    2d1a:	9088f0        	addx2	a8, a8, a15
    2d1d:	56e8           	l32i.n	a14, a6, 20
    2d1f:	40c7b2        	addi	a11, a7, 64
    2d22:	48fd           	ae_l16ui.n	a15, a8, 0
    2d24:	93cd           	ae_zext16	a12, a3
    2d26:	20c742        	addi	a4, a7, 32
    2d29:	21b9           	s32i.n	a11, a1, 8
    2d2b:	11f9           	s32i.n	a15, a1, 4
    2d2d:	855d           	ae_sext16	a5, a5
    2d2f:	89dd           	ae_sext16	a13, a9
    2d31:	252cf6        	bgeui	a12, 2, 2d5a <processSnsQuantizeScfDecoder_fx+0xa2>
    2d34:	f55621        	l32r	a2, 28c (30f0 <pvq_dec_deidx_fx>)
    2d37:	ac0c           	movi.n	a12, 10
    2d39:	07ad           	mov.n	a10, a7
    2d3b:	05bd           	mov.n	a11, a5
    2d3d:	0002e0        	callx8	a2
    2d40:	f87c           	movi.n	a8, -1
    2d42:	f48080        	extui	a8, a8, 0, 16
    2d45:	0a2d           	mov.n	a2, a10
    2d47:	200837        	bnone	a8, a3, 2d6b <processSnsQuantizeScfDecoder_fx+0xb3>
    2d4a:	f54631        	l32r	a3, 264 (bf8 <basop_memset>)
    2d4d:	14c7a2        	addi	a10, a7, 20
    2d50:	0b0c           	movi.n	a11, 0
    2d52:	cc0c           	movi.n	a12, 12
    2d54:	0003e0        	callx8	a3
    2d57:	000d06        	j	2d8f <processSnsQuantizeScfDecoder_fx+0xd7>

00002d5a <processSnsQuantizeScfDecoder_fx+0xa2>:
    2d5a:	f54c31        	l32r	a3, 28c (30f0 <pvq_dec_deidx_fx>)
    2d5d:	0c1c           	movi.n	a12, 16
    2d5f:	07ad           	mov.n	a10, a7
    2d61:	05bd           	mov.n	a11, a5
    2d63:	0003e0        	callx8	a3
    2d66:	0a2d           	mov.n	a2, a10
    2d68:	0008c6        	j	2d8f <processSnsQuantizeScfDecoder_fx+0xd7>

00002d6b <processSnsQuantizeScfDecoder_fx+0xb3>:
    2d6b:	f4f881        	l32r	a8, 14c (ba00 <sns_Kval>)
    2d6e:	6668           	l32i.n	a6, a6, 24
    2d70:	833d           	ae_sext16	a3, a3
    2d72:	0888           	l32i.n	a8, a8, 0
    2d74:	869d           	ae_sext16	a9, a6
    2d76:	14c7a2        	addi	a10, a7, 20
    2d79:	a03380        	addx4	a3, a3, a8
    2d7c:	33bd           	ae_l16si.n	a11, a3, 2
    2d7e:	f54331        	l32r	a3, 28c (30f0 <pvq_dec_deidx_fx>)
    2d81:	21e190        	srai	a14, a9, 1
    2d84:	04d060        	extui	a13, a6, 0, 1
    2d87:	6c0c           	movi.n	a12, 6
    2d89:	0003e0        	callx8	a3
    2d8c:	202a20        	or	a2, a10, a2
    2d8f:	f53b31        	l32r	a3, 27c (316c <pvq_dec_en1_normQ14_fx>)
    2d92:	0d1c           	movi.n	a13, 16
    2d94:	04ad           	mov.n	a10, a4
    2d96:	07bd           	mov.n	a11, a7
    2d98:	05cd           	mov.n	a12, a5
    2d9a:	0003e0        	callx8	a3
    2d9d:	04ad           	mov.n	a10, a4
    2d9f:	2148           	l32i.n	a4, a1, 8
    2da1:	f53731        	l32r	a3, 280 (a0d4 <idct16_fx>)
    2da4:	04bd           	mov.n	a11, a4
    2da6:	0003e0        	callx8	a3
    2da9:	1138           	l32i.n	a3, a1, 4
    2dab:	31c8           	l32i.n	a12, a1, 12
    2dad:	04ad           	mov.n	a10, a4
    2daf:	83bd           	ae_sext16	a11, a3
    2db1:	f53431        	l32r	a3, 284 (3140 <pvq_dec_scale_vec_fx>)
    2db4:	0003e0        	callx8	a3
    2db7:	f01d           	retw.n

00002db9 <processSnsQuantizeScfDecoder_fx+0x101>:
    2db9:	000000                                        ...

00002dbc <stage1_base>:
    2dbc:	004136        	entry	a1, 32
    2dbf:	fc2493433f 	{ or	a4, a3, a3; ae_zeroq56	aeq0 }
    2dc4:	fd046d820f 	{ ae_lp16x2f.iu	aep0, a2, 0; ae_movq56	aeq1, aeq0 }
    2dc9:	460c           	movi.n	a6, 4
    2dcb:	f962ad940f 	{ ae_lp16x2f.iu	aep1, a4, 0; ae_movp48	aep2, aep0 }
    2dd0:	025d           	mov.n	a5, a2
    2dd2:	0020f0        	nop
    2dd5:	098676        	loop	a6, 2de2 <stage1_base+0x26>
    2dd8:	dd46ad941f 	{ ae_lp16x2f.iu	aep1, a4, 4; ae_subsp24s	aep2, aep1, aep2 }
    2ddd:	e248eda51f 	{ ae_lp16x2f.iu	aep2, a5, 4; ae_mulaap24s.hh.ll	aeq1, aep2, aep2 }

00002de2 <stage1_base+0x26>:
    2de2:	f96281033e 	{ addi	a3, a3, 16; ae_movp48	aep2, aep0 }
    2de7:	040c           	movi.n	a4, 0
    2de9:	150c           	movi.n	a5, 1
    2deb:	04a062        	movi	a6, 4
    2dee:	fe0c6d930f 	{ ae_lp16x2f.iu	aep1, a3, 0; ae_movq56	aeq2, aeq1 }

00002df3 <stage1_base+0x37>:
    2df3:	027d           	mov.n	a7, a2
    2df5:	098676        	loop	a6, 2e02 <stage1_base+0x46>
    2df8:	dd46ad931f 	{ ae_lp16x2f.iu	aep1, a3, 4; ae_subsp24s	aep2, aep1, aep2 }
    2dfd:	f14b2da71f 	{ ae_lp16x2f.iu	aep2, a7, 4; ae_mulssp24s.hh.ll	aeq2, aep2, aep2 }

00002e02 <stage1_base+0x46>:
    2e02:	d6503f00bf 	{ ae_movp48	aep2, aep0; ae_ltq56s	b0, aeq0, aeq2 }
    2e07:	01c2c4        	ae_maxq56s	aeq3, aeq2, aeq0
    2e0a:	015fc4        	ae_subq56	aeq1, aeq1, aeq3
    2e0d:	fe0c56450f 	{ movt	a4, a5, b0; ae_movq56	aeq2, aeq1 }
    2e12:	551b           	addi.n	a5, a5, 1
    2e14:	dbc566        	bnei	a5, 32, 2df3 <stage1_base+0x37>
    2e17:	842d           	ae_sext16	a2, a4
    2e19:	f01d           	retw.n

00002e1b <stage1_base+0x5f>:
    2e1b:	00000000                                 .....

00002e20 <get_size_mpvq_calc_offset_fx>:
    2e20:	004136        	entry	a1, 32
    2e23:	060c           	movi.n	a6, 0
    2e25:	f41b           	addi.n	a15, a4, 1
    2e27:	1269           	s32i.n	a6, a2, 4
    2e29:	626d           	ae_s16i.n	a6, a2, 0
    2e2b:	8f6d           	ae_sext16	a6, a15
    2e2d:	065232        	s16i	a3, a2, 12
    2e30:	075242        	s16i	a4, a2, 14
    2e33:	019696        	bltz	a6, 2e50 <get_size_mpvq_calc_offset_fx+0x30>
    2e36:	f4c971        	l32r	a7, 15c (ba1c <MPVQ_offs_ptr>)
    2e39:	961b           	addi.n	a9, a6, 1
    2e3b:	058d           	mov.n	a8, a5
    2e3d:	0778           	l32i.n	a7, a7, 0
    2e3f:	a07370        	addx4	a7, a3, a7
    2e42:	002772        	l32i	a7, a7, 0
    2e45:	078976        	loop	a9, 2e50 <get_size_mpvq_calc_offset_fx+0x30>
    2e48:	0798           	l32i.n	a9, a7, 0
    2e4a:	0899           	s32i.n	a9, a8, 0
    2e4c:	774b           	addi.n	a7, a7, 4
    2e4e:	884b           	addi.n	a8, a8, 4

00002e50 <get_size_mpvq_calc_offset_fx+0x30>:
    2e50:	f4c471        	l32r	a7, 160 (ba20 <tabledKMAX>)
    2e53:	a06650        	addx4	a6, a6, a5
    2e56:	948d           	ae_zext16	a8, a4
    2e58:	0778           	l32i.n	a7, a7, 0
    2e5a:	903370        	addx2	a3, a3, a7
    2e5d:	437d           	ae_l16ui.n	a7, a3, 0
    2e5f:	0638           	l32i.n	a3, a6, 0
    2e61:	041787        	beq	a7, a8, 2e69 <get_size_mpvq_calc_offset_fx+0x49>
    2e64:	413130        	srli	a3, a3, 1
    2e67:	0639           	s32i.n	a3, a6, 0

00002e69 <get_size_mpvq_calc_offset_fx+0x49>:
    2e69:	a04450        	addx4	a4, a4, a5
    2e6c:	0448           	l32i.n	a4, a4, 0
    2e6e:	414140        	srli	a4, a4, 1
    2e71:	334a           	add.n	a3, a3, a4
    2e73:	331b           	addi.n	a3, a3, 1
    2e75:	2239           	s32i.n	a3, a2, 8
    2e77:	f01d           	retw.n

00002e79 <get_size_mpvq_calc_offset_fx+0x59>:
    2e79:	000000                                        ...

00002e7c <mpvq_deindex_fx>:
    2e7c:	004136        	entry	a1, 32
    2e7f:	069252        	l16si	a5, a2, 12
    2e82:	0b0c           	movi.n	a11, 0
    2e84:	04ad           	mov.n	a10, a4
    2e86:	11c5f0        	slli	a12, a5, 1
    2e89:	f4f651        	l32r	a5, 264 (bf8 <basop_memset>)
    2e8c:	0005e0        	callx8	a5
    2e8f:	071262        	l16ui	a6, a2, 14
    2e92:	069252        	l16si	a5, a2, 12
    2e95:	42bd           	ae_l16ui.n	a11, a2, 0
    2e97:	093616        	beqz	a6, 2f2e <mpvq_deindex_fx+0xb2>
    2e9a:	0215e6        	bgei	a5, 1, 2ea0 <mpvq_deindex_fx+0x24>
    2e9d:	002346        	j	2f2e <mpvq_deindex_fx+0xb2>
    2ea0:	1228           	l32i.n	a2, a2, 4
    2ea2:	f97c           	movi.n	a9, -1
    2ea4:	fc7c           	movi.n	a12, -1
    2ea6:	180c           	movi.n	a8, 1
    2ea8:	fcc372        	addi	a7, a3, -4
    2eab:	f49090        	extui	a9, a9, 0, 16
    2eae:	fa7c           	movi.n	a10, -1
    2eb0:	938cb0        	movnez	a8, a12, a11

00002eb3 <mpvq_deindex_fx+0x37>:
    2eb3:	06f216        	beqz	a2, 2f26 <mpvq_deindex_fx+0xaa>
    2eb6:	86bd           	ae_sext16	a11, a6
    2eb8:	a0bb30        	addx4	a11, a11, a3
    2ebb:	0bc8           	l32i.n	a12, a11, 0
    2ebd:	06bd           	mov.n	a11, a6
    2ebf:	0fb2c7        	bgeu	a2, a12, 2ed2 <mpvq_deindex_fx+0x56>
    2ec2:	b60b           	addi.n	a11, a6, -1
    2ec4:	8bcd           	ae_sext16	a12, a11
    2ec6:	a0cc30        	addx4	a12, a12, a3
    2ec9:	0cc8           	l32i.n	a12, a12, 0
    2ecb:	bb0b           	addi.n	a11, a11, -1
    2ecd:	f332c7        	bltu	a2, a12, 2ec4 <mpvq_deindex_fx+0x48>
    2ed0:	bb1b           	addi.n	a11, a11, 1
    2ed2:	c0d6b0        	sub	a13, a6, a11
    2ed5:	c022c0        	sub	a2, a2, a12
    2ed8:	1409d7        	bnone	a9, a13, 2ef0 <mpvq_deindex_fx+0x74>
    2edb:	6060d0        	neg	a6, a13
    2ede:	b36d80        	movgez	a6, a13, a8
    2ee1:	04c020        	extui	a12, a2, 0, 1
    2ee4:	180c           	movi.n	a8, 1
    2ee6:	646d           	ae_s16i.n	a6, a4, 0
    2ee8:	412120        	srli	a2, a2, 1
    2eeb:	0b6d           	mov.n	a6, a11
    2eed:	938ac0        	movnez	a8, a10, a12
    2ef0:	b61b           	addi.n	a11, a6, 1
    2ef2:	8bbd           	ae_sext16	a11, a11
    2ef4:	271ba6        	blti	a11, 1, 2f1f <mpvq_deindex_fx+0xa3>
    2ef7:	9bed           	ae_zext16	a14, a11
    2ef9:	0b0c           	movi.n	a11, 0
    2efb:	03dd           	mov.n	a13, a3
    2efd:	ce1b           	addi.n	a12, a14, 1
    2eff:	0d8e76        	loop	a14, 2f10 <mpvq_deindex_fx+0x94>
    2f02:	1de8           	l32i.n	a14, a13, 4
    2f04:	0df8           	l32i.n	a15, a13, 0
    2f06:	0db9           	s32i.n	a11, a13, 0
    2f08:	c0eeb0        	sub	a14, a14, a11
    2f0b:	dd4b           	addi.n	a13, a13, 4
    2f0d:	c0bef0        	sub	a11, a14, a15

00002f10 <mpvq_deindex_fx+0x94>:
    2f10:	a0cc70        	addx4	a12, a12, a7
    2f13:	550b           	addi.n	a5, a5, -1
    2f15:	442b           	addi.n	a4, a4, 2
    2f17:	0cb9           	s32i.n	a11, a12, 0
    2f19:	f96556        	bnez	a5, 2eb3 <mpvq_deindex_fx+0x37>
    2f1c:	000386        	j	2f2e <mpvq_deindex_fx+0xb2>

00002f1f <mpvq_deindex_fx+0xa3>:
    2f1f:	0b0c           	movi.n	a11, 0
    2f21:	1c0c           	movi.n	a12, 1
    2f23:	fffa46        	j	2f10 <mpvq_deindex_fx+0x94>

00002f26 <mpvq_deindex_fx+0xaa>:
    2f26:	602060        	neg	a2, a6
    2f29:	b32680        	movgez	a2, a6, a8
    2f2c:	642d           	ae_s16i.n	a2, a4, 0
    2f2e:	f01d           	retw.n

00002f30 <mpvq_index_fx>:
    2f30:	010136        	entry	a1, 128
    2f33:	160c           	movi.n	a6, 1
    2f35:	116610        	slli	a6, a6, 15
    2f38:	156152        	s32i	a5, a1, 84
    2f3b:	075252        	s16i	a5, a2, 14
    2f3e:	f4d451        	l32r	a5, 290 (9c4c <UL_deposit_h>)
    2f41:	06ad           	mov.n	a10, a6
    2f43:	065242        	s16i	a4, a2, 12
    2f46:	0005e0        	callx8	a5
    2f49:	fec442        	addi	a4, a4, -2
    2f4c:	844d           	ae_sext16	a4, a4
    2f4e:	907430        	addx2	a7, a4, a3
    2f51:	146142        	s32i	a4, a1, 80
    2f54:	374d           	ae_l16si.n	a4, a7, 2
    2f56:	278d           	ae_l16si.n	a8, a7, 0
    2f58:	090c           	movi.n	a9, 0
    2f5a:	06ad           	mov.n	a10, a6
    2f5c:	136122        	s32i	a2, a1, 76
    2f5f:	1299           	s32i.n	a9, a2, 4
    2f61:	602180        	abs	a2, a8
    2f64:	604140        	abs	a4, a4
    2f67:	126132        	s32i	a3, a1, 72
    2f6a:	342a           	add.n	a3, a4, a2
    2f6c:	0005e0        	callx8	a5
    2f6f:	f67c           	movi.n	a6, -1
    2f71:	f46060        	extui	a6, a6, 0, 16
    2f74:	03dd           	mov.n	a13, a3
    2f76:	0b0c           	movi.n	a11, 0
    2f78:	3d0637        	bnone	a6, a3, 2fb9 <mpvq_index_fx+0x89>
    2f7b:	1d0627        	bnone	a6, a2, 2f9c <mpvq_index_fx+0x6c>
    2f7e:	1a0647        	bnone	a6, a4, 2f9c <mpvq_index_fx+0x6c>
    2f81:	e97c           	movi.n	a9, -2
    2f83:	372d           	ae_l16si.n	a2, a7, 2
    2f85:	f49090        	extui	a9, a9, 0, 16
    2f88:	260c           	movi.n	a6, 2
    2f8a:	180c           	movi.n	a8, 1
    2f8c:	90f490        	addx2	a15, a4, a9
    2f8f:	a38620        	movltz	a8, a6, a2
    2f92:	102f90        	and	a2, a15, a9
    2f95:	050c           	movi.n	a5, 0
    2f97:	b82a           	add.n	a11, a8, a2
    2f99:	0003c6        	j	2fac <mpvq_index_fx+0x7c>

00002f9c <mpvq_index_fx+0x6c>:
    2f9c:	0b0c           	movi.n	a11, 0
    2f9e:	050c           	movi.n	a5, 0
    2fa0:	0d8627        	bany	a6, a2, 2fb1 <mpvq_index_fx+0x81>
    2fa3:	f27c           	movi.n	a2, -1
    2fa5:	902420        	addx2	a2, a4, a2
    2fa8:	150c           	movi.n	a5, 1
    2faa:	92bd           	ae_zext16	a11, a2
    2fac:	132122        	l32i	a2, a1, 76
    2faf:	12b9           	s32i.n	a11, a2, 4
    2fb1:	902570        	addx2	a2, a5, a7
    2fb4:	422d           	ae_l16ui.n	a2, a2, 0
    2fb6:	41af20        	srli	a10, a2, 15
    2fb9:	152122        	l32i	a2, a1, 84
    2fbc:	030c           	movi.n	a3, 0
    2fbe:	190c           	movi.n	a9, 1
    2fc0:	924d           	ae_zext16	a4, a2
    2fc2:	821b           	addi.n	a8, a2, 1
    2fc4:	220c           	movi.n	a2, 2
    2fc6:	4139           	s32i.n	a3, a1, 16
    2fc8:	5199           	s32i.n	a9, a1, 20
    2fca:	176142        	s32i	a4, a1, 92
    2fcd:	2224b6        	bltui	a4, 2, 2ff3 <mpvq_index_fx+0xc3>
    2fd0:	172152        	l32i	a5, a1, 92
    2fd3:	140c           	movi.n	a4, 1
    2fd5:	18c162        	addi	a6, a1, 24
    2fd8:	251b           	addi.n	a2, a5, 1
    2fda:	550b           	addi.n	a5, a5, -1
    2fdc:	2c0c           	movi.n	a12, 2
    2fde:	01c442        	addi	a4, a4, 1
    2fe1:	0e8576        	loop	a5, 2ff3 <mpvq_index_fx+0xc3>
    2fe4:	82f4c0        	mull	a15, a4, a12
    2fe7:	049d           	mov.n	a9, a4
    2fe9:	4f1b           	addi.n	a4, a15, 1
    2feb:	0649           	s32i.n	a4, a6, 0
    2fed:	491b           	addi.n	a4, a9, 1
    2fef:	cc2b           	addi.n	a12, a12, 2
    2ff1:	664b           	addi.n	a6, a6, 4

00002ff3 <mpvq_index_fx+0xc3>:
    2ff3:	10c132        	addi	a3, a1, 16
    2ff6:	824290        	mull	a4, a2, a9
    2ff9:	a0e230        	addx4	a14, a2, a3
    2ffc:	8dfd           	ae_sext16	a15, a13
    2ffe:	0e49           	s32i.n	a4, a14, 0
    3000:	a02f30        	addx4	a2, a15, a3
    3003:	142142        	l32i	a4, a1, 80
    3006:	0228           	l32i.n	a2, a2, 0
    3008:	039d           	mov.n	a9, a3
    300a:	883d           	ae_sext16	a3, a8
    300c:	0214e6        	bgei	a4, 1, 3012 <mpvq_index_fx+0xe2>
    300f:	003086        	j	30d5 <mpvq_index_fx+0x1a5>
    3012:	1221e2        	l32i	a14, a1, 72
    3015:	166132        	s32i	a3, a1, 88
    3018:	340b           	addi.n	a3, a4, -1
    301a:	9043e0        	addx2	a4, a3, a14
    301d:	244d           	ae_l16si.n	a4, a4, 0
    301f:	905ba0        	addx2	a5, a11, a10
    3022:	060c           	movi.n	a6, 0
    3024:	835b40        	moveqz	a5, a11, a4
    3027:	a35ba0        	movltz	a5, a11, a10
    302a:	608140        	abs	a8, a4
    302d:	1f0c           	movi.n	a15, 1
    302f:	93a640        	movnez	a10, a6, a4
    3032:	bd8a           	add.n	a11, a13, a8
    3034:	a3af40        	movltz	a10, a15, a4
    3037:	852a           	add.n	a8, a5, a2
    3039:	089316        	beqz	a3, 30c6 <mpvq_index_fx+0x196>
    303c:	162162        	l32i	a6, a1, 88
    303f:	1521c2        	l32i	a12, a1, 84
    3042:	14c122        	addi	a2, a1, 20
    3045:	14c1d2        	addi	a13, a1, 20
    3048:	126122        	s32i	a2, a1, 72
    304b:	a0e690        	addx4	a14, a6, a9
    304e:	a0fc90        	addx4	a15, a12, a9
    3051:	fcc772        	addi	a7, a7, -4
    3054:	1461d2        	s32i	a13, a1, 80

00003057 <mpvq_index_fx+0x127>:
    3057:	0f28           	l32i.n	a2, a15, 0
    3059:	152142        	l32i	a4, a1, 84
    305c:	09cd           	mov.n	a12, a9
    305e:	0e98           	l32i.n	a9, a14, 0
    3060:	412120        	srli	a2, a2, 1
    3063:	5714a6        	blti	a4, 1, 30be <mpvq_index_fx+0x18e>
    3066:	172152        	l32i	a5, a1, 92
    3069:	1421d2        	l32i	a13, a1, 80
    306c:	140c           	movi.n	a4, 1
    306e:	0d8576        	loop	a5, 307f <mpvq_index_fx+0x14f>
    3071:	0d58           	l32i.n	a5, a13, 0
    3073:	1d68           	l32i.n	a6, a13, 4
    3075:	0d49           	s32i.n	a4, a13, 0
    3077:	554a           	add.n	a5, a5, a4
    3079:	556a           	add.n	a5, a5, a6
    307b:	dd4b           	addi.n	a13, a13, 4
    307d:	054d           	mov.n	a4, a5

0000307f <mpvq_index_fx+0x14f>:
    307f:	0d59           	s32i.n	a5, a13, 0
    3081:	275d           	ae_l16si.n	a5, a7, 0
    3083:	0fd8           	l32i.n	a13, a15, 0
    3085:	9068a0        	addx2	a6, a8, a10
    3088:	836850        	moveqz	a6, a8, a5
    308b:	292a           	add.n	a2, a9, a2
    308d:	a368a0        	movltz	a6, a8, a10
    3090:	4181d0        	srli	a8, a13, 1
    3093:	228a           	add.n	a2, a2, a8
    3095:	8b4d           	ae_sext16	a4, a11
    3097:	221b           	addi.n	a2, a2, 1
    3099:	a044c0        	addx4	a4, a4, a12
    309c:	0e29           	s32i.n	a2, a14, 0
    309e:	0428           	l32i.n	a2, a4, 0
    30a0:	0d0c           	movi.n	a13, 0
    30a2:	608150        	abs	a8, a5
    30a5:	93ad50        	movnez	a10, a13, a5
    30a8:	1d0c           	movi.n	a13, 1
    30aa:	330b           	addi.n	a3, a3, -1
    30ac:	bb8a           	add.n	a11, a11, a8
    30ae:	fec772        	addi	a7, a7, -2
    30b1:	0c9d           	mov.n	a9, a12
    30b3:	a3ad50        	movltz	a10, a13, a5
    30b6:	862a           	add.n	a8, a6, a2
    30b8:	f9b356        	bnez	a3, 3057 <mpvq_index_fx+0x127>
    30bb:	0001c6        	j	30c6 <mpvq_index_fx+0x196>

000030be <mpvq_index_fx+0x18e>:
    30be:	1221d2        	l32i	a13, a1, 72
    30c1:	150c           	movi.n	a5, 1
    30c3:	ffee06        	j	307f <mpvq_index_fx+0x14f>

000030c6 <mpvq_index_fx+0x196>:
    30c6:	132132        	l32i	a3, a1, 76
    30c9:	8b2d           	ae_sext16	a2, a11
    30cb:	a02290        	addx4	a2, a2, a9
    30ce:	1389           	s32i.n	a8, a3, 4
    30d0:	0228           	l32i.n	a2, a2, 0
    30d2:	162132        	l32i	a3, a1, 88
    30d5:	a03390        	addx4	a3, a3, a9
    30d8:	0338           	l32i.n	a3, a3, 0
    30da:	412120        	srli	a2, a2, 1
    30dd:	132142        	l32i	a4, a1, 76
    30e0:	223a           	add.n	a2, a2, a3
    30e2:	221b           	addi.n	a2, a2, 1
    30e4:	64ad           	ae_s16i.n	a10, a4, 0
    30e6:	2429           	s32i.n	a2, a4, 8
    30e8:	f01d           	retw.n

000030ea <mpvq_index_fx+0x1ba>:
    30ea:	00000000                                 ......

000030f0 <pvq_dec_deidx_fx>:
    30f0:	018136        	entry	a1, 192
    30f3:	40c172        	addi	a7, a1, 64
    30f6:	f46781        	l32r	a8, 294 (2e20 <get_size_mpvq_calc_offset_fx>)
    30f9:	70c1d2        	addi	a13, a1, 112
    30fc:	04bd           	mov.n	a11, a4
    30fe:	03cd           	mov.n	a12, a3
    3100:	07ad           	mov.n	a10, a7
    3102:	0008e0        	callx8	a8
    3105:	f46431        	l32r	a3, 298 (9b54 <memcpy>)
    3108:	10c1a2        	addi	a10, a1, 16
    310b:	0c3c           	movi.n	a12, 48
    310d:	07bd           	mov.n	a11, a7
    310f:	0003e0        	callx8	a3
    3112:	030c           	movi.n	a3, 0
    3114:	085152        	s16i	a5, a1, 16
    3117:	5139           	s32i.n	a3, a1, 20
    3119:	0e1426        	beqi	a4, 1, 312b <pvq_dec_deidx_fx+0x3b>
    311c:	6138           	l32i.n	a3, a1, 24
    311e:	140c           	movi.n	a4, 1
    3120:	725630        	salt	a5, a6, a3
    3123:	303540        	xor	a3, a5, a4
    3126:	935650        	movnez	a5, a6, a5
    3129:	5159           	s32i.n	a5, a1, 20

0000312b <pvq_dec_deidx_fx+0x3b>:
    312b:	f45c41        	l32r	a4, 29c (2e7c <mpvq_deindex_fx>)
    312e:	10c1a2        	addi	a10, a1, 16
    3131:	70c1b2        	addi	a11, a1, 112
    3134:	02cd           	mov.n	a12, a2
    3136:	0004e0        	callx8	a4
    3139:	032d           	mov.n	a2, a3
    313b:	f01d           	retw.n

0000313d <pvq_dec_deidx_fx+0x4d>:
    313d:	000000                                        ...

00003140 <pvq_dec_scale_vec_fx>:
    3140:	004136        	entry	a1, 32
    3143:	850c           	movi.n	a5, 8
    3145:	fcc442        	addi	a4, a4, -4
    3148:	300334        	ae_cvtp24a16x2.ll	aep0, a3, a3
    314b:	449204        	ae_lp16x2f.iu	aep1, a2, 0
    314e:	188576        	loop	a5, 316a <pvq_dec_scale_vec_fx+0x2a>
    3151:	e8062db41f 	{ ae_lp16x2f.iu	aep3, a4, 4; ae_mulfs32p16s.hh	aeq0, aep1, aep0 }
    3156:	001874        	ae_mulfs32p16s.ll	aeq1, aep1, aep0
    3159:	1b8f74        	ae_roundsp16q48asym	aep7, aeq0
    315c:	1b9f24        	ae_roundsp16q48asym	aep2, aeq1
    315f:	1afa14        	ae_selp24.hl	aep1, aep7, aep2
    3162:	d9652d921f 	{ ae_lp16x2f.iu	aep1, a2, 4; ae_addsp24s	aep2, aep1, aep3 }
    3167:	46a404        	ae_sp16x2f.iu	aep2, a4, 0

0000316a <pvq_dec_scale_vec_fx+0x2a>:
    316a:	f01d           	retw.n

0000316c <pvq_dec_en1_normQ14_fx>:
    316c:	006136        	entry	a1, 48
    316f:	fc2493733f 	{ or	a7, a3, a3; ae_zeroq56	aeq0 }
    3174:	216150        	srai	a6, a5, 1
    3177:	0a25a6        	blti	a5, 2, 3185 <pvq_dec_en1_normQ14_fx+0x19>
    317a:	448704        	ae_lp16x2f.iu	aep0, a7, 0
    317d:	048676        	loop	a6, 3185 <pvq_dec_en1_normQ14_fx+0x19>
    3180:	e200ad871f 	{ ae_lp16x2f.iu	aep0, a7, 4; ae_mulaap24s.hh.ll	aeq0, aep0, aep0 }

00003185 <pvq_dec_en1_normQ14_fx+0x19>:
    3185:	368704        	ae_trunca32q48	a7, aeq0
    3188:	f80c           	movi.n	a8, 15
    318a:	b1cb           	addi.n	a11, a1, 12
    318c:	0dd7e6        	bgei	a7, 64, 319d <pvq_dec_en1_normQ14_fx+0x31>
    318f:	f3f581        	l32r	a8, 164 (ba24 <isqrt_Q16tab>)
    3192:	0888           	l32i.n	a8, a8, 0
    3194:	907780        	addx2	a7, a7, a8
    3197:	477d           	ae_l16ui.n	a7, a7, 0
    3199:	000a46        	j	31c6 <pvq_dec_en1_normQ14_fx+0x5a>

0000319c <pvq_dec_en1_normQ14_fx+0x30>:
	...

0000319d <pvq_dec_en1_normQ14_fx+0x31>:
    319d:	87ad           	ae_sext16	a10, a7
    319f:	f44071        	l32r	a7, 2a0 (e0c <ISqrt16>)
    31a2:	065182        	s16i	a8, a1, 12
    31a5:	0007e0        	callx8	a7
    31a8:	069172        	l16si	a7, a1, 12
    31ab:	771b           	addi.n	a7, a7, 1
    31ad:	877d           	ae_sext16	a7, a7
    31af:	00a796        	bltz	a7, 31bd <pvq_dec_en1_normQ14_fx+0x51>
    31b2:	401700        	ssl	a7
    31b5:	a17a00        	sll	a7, a10
    31b8:	877d           	ae_sext16	a7, a7
    31ba:	000206        	j	31c6 <pvq_dec_en1_normQ14_fx+0x5a>

000031bd <pvq_dec_en1_normQ14_fx+0x51>:
    31bd:	607070        	neg	a7, a7
    31c0:	400700        	ssr	a7
    31c3:	b170a0        	sra	a7, a10
    31c6:	40e480        	nsa	a8, a4
    31c9:	f0c882        	addi	a8, a8, -16
    31cc:	838440        	moveqz	a8, a4, a4
    31cf:	031684        	wur.ae_sar	a8
    31d2:	3125a6        	blti	a5, 2, 3207 <pvq_dec_en1_normQ14_fx+0x9b>
    31d5:	d40c           	movi.n	a4, 13
    31d7:	c04480        	sub	a4, a4, a8
    31da:	300774        	ae_cvtp24a16x2.ll	aep0, a7, a7
    31dd:	449304        	ae_lp16x2f.iu	aep1, a3, 0
    31e0:	fcc222        	addi	a2, a2, -4
    31e3:	844d           	ae_sext16	a4, a4
    31e5:	1e8676        	loop	a6, 3207 <pvq_dec_en1_normQ14_fx+0x9b>
    31e8:	0b1094        	ae_sllssp24s	aep1, aep1
    31eb:	010144        	ae_mulfp24s.hh	aeq0, aep0, aep1
    31ee:	010974        	ae_mulfp24s.ll	aeq1, aep0, aep1
    31f1:	fc24fe840f 	{ ae_slaasq56s	aeq0, aeq0, a4; nop }
    31f6:	fb63fe944f 	{ ae_slaasq56s	aeq1, aeq1, a4; ae_roundsp16q48asym	aep7, aeq0 }
    31fb:	1b9f24        	ae_roundsp16q48asym	aep2, aeq1
    31fe:	1afa14        	ae_selp24.hl	aep1, aep7, aep2
    3201:	469214        	ae_sp16x2f.iu	aep1, a2, 4
    3204:	449314        	ae_lp16x2f.iu	aep1, a3, 4

00003207 <pvq_dec_en1_normQ14_fx+0x9b>:
    3207:	f01d           	retw.n

00003209 <pvq_dec_en1_normQ14_fx+0x9d>:
    3209:	00000000                                 .......

00003210 <fftN2>:
    3210:	00a136        	entry	a1, 80
    3213:	1521c2        	l32i	a12, a1, 84
    3216:	9149           	s32i.n	a4, a1, 36
    3218:	8139           	s32i.n	a3, a1, 32
    321a:	2f16a6        	blti	a6, 1, 324d <fftN2+0x3d>
    321d:	d1b670        	mul16s	a11, a6, a7
    3220:	8a7c           	movi.n	a10, -8
    3222:	0c8d           	mov.n	a8, a12
    3224:	5d88a4        	ae_lp24x2f.xu	aep0, a8, a10
    3227:	1137e0        	slli	a3, a7, 2
    322a:	040c           	movi.n	a4, 0
    322c:	8e0c           	movi.n	a14, 8
    322e:	20a660        	or	a10, a6, a6
    3231:	11bbe0        	slli	a11, a11, 2

00003234 <fftN2+0x24>:
    3234:	0e15a6        	blti	a5, 1, 3246 <fftN2+0x36>
    3237:	20d220        	or	a13, a2, a2
    323a:	5d8d44        	ae_lp24x2f.xu	aep0, a13, a4
    323d:	058576        	loop	a5, 3246 <fftN2+0x36>
    3240:	5f88e4        	ae_sp24x2f.xu	aep0, a8, a14
    3243:	5d8db4        	ae_lp24x2f.xu	aep0, a13, a11

00003246 <fftN2+0x36>:
    3246:	aa0b           	addi.n	a10, a10, -1
    3248:	443a           	add.n	a4, a4, a3
    324a:	fe6a56        	bnez	a10, 3234 <fftN2+0x24>

0000324d <fftN2+0x3d>:
    324d:	172132        	l32i	a3, a1, 92
    3250:	341c           	movi.n	a4, 19
    3252:	a179           	s32i.n	a7, a1, 40
    3254:	61c9           	s32i.n	a12, a1, 24
    3256:	7169           	s32i.n	a6, a1, 28
    3258:	b199           	s32i.n	a9, a1, 44
    325a:	292457        	blt	a4, a5, 3287 <fftN2+0x77>
    325d:	519526        	beqi	a5, 10, 32b2 <fftN2+0xa2>
    3260:	f40c           	movi.n	a4, 15
    3262:	021547        	beq	a5, a4, 3268 <fftN2+0x58>
    3265:	002086        	j	32eb <fftN2+0xdb>
    3268:	7148           	l32i.n	a4, a1, 28
    326a:	7178           	l32i.n	a7, a1, 28
    326c:	7b14a6        	blti	a4, 1, 32eb <fftN2+0xdb>
    326f:	6148           	l32i.n	a4, a1, 24
    3271:	2368           	l32i.n	a6, a3, 8
    3273:	b44b           	addi.n	a11, a4, 4
    3275:	2c0c           	movi.n	a12, 2
    3277:	04ad           	mov.n	a10, a4
    3279:	0006e0        	callx8	a6
    327c:	770b           	addi.n	a7, a7, -1
    327e:	78c442        	addi	a4, a4, 120
    3281:	fec756        	bnez	a7, 3271 <fftN2+0x61>
    3284:	0018c6        	j	32eb <fftN2+0xdb>

00003287 <fftN2+0x77>:
    3287:	441c           	movi.n	a4, 20
    3289:	421547        	beq	a5, a4, 32cf <fftN2+0xbf>
    328c:	e41c           	movi.n	a4, 30
    328e:	599547        	bne	a5, a4, 32eb <fftN2+0xdb>
    3291:	7148           	l32i.n	a4, a1, 28
    3293:	7168           	l32i.n	a6, a1, 28
    3295:	f0a072        	movi	a7, 240
    3298:	4f14a6        	blti	a4, 1, 32eb <fftN2+0xdb>
    329b:	6148           	l32i.n	a4, a1, 24
    329d:	4398           	l32i.n	a9, a3, 16
    329f:	b44b           	addi.n	a11, a4, 4
    32a1:	2c0c           	movi.n	a12, 2
    32a3:	04ad           	mov.n	a10, a4
    32a5:	0009e0        	callx8	a9
    32a8:	660b           	addi.n	a6, a6, -1
    32aa:	447a           	add.n	a4, a4, a7
    32ac:	fed656        	bnez	a6, 329d <fftN2+0x8d>
    32af:	000e06        	j	32eb <fftN2+0xdb>

000032b2 <fftN2+0xa2>:
    32b2:	3516a6        	blti	a6, 1, 32eb <fftN2+0xdb>
    32b5:	7168           	l32i.n	a6, a1, 28
    32b7:	6148           	l32i.n	a4, a1, 24
    32b9:	1378           	l32i.n	a7, a3, 4
    32bb:	b44b           	addi.n	a11, a4, 4
    32bd:	2c0c           	movi.n	a12, 2
    32bf:	04ad           	mov.n	a10, a4
    32c1:	0007e0        	callx8	a7
    32c4:	660b           	addi.n	a6, a6, -1
    32c6:	50c442        	addi	a4, a4, 80
    32c9:	fec656        	bnez	a6, 32b9 <fftN2+0xa9>
    32cc:	0006c6        	j	32eb <fftN2+0xdb>

000032cf <fftN2+0xbf>:
    32cf:	1816a6        	blti	a6, 1, 32eb <fftN2+0xdb>
    32d2:	7168           	l32i.n	a6, a1, 28
    32d4:	6148           	l32i.n	a4, a1, 24
    32d6:	a0a072        	movi	a7, 160
    32d9:	3398           	l32i.n	a9, a3, 12
    32db:	b44b           	addi.n	a11, a4, 4
    32dd:	2c0c           	movi.n	a12, 2
    32df:	04ad           	mov.n	a10, a4
    32e1:	0009e0        	callx8	a9
    32e4:	660b           	addi.n	a6, a6, -1
    32e6:	447a           	add.n	a4, a4, a7
    32e8:	fed656        	bnez	a6, 32d9 <fftN2+0xc9>
    32eb:	71e8           	l32i.n	a14, a1, 28
    32ed:	162142        	l32i	a4, a1, 88
    32f0:	142192        	l32i	a9, a1, 80
    32f3:	b168           	l32i.n	a6, a1, 44
    32f5:	078ee6        	bgei	a14, 8, 3300 <fftN2+0xf0>
    32f8:	1b4e26        	beqi	a14, 4, 3317 <fftN2+0x107>
    32fb:	076e26        	beqi	a14, 6, 3306 <fftN2+0xf6>
    32fe:	f01d           	retw.n

00003300 <fftN2+0xf0>:
    3300:	188e26        	beqi	a14, 8, 331c <fftN2+0x10c>
    3303:	f7ae66        	bnei	a14, 12, 32fe <fftN2+0xee>
    3306:	61f8           	l32i.n	a15, a1, 24
    3308:	8338           	l32i.n	a3, a3, 32
    330a:	2149           	s32i.n	a4, a1, 8
    330c:	11f9           	s32i.n	a15, a1, 4
    330e:	81b8           	l32i.n	a11, a1, 32
    3310:	91c8           	l32i.n	a12, a1, 36
    3312:	a1f8           	l32i.n	a15, a1, 40
    3314:	000486        	j	332a <fftN2+0x11a>

00003317 <fftN2+0x107>:
    3317:	6338           	l32i.n	a3, a3, 24
    3319:	000046        	j	331e <fftN2+0x10e>

0000331c <fftN2+0x10c>:
    331c:	7338           	l32i.n	a3, a3, 28
    331e:	81b8           	l32i.n	a11, a1, 32
    3320:	91c8           	l32i.n	a12, a1, 36
    3322:	a1e8           	l32i.n	a14, a1, 40
    3324:	09fd           	mov.n	a15, a9
    3326:	6198           	l32i.n	a9, a1, 24
    3328:	1149           	s32i.n	a4, a1, 4
    332a:	02ad           	mov.n	a10, a2
    332c:	05dd           	mov.n	a13, a5
    332e:	0199           	s32i.n	a9, a1, 0
    3330:	0003e0        	callx8	a3
    3333:	f01d           	retw.n

00003335 <fftN2+0x125>:
    3335:	000000                                        ...

00003338 <BASOP_cfft>:
    3338:	006136        	entry	a1, 48
    333b:	c198           	l32i.n	a9, a1, 48
    333d:	9e5c           	movi.n	a14, 89
    333f:	05fd           	mov.n	a15, a5
    3341:	312e47        	blt	a14, a4, 3376 <BASOP_cfft+0x3e>
    3344:	752c           	movi.n	a5, 39
    3346:	64a547        	bge	a5, a4, 33ae <BASOP_cfft+0x76>
    3349:	852c           	movi.n	a5, 40
    334b:	029457        	bne	a4, a5, 3351 <BASOP_cfft+0x19>
    334e:	002886        	j	33f4 <BASOP_cfft+0xbc>
    3351:	c53c           	movi.n	a5, 60
    3353:	029457        	bne	a4, a5, 3359 <BASOP_cfft+0x21>
    3356:	002a86        	j	3404 <BASOP_cfft+0xcc>
    3359:	055c           	movi.n	a5, 80
    335b:	021457        	beq	a4, a5, 3361 <BASOP_cfft+0x29>
    335e:	004cc6        	j	3495 <BASOP_cfft+0x15d>
    3361:	f3a841        	l32r	a4, 204 (bab0 <RotVector_320>)
    3364:	3199           	s32i.n	a9, a1, 12
    3366:	f3cf91        	l32r	a9, 2a4 (3210 <fftN2>)
    3369:	04c8           	l32i.n	a12, a4, 0
    336b:	8e2c           	movi.n	a14, 40
    336d:	480c           	movi.n	a8, 4
    336f:	850c           	movi.n	a5, 8
    3371:	ad0c           	movi.n	a13, 10
    3373:	003046        	j	3438 <BASOP_cfft+0x100>

00003376 <BASOP_cfft+0x3e>:
    3376:	9fa052        	movi	a5, 159
    3379:	51a547        	bge	a5, a4, 33ce <BASOP_cfft+0x96>
    337c:	a0a052        	movi	a5, 160
    337f:	029457        	bne	a4, a5, 3385 <BASOP_cfft+0x4d>
    3382:	002806        	j	3426 <BASOP_cfft+0xee>
    3385:	b4a052        	movi	a5, 180
    3388:	029457        	bne	a4, a5, 338e <BASOP_cfft+0x56>
    338b:	002ec6        	j	344a <BASOP_cfft+0x112>
    338e:	f0a052        	movi	a5, 240
    3391:	021457        	beq	a4, a5, 3397 <BASOP_cfft+0x5f>
    3394:	003f46        	j	3495 <BASOP_cfft+0x15d>
    3397:	f39941        	l32r	a4, 1fc (baa8 <RotVector_480>)
    339a:	f3c281        	l32r	a8, 2a4 (3210 <fftN2>)
    339d:	ce3c           	movi.n	a14, 60
    339f:	04c8           	l32i.n	a12, a4, 0
    33a1:	3199           	s32i.n	a9, a1, 12
    33a3:	21e9           	s32i.n	a14, a1, 8
    33a5:	250c           	movi.n	a5, 2
    33a7:	ed1c           	movi.n	a13, 30
    33a9:	8e0c           	movi.n	a14, 8
    33ab:	0034c6        	j	3482 <BASOP_cfft+0x14a>

000033ae <BASOP_cfft+0x76>:
    33ae:	550c           	movi.n	a5, 5
    33b0:	02b466        	bnei	a4, 16, 33b6 <BASOP_cfft+0x7e>
    33b3:	003606        	j	348f <BASOP_cfft+0x157>
    33b6:	e51c           	movi.n	a5, 30
    33b8:	021457        	beq	a4, a5, 33be <BASOP_cfft+0x86>
    33bb:	003586        	j	3495 <BASOP_cfft+0x15d>
    33be:	4948           	l32i.n	a4, a9, 16
    33c0:	02ad           	mov.n	a10, a2
    33c2:	03bd           	mov.n	a11, a3
    33c4:	0fcd           	mov.n	a12, a15
    33c6:	0004e0        	callx8	a4
    33c9:	650c           	movi.n	a5, 6
    33cb:	003006        	j	348f <BASOP_cfft+0x157>

000033ce <BASOP_cfft+0x96>:
    33ce:	a55c           	movi.n	a5, 90
    33d0:	029457        	bne	a4, a5, 33d6 <BASOP_cfft+0x9e>
    33d3:	0025c6        	j	346e <BASOP_cfft+0x136>
    33d6:	78a052        	movi	a5, 120
    33d9:	021457        	beq	a4, a5, 33df <BASOP_cfft+0xa7>
    33dc:	002d46        	j	3495 <BASOP_cfft+0x15d>
    33df:	f38741        	l32r	a4, 1fc (baa8 <RotVector_480>)
    33e2:	3199           	s32i.n	a9, a1, 12
    33e4:	f3b091        	l32r	a9, 2a4 (3210 <fftN2>)
    33e7:	04c8           	l32i.n	a12, a4, 0
    33e9:	ce3c           	movi.n	a14, 60
    33eb:	480c           	movi.n	a8, 4
    33ed:	850c           	movi.n	a5, 8
    33ef:	fd0c           	movi.n	a13, 15
    33f1:	0010c6        	j	3438 <BASOP_cfft+0x100>

000033f4 <BASOP_cfft+0xbc>:
    33f4:	5948           	l32i.n	a4, a9, 20
    33f6:	02ad           	mov.n	a10, a2
    33f8:	03bd           	mov.n	a11, a3
    33fa:	0fcd           	mov.n	a12, a15
    33fc:	07dd           	mov.n	a13, a7
    33fe:	0004e0        	callx8	a4
    3401:	000706        	j	3421 <BASOP_cfft+0xe9>

00003404 <BASOP_cfft+0xcc>:
    3404:	f37e41        	l32r	a4, 1fc (baa8 <RotVector_480>)
    3407:	3199           	s32i.n	a9, a1, 12
    3409:	2159           	s32i.n	a5, a1, 8
    340b:	04c8           	l32i.n	a12, a4, 0
    340d:	f3a551        	l32r	a5, 2a4 (3210 <fftN2>)
    3410:	490c           	movi.n	a9, 4
    3412:	fd0c           	movi.n	a13, 15
    3414:	4e0c           	movi.n	a14, 4
    3416:	02ad           	mov.n	a10, a2
    3418:	03bd           	mov.n	a11, a3
    341a:	1179           	s32i.n	a7, a1, 4
    341c:	0199           	s32i.n	a9, a1, 0
    341e:	0005e0        	callx8	a5
    3421:	750c           	movi.n	a5, 7
    3423:	001a06        	j	348f <BASOP_cfft+0x157>

00003426 <BASOP_cfft+0xee>:
    3426:	f37741        	l32r	a4, 204 (bab0 <RotVector_320>)
    3429:	3199           	s32i.n	a9, a1, 12
    342b:	f39e91        	l32r	a9, 2a4 (3210 <fftN2>)
    342e:	04c8           	l32i.n	a12, a4, 0
    3430:	8e2c           	movi.n	a14, 40
    3432:	280c           	movi.n	a8, 2
    3434:	850c           	movi.n	a5, 8
    3436:	4d1c           	movi.n	a13, 20
    3438:	21e9           	s32i.n	a14, a1, 8
    343a:	8e0c           	movi.n	a14, 8
    343c:	02ad           	mov.n	a10, a2
    343e:	03bd           	mov.n	a11, a3
    3440:	1179           	s32i.n	a7, a1, 4
    3442:	0189           	s32i.n	a8, a1, 0
    3444:	0009e0        	callx8	a9
    3447:	001106        	j	348f <BASOP_cfft+0x157>

0000344a <BASOP_cfft+0x112>:
    344a:	f36d41        	l32r	a4, 200 (baac <RotVector_360>)
    344d:	ce3c           	movi.n	a14, 60
    344f:	f39581        	l32r	a8, 2a4 (3210 <fftN2>)
    3452:	04c8           	l32i.n	a12, a4, 0
    3454:	3199           	s32i.n	a9, a1, 12
    3456:	21e9           	s32i.n	a14, a1, 8
    3458:	450c           	movi.n	a5, 4
    345a:	fd0c           	movi.n	a13, 15
    345c:	ce0c           	movi.n	a14, 12
    345e:	02ad           	mov.n	a10, a2
    3460:	03bd           	mov.n	a11, a3
    3462:	1179           	s32i.n	a7, a1, 4
    3464:	0159           	s32i.n	a5, a1, 0
    3466:	0008e0        	callx8	a8
    3469:	a50c           	movi.n	a5, 10
    346b:	000806        	j	348f <BASOP_cfft+0x157>

0000346e <BASOP_cfft+0x136>:
    346e:	f36641        	l32r	a4, 208 (bab4 <RotVector_15_6>)
    3471:	f38c81        	l32r	a8, 2a4 (3210 <fftN2>)
    3474:	ee1c           	movi.n	a14, 30
    3476:	04c8           	l32i.n	a12, a4, 0
    3478:	3199           	s32i.n	a9, a1, 12
    347a:	21e9           	s32i.n	a14, a1, 8
    347c:	250c           	movi.n	a5, 2
    347e:	fd0c           	movi.n	a13, 15
    3480:	6e0c           	movi.n	a14, 6
    3482:	1179           	s32i.n	a7, a1, 4
    3484:	02ad           	mov.n	a10, a2
    3486:	03bd           	mov.n	a11, a3
    3488:	0159           	s32i.n	a5, a1, 0
    348a:	0008e0        	callx8	a8
    348d:	950c           	movi.n	a5, 9
    348f:	262d           	ae_l16si.n	a2, a6, 0
    3491:	225a           	add.n	a2, a2, a5
    3493:	662d           	ae_s16i.n	a2, a6, 0
    3495:	f01d           	retw.n

00003497 <BASOP_cfft+0x15f>:
	...

00003498 <processApplyGlobalGain_fx>:
    3498:	006136        	entry	a1, 48
    349b:	f38371        	l32r	a7, 2a8 (3cbe80 <_end+0x3c0398>)
    349e:	565a           	add.n	a5, a6, a5
    34a0:	855d           	ae_sext16	a5, a5
    34a2:	82e570        	mull	a14, a5, a7
    34a5:	ff7c           	movi.n	a15, -1
    34a7:	017f70        	slli	a7, a15, 25
    34aa:	f38061        	l32r	a6, 2ac (cdc <BASOP_Util_InvLog2>)
    34ad:	20ae70        	or	a10, a14, a7
    34b0:	3159e0        	srai	a5, a14, 25
    34b3:	0006e0        	callx8	a6
    34b6:	360a34        	ae_cvtq48a32s	aeq0, a10
    34b9:	1b8f04        	ae_roundsp16q48asym	aep0, aeq0
    34bc:	420164        	ae_sp16f.l.i	aep0, a1, 12
    34bf:	2624a6        	blti	a4, 2, 34e9 <processApplyGlobalGain_fx+0x51>
    34c2:	061162        	l16ui	a6, a1, 12
    34c5:	214140        	srai	a4, a4, 1
    34c8:	300664        	ae_cvtp24a16x2.ll	aep0, a6, a6
    34cb:	fcc262        	addi	a6, a2, -4
    34ce:	601204        	ae_lq32f.iu	aeq0, a2, 0
    34d1:	f03d           	nop.n
    34d3:	f03d           	nop.n
    34d5:	108476        	loop	a4, 34e9 <processApplyGlobalGain_fx+0x51>
    34d8:	d4e23d321f 	{ ae_lq32f.iu	aeq1, a2, 4; ae_mulfq32sp16s.l	aeq0, aeq0, aep0 }
    34dd:	030a54        	ae_mulfq32sp16s.l	aeq1, aeq1, aep0
    34e0:	624614        	ae_sq32f.iu	aeq0, a6, 4
    34e3:	601214        	ae_lq32f.iu	aeq0, a2, 4
    34e6:	625614        	ae_sq32f.iu	aeq1, a6, 4

000034e9 <processApplyGlobalGain_fx+0x51>:
    34e9:	232d           	ae_l16si.n	a2, a3, 0
    34eb:	252a           	add.n	a2, a5, a2
    34ed:	221b           	addi.n	a2, a2, 1
    34ef:	632d           	ae_s16i.n	a2, a3, 0
    34f1:	f01d           	retw.n

000034f3 <processApplyGlobalGain_fx+0x5b>:
    34f3:	00000000                                 .....

000034f8 <ProcessingIMDCT>:
    34f8:	00a136        	entry	a1, 80
    34fb:	1821e2        	l32i	a14, a1, 96
    34fe:	bf7c           	movi.n	a15, -5
    3500:	5159           	s32i.n	a5, a1, 20
    3502:	8149           	s32i.n	a4, a1, 32
    3504:	9139           	s32i.n	a3, a1, 36
    3506:	080fe7        	bnone	a15, a14, 3512 <ProcessingIMDCT+0x1a>
    3509:	192142        	l32i	a4, a1, 100
    350c:	021466        	bnei	a4, 1, 3512 <ProcessingIMDCT+0x1a>
    350f:	f01d           	retw.n

00003511 <ProcessingIMDCT+0x19>:
	...

00003512 <ProcessingIMDCT+0x1a>:
    3512:	172182        	l32i	a8, a1, 92
    3515:	7169           	s32i.n	a6, a1, 28
    3517:	152142        	l32i	a4, a1, 84
    351a:	9cc8a2        	addi	a10, a8, -100
    351d:	060c           	movi.n	a6, 0
    351f:	90a132        	movi	a3, 0x190
    3522:	6179           	s32i.n	a7, a1, 24
    3524:	142152        	l32i	a5, a1, 80
    3527:	2ca172        	movi	a7, 0x12c
    352a:	b5c882        	addi	a8, a8, -75
    352d:	9336a0        	movnez	a3, a6, a10
    3530:	937380        	movnez	a7, a3, a8
    3533:	18a747        	bge	a7, a4, 354f <ProcessingIMDCT+0x57>
    3536:	fc2095847f 	{ sub	a8, a4, a7; ae_zerop48	aep0 }
    353b:	1028a6        	blti	a8, 2, 354f <ProcessingIMDCT+0x57>
    353e:	a0f720        	addx4	a15, a7, a2
    3541:	213180        	srai	a3, a8, 1
    3544:	870c           	movi.n	a7, 8
    3546:	f8cf82        	addi	a8, a15, -8
    3549:	028376        	loop	a3, 354f <ProcessingIMDCT+0x57>
    354c:	5f8874        	ae_sp24x2f.xu	aep0, a8, a7

0000354f <ProcessingIMDCT+0x57>:
    354f:	162172        	l32i	a7, a1, 88
    3552:	b179           	s32i.n	a7, a1, 44
    3554:	f35771        	l32r	a7, 2b0 (fd0 <getScaleFactor32_0>)
    3557:	d05450        	subx2	a5, a4, a5
    355a:	02ad           	mov.n	a10, a2
    355c:	04bd           	mov.n	a11, a4
    355e:	a159           	s32i.n	a5, a1, 40
    3560:	213140        	srai	a3, a4, 1
    3563:	0007e0        	callx8	a7
    3566:	0a7d           	mov.n	a7, a10
    3568:	4fcae6        	bgei	a10, 32, 35bb <ProcessingIMDCT+0xc3>
    356b:	9198           	l32i.n	a9, a1, 36
    356d:	1d2162        	l32i	a6, a1, 116
    3570:	1e21f2        	l32i	a15, a1, 120
    3573:	298d           	ae_l16si.n	a8, a9, 0
    3575:	60e060        	neg	a14, a6
    3578:	02ad           	mov.n	a10, a2
    357a:	c08870        	sub	a8, a8, a7
    357d:	698d           	ae_s16i.n	a8, a9, 0
    357f:	2480e0        	extui	a8, a14, 0, 3
    3582:	e68a           	add.n	a14, a6, a8
    3584:	f34c61        	l32r	a6, 2b4 (15f0 <dct_IV_XT>)
    3587:	09bd           	mov.n	a11, a9
    3589:	07cd           	mov.n	a12, a7
    358b:	04dd           	mov.n	a13, a4
    358d:	095d           	mov.n	a5, a9
    358f:	0006e0        	callx8	a6
    3592:	f34761        	l32r	a6, 2b0 (fd0 <getScaleFactor32_0>)
    3595:	02ad           	mov.n	a10, a2
    3597:	04bd           	mov.n	a11, a4
    3599:	0006e0        	callx8	a6
    359c:	256d           	ae_l16si.n	a6, a5, 0
    359e:	7a0b           	addi.n	a7, a10, -1
    35a0:	481c           	movi.n	a8, 20
    35a2:	c06670        	sub	a6, a6, a7
    35a5:	fdc692        	addi	a9, a6, -3
    35a8:	659d           	ae_s16i.n	a9, a5, 0
    35aa:	042847        	blt	a8, a4, 35b2 <ProcessingIMDCT+0xba>
    35ad:	660b           	addi.n	a6, a6, -1
    35af:	000206        	j	35bb <ProcessingIMDCT+0xc3>

000035b2 <ProcessingIMDCT+0xba>:
    35b2:	78a082        	movi	a8, 120
    35b5:	062847        	blt	a8, a4, 35bf <ProcessingIMDCT+0xc7>
    35b8:	fec662        	addi	a6, a6, -2
    35bb:	9158           	l32i.n	a5, a1, 36
    35bd:	656d           	ae_s16i.n	a6, a5, 0
    35bf:	a168           	l32i.n	a6, a1, 40
    35c1:	f31e81        	l32r	a8, 23c (f0c <getScaleFactor16_0>)
    35c4:	51a8           	l32i.n	a10, a1, 20
    35c6:	b1b8           	l32i.n	a11, a1, 44
    35c8:	c06360        	sub	a6, a3, a6
    35cb:	0008e0        	callx8	a8
    35ce:	0bbae6        	bgei	a10, 16, 35dd <ProcessingIMDCT+0xe5>
    35d1:	71d8           	l32i.n	a13, a1, 28
    35d3:	aa0b           	addi.n	a10, a10, -1
    35d5:	2d8d           	ae_l16si.n	a8, a13, 0
    35d7:	c088a0        	sub	a8, a8, a10
    35da:	0000c6        	j	35e1 <ProcessingIMDCT+0xe9>

000035dd <ProcessingIMDCT+0xe5>:
    35dd:	458d           	ae_l16ui.n	a8, a5, 0
    35df:	71d8           	l32i.n	a13, a1, 28
    35e1:	6d8d           	ae_s16i.n	a8, a13, 0
    35e3:	45bd           	ae_l16ui.n	a11, a5, 0
    35e5:	61f8           	l32i.n	a15, a1, 24
    35e7:	c098b0        	sub	a9, a8, a11
    35ea:	89cd           	ae_sext16	a12, a9
    35ec:	869d           	ae_sext16	a9, a6
    35ee:	071ca6        	blti	a12, 1, 35f9 <ProcessingIMDCT+0x101>
    35f1:	c077c0        	sub	a7, a7, a12
    35f4:	658d           	ae_s16i.n	a8, a5, 0
    35f6:	0000c6        	j	35fd <ProcessingIMDCT+0x105>

000035f9 <ProcessingIMDCT+0x101>:
    35f9:	acaa           	add.n	a10, a12, a10
    35fb:	6dbd           	ae_s16i.n	a11, a13, 0
    35fd:	a168           	l32i.n	a6, a1, 40
    35ff:	1d6c           	movi.n	a13, -31
    3601:	877d           	ae_sext16	a7, a7
    3603:	5377d0        	max	a7, a7, a13
    3606:	8acd           	ae_sext16	a12, a10
    3608:	e0c7a2        	addi	a10, a7, -32
    360b:	8aad           	ae_sext16	a10, a10
    360d:	868d           	ae_sext16	a8, a6
    360f:	536cd0        	max	a6, a12, a13
    3612:	21afa0        	srai	a10, a10, 15
    3615:	f0c6e2        	addi	a14, a6, -16
    3618:	107a70        	and	a7, a10, a7
    361b:	8ead           	ae_sext16	a10, a14
    361d:	21afa0        	srai	a10, a10, 15
    3620:	106a60        	and	a6, a10, a6
    3623:	866d           	ae_sext16	a6, a6
    3625:	0219e6        	bgei	a9, 1, 362b <ProcessingIMDCT+0x133>
    3628:	004e86        	j	3766 <ProcessingIMDCT+0x26e>
    362b:	81a8           	l32i.n	a10, a1, 32
    362d:	11e8f0        	slli	a14, a8, 1
    3630:	a0c320        	addx4	a12, a3, a2
    3633:	b0d3a0        	addx8	a13, a3, a10
    3636:	c0dde0        	sub	a13, a13, a14
    3639:	51e8           	l32i.n	a14, a1, 20
    363b:	a0c8c0        	addx4	a12, a8, a12
    363e:	fecdd2        	addi	a13, a13, -2
    3641:	fecfa2        	addi	a10, a15, -2
    3644:	877d           	ae_sext16	a7, a7
    3646:	10c1b2        	addi	a11, a1, 16
    3649:	601c04        	ae_lq32f.iu	aeq0, a12, 0
    364c:	408d04        	ae_lp16f.iu	aep0, a13, 0
    364f:	258976        	loop	a9, 3678 <ProcessingIMDCT+0x180>
    3652:	2efd           	ae_l16si.n	a15, a14, 0
    3654:	fc24fe874f 	{ ae_slaasq56s	aeq1, aeq0, a7; nop }
    3659:	d4e37d1c1f 	{ ae_lq32f.iu	aeq0, a12, 4; ae_mulfq32sp16s.l	aeq1, aeq1, aep0 }
    365e:	11ff00        	slli	a15, a15, 16
    3661:	41f9           	s32i.n	a15, a1, 16
    3663:	608b04        	ae_lq32f.i	aeq2, a11, 0
    3666:	fc24fea68f 	{ ae_slaasq56s	aeq2, aeq2, a6; nop }
    366b:	f956802eee 	{ addi	a14, a14, 2; ae_subsq56s	aeq1, aeq2, aeq1 }
    3670:	f86bec8dff 	{ ae_lp16f.iu	aep0, a13, -2; ae_roundsp16q48asym	aep1, aeq1 }
    3675:	429a14        	ae_sp16f.l.iu	aep1, a10, 2

00003678 <ProcessingIMDCT+0x180>:
    3678:	61f8           	l32i.n	a15, a1, 24
    367a:	90b330        	addx2	a11, a3, a3
    367d:	21a130        	srai	a10, a3, 1
    3680:	5c44a6        	blti	a4, 4, 36e0 <ProcessingIMDCT+0x1e8>
    3683:	b05320        	addx8	a5, a3, a2
    3686:	51e8           	l32i.n	a14, a1, 20
    3688:	8138           	l32i.n	a3, a1, 32
    368a:	11dbf0        	slli	a13, a11, 1
    368d:	21c190        	srai	a12, a9, 1
    3690:	fcc552        	addi	a5, a5, -4
    3693:	41d2d0        	srli	a13, a13, 2
    3696:	a09ce0        	addx4	a9, a12, a14
    3699:	601504        	ae_lq32f.iu	aeq0, a5, 0
    369c:	a0ecf0        	addx4	a14, a12, a15
    369f:	a0cd30        	addx4	a12, a13, a3
    36a2:	fc24fe870f 	{ ae_slaasq56s	aeq0, aeq0, a7; nop }
    36a7:	449904        	ae_lp16x2f.iu	aep1, a9, 0
    36aa:	fcced2        	addi	a13, a14, -4
    36ad:	448cf4        	ae_lp16x2f.iu	aep0, a12, -4
    36b0:	2c8a76        	loop	a10, 36e0 <ProcessingIMDCT+0x1e8>
    36b3:	fd243d55ff 	{ ae_lq32f.iu	aeq2, a5, -4; ae_cvtq48p24s.h	aeq1, aep1 }
    36b8:	ff2c3e964f 	{ ae_slaasq56s	aeq1, aeq1, a6; ae_cvtq48p24s.l	aeq3, aep1 }
    36bd:	f482feb60f 	{ ae_slaasq56s	aeq0, aeq3, a6; ae_mulafq32sp16s.l	aeq1, aeq0, aep0 }
    36c2:	fc24fea78f 	{ ae_slaasq56s	aeq2, aeq2, a7; nop }
    36c7:	f602bd75ff 	{ ae_lq32f.iu	aeq3, a5, -4; ae_mulafq32sp16s.h	aeq0, aeq2, aep0 }
    36cc:	1b9f64        	ae_roundsp16q48asym	aep6, aeq1
    36cf:	fb63feb70f 	{ ae_slaasq56s	aeq0, aeq3, a7; ae_roundsp16q48asym	aep7, aeq0 }
    36d4:	1aef04        	ae_selp24.hl	aep0, aep6, aep7
    36d7:	468d14        	ae_sp16x2f.iu	aep0, a13, 4
    36da:	448cf4        	ae_lp16x2f.iu	aep0, a12, -4
    36dd:	449914        	ae_lp16x2f.iu	aep1, a9, 4
    36e0:	5c44a6        	blti	a4, 4, 3740 <ProcessingIMDCT+0x248>
    36e3:	8158           	l32i.n	a5, a1, 32
    36e5:	c06b80        	sub	a6, a11, a8
    36e8:	1186f0        	slli	a8, a6, 1
    36eb:	418280        	srli	a8, a8, 2
    36ee:	a05a50        	addx4	a5, a10, a5
    36f1:	056d           	mov.n	a6, a5
    36f3:	601204        	ae_lq32f.iu	aeq0, a2, 0
    36f6:	a088f0        	addx4	a8, a8, a15
    36f9:	448504        	ae_lp16x2f.iu	aep0, a5, 0
    36fc:	fc24fe870f 	{ ae_slaasq56s	aeq0, aeq0, a7; nop }
    3701:	4496f4        	ae_lp16x2f.iu	aep1, a6, -4
    3704:	fcc892        	addi	a9, a8, -4
    3707:	358a76        	loop	a10, 3740 <ProcessingIMDCT+0x248>
    370a:	fc10bd521f 	{ ae_lq32f.iu	aeq2, a2, 4; ae_negq56	aeq0, aeq0 }
    370f:	d4e67ea78f 	{ ae_slaasq56s	aeq2, aeq2, a7; ae_mulfq32sp16s.l	aeq1, aeq0, aep1 }
    3714:	068a24        	ae_negq56	aeq2, aeq2
    3717:	039a84        	ae_mulfq32sp16s.h	aeq3, aeq2, aep1
    371a:	030204        	ae_mulfq32sp16s.h	aeq0, aeq0, aep0
    371d:	038294        	ae_mulfq32sp16s.l	aeq2, aeq2, aep0
    3720:	f97bbd721f 	{ ae_lq32f.iu	aeq3, a2, 4; ae_roundsp16q48asym	aep2, aeq3 }
    3725:	1b9f64        	ae_roundsp16q48asym	aep6, aeq1
    3728:	fb63fe625f 	{ ae_selp24.hl	aep1, aep6, aep2; ae_roundsp16q48asym	aep7, aeq0 }
    372d:	f973f3991f 	{ ae_sp16x2f.iu	aep1, a9, 4; ae_roundsp16q48asym	aep3, aeq2 }
    3732:	dcecbeb70f 	{ ae_slaasq56s	aeq0, aeq3, a7; ae_selp24.hl	aep0, aep3, aep7 }
    3737:	4688f4        	ae_sp16x2f.iu	aep0, a8, -4
    373a:	448514        	ae_lp16x2f.iu	aep0, a5, 4
    373d:	4496f4        	ae_lp16x2f.iu	aep1, a6, -4
    3740:	b128           	l32i.n	a2, a1, 44
    3742:	7168           	l32i.n	a6, a1, 28
    3744:	51e8           	l32i.n	a14, a1, 20
    3746:	1422a6        	blti	a2, 2, 375e <ProcessingIMDCT+0x266>
    3749:	9044f0        	addx2	a4, a4, a15
    374c:	215120        	srai	a5, a2, 1
    374f:	fcce22        	addi	a2, a14, -4
    3752:	fcc442        	addi	a4, a4, -4
    3755:	058576        	loop	a5, 375e <ProcessingIMDCT+0x266>
    3758:	448414        	ae_lp16x2f.iu	aep0, a4, 4
    375b:	468214        	ae_sp16x2f.iu	aep0, a2, 4
    375e:	9128           	l32i.n	a2, a1, 36
    3760:	222d           	ae_l16si.n	a2, a2, 0
    3762:	662d           	ae_s16i.n	a2, a6, 0
    3764:	f01d           	retw.n

00003766 <ProcessingIMDCT+0x26e>:
    3766:	877d           	ae_sext16	a7, a7
    3768:	ffc306        	j	3678 <ProcessingIMDCT+0x180>

0000376b <ProcessingIMDCT+0x273>:
    376b:	00000000                                 .....

00003770 <processDecoderEntropy_fx>:
    3770:	008136        	entry	a1, 64
    3773:	887c           	movi.n	a8, -8
    3775:	a50b           	addi.n	a10, a5, -1
    3777:	f48080        	extui	a8, a8, 0, 16
    377a:	108a80        	and	a8, a10, a8
    377d:	8acd           	ae_sext16	a12, a10
    377f:	c0a850        	sub	a10, a8, a5
    3782:	5a8b           	addi.n	a5, a10, 8
    3784:	855d           	ae_sext16	a5, a5
    3786:	60e050        	neg	a14, a5
    3789:	1b0c           	movi.n	a11, 1
    378b:	120c           	movi.n	a2, 1
    378d:	400e00        	ssr	a14
    3790:	918020        	srl	a8, a2
    3793:	11bb00        	slli	a11, a11, 16
    3796:	401500        	ssl	a5
    3799:	41c3c0        	srli	a12, a12, 3
    379c:	a1fb00        	sll	a15, a11
    379f:	1021a2        	l32i	a10, a1, 64
    37a2:	63cd           	ae_s16i.n	a12, a3, 0
    37a4:	f520f0        	extui	a2, a15, 16, 16
    37a7:	f2c4c1        	l32r	a12, 2b8 (3a08 <read_indice>)
    37aa:	182132        	l32i	a3, a1, 96
    37ad:	1421d2        	l32i	a13, a1, 80
    37b0:	a32850        	movltz	a2, a8, a5
    37b3:	642d           	ae_s16i.n	a2, a4, 0
    37b5:	61d9           	s32i.n	a13, a1, 24
    37b7:	1b1aa6        	blti	a10, 1, 37d6 <processDecoderEntropy_fx+0x66>
    37ba:	094d           	mov.n	a4, a9
    37bc:	0c2d           	mov.n	a2, a12
    37be:	000ce0        	callx8	a12
    37c1:	c0f7a0        	sub	a15, a7, a10
    37c4:	049d           	mov.n	a9, a4
    37c6:	8f4d           	ae_sext16	a4, a15
    37c8:	02cd           	mov.n	a12, a2
    37ca:	63ad           	ae_s16i.n	a10, a3, 0
    37cc:	00a4d6        	bgez	a4, 37da <processDecoderEntropy_fx+0x6a>
    37cf:	120c           	movi.n	a2, 1
    37d1:	637d           	ae_s16i.n	a7, a3, 0
    37d3:	007786        	j	39b5 <processDecoderEntropy_fx+0x245>

000037d6 <processDecoderEntropy_fx+0x66>:
    37d6:	07ad           	mov.n	a10, a7
    37d8:	637d           	ae_s16i.n	a7, a3, 0
    37da:	fdca72        	addi	a7, a10, -3
    37dd:	602060        	neg	a2, a6
    37e0:	82dd           	ae_sext16	a13, a2
    37e2:	1b2152        	l32i	a5, a1, 108
    37e5:	140c           	movi.n	a4, 1
    37e7:	280c           	movi.n	a8, 2
    37e9:	877d           	ae_sext16	a7, a7
    37eb:	a38470        	movltz	a8, a4, a7
    37ee:	eb1c           	movi.n	a11, 30
    37f0:	40ed70        	nsa	a7, a13
    37f3:	1f3c           	movi.n	a15, 49
