
Build/codec/pisplit_lc3i_codec_position_independent.splitload.lib:     file format elf32-xtensa-le


Disassembly of section .text:

00000000 <_init-0x448>:
       0:	00000494 00009b1c 0000b5bc 00000000     ................
      10:	0000b580 00000000 0000b5a4 0000b7c4     ................
      20:	0000b5e0 000009f8 0000b5f4 00000a5c     ............\...
      30:	0000b608 00000ac0 0000b5d0 0000b7c8     ................
      40:	0000b7ca 0000b7cc 0000b7d0 0000b7fc     ................
      50:	0000b800 0000b804 0000b808 0000b80c     ................
      60:	0000b810 0000b814 0000b818 0000b81c     ................
      70:	0000b820 0000b844 0000b848 0000b84c      ...D...H...L...
      80:	0000b870 0000b874 0000b878 0000b8a4     p...t...x.......
      90:	0000b8a8 0000b8d4 0000b8d8 0000b8dc     ................
      a0:	0000b8e0 0000b8e4 0000b8e8 0000b8ec     ................
      b0:	0000b8f0 0000b8f4 0000b8f8 0000b8fc     ................
      c0:	0000b900 0000b904 0000b908 0000b90c     ................
      d0:	0000b910 0000b93c 0000b940 0000b96c     ....<...@...l...
      e0:	0000b984 0000b974 0000b978 0000b97c     ....t...x...|...
      f0:	0000b980 0000b970 0000b988 0000b9a0     ....p...........
     100:	0000b9a4 0000b9a8 0000b9ac 0000b9b0     ................
     110:	0000b9b4 0000b9b8 0000b9bc 0000b9c0     ................
     120:	0000b9c4 0000b9c8 0000b9cc 0000b9d0     ................
     130:	0000b9d4 0000b9d8 0000b9dc 0000b9f0     ................
     140:	0000b9f4 0000b9f8 0000b9fc 0000ba00     ................
     150:	0000ba04 0000ba08 0000ba0c 0000ba1c     ................
     160:	0000ba20 0000ba24 0000ba28 0000ba2c      ...$...(...,...
     170:	0000ba30 0000ba34 0000ba38 0000ba3c     0...4...8...<...
     180:	0000ba40 0000ba44 0000ba48 0000ba4c     @...D...H...L...
     190:	0000ba50 0000ba54 0000ba58 0000ba5c     P...T...X...\...
     1a0:	0000ba60 0000ba64 0000ba68 0000ba6c     `...d...h...l...
     1b0:	0000ba70 0000baa0 0000baa4 0000bab8     p...............
     1c0:	0000babc 0000bac0 0000bac4 0000bac8     ................
     1d0:	0000ba74 0000ba78 0000ba7c 0000ba80     t...x...|.......
     1e0:	0000ba84 0000ba88 0000ba8c 0000ba90     ................
     1f0:	0000ba94 0000ba98 0000ba9c 0000baa8     ................
     200:	0000baac 0000bab0 0000bab4 000004dc     ................
     210:	00000b50 00000ad4 00000bd8 00000b6c     P...........l...
     220:	00000af0 00007e6c 00000b8c 00003a40     ....l~......@:..
     230:	3dffffff 0016302f 00009ba0 00000f0c     ...=/0..........
     240:	80000001 00001218 00001548 00003338     ........H...83..
     250:	000020ec 0000bae0 0000badc 0000bad8     . ..............
     260:	0000bad4 00000bf8 0fff0000 00002dbc     .............-..
     270:	00009c5c 00008794 00000c14 0000316c     \...........l1..
     280:	0000a0d4 00003140 00002f30 000030f0     ....@1..0/...0..
     290:	00009c4c 00002e20 00009b54 00002e7c     L... ...T...|...
     2a0:	00000e0c 00003210 003cbe80 00000cdc     .....2....<.....
     2b0:	00000fd0 000015f0 00003a08 00010001     .........:......
     2c0:	000041bc 00009b40 00003770 00002194     .A..@...p7...!..
     2d0:	00002838 00002cb8 0000a5b4 00004970     8(...,......pI..
     2e0:	00003498 00004ac8 00001790 0000a530     .4...J......0...
     2f0:	0000a4f0 00008e1c 000034f8 00004cc4     .........4...L..
     300:	00004288 00000ef8 00004788 00000f88     .B.......G......
     310:	000095e4 0000a63c 00004c88 000012f8     ....<....L......
     320:	00001364 0009cccd 00000c30 436e439a     d.......0....CnC
     330:	f0523471 0003c7ae fffe0a3c 0009cccc     q4R.....<.......
     340:	3fff0000 1fff8000 00001434 00001028     ...?....4...(...
     350:	000010c4 fff80020 00000e88 0000b630     .... .......0...
     360:	00006d7b 00006f10 000070dc 51eb851f     {m...o...p.....Q
     370:	3ffffff0 7ffffffe 0000149c e56d0000     ...?..........m.
     380:	00001150 7fff0000 00005598 13333333     P........U..333.
     390:	6ccccccd 00005814 00007378 00005ea8     ...l.X..xs...^..
     3a0:	000070f8 000062f8 00005930 00004e70     .p...b..0Y..pN..
     3b0:	000067c8 00006074 00005138 000075a8     .g..t`..8Q...u..
     3c0:	000028f8 00007928 00005278 00006ab0     .(..(y..xR...j..
     3d0:	00004d68 0000a660 00006168 000084b0     hM..`...ha......
     3e0:	000018b8 0000b650 00008c44 000086e0     ....P...D.......
     3f0:	0000a6c8 00009598 000096e4 00010ccd     ................
     400:	00008d90 00008cfc 00004d30 78780000     ........0M....xx
     410:	00008f58 e0000001 0000929c 0000b7b0     X...............
     420:	00008ff8 0000b6a0 00009334 000094a4     ........4.......
     430:	0000b680 0000b670 0000b660 00009640     ....p...`...@...
     440:	0000b588 00000460                       ....`...

00000448 <_init>:
     448:	008136        	entry	a1, 64
     44b:	feed81        	l32r	a8, 0 (494 <frame_dummy>)
     44e:	f03d           	nop.n
     450:	0008e0        	callx8	a8
     453:	feec81        	l32r	a8, 4 (9b1c <__do_global_ctors_aux>)
     456:	f03d           	nop.n
     458:	0008e0        	callx8	a8
     45b:	f01d           	retw.n

0000045d <_init+0x15>:
     45d:	000000                                        ...

00000460 <__do_global_dtors_aux>:
     460:	004136        	entry	a1, 32
     463:	fee921        	l32r	a2, 8 (b5bc <__do_global_dtors_aux.completed>)
     466:	000232        	l8ui	a3, a2, 0
     469:	23ec           	bnez.n	a3, 48f <__do_global_dtors_aux+0x2f>

0000046b <__do_global_dtors_aux+0xb>:
     46b:	1248           	l32i.n	a4, a2, 4
     46d:	0438           	l32i.n	a3, a4, 0
     46f:	444b           	addi.n	a4, a4, 4
     471:	738c           	beqz.n	a3, 47c <__do_global_dtors_aux+0x1c>
     473:	1249           	s32i.n	a4, a2, 4
     475:	0003e0        	callx8	a3
     478:	fffbc6        	j	46b <__do_global_dtors_aux+0xb>

0000047b <__do_global_dtors_aux+0x1b>:
	...

0000047c <__do_global_dtors_aux+0x1c>:
     47c:	fee431        	l32r	a3, c (0 <_text_start>)
     47f:	fee4a1        	l32r	a10, 10 (b580 <__FRAME_END__>)
     482:	438c           	beqz.n	a3, 48a <__do_global_dtors_aux+0x2a>
     484:	fee281        	l32r	a8, c (0 <_text_start>)
     487:	0008e0        	callx8	a8
     48a:	130c           	movi.n	a3, 1
     48c:	004232        	s8i	a3, a2, 0
     48f:	f01d           	retw.n

00000491 <__do_global_dtors_aux+0x31>:
     491:	000000                                        ...

00000494 <frame_dummy>:
     494:	004136        	entry	a1, 32
     497:	fedf21        	l32r	a2, 14 (0 <_text_start>)
     49a:	fedda1        	l32r	a10, 10 (b580 <__FRAME_END__>)
     49d:	fedeb1        	l32r	a11, 18 (b5a4 <frame_dummy.object>)
     4a0:	428c           	beqz.n	a2, 4a8 <frame_dummy+0x14>
     4a2:	fedc81        	l32r	a8, 14 (0 <_text_start>)
     4a5:	0008e0        	callx8	a8

000004a8 <frame_dummy+0x14>:
     4a8:	f01d           	retw.n

000004aa <frame_dummy+0x16>:
	...

000004ac <_start>:
     4ac:	004136        	entry	a1, 32
     4af:	fedb31        	l32r	a3, 1c (b7c4 <printf_ptr>)
     4b2:	0228           	l32i.n	a2, a2, 0
     4b4:	fedba1        	l32r	a10, 20 (b5e0 <export_parameter_array+0x10>)
     4b7:	fedbb1        	l32r	a11, 24 (9f8 <LC3I_Enc_Prcs>)
     4ba:	0329           	s32i.n	a2, a3, 0
     4bc:	0002e0        	callx8	a2
     4bf:	0328           	l32i.n	a2, a3, 0
     4c1:	fed9a1        	l32r	a10, 28 (b5f4 <export_parameter_array+0x24>)
     4c4:	fedab1        	l32r	a11, 2c (a5c <LC3I_Dec_Prcs>)
     4c7:	0002e0        	callx8	a2
     4ca:	0328           	l32i.n	a2, a3, 0
     4cc:	fed9a1        	l32r	a10, 30 (b608 <export_parameter_array+0x38>)
     4cf:	fed9b1        	l32r	a11, 34 (ac0 <LC3I_Dec_Get_Param>)
     4d2:	0002e0        	callx8	a2
     4d5:	fed821        	l32r	a2, 38 (b5d0 <export_parameter_array>)
     4d8:	f01d           	retw.n

000004da <_start+0x2e>:
	...

000004dc <LC3I_Tab_Link>:
     4dc:	004136        	entry	a1, 32
     4df:	fedae1        	l32r	a14, 48 (b7d0 <plc_preemph_fac>)
     4e2:	fed741        	l32r	a4, 40 (b7ca <NN_thresh_exp>)
     4e5:	fed7c1        	l32r	a12, 44 (b7cc <BW_thresh_quiet_exp>)
     4e8:	fed961        	l32r	a6, 4c (b7fc <LowDelayShapes_n960_len>)
     4eb:	72eb           	addi.n	a7, a2, 14
     4ed:	fed881        	l32r	a8, 50 (b800 <LowDelayShapes_n960_la_zeroes>)
     4f0:	fed9a1        	l32r	a10, 54 (b804 <LowDelayShapes_n960>)
     4f3:	0e79           	s32i.n	a7, a14, 0
     4f5:	0592d2        	l16si	a13, a2, 10
     4f8:	0692f2        	l16si	a15, a2, 12
     4fb:	18c292        	addi	a9, a2, 24
     4fe:	fed7e1        	l32r	a14, 5c (b80c <LowDelayShapes_n960_la_zeroes_7_5ms>)
     501:	6cfd           	ae_s16i.n	a15, a12, 0
     503:	0699           	s32i.n	a9, a6, 0
     505:	64dd           	ae_s16i.n	a13, a4, 0
     507:	22c2b2        	addi	a11, a2, 34
     50a:	2cc2d2        	addi	a13, a2, 44
     50d:	fed2c1        	l32r	a12, 58 (b808 <LowDelayShapes_n960_len_7_5ms>)
     510:	fed461        	l32r	a6, 60 (b810 <LowDelayShapes_n960_7_5ms>)
     513:	08b9           	s32i.n	a11, a8, 0
     515:	0ad9           	s32i.n	a13, a10, 0
     517:	4ac272        	addi	a7, a2, 74
     51a:	fec831        	l32r	a3, 3c (b7c8 <NN_thresh>)
     51d:	fed181        	l32r	a8, 64 (b814 <BW_cutoff_bits_all>)
     520:	fed2a1        	l32r	a10, 68 (b818 <BW_thresh_quiet>)
     523:	0e79           	s32i.n	a7, a14, 0
     525:	40c2f2        	addi	a15, a2, 64
     528:	54c292        	addi	a9, a2, 84
     52b:	fed0e1        	l32r	a14, 6c (b81c <BW_thresh_brickwall>)
     52e:	0cf9           	s32i.n	a15, a12, 0
     530:	0699           	s32i.n	a9, a6, 0
     532:	049252        	l16si	a5, a2, 8
     535:	68c2b2        	addi	a11, a2, 104
     538:	74c2d2        	addi	a13, a2, 116
     53b:	84a0c2        	movi	a12, 132
     53e:	fecc61        	l32r	a6, 70 (b820 <BW_brickwall_dist>)
     541:	08b9           	s32i.n	a11, a8, 0
     543:	0ad9           	s32i.n	a13, a10, 0
     545:	635d           	ae_s16i.n	a5, a3, 0
     547:	32ca           	add.n	a3, a2, a12
     549:	8ca0f2        	movi	a15, 140
     54c:	feca81        	l32r	a8, 74 (b844 <BW_warp_idx_start_all>)
     54f:	fecaa1        	l32r	a10, 78 (b848 <BW_warp_idx_stop_all>)
     552:	0e39           	s32i.n	a3, a14, 0
     554:	52fa           	add.n	a5, a2, a15
     556:	d4a072        	movi	a7, 212
     559:	e4a092        	movi	a9, 228
     55c:	fec8c1        	l32r	a12, 7c (b84c <BW_brickwall_dist_7_5ms>)
     55f:	fec8e1        	l32r	a14, 80 (b870 <BW_warp_idx_start_all_7_5ms>)
     562:	0659           	s32i.n	a5, a6, 0
     564:	427a           	add.n	a4, a2, a7
     566:	529a           	add.n	a5, a2, a9
     568:	f4a0b2        	movi	a11, 244
     56b:	3ca1d2        	movi	a13, 0x13c
     56e:	fec561        	l32r	a6, 84 (b874 <BW_warp_idx_stop_all_7_5ms>)
     571:	0849           	s32i.n	a4, a8, 0
     573:	0a59           	s32i.n	a5, a10, 0
     575:	42ba           	add.n	a4, a2, a11
     577:	52da           	add.n	a5, a2, a13
     579:	4ca1f2        	movi	a15, 0x14c
     57c:	fec4a1        	l32r	a10, 8c (b8a4 <tns_subdiv_startfreq>)
     57f:	0c49           	s32i.n	a4, a12, 0
     581:	42fa           	add.n	a4, a2, a15
     583:	0e59           	s32i.n	a5, a14, 0
     585:	e0a192        	movi	a9, 0x1e0
     588:	fec3e1        	l32r	a14, 94 (b8d4 <tns_subdiv_startfreq_7_5ms>)
     58b:	0649           	s32i.n	a4, a6, 0
     58d:	429a           	add.n	a4, a2, a9
     58f:	febe81        	l32r	a8, 88 (b878 <BW_cutoff_bin_all>)
     592:	80a2d2        	movi	a13, 0x280
     595:	0a49           	s32i.n	a4, a10, 0
     597:	42da           	add.n	a4, a2, a13
     599:	5ca172        	movi	a7, 0x15c
     59c:	febdc1        	l32r	a12, 90 (b8a8 <tns_subdiv_stopfreq>)
     59f:	527a           	add.n	a5, a2, a7
     5a1:	0e49           	s32i.n	a4, a14, 0
     5a3:	f4a1b2        	movi	a11, 0x1f4
     5a6:	febc41        	l32r	a4, 98 (b8d8 <tns_subdiv_stopfreq_7_5ms>)
     5a9:	0859           	s32i.n	a5, a8, 0
     5ab:	52ba           	add.n	a5, a2, a11
     5ad:	94a2f2        	movi	a15, 0x294
     5b0:	febb71        	l32r	a7, 9c (b8dc <Tab_esc_nb>)
     5b3:	0c59           	s32i.n	a5, a12, 0
     5b5:	52fa           	add.n	a5, a2, a15
     5b7:	a8a262        	movi	a6, 0x2a8
     5ba:	0459           	s32i.n	a5, a4, 0
     5bc:	426a           	add.n	a4, a2, a6
     5be:	2ba1a2        	movi	a10, 0x12b
     5c1:	feb8b1        	l32r	a11, a4 (b8e4 <ari_spec_cumfreq>)
     5c4:	0749           	s32i.n	a4, a7, 0
     5c6:	114ac0        	slli	a4, a10, 4
     5c9:	feb591        	l32r	a9, a0 (b8e0 <ari_spec_lookup>)
     5cc:	b0a282        	movi	a8, 0x2b0
     5cf:	424a           	add.n	a4, a2, a4
     5d1:	3ba2e2        	movi	a14, 0x23b
     5d4:	feb6f1        	l32r	a15, ac (b8ec <ari_spec_bits>)
     5d7:	528a           	add.n	a5, a2, a8
     5d9:	0b49           	s32i.n	a4, a11, 0
     5db:	114ec0        	slli	a4, a14, 4
     5de:	b3a1c2        	movi	a12, 0x1b3
     5e1:	feb1d1        	l32r	a13, a8 (b8e8 <ari_spec_freq>)
     5e4:	0959           	s32i.n	a5, a9, 0
     5e6:	115cc0        	slli	a5, a12, 4
     5e9:	424a           	add.n	a4, a2, a4
     5eb:	c5a282        	movi	a8, 0x2c5
     5ee:	feb191        	l32r	a9, b4 (b8f4 <tnsQuantPts>)
     5f1:	0f49           	s32i.n	a4, a15, 0
     5f3:	1148c0        	slli	a4, a8, 4
     5f6:	525a           	add.n	a5, a2, a5
     5f8:	c3a262        	movi	a6, 0x2c3
     5fb:	fead71        	l32r	a7, b0 (b8f0 <tnsAcfWindow>)
     5fe:	0d59           	s32i.n	a5, a13, 0
     600:	1156c0        	slli	a5, a6, 4
     603:	424a           	add.n	a4, a2, a4
     605:	5ea6c2        	movi	a12, 0x65e
     608:	feadd1        	l32r	a13, bc (b8fc <ac_tns_order_bits>)
     60b:	0949           	s32i.n	a4, a9, 0
     60d:	f04cc0        	subx8	a4, a12, a12
     610:	525a           	add.n	a5, a2, a5
     612:	72a0a2        	movi	a10, 114
     615:	fea8b1        	l32r	a11, b8 (b8f8 <tnsQuantThr>)
     618:	0759           	s32i.n	a5, a7, 0
     61a:	2cda52        	addmi	a5, a10, 0x2c00
     61d:	424a           	add.n	a4, a2, a4
     61f:	d2a062        	movi	a6, 210
     622:	fea871        	l32r	a7, c4 (b904 <ac_tns_order_cumfreq>)
     625:	0d49           	s32i.n	a4, a13, 0
     627:	2cd642        	addmi	a4, a6, 0x2c00
     62a:	525a           	add.n	a5, a2, a5
     62c:	b2a0e2        	movi	a14, 178
     62f:	fea4f1        	l32r	a15, c0 (b900 <ac_tns_order_freq>)
     632:	0b59           	s32i.n	a5, a11, 0
     634:	2cde52        	addmi	a5, a14, 0x2c00
     637:	424a           	add.n	a4, a2, a4
     639:	2a0c           	movi.n	a10, 2
     63b:	fea4b1        	l32r	a11, cc (b90c <ac_tns_coef_freq>)
     63e:	0749           	s32i.n	a4, a7, 0
     640:	2eda42        	addmi	a4, a10, 0x2e00
     643:	525a           	add.n	a5, a2, a5
     645:	f2a082        	movi	a8, 242
     648:	fea091        	l32r	a9, c8 (b908 <ac_tns_coef_bits>)
     64b:	0f59           	s32i.n	a5, a15, 0
     64d:	2cd852        	addmi	a5, a8, 0x2c00
     650:	424a           	add.n	a4, a2, a4
     652:	4e2c           	movi.n	a14, 36
     654:	fea0f1        	l32r	a15, d4 (b93c <lpc_pre_emphasis>)
     657:	0b49           	s32i.n	a4, a11, 0
     659:	30de42        	addmi	a4, a14, 0x3000
     65c:	525a           	add.n	a5, a2, a5
     65e:	2c1c           	movi.n	a12, 18
     660:	fe9cd1        	l32r	a13, d0 (b910 <ac_tns_coef_cumfreq>)
     663:	0959           	s32i.n	a5, a9, 0
     665:	2fdc52        	addmi	a5, a12, 0x2f00
     668:	424a           	add.n	a4, a2, a4
     66a:	c84c           	movi.n	a8, 76
     66c:	fe9c91        	l32r	a9, dc (b96c <bands_offset>)
     66f:	0f49           	s32i.n	a4, a15, 0
     671:	30d842        	addmi	a4, a8, 0x3000
     674:	525a           	add.n	a5, a2, a5
     676:	07a662        	movi	a6, 0x607
     679:	fe9771        	l32r	a7, d8 (b940 <lpc_pre_emphasis_e>)
     67c:	0d59           	s32i.n	a5, a13, 0
     67e:	1156d0        	slli	a5, a6, 3
     681:	424a           	add.n	a4, a2, a4
     683:	eca6c2        	movi	a12, 0x6ec
     686:	fe97d1        	l32r	a13, e4 (b974 <bands_offset_with_one_max>)
     689:	0949           	s32i.n	a4, a9, 0
     68b:	f04cc0        	subx8	a4, a12, a12
     68e:	525a           	add.n	a5, a2, a5
     690:	83a1a2        	movi	a10, 0x183
     693:	fe93b1        	l32r	a11, e0 (b984 <bands_offset_7_5ms>)
     696:	0759           	s32i.n	a5, a7, 0
     698:	115ab0        	slli	a5, a10, 5
     69b:	424a           	add.n	a4, a2, a4
     69d:	11a662        	movi	a6, 0x611
     6a0:	fe9371        	l32r	a7, ec (b97c <bands_offset_with_one_max_7_5ms>)
     6a3:	0d49           	s32i.n	a4, a13, 0
     6a5:	1146d0        	slli	a4, a6, 3
     6a8:	525a           	add.n	a5, a2, a5
     6aa:	7ea0e2        	movi	a14, 126
     6ad:	fe8ef1        	l32r	a15, e8 (b978 <bands_offset_with_two_max>)
     6b0:	0b59           	s32i.n	a5, a11, 0
     6b2:	30de52        	addmi	a5, a14, 0x3000
     6b5:	424a           	add.n	a4, a2, a4
     6b7:	9ca0a2        	movi	a10, 156
     6ba:	fe8eb1        	l32r	a11, f4 (b970 <bands_number_7_5ms>)
     6bd:	0749           	s32i.n	a4, a7, 0
     6bf:	30da42        	addmi	a4, a10, 0x3000
     6c2:	525a           	add.n	a5, a2, a5
     6c4:	92a082        	movi	a8, 146
     6c7:	fe8a91        	l32r	a9, f0 (b980 <bands_offset_with_two_max_7_5ms>)
     6ca:	0f59           	s32i.n	a5, a15, 0
     6cc:	30d852        	addmi	a5, a8, 0x3000
     6cf:	424a           	add.n	a4, a2, a4
     6d1:	1da6e2        	movi	a14, 0x61d
     6d4:	fe8af1        	l32r	a15, fc (b9a0 <resamp_filts>)
     6d7:	0b49           	s32i.n	a4, a11, 0
     6d9:	114ed0        	slli	a4, a14, 3
     6dc:	525a           	add.n	a5, a2, a5
     6de:	a6a0c2        	movi	a12, 166
     6e1:	fe85d1        	l32r	a13, f8 (b988 <bands_nrg_scale>)
     6e4:	0959           	s32i.n	a5, a9, 0
     6e6:	30dc52        	addmi	a5, a12, 0x3000
     6e9:	424a           	add.n	a4, a2, a4
     6eb:	482c           	movi.n	a8, 36
     6ed:	fe8591        	l32r	a9, 104 (b9a8 <highpass50_filt_num>)
     6f0:	0f49           	s32i.n	a4, a15, 0
     6f2:	31d842        	addmi	a4, a8, 0x3100
     6f5:	525a           	add.n	a5, a2, a5
     6f7:	fca062        	movi	a6, 252
     6fa:	fe8171        	l32r	a7, 100 (b9a4 <resamp_params>)
     6fd:	0d59           	s32i.n	a5, a13, 0
     6ff:	30d652        	addmi	a5, a6, 0x3000
     702:	424a           	add.n	a4, a2, a4
     704:	13a3c2        	movi	a12, 0x313
     707:	fe81d1        	l32r	a13, 10c (b9b0 <olpa_ac_weighting>)
     70a:	0949           	s32i.n	a4, a9, 0
     70c:	114cc0        	slli	a4, a12, 4
     70f:	525a           	add.n	a5, a2, a5
     711:	ca2c           	movi.n	a10, 44
     713:	fe7db1        	l32r	a11, 108 (b9ac <highpass50_filt_den>)
     716:	0759           	s32i.n	a5, a7, 0
     718:	31da52        	addmi	a5, a10, 0x3100
     71b:	424a           	add.n	a4, a2, a4
     71d:	74a062        	movi	a6, 116
     720:	fe7d71        	l32r	a7, 114 (b9b8 <inter_filter>)
     723:	0d49           	s32i.n	a4, a13, 0
     725:	32d642        	addmi	a4, a6, 0x3200
     728:	525a           	add.n	a5, a2, a5
     72a:	f4a0e2        	movi	a14, 244
     72d:	fe78f1        	l32r	a15, 110 (b9b4 <ltpf_ac_interp_filt>)
     730:	0b59           	s32i.n	a5, a11, 0
     732:	31de52        	addmi	a5, a14, 0x3100
     735:	424a           	add.n	a4, a2, a4
     737:	ea5c           	movi.n	a10, 94
     739:	fe78b1        	l32r	a11, 11c (b9c0 <inter_filter_len>)
     73c:	0749           	s32i.n	a4, a7, 0
     73e:	34da42        	addmi	a4, a10, 0x3400
     741:	525a           	add.n	a5, a2, a5
     743:	485c           	movi.n	a8, 84
     745:	fe7491        	l32r	a9, 118 (b9bc <inter_filter_shift>)
     748:	0f59           	s32i.n	a5, a15, 0
     74a:	34d852        	addmi	a5, a8, 0x3400
     74d:	424a           	add.n	a4, a2, a4
     74f:	d4a5e2        	movi	a14, 0x5d4
     752:	fe74f1        	l32r	a15, 124 (b9c8 <tilt_filter_EVEN>)
     755:	0b49           	s32i.n	a4, a11, 0
     757:	b04ee0        	addx8	a4, a14, a14
     75a:	525a           	add.n	a5, a2, a5
     75c:	8da6c2        	movi	a12, 0x68d
     75f:	fe70d1        	l32r	a13, 120 (b9c4 <tilt_filter_len_EO>)
     762:	0959           	s32i.n	a5, a9, 0
     764:	115cd0        	slli	a5, a12, 3
     767:	424a           	add.n	a4, a2, a4
     769:	483c           	movi.n	a8, 52
     76b:	fe7091        	l32r	a9, 12c (b9d0 <tilt_filter_len>)
     76e:	0f49           	s32i.n	a4, a15, 0
     770:	38d842        	addmi	a4, a8, 0x3800
     773:	525a           	add.n	a5, a2, a5
     775:	465c           	movi.n	a6, 84
     777:	fe6c71        	l32r	a7, 128 (b9cc <tilt_filter_ODD>)
     77a:	0d59           	s32i.n	a5, a13, 0
     77c:	36d652        	addmi	a5, a6, 0x3600
     77f:	424a           	add.n	a4, a2, a4
     781:	6c4c           	movi.n	a12, 70
     783:	fe6cd1        	l32r	a13, 134 (b9d8 <pitch_scale>)
     786:	0949           	s32i.n	a4, a9, 0
     788:	38dc42        	addmi	a4, a12, 0x3800
     78b:	525a           	add.n	a5, a2, a5
     78d:	ea3c           	movi.n	a10, 62
     78f:	fe68b1        	l32r	a11, 130 (b9d4 <gain_scale_fac>)
     792:	0759           	s32i.n	a5, a7, 0
     794:	38da52        	addmi	a5, a10, 0x3800
     797:	424a           	add.n	a4, a2, a4
     799:	71a062        	movi	a6, 113
     79c:	fe6871        	l32r	a7, 13c (b9f0 <sns_gaintabPtr>)
     79f:	0d49           	s32i.n	a4, a13, 0
     7a1:	114690        	slli	a4, a6, 7
     7a4:	525a           	add.n	a5, a2, a5
     7a6:	85a3e2        	movi	a14, 0x385
     7a9:	fe63f1        	l32r	a15, 138 (b9dc <ltpf_overlap_len>)
     7ac:	0b59           	s32i.n	a5, a11, 0
     7ae:	115ec0        	slli	a5, a14, 4
     7b1:	424a           	add.n	a4, a2, a4
     7b3:	13a7a2        	movi	a10, 0x713
     7b6:	fe63b1        	l32r	a11, 144 (b9f8 <sns_gainMSBbits>)
     7b9:	0749           	s32i.n	a4, a7, 0
     7bb:	114ad0        	slli	a4, a10, 3
     7be:	525a           	add.n	a5, a2, a5
     7c0:	89a382        	movi	a8, 0x389
     7c3:	fe5f91        	l32r	a9, 140 (b9f4 <sns_gainSz>)
     7c6:	0f59           	s32i.n	a5, a15, 0
     7c8:	1158c0        	slli	a5, a8, 4
     7cb:	424a           	add.n	a4, a2, a4
     7cd:	15a7e2        	movi	a14, 0x715
     7d0:	fe5ff1        	l32r	a15, 14c (ba00 <sns_Kval>)
     7d3:	0b49           	s32i.n	a4, a11, 0
     7d5:	114ed0        	slli	a4, a14, 3
     7d8:	525a           	add.n	a5, a2, a5
     7da:	c5a1c2        	movi	a12, 0x1c5
     7dd:	fe5ad1        	l32r	a13, 148 (b9fc <sns_gainLSBbits>)
     7e0:	0959           	s32i.n	a5, a9, 0
     7e2:	115cb0        	slli	a5, a12, 5
     7e5:	424a           	add.n	a4, a2, a4
     7e7:	1ba782        	movi	a8, 0x71b
     7ea:	fe5a91        	l32r	a9, 154 (ba08 <st1SCF0_7_base5_32x8_Q14>)
     7ed:	0f49           	s32i.n	a4, a15, 0
     7ef:	1148d0        	slli	a4, a8, 3
     7f2:	525a           	add.n	a5, a2, a5
     7f4:	17a762        	movi	a6, 0x717
     7f7:	fe5671        	l32r	a7, 150 (ba04 <sns_MPVQ_Sz>)
     7fa:	0d59           	s32i.n	a5, a13, 0
     7fc:	1156d0        	slli	a5, a6, 3
     7ff:	424a           	add.n	a4, a2, a4
     801:	7ba0c2        	movi	a12, 123
     804:	fe56d1        	l32r	a13, 15c (ba1c <MPVQ_offs_ptr>)
     807:	0949           	s32i.n	a4, a9, 0
     809:	114c90        	slli	a4, a12, 7
     80c:	525a           	add.n	a5, a2, a5
     80e:	5ba7a2        	movi	a10, 0x75b
     811:	fe51b1        	l32r	a11, 158 (ba0c <st1SCF8_15_base5_32x8_Q14>)
     814:	0759           	s32i.n	a5, a7, 0
     816:	115ad0        	slli	a5, a10, 3
     819:	424a           	add.n	a4, a2, a4
     81b:	e6a062        	movi	a6, 230
     81e:	fe5171        	l32r	a7, 164 (ba24 <isqrt_Q16tab>)
     821:	0d49           	s32i.n	a4, a13, 0
     823:	3dd642        	addmi	a4, a6, 0x3d00
     826:	525a           	add.n	a5, a2, a5
     828:	c4a0e2        	movi	a14, 196
     82b:	fe4df1        	l32r	a15, 160 (ba20 <tabledKMAX>)
     82e:	0b59           	s32i.n	a5, a11, 0
     830:	3dde52        	addmi	a5, a14, 0x3d00
     833:	424a           	add.n	a4, a2, a4
     835:	9aa0a2        	movi	a10, 154
     838:	fe4db1        	l32r	a11, 16c (ba2c <BitReverseTable256>)
     83b:	0749           	s32i.n	a4, a7, 0
     83d:	3eda42        	addmi	a4, a10, 0x3e00
     840:	525a           	add.n	a5, a2, a5
     842:	cda782        	movi	a8, 0x7cd
     845:	fe4891        	l32r	a9, 168 (ba28 <adjust_global_gain_tables>)
     848:	0f59           	s32i.n	a5, a15, 0
     84a:	1158d0        	slli	a5, a8, 3
     84d:	424a           	add.n	a4, a2, a4
     84f:	7ca0e2        	movi	a14, 124
     852:	fe48f1        	l32r	a15, 174 (ba34 <Bit_Shft>)
     855:	0b49           	s32i.n	a4, a11, 0
     857:	40de42        	addmi	a4, a14, 0x4000
     85a:	525a           	add.n	a5, a2, a5
     85c:	9aa0c2        	movi	a12, 154
     85f:	fe44d1        	l32r	a13, 170 (ba30 <Tab_T>)
     862:	0959           	s32i.n	a5, a9, 0
     864:	3fdc52        	addmi	a5, a12, 0x3f00
     867:	424a           	add.n	a4, a2, a4
     869:	cca082        	movi	a8, 204
     86c:	fe4491        	l32r	a9, 17c (ba3c <Tab_esc_Dec>)
     86f:	0f49           	s32i.n	a4, a15, 0
     871:	40d842        	addmi	a4, a8, 0x4000
     874:	525a           	add.n	a5, a2, a5
     876:	2ca762        	movi	a6, 0x72c
     879:	fe3f71        	l32r	a7, 178 (ba38 <AB_Shft>)
     87c:	0d59           	s32i.n	a5, a13, 0
     87e:	b05660        	addx8	a5, a6, a6
     881:	424a           	add.n	a4, a2, a4
     883:	38a7c2        	movi	a12, 0x738
     886:	fe3fd1        	l32r	a13, 184 (ba44 <ldCoeff_Hifi5>)
     889:	0949           	s32i.n	a4, a9, 0
     88b:	b04cc0        	addx8	a4, a12, a12
     88e:	525a           	add.n	a5, a2, a5
     890:	e8a0a2        	movi	a10, 232
     893:	fe3bb1        	l32r	a11, 180 (ba40 <ldCoeff>)
     896:	0759           	s32i.n	a5, a7, 0
     898:	40da52        	addmi	a5, a10, 0x4000
     89b:	424a           	add.n	a4, a2, a4
     89d:	48a762        	movi	a6, 0x748
     8a0:	fe3b71        	l32r	a7, 18c (ba4c <exp2w_tab_long>)
     8a3:	0d49           	s32i.n	a4, a13, 0
     8a5:	b04660        	addx8	a4, a6, a6
     8a8:	525a           	add.n	a5, a2, a5
     8aa:	8e0c           	movi.n	a14, 8
     8ac:	fe37f1        	l32r	a15, 188 (ba48 <exp2_tab_long>)
     8af:	0b59           	s32i.n	a5, a11, 0
     8b1:	41de52        	addmi	a5, a14, 0x4100
     8b4:	424a           	add.n	a4, a2, a4
     8b6:	88a0a2        	movi	a10, 136
     8b9:	fe36b1        	l32r	a11, 194 (ba54 <SqrtTable>)
     8bc:	0749           	s32i.n	a4, a7, 0
     8be:	42da42        	addmi	a4, a10, 0x4200
     8c1:	525a           	add.n	a5, a2, a5
     8c3:	880c           	movi.n	a8, 8
     8c5:	fe3291        	l32r	a9, 190 (ba50 <exp2x_tab_long>)
     8c8:	0f59           	s32i.n	a5, a15, 0
     8ca:	42d852        	addmi	a5, a8, 0x4200
     8cd:	424a           	add.n	a4, a2, a4
     8cf:	8e4c           	movi.n	a14, 72
     8d1:	fe32f1        	l32r	a15, 19c (ba5c <ISqrtTable>)
     8d4:	0b49           	s32i.n	a4, a11, 0
     8d6:	43de42        	addmi	a4, a14, 0x4300
     8d9:	525a           	add.n	a5, a2, a5
     8db:	8c0c           	movi.n	a12, 8
     8dd:	fe2ed1        	l32r	a13, 198 (ba58 <SqrtDiffTable>)
     8e0:	0959           	s32i.n	a5, a9, 0
     8e2:	43dc52        	addmi	a5, a12, 0x4300
     8e5:	424a           	add.n	a4, a2, a4
     8e7:	880c           	movi.n	a8, 8
     8e9:	fe2e91        	l32r	a9, 1a4 (ba64 <InvTable>)
     8ec:	0f49           	s32i.n	a4, a15, 0
     8ee:	44d842        	addmi	a4, a8, 0x4400
     8f1:	525a           	add.n	a5, a2, a5
     8f3:	0d59           	s32i.n	a5, a13, 0
     8f5:	424a           	add.n	a4, a2, a4
     8f7:	c8a0c2        	movi	a12, 200
     8fa:	fe2cd1        	l32r	a13, 1ac (ba6c <InvIntTable>)
     8fd:	0949           	s32i.n	a4, a9, 0
     8ff:	44dc42        	addmi	a4, a12, 0x4400
     902:	88a762        	movi	a6, 0x788
     905:	fe2671        	l32r	a7, 1a0 (ba60 <ISqrtDiffTable>)
     908:	b05660        	addx8	a5, a6, a6
     90b:	424a           	add.n	a4, a2, a4
     90d:	8e3c           	movi.n	a14, 56
     90f:	fe29f1        	l32r	a15, 1b4 (baa0 <RealFFT80_twid>)
     912:	0d49           	s32i.n	a4, a13, 0
     914:	45de42        	addmi	a4, a14, 0x4500
     917:	525a           	add.n	a5, a2, a5
     919:	0759           	s32i.n	a5, a7, 0
     91b:	424a           	add.n	a4, a2, a4
     91d:	59a462        	movi	a6, 0x459
     920:	fe2671        	l32r	a7, 1b8 (baa4 <RotVector_40_32>)
     923:	0f49           	s32i.n	a4, a15, 0
     925:	1146c0        	slli	a4, a6, 4
     928:	88a0a2        	movi	a10, 136
     92b:	fe1fb1        	l32r	a11, 1a8 (ba68 <InvDiffTable>)
     92e:	44da52        	addmi	a5, a10, 0x4400
     931:	424a           	add.n	a4, a2, a4
     933:	8da082        	movi	a8, 141
     936:	fe2191        	l32r	a9, 1bc (bab8 <isqrt_table>)
     939:	525a           	add.n	a5, a2, a5
     93b:	0749           	s32i.n	a4, a7, 0
     93d:	114890        	slli	a4, a8, 7
     940:	0b59           	s32i.n	a5, a11, 0
     942:	424a           	add.n	a4, a2, a4
     944:	88a0a2        	movi	a10, 136
     947:	fe1eb1        	l32r	a11, 1c0 (babc <Log2_16_table1>)
     94a:	0949           	s32i.n	a4, a9, 0
     94c:	48da42        	addmi	a4, a10, 0x4800
     94f:	424a           	add.n	a4, a2, a4
     951:	c8a0c2        	movi	a12, 200
     954:	fe1cd1        	l32r	a13, 1c4 (bac0 <Log2_16_table2>)
     957:	0b49           	s32i.n	a4, a11, 0
     959:	48dc42        	addmi	a4, a12, 0x4800
     95c:	424a           	add.n	a4, a2, a4
     95e:	e8a0e2        	movi	a14, 232
     961:	fe19f1        	l32r	a15, 1c8 (bac4 <InvLog2_16_table1>)
     964:	0d49           	s32i.n	a4, a13, 0
     966:	48de42        	addmi	a4, a14, 0x4800
     969:	424a           	add.n	a4, a2, a4
     96b:	e8a052        	movi	a5, 232
     96e:	fe1761        	l32r	a6, 1cc (bac8 <InvLog2_16_table2>)
     971:	0f49           	s32i.n	a4, a15, 0
     973:	49d542        	addmi	a4, a5, 0x4900
     976:	424a           	add.n	a4, a2, a4
     978:	fe1681        	l32r	a8, 1d0 (ba74 <SineTable360>)
     97b:	fe17c1        	l32r	a12, 1d8 (ba7c <SineWindow60>)
     97e:	fe17e1        	l32r	a14, 1dc (ba80 <SineWindow80>)
     981:	0649           	s32i.n	a4, a6, 0
     983:	45d242        	addmi	a4, a2, 0x4500
     986:	fe13a1        	l32r	a10, 1d4 (ba78 <SineTable320>)
     989:	3498           	l32i.n	a9, a4, 12
     98b:	54d8           	l32i.n	a13, a4, 20
     98d:	64f8           	l32i.n	a15, a4, 24
     98f:	fe0831        	l32r	a3, 1b0 (ba70 <SineTable480>)
     992:	0899           	s32i.n	a9, a8, 0
     994:	0cd9           	s32i.n	a13, a12, 0
     996:	0ef9           	s32i.n	a15, a14, 0
     998:	44b8           	l32i.n	a11, a4, 16
     99a:	fe1161        	l32r	a6, 1e0 (ba84 <SineWindow120>)
     99d:	fe1181        	l32r	a8, 1e4 (ba88 <SineWindow160>)
     9a0:	fe13c1        	l32r	a12, 1ec (ba90 <SineWindow240>)
     9a3:	fe13e1        	l32r	a14, 1f0 (ba94 <SineWindow320>)
     9a6:	0ab9           	s32i.n	a11, a10, 0
     9a8:	2478           	l32i.n	a7, a4, 8
     9aa:	fe0fa1        	l32r	a10, 1e8 (ba8c <SineWindow180>)
     9ad:	0379           	s32i.n	a7, a3, 0
     9af:	7478           	l32i.n	a7, a4, 28
     9b1:	8498           	l32i.n	a9, a4, 32
     9b3:	a4d8           	l32i.n	a13, a4, 40
     9b5:	b4f8           	l32i.n	a15, a4, 44
     9b7:	0679           	s32i.n	a7, a6, 0
     9b9:	0899           	s32i.n	a9, a8, 0
     9bb:	94b8           	l32i.n	a11, a4, 36
     9bd:	0cd9           	s32i.n	a13, a12, 0
     9bf:	0ef9           	s32i.n	a15, a14, 0
     9c1:	fe0c51        	l32r	a5, 1f4 (ba98 <SineWindow360>)
     9c4:	fe0d71        	l32r	a7, 1f8 (ba9c <SineWindow480>)
     9c7:	fe0d81        	l32r	a8, 1fc (baa8 <RotVector_480>)
     9ca:	fe0d91        	l32r	a9, 200 (baac <RotVector_360>)
     9cd:	fe0dc1        	l32r	a12, 204 (bab0 <RotVector_320>)
     9d0:	fe0ee1        	l32r	a14, 208 (bab4 <RotVector_15_6>)
     9d3:	0ab9           	s32i.n	a11, a10, 0
     9d5:	46d2a2        	addmi	a10, a2, 0x4600
     9d8:	c468           	l32i.n	a6, a4, 48
     9da:	d448           	l32i.n	a4, a4, 52
     9dc:	1c2ab2        	l32i	a11, a10, 112
     9df:	1d2ad2        	l32i	a13, a10, 116
     9e2:	1e2af2        	l32i	a15, a10, 120
     9e5:	1f2a22        	l32i	a2, a10, 124
     9e8:	0569           	s32i.n	a6, a5, 0
     9ea:	0749           	s32i.n	a4, a7, 0
     9ec:	08b9           	s32i.n	a11, a8, 0
     9ee:	09d9           	s32i.n	a13, a9, 0
     9f0:	0cf9           	s32i.n	a15, a12, 0
     9f2:	0e29           	s32i.n	a2, a14, 0
     9f4:	f01d           	retw.n

000009f6 <LC3I_Tab_Link+0x51a>:
	...

000009f8 <LC3I_Enc_Prcs>:
     9f8:	008136        	entry	a1, 64
     9fb:	06dd           	mov.n	a13, a6
     9fd:	0268           	l32i.n	a6, a2, 0
     9ff:	438d           	ae_l16ui.n	a8, a3, 0
     a01:	4159           	s32i.n	a5, a1, 16
     a03:	269692        	l16si	a9, a6, 76
     a06:	2159           	s32i.n	a5, a1, 8
     a08:	4b0c           	movi.n	a11, 4
     a0a:	90a950        	addx2	a10, a9, a5
     a0d:	a0f950        	addx4	a15, a9, a5
     a10:	51a9           	s32i.n	a10, a1, 20
     a12:	31f9           	s32i.n	a15, a1, 12
     a14:	1f6827        	bbci	a8, 2, a37 <LC3I_Enc_Prcs+0x3f>
     a17:	3058b0        	xor	a5, a8, a11
     a1a:	635d           	ae_s16i.n	a5, a3, 0
     a1c:	fdfc51        	l32r	a5, 20c (4dc <LC3I_Tab_Link>)
     a1f:	03ad           	mov.n	a10, a3
     a21:	7129           	s32i.n	a2, a1, 28
     a23:	042d           	mov.n	a2, a4
     a25:	0d4d           	mov.n	a4, a13
     a27:	0005e0        	callx8	a5
     a2a:	0758           	l32i.n	a5, a7, 0
     a2c:	03ad           	mov.n	a10, a3
     a2e:	0005e0        	callx8	a5
     a31:	04dd           	mov.n	a13, a4
     a33:	024d           	mov.n	a4, a2
     a35:	7128           	l32i.n	a2, a1, 28

00000a37 <LC3I_Enc_Prcs+0x3f>:
     a37:	279632        	l16si	a3, a6, 78
     a3a:	12e8           	l32i.n	a14, a2, 4
     a3c:	151c           	movi.n	a5, 17
     a3e:	072357        	blt	a3, a5, a49 <LC3I_Enc_Prcs+0x51>
     a41:	fdf331        	l32r	a3, 210 (b50 <lc3_enc24>)
     a44:	b18b           	addi.n	a11, a1, 8
     a46:	000146        	j	a4f <LC3I_Enc_Prcs+0x57>

00000a49 <LC3I_Enc_Prcs+0x51>:
     a49:	fdf231        	l32r	a3, 214 (ad4 <lc3_enc16>)
     a4c:	10c1b2        	addi	a11, a1, 16
     a4f:	06ad           	mov.n	a10, a6
     a51:	04cd           	mov.n	a12, a4
     a53:	07fd           	mov.n	a15, a7
     a55:	0003e0        	callx8	a3
     a58:	0a2d           	mov.n	a2, a10
     a5a:	f01d           	retw.n

00000a5c <LC3I_Dec_Prcs>:
     a5c:	008136        	entry	a1, 64
     a5f:	438d           	ae_l16ui.n	a8, a3, 0
     a61:	05dd           	mov.n	a13, a5
     a63:	0258           	l32i.n	a5, a2, 0
     a65:	1121f2        	l32i	a15, a1, 68
     a68:	51f9           	s32i.n	a15, a1, 20
     a6a:	236817        	bbci	a8, 1, a91 <LC3I_Dec_Prcs+0x35>
     a6d:	2f0c           	movi.n	a15, 2
     a6f:	3088f0        	xor	a8, a8, a15
     a72:	638d           	ae_s16i.n	a8, a3, 0
     a74:	fde681        	l32r	a8, 20c (4dc <LC3I_Tab_Link>)
     a77:	03ad           	mov.n	a10, a3
     a79:	6149           	s32i.n	a4, a1, 24
     a7b:	094d           	mov.n	a4, a9
     a7d:	71d9           	s32i.n	a13, a1, 28
     a7f:	0008e0        	callx8	a8
     a82:	5188           	l32i.n	a8, a1, 20
     a84:	03ad           	mov.n	a10, a3
     a86:	0898           	l32i.n	a9, a8, 0
     a88:	0009e0        	callx8	a9
     a8b:	049d           	mov.n	a9, a4
     a8d:	6148           	l32i.n	a4, a1, 24
     a8f:	71d8           	l32i.n	a13, a1, 28

00000a91 <LC3I_Dec_Prcs+0x35>:
     a91:	1f9532        	l16si	a3, a5, 62
     a94:	1021f2        	l32i	a15, a1, 64
     a97:	117700        	slli	a7, a7, 16
     a9a:	181c           	movi.n	a8, 17
     a9c:	20c760        	or	a12, a7, a6
     a9f:	072387        	blt	a3, a8, aaa <LC3I_Dec_Prcs+0x4e>
     aa2:	12e8           	l32i.n	a14, a2, 4
     aa4:	fddd21        	l32r	a2, 218 (bd8 <lc3_dec24>)
     aa7:	000106        	j	aaf <LC3I_Dec_Prcs+0x53>

00000aaa <LC3I_Dec_Prcs+0x4e>:
     aaa:	12e8           	l32i.n	a14, a2, 4
     aac:	fddc21        	l32r	a2, 21c (b6c <lc3_dec16>)
     aaf:	5138           	l32i.n	a3, a1, 20
     ab1:	05ad           	mov.n	a10, a5
     ab3:	04bd           	mov.n	a11, a4
     ab5:	0139           	s32i.n	a3, a1, 0
     ab7:	0002e0        	callx8	a2
     aba:	0a2d           	mov.n	a2, a10
     abc:	f01d           	retw.n

00000abe <LC3I_Dec_Prcs+0x62>:
	...

00000ac0 <LC3I_Dec_Get_Param>:
     ac0:	004136        	entry	a1, 32
     ac3:	0228           	l32i.n	a2, a2, 0
     ac5:	1e9252        	l16si	a5, a2, 60
     ac8:	209222        	l16si	a2, a2, 64
     acb:	0359           	s32i.n	a5, a3, 0
     acd:	0429           	s32i.n	a2, a4, 0
     acf:	f01d           	retw.n

00000ad1 <LC3I_Dec_Get_Param+0x11>:
     ad1:	000000                                        ...

00000ad4 <lc3_enc16>:
     ad4:	006136        	entry	a1, 48
     ad7:	fdd281        	l32r	a8, 220 (af0 <lc3_enc>)
     ada:	0c1c           	movi.n	a12, 16
     adc:	02ad           	mov.n	a10, a2
     ade:	03bd           	mov.n	a11, a3
     ae0:	04dd           	mov.n	a13, a4
     ae2:	05ed           	mov.n	a14, a5
     ae4:	06fd           	mov.n	a15, a6
     ae6:	0179           	s32i.n	a7, a1, 0
     ae8:	0008e0        	callx8	a8
     aeb:	0a2d           	mov.n	a2, a10
     aed:	f01d           	retw.n

00000aef <lc3_enc16+0x1b>:
	...

00000af0 <lc3_enc>:
     af0:	006136        	entry	a1, 48
     af3:	02ad           	mov.n	a10, a2
     af5:	d20c           	movi.n	a2, 13
     af7:	0aac           	beqz.n	a10, b1b <lc3_enc+0x2b>
     af9:	e39c           	beqz.n	a3, b1b <lc3_enc+0x2b>
     afb:	c59c           	beqz.n	a5, b1b <lc3_enc+0x2b>
     afd:	a69c           	beqz.n	a6, b1b <lc3_enc+0x2b>
     aff:	879c           	beqz.n	a7, b1b <lc3_enc+0x2b>
     b01:	109ab2        	l16si	a11, a10, 32
     b04:	c198           	l32i.n	a9, a1, 48
     b06:	8b1b           	addi.n	a8, a11, 1
     b08:	a0bb30        	addx4	a11, a11, a3
     b0b:	fccbb2        	addi	a11, a11, -4

00000b0e <lc3_enc+0x1e>:
     b0e:	880b           	addi.n	a8, a8, -1
     b10:	0918a6        	blti	a8, 1, b1d <lc3_enc+0x2d>
     b13:	0bc8           	l32i.n	a12, a11, 0
     b15:	fccbb2        	addi	a11, a11, -4
     b18:	ff2c56        	bnez	a12, b0e <lc3_enc+0x1e>
     b1b:	f01d           	retw.n

00000b1d <lc3_enc+0x2d>:
     b1d:	820c           	movi.n	a2, 8
     b1f:	20b420        	or	a11, a4, a2
     b22:	881c           	movi.n	a8, 24
     b24:	920c           	movi.n	a2, 9
     b26:	f19b87        	bne	a11, a8, b1b <lc3_enc+0x2b>
     b29:	260a22        	l8ui	a2, a10, 38
     b2c:	03bd           	mov.n	a11, a3
     b2e:	04cd           	mov.n	a12, a4
     b30:	729c           	beqz.n	a2, b4b <lc3_enc+0x5b>
     b32:	0628           	l32i.n	a2, a6, 0
     b34:	05dd           	mov.n	a13, a5
     b36:	07ed           	mov.n	a14, a7
     b38:	821b           	addi.n	a8, a2, 1
     b3a:	62f820        	saltu	a15, a8, a2
     b3d:	fdb921        	l32r	a2, 224 (7e6c <Enc_LC3>)
     b40:	0199           	s32i.n	a9, a1, 0
     b42:	0002e0        	callx8	a2
     b45:	020c           	movi.n	a2, 0
     b47:	06a9           	s32i.n	a10, a6, 0
     b49:	f01d           	retw.n

00000b4b <lc3_enc+0x5b>:
     b4b:	420c           	movi.n	a2, 4
     b4d:	f01d           	retw.n

00000b4f <lc3_enc+0x5f>:
	...

00000b50 <lc3_enc24>:
     b50:	006136        	entry	a1, 48
     b53:	fdb381        	l32r	a8, 220 (af0 <lc3_enc>)
     b56:	8c1c           	movi.n	a12, 24
     b58:	02ad           	mov.n	a10, a2
     b5a:	03bd           	mov.n	a11, a3
     b5c:	04dd           	mov.n	a13, a4
     b5e:	05ed           	mov.n	a14, a5
     b60:	06fd           	mov.n	a15, a6
     b62:	0179           	s32i.n	a7, a1, 0
     b64:	0008e0        	callx8	a8
     b67:	0a2d           	mov.n	a2, a10
     b69:	f01d           	retw.n

00000b6b <lc3_enc24+0x1b>:
	...

00000b6c <lc3_dec16>:
     b6c:	006136        	entry	a1, 48
     b6f:	fdae81        	l32r	a8, 228 (b8c <lc3_dec>)
     b72:	c198           	l32i.n	a9, a1, 48
     b74:	0e1c           	movi.n	a14, 16
     b76:	02ad           	mov.n	a10, a2
     b78:	03bd           	mov.n	a11, a3
     b7a:	04cd           	mov.n	a12, a4
     b7c:	05dd           	mov.n	a13, a5
     b7e:	06fd           	mov.n	a15, a6
     b80:	1199           	s32i.n	a9, a1, 4
     b82:	0179           	s32i.n	a7, a1, 0
     b84:	0008e0        	callx8	a8
     b87:	0a2d           	mov.n	a2, a10
     b89:	f01d           	retw.n

00000b8b <lc3_dec16+0x1f>:
	...

00000b8c <lc3_dec>:
     b8c:	006136        	entry	a1, 48
     b8f:	180c           	movi.n	a8, 1
     b91:	0f0c           	movi.n	a15, 0
     b93:	628380        	saltu	a8, a3, a8
     b96:	62bf40        	saltu	a11, a15, a4
     b99:	02ad           	mov.n	a10, a2
     b9b:	1088b0        	and	a8, a8, a11
     b9e:	e2f9           	s32i.n	a15, a2, 56
     ba0:	88ec           	bnez.n	a8, bcc <lc3_dec+0x40>
     ba2:	65ac           	beqz.n	a5, bcc <lc3_dec+0x40>
     ba4:	47ac           	beqz.n	a7, bcc <lc3_dec+0x40>
     ba6:	820c           	movi.n	a2, 8
     ba8:	881c           	movi.n	a8, 24
     baa:	202620        	or	a2, a6, a2
     bad:	209287        	bne	a2, a8, bd1 <lc3_dec+0x45>
     bb0:	d128           	l32i.n	a2, a1, 52
     bb2:	1129           	s32i.n	a2, a1, 4
     bb4:	fd9e21        	l32r	a2, 22c (3a40 <Dec_LC3>)
     bb7:	c198           	l32i.n	a9, a1, 48
     bb9:	03bd           	mov.n	a11, a3
     bbb:	04cd           	mov.n	a12, a4
     bbd:	05dd           	mov.n	a13, a5
     bbf:	06ed           	mov.n	a14, a6
     bc1:	07fd           	mov.n	a15, a7
     bc3:	0199           	s32i.n	a9, a1, 0
     bc5:	0002e0        	callx8	a2
     bc8:	0a2d           	mov.n	a2, a10
     bca:	f01d           	retw.n

00000bcc <lc3_dec+0x40>:
     bcc:	d20c           	movi.n	a2, 13
     bce:	000046        	j	bd3 <lc3_dec+0x47>

00000bd1 <lc3_dec+0x45>:
     bd1:	920c           	movi.n	a2, 9
     bd3:	ea29           	s32i.n	a2, a10, 56
     bd5:	f01d           	retw.n

00000bd7 <lc3_dec+0x4b>:
	...

00000bd8 <lc3_dec24>:
     bd8:	006136        	entry	a1, 48
     bdb:	fd9381        	l32r	a8, 228 (b8c <lc3_dec>)
     bde:	c198           	l32i.n	a9, a1, 48
     be0:	8e1c           	movi.n	a14, 24
     be2:	02ad           	mov.n	a10, a2
     be4:	03bd           	mov.n	a11, a3
     be6:	04cd           	mov.n	a12, a4
     be8:	05dd           	mov.n	a13, a5
     bea:	06fd           	mov.n	a15, a6
     bec:	1199           	s32i.n	a9, a1, 4
     bee:	0179           	s32i.n	a7, a1, 0
     bf0:	0008e0        	callx8	a8
     bf3:	0a2d           	mov.n	a2, a10
     bf5:	f01d           	retw.n

00000bf7 <lc3_dec24+0x1f>:
	...

00000bf8 <basop_memset>:
     bf8:	004136        	entry	a1, 32
     bfb:	415140        	srli	a5, a4, 1
     bfe:	fec222        	addi	a2, a2, -2
     c01:	758c           	beqz.n	a5, c0c <basop_memset+0x14>
     c03:	300334        	ae_cvtp24a16x2.ll	aep0, a3, a3
     c06:	028576        	loop	a5, c0c <basop_memset+0x14>
     c09:	428214        	ae_sp16f.l.iu	aep0, a2, 2

00000c0c <basop_memset+0x14>:
     c0c:	026407        	bbci	a4, 0, c12 <basop_memset+0x1a>
     c0f:	024232        	s8i	a3, a2, 2

00000c12 <basop_memset+0x1a>:
     c12:	f01d           	retw.n

00000c14 <basop_memmove>:
     c14:	004136        	entry	a1, 32
     c17:	414140        	srli	a4, a4, 1
     c1a:	d48c           	beqz.n	a4, c2b <basop_memmove+0x17>
     c1c:	408304        	ae_lp16f.iu	aep0, a3, 0
     c1f:	fec222        	addi	a2, a2, -2
     c22:	058476        	loop	a4, c2b <basop_memmove+0x17>
     c25:	428214        	ae_sp16f.l.iu	aep0, a2, 2
     c28:	408314        	ae_lp16f.iu	aep0, a3, 2

00000c2b <basop_memmove+0x17>:
     c2b:	f01d           	retw.n

00000c2d <basop_memmove+0x19>:
     c2d:	000000                                        ...

00000c30 <BASOP_Util_Log2>:
     c30:	004136        	entry	a1, 32
     c33:	09c216        	beqz	a2, cd3 <BASOP_Util_Log2+0xa3>
     c36:	40e230        	nsa	a3, a2
     c39:	834d           	ae_sext16	a4, a3
     c3b:	605040        	neg	a5, a4
     c3e:	400500        	ssr	a5
     c41:	b15020        	sra	a5, a2
     c44:	401400        	ssl	a4
     c47:	a16200        	sll	a6, a2
     c4a:	fe7c           	movi.n	a14, -1
     c4c:	a36540        	movltz	a6, a5, a4
     c4f:	4141e0        	srli	a4, a14, 1
     c52:	c04460        	sub	a4, a4, a6
     c55:	f54040        	extui	a4, a4, 16, 16
     c58:	fd4ad1        	l32r	a13, 180 (ba40 <ldCoeff>)
     c5b:	300444        	ae_cvtp24a16x2.ll	aep0, a4, a4
     c5e:	ea0340aaff 	{ movi	a15, 170; ae_mulfs32p16s.ll	aeq1, aep0, aep0 }
     c63:	0d28           	l32i.n	a2, a13, 0
     c65:	099d24        	ae_truncp24q48x2	aep2, aeq1, aeq1
     c68:	0922a4        	ae_truncp16	aep2, aep2
     c6b:	eb0b6d920f 	{ ae_lp16x2f.iu	aep1, a2, 0; ae_mulfs32p16s.ll	aeq3, aep2, aep0 }
     c70:	e820ade21f 	{ ae_lp16x2f.iu	aep6, a2, 4; ae_mulfp24s.hh	aeq0, aep0, aep1 }
     c75:	fade6dc21f 	{ ae_lp16x2f.iu	aep4, a2, 4; ae_truncp24q48x2	aep5, aeq3, aeq3 }
     c7a:	012134        	ae_mulafp24s.ll	aeq0, aep2, aep1
     c7d:	095294        	ae_truncp16	aep1, aep5
     c80:	009074        	ae_mulfs32p16s.ll	aeq2, aep1, aep0
     c83:	011604        	ae_mulafp24s.hh	aeq0, aep1, aep6
     c86:	09ae74        	ae_truncp24q48x2	aep7, aeq2, aeq2
     c89:	097294        	ae_truncp16	aep1, aep7
     c8c:	009874        	ae_mulfs32p16s.ll	aeq3, aep1, aep0
     c8f:	e2c7ade21f 	{ ae_lp16x2f.iu	aep6, a2, 4; ae_mulafp24s.ll	aeq0, aep1, aep6 }
     c94:	09bf34        	ae_truncp24q48x2	aep3, aeq3, aeq3
     c97:	093294        	ae_truncp16	aep1, aep3
     c9a:	009074        	ae_mulfs32p16s.ll	aeq2, aep1, aep0
     c9d:	011404        	ae_mulafp24s.hh	aeq0, aep1, aep4
     ca0:	09ae54        	ae_truncp24q48x2	aep5, aeq2, aeq2
     ca3:	095294        	ae_truncp16	aep1, aep5
     ca6:	009874        	ae_mulfs32p16s.ll	aeq3, aep1, aep0
     ca9:	011434        	ae_mulafp24s.ll	aeq0, aep1, aep4
     cac:	09bf04        	ae_truncp24q48x2	aep0, aeq3, aeq3
     caf:	090284        	ae_truncp16	aep0, aep0
     cb2:	010604        	ae_mulafp24s.hh	aeq0, aep0, aep6
     cb5:	38df52        	addmi	a5, a15, 0x3800
     cb8:	f84258f55f 	{ ae_cvtp24a16x2.ll	aep7, a5, a5; ae_truncp24q48x2	aep1, aeq0, aeq0 }
     cbd:	f8c7fb001f 	{ ae_sraiq56	aeq0, aeq0, 1; ae_truncp16	aep1, aep1 }
     cc2:	021704        	ae_mulap24s.hh	aeq0, aep1, aep7
     cc5:	013370        	slli	a3, a3, 25
     cc8:	368204        	ae_trunca32q48	a2, aeq0
     ccb:	212520        	srai	a2, a2, 5
     cce:	c02230        	sub	a2, a2, a3
     cd1:	f01d           	retw.n

00000cd3 <BASOP_Util_Log2+0xa3>:
     cd3:	f27c           	movi.n	a2, -1
     cd5:	012210        	slli	a2, a2, 31
     cd8:	f01d           	retw.n

00000cda <BASOP_Util_Log2+0xaa>:
	...

00000cdc <BASOP_Util_InvLog2>:
     cdc:	004136        	entry	a1, 32
     cdf:	146c           	movi.n	a4, -31
     ce1:	023d           	mov.n	a3, a2
     ce3:	014470        	slli	a4, a4, 25
     ce6:	020c           	movi.n	a2, 0
     ce8:	02a347        	bge	a3, a4, cee <BASOP_Util_InvLog2+0x12>
     ceb:	002286        	j	d79 <BASOP_Util_InvLog2+0x9d>
     cee:	fd5041        	l32r	a4, 230 (3dffffff <_end+0x3dff4517>)
     cf1:	f27c           	movi.n	a2, -1
     cf3:	412120        	srli	a2, a2, 1
     cf6:	7f2437        	blt	a4, a3, d79 <BASOP_Util_InvLog2+0x9d>
     cf9:	07c316        	beqz	a3, d79 <BASOP_Util_InvLog2+0x9d>
     cfc:	fd2571        	l32r	a7, 190 (ba50 <exp2x_tab_long>)
     cff:	fd22c1        	l32r	a12, 188 (ba48 <exp2_tab_long>)
     d02:	fd22e1        	l32r	a14, 18c (ba4c <exp2w_tab_long>)
     d05:	0778           	l32i.n	a7, a7, 0
     d07:	314930        	srai	a4, a3, 25
     d0a:	f51c           	movi.n	a5, 31
     d0c:	60a040        	neg	a10, a4
     d0f:	448a30        	extui	a8, a3, 10, 5
     d12:	a07870        	addx4	a7, a8, a7
     d15:	c05540        	sub	a5, a5, a4
     d18:	b3a430        	movgez	a10, a4, a3
     d1b:	0c48           	l32i.n	a4, a12, 0
     d1d:	0e88           	l32i.n	a8, a14, 0
     d1f:	060c           	movi.n	a6, 0
     d21:	45d430        	extui	a13, a3, 20, 5
     d24:	44ff30        	extui	a15, a3, 15, 5
     d27:	a04d40        	addx4	a4, a13, a4
     d2a:	726630        	salt	a6, a6, a3
     d2d:	942030        	extui	a2, a3, 0, 10
     d30:	a03f80        	addx4	a3, a15, a8
     d33:	fd4091        	l32r	a9, 234 (16302f <_end+0x157547>)
     d36:	0448           	l32i.n	a4, a4, 0
     d38:	0338           	l32i.n	a3, a3, 0
     d3a:	822290        	mull	a2, a2, a9
     d3d:	07c8           	l32i.n	a12, a7, 0
     d3f:	b2d430        	mulsh	a13, a4, a3
     d42:	823430        	mull	a3, a4, a3
     d45:	93a560        	movnez	a10, a5, a6
     d48:	3b0c           	movi.n	a11, 3
     d4a:	f52020        	extui	a2, a2, 16, 16
     d4d:	053f30        	extui	a3, a3, 31, 1
     d50:	c05ba0        	sub	a5, a11, a10
     d53:	2c2a           	add.n	a2, a12, a2
     d55:	903d30        	addx2	a3, a13, a3
     d58:	401500        	ssl	a5
     d5b:	825320        	mull	a5, a3, a2
     d5e:	b22320        	mulsh	a2, a3, a2
     d61:	05ff50        	extui	a15, a5, 31, 1
     d64:	9022f0        	addx2	a2, a2, a15
     d67:	fdca62        	addi	a6, a10, -3
     d6a:	a13200        	sll	a3, a2
     d6d:	400600        	ssr	a6
     d70:	72eab0        	salt	a14, a10, a11
     d73:	b12020        	sra	a2, a2
     d76:	9323e0        	movnez	a2, a3, a14

00000d79 <BASOP_Util_InvLog2+0x9d>:
     d79:	f01d           	retw.n

00000d7b <BASOP_Util_InvLog2+0x9f>:
	...

00000d7c <Sqrt16>:
     d7c:	004136        	entry	a1, 32
     d7f:	40e240        	nsa	a4, a2
     d82:	f0c462        	addi	a6, a4, -16
     d85:	836220        	moveqz	a6, a2, a2
     d88:	235d           	ae_l16si.n	a5, a3, 0
     d8a:	864d           	ae_sext16	a4, a6
     d8c:	00a496        	bltz	a4, d9a <Sqrt16+0x1e>
     d8f:	401400        	ssl	a4
     d92:	a12200        	sll	a2, a2
     d95:	824d           	ae_sext16	a4, a2
     d97:	000206        	j	da3 <Sqrt16+0x27>

00000d9a <Sqrt16+0x1e>:
     d9a:	604040        	neg	a4, a4
     d9d:	400400        	ssr	a4
     da0:	b14020        	sra	a4, a2
     da3:	c02560        	sub	a2, a5, a6
     da6:	059416        	beqz	a4, e03 <Sqrt16+0x87>
     da9:	fcfa61        	l32r	a6, 194 (ba54 <SqrtTable>)
     dac:	fcfb71        	l32r	a7, 198 (ba58 <SqrtDiffTable>)
     daf:	c0d452        	addmi	a5, a4, 0xffffc000
     db2:	0668           	l32i.n	a6, a6, 0
     db4:	0778           	l32i.n	a7, a7, 0
     db6:	115590        	slli	a5, a5, 7
     db9:	315050        	srai	a5, a5, 16
     dbc:	a06560        	addx4	a6, a5, a6
     dbf:	905570        	addx2	a5, a5, a7
     dc2:	255d           	ae_l16si.n	a5, a5, 0
     dc4:	84d040        	extui	a13, a4, 0, 9
     dc7:	0668           	l32i.n	a6, a6, 0
     dc9:	114df0        	slli	a4, a13, 1
     dcc:	1e0c           	movi.n	a14, 1
     dce:	117e10        	slli	a7, a14, 15
     dd1:	d14450        	mul16s	a4, a4, a5
     dd4:	f67a           	add.n	a15, a6, a7
     dd6:	44fa           	add.n	a4, a4, a15
     dd8:	f54040        	extui	a4, a4, 16, 16
     ddb:	126207        	bbci	a2, 0, df1 <Sqrt16+0x75>
     dde:	82a052        	movi	a5, 130
     de1:	5ad552        	addmi	a5, a5, 0x5a00
     de4:	844d           	ae_sext16	a4, a4
     de6:	d14450        	mul16s	a4, a4, a5
     de9:	40d442        	addmi	a4, a4, 0x4000
     dec:	214f40        	srai	a4, a4, 15
     def:	a44d           	ae_clamps16	a4, a4
     df1:	825d           	ae_sext16	a5, a2
     df3:	f51b           	addi.n	a15, a5, 1
     df5:	842d           	ae_sext16	a2, a4
     df7:	114f20        	slli	a4, a15, 14
     dfa:	214f40        	srai	a4, a4, 15
     dfd:	a44d           	ae_clamps16	a4, a4
     dff:	634d           	ae_s16i.n	a4, a3, 0
     e01:	f01d           	retw.n

00000e03 <Sqrt16+0x87>:
     e03:	040c           	movi.n	a4, 0
     e05:	d5e207        	bbsi	a2, 0, dde <Sqrt16+0x62>
     e08:	fff946        	j	df1 <Sqrt16+0x75>

00000e0b <Sqrt16+0x8f>:
	...

00000e0c <ISqrt16>:
     e0c:	004136        	entry	a1, 32
     e0f:	40e240        	nsa	a4, a2
     e12:	f0c442        	addi	a4, a4, -16
     e15:	236d           	ae_l16si.n	a6, a3, 0
     e17:	834220        	moveqz	a4, a2, a2
     e1a:	845d           	ae_sext16	a5, a4
     e1c:	c04640        	sub	a4, a6, a4
     e1f:	00a596        	bltz	a5, e2d <ISqrt16+0x21>
     e22:	401500        	ssl	a5
     e25:	a12200        	sll	a2, a2
     e28:	822d           	ae_sext16	a2, a2
     e2a:	000206        	j	e36 <ISqrt16+0x2a>

00000e2d <ISqrt16+0x21>:
     e2d:	605050        	neg	a5, a5
     e30:	400500        	ssr	a5
     e33:	b12020        	sra	a2, a2
     e36:	fcd961        	l32r	a6, 19c (ba5c <ISqrtTable>)
     e39:	fcd971        	l32r	a7, 1a0 (ba60 <ISqrtDiffTable>)
     e3c:	c0d252        	addmi	a5, a2, 0xffffc000
     e3f:	0668           	l32i.n	a6, a6, 0
     e41:	0778           	l32i.n	a7, a7, 0
     e43:	115590        	slli	a5, a5, 7
     e46:	315050        	srai	a5, a5, 16
     e49:	a06560        	addx4	a6, a5, a6
     e4c:	905570        	addx2	a5, a5, a7
     e4f:	25bd           	ae_l16si.n	a11, a5, 0
     e51:	06a8           	l32i.n	a10, a6, 0
     e53:	fcf951        	l32r	a5, 238 (9ba0 <msu_r>)
     e56:	84c020        	extui	a12, a2, 0, 9
     e59:	0005e0        	callx8	a5
     e5c:	0a2d           	mov.n	a2, a10
     e5e:	10e407        	bbsi	a4, 0, e72 <ISqrt16+0x66>
     e61:	82a062        	movi	a6, 130
     e64:	5ad662        	addmi	a6, a6, 0x5a00
     e67:	d12260        	mul16s	a2, a2, a6
     e6a:	40d222        	addmi	a2, a2, 0x4000
     e6d:	212f20        	srai	a2, a2, 15
     e70:	a22d           	ae_clamps16	a2, a2
     e72:	1a0c           	movi.n	a10, 1
     e74:	1c0c           	movi.n	a12, 1
     e76:	84bd           	ae_sext16	a11, a4
     e78:	11aa10        	slli	a10, a10, 15
     e7b:	11cc20        	slli	a12, a12, 14
     e7e:	0005e0        	callx8	a5
     e81:	822d           	ae_sext16	a2, a2
     e83:	63ad           	ae_s16i.n	a10, a3, 0
     e85:	f01d           	retw.n

00000e87 <ISqrt16+0x7b>:
	...

00000e88 <Inv16>:
     e88:	004136        	entry	a1, 32
     e8b:	140c           	movi.n	a4, 1
     e8d:	80d442        	addmi	a4, a4, 0xffff8000
     e90:	534240        	max	a4, a2, a4
     e93:	604140        	abs	a4, a4
     e96:	846d           	ae_sext16	a6, a4
     e98:	40e650        	nsa	a5, a6
     e9b:	f0c552        	addi	a5, a5, -16
     e9e:	835440        	moveqz	a5, a4, a4
     ea1:	434d           	ae_l16ui.n	a4, a3, 0
     ea3:	855d           	ae_sext16	a5, a5
     ea5:	00a596        	bltz	a5, eb3 <Inv16+0x2b>
     ea8:	401500        	ssl	a5
     eab:	a16600        	sll	a6, a6
     eae:	866d           	ae_sext16	a6, a6
     eb0:	000206        	j	ebc <Inv16+0x34>

00000eb3 <Inv16+0x2b>:
     eb3:	607050        	neg	a7, a5
     eb6:	400700        	ssr	a7
     eb9:	b16060        	sra	a6, a6
     ebc:	fcba81        	l32r	a8, 1a4 (ba64 <InvTable>)
     ebf:	fcba91        	l32r	a9, 1a8 (ba68 <InvDiffTable>)
     ec2:	c0d672        	addmi	a7, a6, 0xffffc000
     ec5:	0888           	l32i.n	a8, a8, 0
     ec7:	0998           	l32i.n	a9, a9, 0
     ec9:	117790        	slli	a7, a7, 7
     ecc:	317070        	srai	a7, a7, 16
     ecf:	a08780        	addx4	a8, a7, a8
     ed2:	907790        	addx2	a7, a7, a9
     ed5:	84f060        	extui	a15, a6, 0, 9
     ed8:	08a8           	l32i.n	a10, a8, 0
     eda:	27bd           	ae_l16si.n	a11, a7, 0
     edc:	fcd761        	l32r	a6, 238 (9ba0 <msu_r>)
     edf:	11cff0        	slli	a12, a15, 1
     ee2:	0006e0        	callx8	a6
     ee5:	c04540        	sub	a4, a5, a4
     ee8:	60f0a0        	neg	a15, a10
     eeb:	b3fa20        	movgez	a15, a10, a2
     eee:	441b           	addi.n	a4, a4, 1
     ef0:	8f2d           	ae_sext16	a2, a15
     ef2:	634d           	ae_s16i.n	a4, a3, 0
     ef4:	f01d           	retw.n

00000ef6 <Inv16+0x6e>:
	...

00000ef8 <getScaleFactor16>:
     ef8:	004136        	entry	a1, 32
     efb:	fcd041        	l32r	a4, 23c (f0c <getScaleFactor16_0>)
     efe:	02ad           	mov.n	a10, a2
     f00:	03bd           	mov.n	a11, a3
     f02:	0004e0        	callx8	a4
     f05:	3420a0        	extui	a2, a10, 0, 4
     f08:	f01d           	retw.n

00000f0a <getScaleFactor16+0x12>:
	...

00000f0c <getScaleFactor16_0>:
     f0c:	004136        	entry	a1, 32
     f0f:	fc2080034f 	{ movi	a4, 3; ae_zerop48	aep0 }
     f14:	fc20ff00bf 	{ ae_movp48	aep2, aep0; ae_zerop48	aep1 }
     f19:	0e0427        	bnone	a4, a2, f2b <getScaleFactor16_0+0x1f>
     f1c:	422b           	addi.n	a4, a2, 2
     f1e:	409204        	ae_lp16f.iu	aep1, a2, 0
     f21:	d9220ff33e 	{ addi	a3, a3, -1; ae_maxp24s	aep2, aep0, aep1 }
     f26:	d822d3244f 	{ or	a2, a4, a4; ae_minp24s	aep1, aep0, aep1 }

00000f2b <getScaleFactor16_0+0x1f>:
     f2b:	833d           	ae_sext16	a3, a3
     f2d:	44b204        	ae_lp16x2f.iu	aep3, a2, 0
     f30:	0d23a6        	blti	a3, 2, f41 <getScaleFactor16_0+0x35>
     f33:	214130        	srai	a4, a3, 1
     f36:	078476        	loop	a4, f41 <getScaleFactor16_0+0x35>
     f39:	072b24        	ae_maxp24s	aep2, aep2, aep3
     f3c:	d866edb21f 	{ ae_lp16x2f.iu	aep3, a2, 4; ae_minp24s	aep1, aep1, aep3 }

00000f41 <getScaleFactor16_0+0x35>:
     f41:	086307        	bbci	a3, 0, f4d <getScaleFactor16_0+0x41>
     f44:	1ab804        	ae_selp24.hl	aep0, aep3, aep0
     f47:	072824        	ae_maxp24s	aep2, aep2, aep0
     f4a:	071894        	ae_minp24s	aep1, aep1, aep0

00000f4d <getScaleFactor16_0+0x41>:
     f4d:	dd25fe222f 	{ ae_selp24.lh	aep0, aep2, aep2; ae_selp24.lh	aep3, aep1, aep1 }
     f52:	d80a00104f 	{ movi	a4, 16; ae_maxp24s	aep0, aep2, aep0 }
     f57:	d866ff026f 	{ ae_trunca16p24s.l	a2, aep0; ae_minp24s	aep1, aep1, aep3 }
     f5c:	361324        	ae_trunca16p24s.l	a3, aep1
     f5f:	40e250        	nsa	a5, a2
     f62:	40e360        	nsa	a6, a3
     f65:	f0c552        	addi	a5, a5, -16
     f68:	f0c662        	addi	a6, a6, -16
     f6b:	115500        	slli	a5, a5, 16
     f6e:	116600        	slli	a6, a6, 16
     f71:	922d           	ae_zext16	a2, a2
     f73:	315050        	srai	a5, a5, 16
     f76:	933d           	ae_zext16	a3, a3
     f78:	316060        	srai	a6, a6, 16
     f7b:	835420        	moveqz	a5, a4, a2
     f7e:	836430        	moveqz	a6, a4, a3
     f81:	432560        	min	a2, a5, a6
     f84:	f01d           	retw.n

00000f86 <getScaleFactor16_0+0x7a>:
	...

00000f88 <getScaleFactor32_Q>:
     f88:	004136        	entry	a1, 32
     f8b:	0a1084        	ae_zeroq56	aeq0
     f8e:	fd24bf01bf 	{ ae_movq56	aeq2, aeq0; ae_zeroq56	aeq1 }
     f93:	0d13a6        	blti	a3, 1, fa4 <getScaleFactor32_Q+0x1c>
     f96:	60d204        	ae_lq32f.iu	aeq3, a2, 0
     f99:	078376        	loop	a3, fa4 <getScaleFactor32_Q+0x1c>
     f9c:	01b2c4        	ae_maxq56s	aeq2, aeq2, aeq3
     f9f:	f91ebd721f 	{ ae_lq32f.iu	aeq3, a2, 4; ae_minq56s	aeq1, aeq1, aeq3 }

00000fa4 <getScaleFactor32_Q+0x1c>:
     fa4:	d4c03f22af 	{ ae_nsaq56s	a2, aeq2; ae_eqq56	b0, aeq2, aeq0 }
     fa9:	365404        	ae_nsaq56s	a4, aeq1
     fac:	032c           	movi.n	a3, 32
     fae:	f8c222        	addi	a2, a2, -8
     fb1:	112200        	slli	a2, a2, 16
     fb4:	312020        	srai	a2, a2, 16
     fb7:	f8c442        	addi	a4, a4, -8
     fba:	d44416230f 	{ movt	a2, a3, b0; ae_eqq56	b0, aeq1, aeq0 }
     fbf:	114400        	slli	a4, a4, 16
     fc2:	314040        	srai	a4, a4, 16
     fc5:	d34300        	movt	a4, a3, b0
     fc8:	432240        	min	a2, a2, a4
     fcb:	442020        	extui	a2, a2, 0, 5
     fce:	f01d           	retw.n

00000fd0 <getScaleFactor32_0>:
     fd0:	004136        	entry	a1, 32
     fd3:	fc20efb20f 	{ ae_lp24x2f.iu	aep3, a2, 0; ae_zerop48	aep1 }
     fd8:	fc20bf10bf 	{ ae_movp48	aep2, aep1; ae_zerop48	aep0 }
     fdd:	0f23a6        	blti	a3, 2, ff0 <getScaleFactor32_0+0x20>
     fe0:	214130        	srai	a4, a3, 1
     fe3:	f03d           	nop.n
     fe5:	078476        	loop	a4, ff0 <getScaleFactor32_0+0x20>
     fe8:	072b24        	ae_maxp24s	aep2, aep2, aep3
     feb:	d862afb21f 	{ ae_lp24x2f.iu	aep3, a2, 8; ae_minp24s	aep0, aep0, aep3 }

00000ff0 <getScaleFactor32_0+0x20>:
     ff0:	086307        	bbci	a3, 0, ffc <getScaleFactor32_0+0x2c>
     ff3:	1ab914        	ae_selp24.hl	aep1, aep3, aep1
     ff6:	072924        	ae_maxp24s	aep2, aep2, aep1
     ff9:	070984        	ae_minp24s	aep0, aep0, aep1

00000ffc <getScaleFactor32_0+0x2c>:
     ffc:	df01fe226f 	{ ae_selp24.lh	aep1, aep2, aep2; ae_selp24.lh	aep7, aep0, aep0 }
    1001:	d82a40203f 	{ movi	a3, 32; ae_maxp24s	aep1, aep2, aep1 }
    1006:	d8e2bf125f 	{ ae_cvta32p24.l	a2, aep1; ae_minp24s	aep0, aep0, aep7 }
    100b:	0004d4        	ae_cvta32p24.l	a4, aep0
    100e:	40e250        	nsa	a5, a2
    1011:	855d           	ae_sext16	a5, a5
    1013:	40e4f0        	nsa	a15, a4
    1016:	835320        	moveqz	a5, a3, a2
    1019:	8f2d           	ae_sext16	a2, a15
    101b:	832340        	moveqz	a2, a3, a4
    101e:	432520        	min	a2, a5, a2
    1021:	442020        	extui	a2, a2, 0, 5
    1024:	f01d           	retw.n

00001026 <getScaleFactor32_0+0x56>:
	...

00001028 <BASOP_Util_Divide3216_Scale>:
    1028:	006136        	entry	a1, 48
    102b:	050216        	beqz	a2, 107f <BASOP_Util_Divide3216_Scale+0x57>
    102e:	fc8461        	l32r	a6, 240 (80000001 <_end+0x7fff4519>)
    1031:	170c           	movi.n	a7, 1
    1033:	f55020        	extui	a5, a2, 16, 16
    1036:	53c260        	max	a12, a2, a6
    1039:	60e1c0        	abs	a14, a12
    103c:	40ee20        	nsa	a2, a14
    103f:	80d772        	addmi	a7, a7, 0xffff8000
    1042:	832ee0        	moveqz	a2, a14, a14
    1045:	53d370        	max	a13, a3, a7
    1048:	220b           	addi.n	a2, a2, -1
    104a:	305530        	xor	a5, a5, a3
    104d:	6031d0        	abs	a3, a13
    1050:	836d           	ae_sext16	a6, a3
    1052:	822d           	ae_sext16	a2, a2
    1054:	40e680        	nsa	a8, a6
    1057:	609020        	neg	a9, a2
    105a:	f0c882        	addi	a8, a8, -16
    105d:	400900        	ssr	a9
    1060:	838330        	moveqz	a8, a3, a3
    1063:	b1f0e0        	sra	a15, a14
    1066:	401200        	ssl	a2
    1069:	a17e00        	sll	a7, a14
    106c:	883d           	ae_sext16	a3, a8
    106e:	a37f20        	movltz	a7, a15, a2
    1071:	012396        	bltz	a3, 1087 <BASOP_Util_Divide3216_Scale+0x5f>
    1074:	401300        	ssl	a3
    1077:	a16600        	sll	a6, a6
    107a:	866d           	ae_sext16	a6, a6
    107c:	000406        	j	1090 <BASOP_Util_Divide3216_Scale+0x68>

0000107f <BASOP_Util_Divide3216_Scale+0x57>:
    107f:	030c           	movi.n	a3, 0
    1081:	020c           	movi.n	a2, 0
    1083:	643d           	ae_s16i.n	a3, a4, 0
    1085:	f01d           	retw.n

00001087 <BASOP_Util_Divide3216_Scale+0x5f>:
    1087:	608030        	neg	a8, a3
    108a:	400800        	ssr	a8
    108d:	b16060        	sra	a6, a6
    1090:	360734        	ae_cvtq48a32s	aeq0, a7
    1093:	f86395232f 	{ sub	a2, a3, a2; ae_roundsp16q48asym	aep0, aeq0 }
    1098:	420164        	ae_sp16f.l.i	aep0, a1, 12
    109b:	061172        	l16ui	a7, a1, 12
    109e:	968d           	ae_zext16	a8, a6
    10a0:	855d           	ae_sext16	a5, a5
    10a2:	642d           	ae_s16i.n	a2, a4, 0
    10a4:	089787        	bne	a7, a8, 10b0 <BASOP_Util_Divide3216_Scale+0x88>
    10a7:	ffa022        	movi	a2, 255
    10aa:	7fd222        	addmi	a2, a2, 0x7f00
    10ad:	0001c6        	j	10b8 <BASOP_Util_Divide3216_Scale+0x90>

000010b0 <BASOP_Util_Divide3216_Scale+0x88>:
    10b0:	872d           	ae_sext16	a2, a7
    10b2:	112210        	slli	a2, a2, 15
    10b5:	d22260        	quos	a2, a2, a6
    10b8:	603020        	neg	a3, a2
    10bb:	b33250        	movgez	a3, a2, a5
    10be:	832d           	ae_sext16	a2, a3
    10c0:	f01d           	retw.n

000010c2 <BASOP_Util_Divide3216_Scale+0x9a>:
	...

000010c4 <BASOP_Util_Divide1616_Scale>:
    10c4:	004136        	entry	a1, 32
    10c7:	f67c           	movi.n	a6, -1
    10c9:	605120        	abs	a5, a2
    10cc:	f46060        	extui	a6, a6, 0, 16
    10cf:	1a0657        	bnone	a6, a5, 10ed <BASOP_Util_Divide1616_Scale+0x29>
    10d2:	855d           	ae_sext16	a5, a5
    10d4:	40e570        	nsa	a7, a5
    10d7:	f0c762        	addi	a6, a7, -16
    10da:	868d           	ae_sext16	a8, a6
    10dc:	606130        	abs	a6, a3
    10df:	012896        	bltz	a8, 10f5 <BASOP_Util_Divide1616_Scale+0x31>
    10e2:	401800        	ssl	a8
    10e5:	a15500        	sll	a5, a5
    10e8:	855d           	ae_sext16	a5, a5
    10ea:	000406        	j	10fe <BASOP_Util_Divide1616_Scale+0x3a>

000010ed <BASOP_Util_Divide1616_Scale+0x29>:
    10ed:	030c           	movi.n	a3, 0
    10ef:	020c           	movi.n	a2, 0
    10f1:	643d           	ae_s16i.n	a3, a4, 0
    10f3:	f01d           	retw.n

000010f5 <BASOP_Util_Divide1616_Scale+0x31>:
    10f5:	608080        	neg	a8, a8
    10f8:	400800        	ssr	a8
    10fb:	b15050        	sra	a5, a5
    10fe:	868d           	ae_sext16	a8, a6
    1100:	191c           	movi.n	a9, 17
    1102:	40e8f0        	nsa	a15, a8
    1105:	c07970        	sub	a7, a9, a7
    1108:	f0cf92        	addi	a9, a15, -16
    110b:	839660        	moveqz	a9, a6, a6
    110e:	896d           	ae_sext16	a6, a9
    1110:	215150        	srai	a5, a5, 1
    1113:	647d           	ae_s16i.n	a7, a4, 0
    1115:	00a696        	bltz	a6, 1123 <BASOP_Util_Divide1616_Scale+0x5f>
    1118:	401600        	ssl	a6
    111b:	a18800        	sll	a8, a8
    111e:	888d           	ae_sext16	a8, a8
    1120:	000206        	j	112c <BASOP_Util_Divide1616_Scale+0x68>

00001123 <BASOP_Util_Divide1616_Scale+0x5f>:
    1123:	609060        	neg	a9, a6
    1126:	400900        	ssr	a9
    1129:	b18080        	sra	a8, a8
    112c:	f67a           	add.n	a15, a6, a7
    112e:	302320        	xor	a2, a3, a2
    1131:	64fd           	ae_s16i.n	a15, a4, 0
    1133:	089587        	bne	a5, a8, 113f <BASOP_Util_Divide1616_Scale+0x7b>
    1136:	ffa032        	movi	a3, 255
    1139:	7fd332        	addmi	a3, a3, 0x7f00
    113c:	000146        	j	1145 <BASOP_Util_Divide1616_Scale+0x81>

0000113f <BASOP_Util_Divide1616_Scale+0x7b>:
    113f:	113510        	slli	a3, a5, 15
    1142:	d23380        	quos	a3, a3, a8
    1145:	604030        	neg	a4, a3
    1148:	b34320        	movgez	a4, a3, a2
    114b:	842d           	ae_sext16	a2, a4
    114d:	f01d           	retw.n

0000114f <BASOP_Util_Divide1616_Scale+0x8b>:
	...

00001150 <Norm32Norm>:
    1150:	006136        	entry	a1, 48
    1153:	fc24bd520f 	{ ae_lq32f.iu	aeq2, a2, 0; ae_zeroq56	aeq0 }
    1158:	0a5084        	ae_zeroq56	aeq1
    115b:	1d24a6        	blti	a4, 2, 117c <Norm32Norm+0x2c>
    115e:	216140        	srai	a6, a4, 1
    1161:	178676        	loop	a6, 117c <Norm32Norm+0x2c>
    1164:	60d214        	ae_lq32f.iu	aeq3, a2, 4
    1167:	fc24fea38f 	{ ae_slaasq56s	aeq2, aeq2, a3; nop }
    116c:	f877beb3cf 	{ ae_slaasq56s	aeq3, aeq3, a3; ae_roundsp24q48asym	aep0, aeq2 }
    1171:	e4027d521f 	{ ae_lq32f.iu	aeq2, a2, 4; ae_mulap24s.hh	aeq1, aep0, aep0 }
    1176:	1bbd74        	ae_roundsp24q48asym	aep7, aeq3
    1179:	027f04        	ae_mulap24s.hh	aeq1, aep7, aep7

0000117c <Norm32Norm+0x2c>:
    117c:	0a6407        	bbci	a4, 0, 118a <Norm32Norm+0x3a>
    117f:	fc24fea38f 	{ ae_slaasq56s	aeq2, aeq2, a3; nop }
    1184:	1bad04        	ae_roundsp24q48asym	aep0, aeq2
    1187:	020804        	ae_mulap24s.hh	aeq1, aep0, aep0

0000118a <Norm32Norm+0x3a>:
    118a:	d4443f12af 	{ ae_nsaq56s	a2, aeq1; ae_eqq56	b0, aeq1, aeq0 }
    118f:	a70c           	movi.n	a7, 10
    1191:	160c           	movi.n	a6, 1
    1193:	c02720        	sub	a2, a7, a2
    1196:	217120        	srai	a7, a2, 1
    1199:	d37600        	movt	a7, a6, b0
    119c:	11f7f0        	slli	a15, a7, 1
    119f:	34dfb4        	ae_sraaq56	aeq3, aeq1, a15
    11a2:	36b204        	ae_trunca32q48	a2, aeq3
    11a5:	c03370        	sub	a3, a3, a7
    11a8:	40e470        	nsa	a7, a4
    11ab:	429c           	beqz.n	a2, 11c3 <Norm32Norm+0x73>
    11ad:	f0c772        	addi	a7, a7, -16
    11b0:	837440        	moveqz	a7, a4, a4
    11b3:	877d           	ae_sext16	a7, a7
    11b5:	00f796        	bltz	a7, 11c8 <Norm32Norm+0x78>
    11b8:	401700        	ssl	a7
    11bb:	a14400        	sll	a4, a4
    11be:	844d           	ae_sext16	a4, a4
    11c0:	000346        	j	11d1 <Norm32Norm+0x81>

000011c3 <Norm32Norm+0x73>:
    11c3:	020c           	movi.n	a2, 0
    11c5:	001146        	j	120e <Norm32Norm+0xbe>

000011c8 <Norm32Norm+0x78>:
    11c8:	608070        	neg	a8, a7
    11cb:	400800        	ssr	a8
    11ce:	b14040        	sra	a4, a4
    11d1:	d87c           	movi.n	a8, -3
    11d3:	f48080        	extui	a8, a8, 0, 16
    11d6:	f90c           	movi.n	a9, 15
    11d8:	c07970        	sub	a7, a9, a7
    11db:	82c480        	mull	a12, a4, a8
    11de:	877d           	ae_sext16	a7, a7
    11e0:	b2d480        	mulsh	a13, a4, a8
    11e3:	419fc0        	srli	a9, a12, 15
    11e6:	60e070        	neg	a14, a7
    11e9:	400e00        	ssr	a14
    11ec:	1bed90        	depbits	a9, a13, 17, 15
    11ef:	b14090        	sra	a4, a9
    11f2:	401700        	ssl	a7
    11f5:	a19900        	sll	a9, a9
    11f8:	a39470        	movltz	a9, a4, a7
    11fb:	3129           	s32i.n	a2, a1, 12
    11fd:	2199           	s32i.n	a9, a1, 8
    11ff:	600134        	ae_lq32f.i	aeq0, a1, 12
    1202:	604124        	ae_lq32f.i	aeq1, a1, 8
    1205:	060904        	ae_addsq56s	aeq0, aeq0, aeq1
    1208:	060844        	ae_satq48s	aeq0, aeq0
    120b:	368204        	ae_trunca32q48	a2, aeq0
    120e:	1133f0        	slli	a3, a3, 1
    1211:	c03630        	sub	a3, a6, a3
    1214:	653d           	ae_s16i.n	a3, a5, 0
    1216:	f01d           	retw.n

00001218 <Scale_sig>:
    1218:	004136        	entry	a1, 32
    121b:	360c           	movi.n	a6, 3
    121d:	945d           	ae_zext16	a5, a4
    121f:	1c0627        	bnone	a6, a2, 123f <Scale_sig+0x27>
    1222:	1214a6        	blti	a4, 1, 1238 <Scale_sig+0x20>
    1225:	f60c           	movi.n	a6, 15
    1227:	227d           	ae_l16si.n	a7, a2, 0
    1229:	436560        	min	a6, a5, a6
    122c:	401600        	ssl	a6
    122f:	a1a700        	sll	a10, a7

00001232 <Scale_sig+0x1a>:
    1232:	62ad           	ae_s16i.n	a10, a2, 0
    1234:	0000c6        	j	123b <Scale_sig+0x23>

00001237 <Scale_sig+0x1f>:
	...

00001238 <Scale_sig+0x20>:
    1238:	06a496        	bltz	a4, 12a6 <Scale_sig+0x8e>
    123b:	222b           	addi.n	a2, a2, 2
    123d:	330b           	addi.n	a3, a3, -1
    123f:	2914a6        	blti	a4, 1, 126c <Scale_sig+0x54>
    1242:	f60c           	movi.n	a6, 15
    1244:	436560        	min	a6, a5, a6
    1247:	835d           	ae_sext16	a5, a3
    1249:	448204        	ae_lp16x2f.iu	aep0, a2, 0
    124c:	031664        	wur.ae_sar	a6
    124f:	0d25a6        	blti	a5, 2, 1260 <Scale_sig+0x48>
    1252:	216150        	srai	a6, a5, 1
    1255:	078676        	loop	a6, 1260 <Scale_sig+0x48>
    1258:	f823ed821f 	{ ae_lp16x2f.iu	aep0, a2, 4; ae_sllssp24s	aep1, aep0 }
    125d:	4612f4        	ae_sp16x2f.i	aep1, a2, -4

00001260 <Scale_sig+0x48>:
    1260:	086507        	bbci	a5, 0, 126c <Scale_sig+0x54>
    1263:	0b0084        	ae_sllssp24s	aep0, aep0
    1266:	1a8084        	ae_selp24.lh	aep0, aep0, aep0
    1269:	420204        	ae_sp16f.l.i	aep0, a2, 0

0000126c <Scale_sig+0x54>:
    126c:	001496        	bltz	a4, 1271 <Scale_sig+0x59>
    126f:	f01d           	retw.n

00001271 <Scale_sig+0x59>:
    1271:	157c           	movi.n	a5, -15
    1273:	534450        	max	a4, a4, a5
    1276:	604040        	neg	a4, a4
    1279:	833d           	ae_sext16	a3, a3
    127b:	448204        	ae_lp16x2f.iu	aep0, a2, 0
    127e:	031644        	wur.ae_sar	a4
    1281:	1023a6        	blti	a3, 2, 1295 <Scale_sig+0x7d>
    1284:	214130        	srai	a4, a3, 1
    1287:	0a8476        	loop	a4, 1295 <Scale_sig+0x7d>
    128a:	f8a3ed821f 	{ ae_lp16x2f.iu	aep0, a2, 4; ae_srasp24	aep1, aep0 }
    128f:	091194        	ae_roundsp16asym	aep1, aep1
    1292:	4612f4        	ae_sp16x2f.i	aep1, a2, -4

00001295 <Scale_sig+0x7d>:
    1295:	d66307        	bbci	a3, 0, 126f <Scale_sig+0x57>
    1298:	0b0384        	ae_srasp24	aep0, aep0
    129b:	090184        	ae_roundsp16asym	aep0, aep0
    129e:	1a8084        	ae_selp24.lh	aep0, aep0, aep0
    12a1:	420204        	ae_sp16f.l.i	aep0, a2, 0
    12a4:	f01d           	retw.n

000012a6 <Scale_sig+0x8e>:
    12a6:	167c           	movi.n	a6, -15
    12a8:	536460        	max	a6, a4, a6
    12ab:	f77c           	movi.n	a7, -1
    12ad:	606060        	neg	a6, a6
    12b0:	400600        	ssr	a6
    12b3:	117710        	slli	a7, a7, 15
    12b6:	22bd           	ae_l16si.n	a11, a2, 0
    12b8:	fbe061        	l32r	a6, 238 (9ba0 <msu_r>)
    12bb:	b1c070        	sra	a12, a7
    12be:	0a0c           	movi.n	a10, 0
    12c0:	0006e0        	callx8	a6
    12c3:	ffdac6        	j	1232 <Scale_sig+0x1a>

000012c6 <Scale_sig+0xae>:
	...

000012c8 <Copy_Scale_sig>:
    12c8:	004136        	entry	a1, 32
    12cb:	ffaf62        	movi	a6, -1
    12ce:	416160        	srli	a6, a6, 1
    12d1:	110647        	bnone	a6, a4, 12e6 <Copy_Scale_sig+0x1e>
    12d4:	107460        	and	a7, a4, a6
    12d7:	408204        	ae_lp16f.iu	aep0, a2, 0
    12da:	fec362        	addi	a6, a3, -2
    12dd:	058776        	loop	a7, 12e6 <Copy_Scale_sig+0x1e>
    12e0:	428614        	ae_sp16f.l.iu	aep0, a6, 2
    12e3:	408214        	ae_lp16f.iu	aep0, a2, 2

000012e6 <Copy_Scale_sig+0x1e>:
    12e6:	a58c           	beqz.n	a5, 12f4 <Copy_Scale_sig+0x2c>
    12e8:	fbd721        	l32r	a2, 244 (1218 <Scale_sig>)
    12eb:	03ad           	mov.n	a10, a3
    12ed:	04bd           	mov.n	a11, a4
    12ef:	05cd           	mov.n	a12, a5
    12f1:	0002e0        	callx8	a2

000012f4 <Copy_Scale_sig+0x2c>:
    12f4:	f01d           	retw.n

000012f6 <Copy_Scale_sig+0x2e>:
	...

000012f8 <BASOP_Util_Add_Mant32Exp>:
    12f8:	004136        	entry	a1, 32
    12fb:	833520        	moveqz	a3, a5, a2
    12fe:	835340        	moveqz	a5, a3, a4
    1301:	c08350        	sub	a8, a3, a5
    1304:	176c           	movi.n	a7, -31
    1306:	888d           	ae_sext16	a8, a8
    1308:	537780        	max	a7, a7, a8
    130b:	fe1c           	movi.n	a14, 31
    130d:	438e70        	min	a8, a14, a7
    1310:	ff7c           	movi.n	a15, -1
    1312:	f470f0        	extui	a7, a15, 0, 16
    1315:	00b896        	bltz	a8, 1324 <BASOP_Util_Add_Mant32Exp+0x2c>
    1318:	110787        	bnone	a7, a8, 132d <BASOP_Util_Add_Mant32Exp+0x35>
    131b:	400800        	ssr	a8
    131e:	b14040        	sra	a4, a4
    1321:	000206        	j	132d <BASOP_Util_Add_Mant32Exp+0x35>

00001324 <BASOP_Util_Add_Mant32Exp+0x2c>:
    1324:	608080        	neg	a8, a8
    1327:	400800        	ssr	a8
    132a:	b12020        	sra	a2, a2
    132d:	212120        	srai	a2, a2, 1
    1330:	21f140        	srai	a15, a4, 1
    1333:	2f2a           	add.n	a2, a15, a2
    1335:	535350        	max	a5, a3, a5
    1338:	40e230        	nsa	a3, a2
    133b:	833220        	moveqz	a3, a2, a2
    133e:	451b           	addi.n	a4, a5, 1
    1340:	130737        	bnone	a7, a3, 1357 <BASOP_Util_Add_Mant32Exp+0x5f>
    1343:	835d           	ae_sext16	a5, a3
    1345:	607050        	neg	a7, a5
    1348:	400700        	ssr	a7
    134b:	b17020        	sra	a7, a2
    134e:	401500        	ssl	a5
    1351:	a12200        	sll	a2, a2
    1354:	a32750        	movltz	a2, a7, a5
    1357:	c03430        	sub	a3, a4, a3
    135a:	833220        	moveqz	a3, a2, a2
    135d:	663d           	ae_s16i.n	a3, a6, 0
    135f:	f01d           	retw.n

00001361 <BASOP_Util_Add_Mant32Exp+0x69>:
    1361:	000000                                        ...

00001364 <BASOP_Util_Cmp_Mant32Exp>:
    1364:	004136        	entry	a1, 32
    1367:	f77c           	movi.n	a7, -1
    1369:	026d           	mov.n	a6, a2
    136b:	40e220        	nsa	a2, a2
    136e:	f47070        	extui	a7, a7, 0, 16
    1371:	832660        	moveqz	a2, a6, a6
    1374:	160727        	bnone	a7, a2, 138e <BASOP_Util_Cmp_Mant32Exp+0x2a>
    1377:	828d           	ae_sext16	a8, a2
    1379:	60f080        	neg	a15, a8
    137c:	400f00        	ssr	a15
    137f:	c03320        	sub	a3, a3, a2
    1382:	b12060        	sra	a2, a6
    1385:	401800        	ssl	a8
    1388:	a16600        	sll	a6, a6
    138b:	a36280        	movltz	a6, a2, a8

0000138e <BASOP_Util_Cmp_Mant32Exp+0x2a>:
    138e:	40e420        	nsa	a2, a4
    1391:	832440        	moveqz	a2, a4, a4
    1394:	160727        	bnone	a7, a2, 13ae <BASOP_Util_Cmp_Mant32Exp+0x4a>
    1397:	828d           	ae_sext16	a8, a2
    1399:	60f080        	neg	a15, a8
    139c:	400f00        	ssr	a15
    139f:	c05520        	sub	a5, a5, a2
    13a2:	b12040        	sra	a2, a4
    13a5:	401800        	ssl	a8
    13a8:	a14400        	sll	a4, a4
    13ab:	a34280        	movltz	a4, a2, a8
    13ae:	833560        	moveqz	a3, a5, a6
    13b1:	020c           	movi.n	a2, 0
    13b3:	090c           	movi.n	a9, 0
    13b5:	03ad           	mov.n	a10, a3
    13b7:	24ac           	beqz.n	a4, 13dd <BASOP_Util_Cmp_Mant32Exp+0x79>
    13b9:	059f40        	extui	a9, a4, 31, 1
    13bc:	0416a6        	blti	a6, 1, 13c4 <BASOP_Util_Cmp_Mant32Exp+0x60>
    13bf:	180c           	movi.n	a8, 1
    13c1:	00b496        	bltz	a4, 13d0 <BASOP_Util_Cmp_Mant32Exp+0x6c>
    13c4:	05ad           	mov.n	a10, a5
    13c6:	0136d6        	bgez	a6, 13dd <BASOP_Util_Cmp_Mant32Exp+0x79>
    13c9:	f87c           	movi.n	a8, -1
    13cb:	05ad           	mov.n	a10, a5
    13cd:	0c14a6        	blti	a4, 1, 13dd <BASOP_Util_Cmp_Mant32Exp+0x79>
    13d0:	c03350        	sub	a3, a3, a5
    13d3:	120c           	movi.n	a2, 1
    13d5:	935d           	ae_zext16	a5, a3
    13d7:	625520        	saltu	a5, a5, a2
    13da:	000586        	j	13f4 <BASOP_Util_Cmp_Mant32Exp+0x90>

000013dd <BASOP_Util_Cmp_Mant32Exp+0x79>:
    13dd:	c033a0        	sub	a3, a3, a10
    13e0:	c08640        	sub	a8, a6, a4
    13e3:	150c           	movi.n	a5, 1
    13e5:	93ad           	ae_zext16	a10, a3
    13e7:	625a50        	saltu	a5, a10, a5
    13ea:	68cc           	bnez.n	a8, 13f4 <BASOP_Util_Cmp_Mant32Exp+0x90>
    13ec:	fa7c           	movi.n	a10, -1
    13ee:	f4a0a0        	extui	a10, a10, 0, 16
    13f1:	380a37        	bnone	a10, a3, 142d <BASOP_Util_Cmp_Mant32Exp+0xc9>
    13f4:	01e696        	bltz	a6, 1416 <BASOP_Util_Cmp_Mant32Exp+0xb2>
    13f7:	120c           	movi.n	a2, 1
    13f9:	09cc           	bnez.n	a9, 13fd <BASOP_Util_Cmp_Mant32Exp+0x99>
    13fb:	f27c           	movi.n	a2, -1
    13fd:	02c496        	bltz	a4, 142d <BASOP_Util_Cmp_Mant32Exp+0xc9>
    1400:	833d           	ae_sext16	a3, a3
    1402:	040c           	movi.n	a4, 0
    1404:	160c           	movi.n	a6, 1
    1406:	458c           	beqz.n	a5, 140e <BASOP_Util_Cmp_Mant32Exp+0xaa>
    1408:	725480        	salt	a5, a4, a8
    140b:	932650        	movnez	a2, a6, a5
    140e:	723430        	salt	a3, a4, a3
    1411:	932630        	movnez	a2, a6, a3
    1414:	f01d           	retw.n

00001416 <BASOP_Util_Cmp_Mant32Exp+0xb2>:
    1416:	072d           	mov.n	a2, a7
    1418:	199c           	beqz.n	a9, 142d <BASOP_Util_Cmp_Mant32Exp+0xc9>
    141a:	833d           	ae_sext16	a3, a3
    141c:	f47c           	movi.n	a4, -1
    141e:	658c           	beqz.n	a5, 1428 <BASOP_Util_Cmp_Mant32Exp+0xc4>
    1420:	020c           	movi.n	a2, 0
    1422:	722280        	salt	a2, a2, a8
    1425:	904240        	addx2	a4, a2, a4
    1428:	120c           	movi.n	a2, 1
    142a:	b32430        	movgez	a2, a4, a3
    142d:	822d           	ae_sext16	a2, a2
    142f:	f01d           	retw.n

00001431 <BASOP_Util_Cmp_Mant32Exp+0xcd>:
    1431:	000000                                        ...

00001434 <Isqrt>:
    1434:	004136        	entry	a1, 32
    1437:	5512a6        	blti	a2, 1, 1490 <Isqrt+0x5c>
    143a:	fb6041        	l32r	a4, 1bc (bab8 <isqrt_table>)
    143d:	656720        	extui	a6, a2, 23, 7
    1440:	e4e820        	extui	a14, a2, 8, 15
    1443:	0448           	l32i.n	a4, a4, 0
    1445:	435d           	ae_l16ui.n	a5, a3, 0
    1447:	a04640        	addx4	a4, a6, a4
    144a:	1468           	l32i.n	a6, a4, 4
    144c:	0478           	l32i.n	a7, a4, 0
    144e:	854d           	ae_sext16	a4, a5
    1450:	82a092        	movi	a9, 130
    1453:	c06670        	sub	a6, a6, a7
    1456:	8286e0        	mull	a8, a6, a14
    1459:	b226e0        	mulsh	a2, a6, a14
    145c:	41ff80        	srli	a15, a8, 15
    145f:	1be2f0        	depbits	a15, a2, 17, 15
    1462:	27fa           	add.n	a2, a7, a15
    1464:	176507        	bbci	a5, 0, 147f <Isqrt+0x4b>
    1467:	5ad962        	addmi	a6, a9, 0x5a00
    146a:	82e260        	mull	a14, a2, a6
    146d:	045050        	extui	a5, a5, 0, 1
    1470:	b2f260        	mulsh	a15, a2, a6
    1473:	401500        	ssl	a5
    1476:	415fe0        	srli	a5, a14, 15
    1479:	1bef50        	depbits	a5, a15, 17, 15
    147c:	a12500        	sll	a2, a5

0000147f <Isqrt+0x4b>:
    147f:	150c           	movi.n	a5, 1
    1481:	115500        	slli	a5, a5, 16
    1484:	114410        	slli	a4, a4, 15
    1487:	c04540        	sub	a4, a5, a4
    148a:	f54040        	extui	a4, a4, 16, 16
    148d:	000186        	j	1497 <Isqrt+0x63>

00001490 <Isqrt+0x5c>:
    1490:	f27c           	movi.n	a2, -1
    1492:	412120        	srli	a2, a2, 1
    1495:	040c           	movi.n	a4, 0
    1497:	634d           	ae_s16i.n	a4, a3, 0
    1499:	f01d           	retw.n

0000149b <Isqrt+0x67>:
	...

0000149c <BASOP_Util_Log2_16>:
    149c:	006136        	entry	a1, 48
    149f:	063216        	beqz	a2, 1506 <BASOP_Util_Log2_16+0x6a>
    14a2:	360234        	ae_cvtq48a32s	aeq0, a2
    14a5:	364604        	ae_nsaq56s	a6, aeq0
    14a8:	dfaf42        	movi	a4, -33
    14ab:	114410        	slli	a4, a4, 15
    14ae:	eec662        	addi	a6, a6, -18
    14b1:	116600        	slli	a6, a6, 16
    14b4:	316060        	srai	a6, a6, 16
    14b7:	fc24fe860f 	{ ae_slaasq56s	aeq0, aeq0, a6; nop }
    14bc:	364434        	ae_cvtq48a32s	aeq1, a4
    14bf:	fb41b1        	l32r	a11, 1c4 (bac0 <Log2_16_table2>)
    14c2:	f9660fffaf 	{ movi	a10, -1; ae_addq56	aeq1, aeq0, aeq1 }
    14c7:	fb3e51        	l32r	a5, 1c0 (babc <Log2_16_table1>)
    14ca:	f86bb00b4e 	{ l32i	a4, a11, 0; ae_roundsp16q48asym	aep0, aeq1 }
    14cf:	420164        	ae_sp16f.l.i	aep0, a1, 12
    14d2:	3026a0        	xor	a2, a6, a10
    14d5:	069162        	l16si	a6, a1, 12
    14d8:	0558           	l32i.n	a5, a5, 0
    14da:	368d04        	ae_trunca32q48	a13, aeq0
    14dd:	904640        	addx2	a4, a6, a4
    14e0:	a05650        	addx4	a5, a6, a5
    14e3:	244d           	ae_l16si.n	a4, a4, 0
    14e5:	223a           	add.n	a2, a2, a3
    14e7:	9436d0        	extui	a3, a13, 6, 10
    14ea:	0558           	l32i.n	a5, a5, 0
    14ec:	1133f0        	slli	a3, a3, 1
    14ef:	1e0c           	movi.n	a14, 1
    14f1:	116e10        	slli	a6, a14, 15
    14f4:	d13340        	mul16s	a3, a3, a4
    14f7:	f56a           	add.n	a15, a5, a6
    14f9:	33fa           	add.n	a3, a3, a15
    14fb:	112270        	slli	a2, a2, 9
    14fe:	f53030        	extui	a3, a3, 16, 16
    1501:	223a           	add.n	a2, a2, a3
    1503:	000106        	j	150b <BASOP_Util_Log2_16+0x6f>

00001506 <BASOP_Util_Log2_16+0x6a>:
    1506:	120c           	movi.n	a2, 1
    1508:	112210        	slli	a2, a2, 15
    150b:	822d           	ae_sext16	a2, a2
    150d:	f01d           	retw.n

0000150f <BASOP_Util_Log2_16+0x73>:
	...

00001510 <BASOP_Util_InvLog2_16>:
    1510:	004136        	entry	a1, 32
    1513:	fb2e51        	l32r	a5, 1cc (bac8 <InvLog2_16_table2>)
    1516:	fb2c41        	l32r	a4, 1c8 (bac4 <InvLog2_16_table1>)
    1519:	547520        	extui	a7, a2, 5, 6
    151c:	0558           	l32i.n	a5, a5, 0
    151e:	0448           	l32i.n	a4, a4, 0
    1520:	44c020        	extui	a12, a2, 0, 5
    1523:	905750        	addx2	a5, a7, a5
    1526:	a04740        	addx4	a4, a7, a4
    1529:	25dd           	ae_l16si.n	a13, a5, 0
    152b:	0448           	l32i.n	a4, a4, 0
    152d:	160c           	movi.n	a6, 1
    152f:	11ecb0        	slli	a14, a12, 5
    1532:	418b20        	srli	a8, a2, 11
    1535:	116610        	slli	a6, a6, 15
    1538:	d12ed0        	mul16s	a2, a14, a13
    153b:	446a           	add.n	a4, a4, a6
    153d:	224a           	add.n	a2, a2, a4
    153f:	f81b           	addi.n	a15, a8, 1
    1541:	312020        	srai	a2, a2, 16
    1544:	63fd           	ae_s16i.n	a15, a3, 0
    1546:	f01d           	retw.n

00001548 <BASOP_getTables>:
    1548:	004136        	entry	a1, 32
    154b:	fb1961        	l32r	a6, 1b0 (ba70 <SineTable480>)
    154e:	b3a072        	movi	a7, 179
    1551:	1da757        	bge	a7, a5, 1572 <BASOP_getTables+0x2a>
    1554:	3fa172        	movi	a7, 0x13f
    1557:	30a757        	bge	a7, a5, 158b <BASOP_getTables+0x43>
    155a:	40a172        	movi	a7, 0x140
    155d:	531577        	beq	a5, a7, 15b4 <BASOP_getTables+0x6c>
    1560:	68a172        	movi	a7, 0x168
    1563:	581577        	beq	a5, a7, 15bf <BASOP_getTables+0x77>
    1566:	e0a172        	movi	a7, 0x1e0
    1569:	7c9577        	bne	a5, a7, 15e9 <BASOP_getTables+0xa1>
    156c:	fb2351        	l32r	a5, 1f8 (ba9c <SineWindow480>)
    156f:	0011c6        	j	15ba <BASOP_getTables+0x72>

00001572 <BASOP_getTables+0x2a>:
    1572:	77a072        	movi	a7, 119
    1575:	242757        	blt	a7, a5, 159d <BASOP_getTables+0x55>
    1578:	c73c           	movi.n	a7, 60
    157a:	491577        	beq	a5, a7, 15c7 <BASOP_getTables+0x7f>
    157d:	065c           	movi.n	a6, 80
    157f:	669567        	bne	a5, a6, 15e9 <BASOP_getTables+0xa1>
    1582:	fb1651        	l32r	a5, 1dc (ba80 <SineWindow80>)
    1585:	fb1361        	l32r	a6, 1d4 (ba78 <SineTable320>)
    1588:	001446        	j	15dd <BASOP_getTables+0x95>

0000158b <BASOP_getTables+0x43>:
    158b:	b4a072        	movi	a7, 180
    158e:	3d1577        	beq	a5, a7, 15cf <BASOP_getTables+0x87>
    1591:	f0a072        	movi	a7, 240
    1594:	519577        	bne	a5, a7, 15e9 <BASOP_getTables+0xa1>
    1597:	fb1551        	l32r	a5, 1ec (ba90 <SineWindow240>)
    159a:	000446        	j	15af <BASOP_getTables+0x67>

0000159d <BASOP_getTables+0x55>:
    159d:	78a072        	movi	a7, 120
    15a0:	361577        	beq	a5, a7, 15da <BASOP_getTables+0x92>
    15a3:	a0a062        	movi	a6, 160
    15a6:	3f9567        	bne	a5, a6, 15e9 <BASOP_getTables+0xa1>
    15a9:	fb0e51        	l32r	a5, 1e4 (ba88 <SineWindow160>)
    15ac:	fb0a61        	l32r	a6, 1d4 (ba78 <SineTable320>)
    15af:	470c           	movi.n	a7, 4
    15b1:	000a86        	j	15df <BASOP_getTables+0x97>

000015b4 <BASOP_getTables+0x6c>:
    15b4:	fb0f51        	l32r	a5, 1f0 (ba94 <SineWindow320>)
    15b7:	fb0761        	l32r	a6, 1d4 (ba78 <SineTable320>)
    15ba:	270c           	movi.n	a7, 2
    15bc:	0007c6        	j	15df <BASOP_getTables+0x97>

000015bf <BASOP_getTables+0x77>:
    15bf:	fb0d51        	l32r	a5, 1f4 (ba98 <SineWindow360>)
    15c2:	270c           	movi.n	a7, 2
    15c4:	000306        	j	15d4 <BASOP_getTables+0x8c>

000015c7 <BASOP_getTables+0x7f>:
    15c7:	fb0451        	l32r	a5, 1d8 (ba7c <SineWindow60>)
    15ca:	071c           	movi.n	a7, 16
    15cc:	0003c6        	j	15df <BASOP_getTables+0x97>

000015cf <BASOP_getTables+0x87>:
    15cf:	fb0651        	l32r	a5, 1e8 (ba8c <SineWindow180>)
    15d2:	470c           	movi.n	a7, 4
    15d4:	faff61        	l32r	a6, 1d0 (ba74 <SineTable360>)
    15d7:	000106        	j	15df <BASOP_getTables+0x97>

000015da <BASOP_getTables+0x92>:
    15da:	fb0151        	l32r	a5, 1e0 (ba84 <SineWindow120>)
    15dd:	870c           	movi.n	a7, 8
    15df:	0668           	l32i.n	a6, a6, 0
    15e1:	0369           	s32i.n	a6, a3, 0
    15e3:	0538           	l32i.n	a3, a5, 0
    15e5:	647d           	ae_s16i.n	a7, a4, 0
    15e7:	0239           	s32i.n	a3, a2, 0
    15e9:	f01d           	retw.n

000015eb <BASOP_getTables+0xa3>:
    15eb:	00000000                                 .....

000015f0 <dct_IV_XT>:
    15f0:	00a136        	entry	a1, 80
    15f3:	9139           	s32i.n	a3, a1, 36
    15f5:	fb1431        	l32r	a3, 248 (1548 <BASOP_getTables>)
    15f8:	1cc1a2        	addi	a10, a1, 28
    15fb:	18c1b2        	addi	a11, a1, 24
    15fe:	14c1c2        	addi	a12, a1, 20
    1601:	05dd           	mov.n	a13, a5
    1603:	b169           	s32i.n	a6, a1, 44
    1605:	8179           	s32i.n	a7, a1, 32
    1607:	216150        	srai	a6, a5, 1
    160a:	0003e0        	callx8	a3
    160d:	06cd           	mov.n	a12, a6
    160f:	a06520        	addx4	a6, a5, a2
    1612:	f8c632        	addi	a3, a6, -8
    1615:	fcc672        	addi	a7, a6, -4
    1618:	5e25a6        	blti	a5, 2, 167a <dct_IV_XT+0x8a>
    161b:	072182        	l32i	a8, a1, 28
    161e:	209770        	or	a9, a7, a7
    1621:	01ccb2        	addi	a11, a12, 1
    1624:	20a220        	or	a10, a2, a2
    1627:	601904        	ae_lq32f.iu	aeq0, a9, 0
    162a:	605a04        	ae_lq32f.iu	aeq1, a10, 0
    162d:	41b1b0        	srli	a11, a11, 1
    1630:	fc24fe944f 	{ ae_slaasq56s	aeq1, aeq1, a4; nop }
    1635:	fc24fe840f 	{ ae_slaasq56s	aeq0, aeq0, a4; nop }
    163a:	448804        	ae_lp16x2f.iu	aep0, a8, 0
    163d:	398b76        	loop	a11, 167a <dct_IV_XT+0x8a>
    1640:	2500bd6a1f 	{ ae_lq32f.i	aeq3, a10, 4; ae_mulzaaq32sp16s.lh	aeq2, aeq0, aep0, aeq1, aep0 }
    1645:	84012d981f 	{ ae_lp16x2f.iu	aep1, a8, 4; ae_mulzsaq32sp16s.lh	aeq0, aeq1, aep0, aeq0, aep0 }
    164a:	622a04        	ae_sq32f.i	aeq2, a10, 0
    164d:	6089f4        	ae_lq32f.i	aeq2, a9, -4
    1650:	fc24feb4cf 	{ ae_slaasq56s	aeq3, aeq3, a4; nop }
    1655:	fc24fea44f 	{ ae_slaasq56s	aeq1, aeq2, a4; nop }
    165a:	5725b98a1f 	{ ae_sq32f.i	aeq0, a10, 4; ae_mulzasq32sp16s.lh	aeq2, aeq3, aep1, aeq1, aep1 }
    165f:	2427ed881f 	{ ae_lp16x2f.iu	aep0, a8, 4; ae_mulzaaq32sp16s.lh	aeq1, aeq1, aep1, aeq3, aep1 }
    1664:	622904        	ae_sq32f.i	aeq2, a9, 0
    1667:	6219f4        	ae_sq32f.i	aeq1, a9, -4
    166a:	6019e4        	ae_lq32f.iu	aeq0, a9, -8
    166d:	60da24        	ae_lq32f.iu	aeq3, a10, 8
    1670:	fc24fe840f 	{ ae_slaasq56s	aeq0, aeq0, a4; nop }
    1675:	fc24feb44f 	{ ae_slaasq56s	aeq1, aeq3, a4; nop }

0000167a <dct_IV_XT+0x8a>:
    167a:	faf441        	l32r	a4, 24c (3338 <BASOP_cfft>)
    167d:	91e8           	l32i.n	a14, a1, 36
    167f:	b1f8           	l32i.n	a15, a1, 44
    1681:	8188           	l32i.n	a8, a1, 32
    1683:	b24b           	addi.n	a11, a2, 4
    1685:	2d0c           	movi.n	a13, 2
    1687:	02ad           	mov.n	a10, a2
    1689:	a1c9           	s32i.n	a12, a1, 40
    168b:	0189           	s32i.n	a8, a1, 0
    168d:	0004e0        	callx8	a4
    1690:	0a9142        	l16si	a4, a1, 20
    1693:	6188           	l32i.n	a8, a1, 24
    1695:	12a8           	l32i.n	a10, a2, 4
    1697:	0398           	l32i.n	a9, a3, 0
    1699:	a08480        	addx4	a8, a4, a8
    169c:	28cd           	ae_l16si.n	a12, a8, 0
    169e:	13b8           	l32i.n	a11, a3, 4
    16a0:	38dd           	ae_l16si.n	a13, a8, 2
    16a2:	21a1a0        	srai	a10, a10, 1
    16a5:	60a0a0        	neg	a10, a10
    16a8:	13a9           	s32i.n	a10, a3, 4
    16aa:	8239c0        	mull	a3, a9, a12
    16ad:	82ebd0        	mull	a14, a11, a13
    16b0:	8149           	s32i.n	a4, a1, 32
    16b2:	8249d0        	mull	a4, a9, a13
    16b5:	b2a9c0        	mulsh	a10, a9, a12
    16b8:	b2fbd0        	mulsh	a15, a11, a13
    16bb:	b299d0        	mulsh	a9, a9, a13
    16be:	82dbc0        	mull	a13, a11, a12
    16c1:	b2bbc0        	mulsh	a11, a11, a12
    16c4:	413f30        	srli	a3, a3, 15
    16c7:	41efe0        	srli	a14, a14, 15
    16ca:	414f40        	srli	a4, a4, 15
    16cd:	41dfd0        	srli	a13, a13, 15
    16d0:	1bea30        	depbits	a3, a10, 17, 15
    16d3:	1befe0        	depbits	a14, a15, 17, 15
    16d6:	1be940        	depbits	a4, a9, 17, 15
    16d9:	0851c2        	s16i	a12, a1, 16
    16dc:	02c8           	l32i.n	a12, a2, 0
    16de:	1bebd0        	depbits	a13, a11, 17, 15
    16e1:	213130        	srai	a3, a3, 1
    16e4:	21e1e0        	srai	a14, a14, 1
    16e7:	214140        	srai	a4, a4, 1
    16ea:	21f1d0        	srai	a15, a13, 1
    16ed:	c033e0        	sub	a3, a3, a14
    16f0:	4f4a           	add.n	a4, a15, a4
    16f2:	21a1c0        	srai	a10, a12, 1
    16f5:	360334        	ae_cvtq48a32s	aeq0, a3
    16f8:	364434        	ae_cvtq48a32s	aeq1, a4
    16fb:	02a9           	s32i.n	a10, a2, 0
    16fd:	620214        	ae_sq32f.i	aeq0, a2, 4
    1700:	6216e4        	ae_sq32f.i	aeq1, a6, -8
    1703:	601224        	ae_lq32f.iu	aeq0, a2, 8
    1706:	448804        	ae_lp16x2f.iu	aep0, a8, 0
    1709:	604214        	ae_lq32f.i	aeq1, a2, 4
    170c:	3995a6        	blti	a5, 10, 1749 <dct_IV_XT+0x159>
    170f:	a138           	l32i.n	a3, a1, 40
    1711:	81f8           	l32i.n	a15, a1, 32
    1713:	331b           	addi.n	a3, a3, 1
    1715:	213130        	srai	a3, a3, 1
    1718:	ffc332        	addi	a3, a3, -1
    171b:	ffc342        	addi	a4, a3, -1
    171e:	113fe0        	slli	a3, a15, 2
    1721:	248476        	loop	a4, 1749 <dct_IV_XT+0x159>
    1724:	c08044        	ae_mulzaaq32sp16s.lh	aeq2, aeq1, aep0, aeq0, aep0
    1727:	54009b883f 	{ ae_lp16x2f.xu	aep0, a8, a3; ae_mulzasq32sp16s.lh	aeq0, aeq0, aep0, aeq1, aep0 }
    172c:	622204        	ae_sq32f.i	aeq2, a2, 0
    172f:	6057e4        	ae_lq32f.iu	aeq1, a7, -8
    1732:	6087f4        	ae_lq32f.i	aeq2, a7, -4
    1735:	850379870f 	{ ae_sq32f.i	aeq0, a7, 0; ae_mulzsaq32sp16s.lh	aeq3, aeq1, aep0, aeq2, aep0 }
    173a:	c08094        	ae_mulzaaq32sp16s.lh	aeq2, aeq2, aep0, aeq1, aep0
    173d:	623214        	ae_sq32f.i	aeq3, a2, 4
    1740:	6227f4        	ae_sq32f.i	aeq2, a7, -4
    1743:	601224        	ae_lq32f.iu	aeq0, a2, 8
    1746:	604214        	ae_lq32f.i	aeq1, a2, 4
    1749:	250100823f 	{ movi	a3, 130; ae_mulzaaq32sp16s.lh	aeq2, aeq1, aep0, aeq0, aep0 }
    174e:	8400f0915e 	{ l32i	a5, a1, 36; ae_mulzsaq32sp16s.lh	aeq1, aeq0, aep0, aeq1, aep0 }
    1753:	5ad332        	addmi	a3, a3, 0x5a00
    1756:	fc14b9a20f 	{ ae_sq32f.i	aeq2, a2, 0; ae_negq56	aeq0, aeq1 }
    175b:	60d7e4        	ae_lq32f.iu	aeq3, a7, -8
    175e:	10c142        	addi	a4, a1, 16
    1761:	085132        	s16i	a3, a1, 16
    1764:	25fd           	ae_l16si.n	a15, a5, 0
    1766:	407404        	ae_lp16f.i	aep7, a4, 0
    1769:	fabd7d47ff 	{ ae_lq32f.i	aeq2, a7, -4; ae_mulq32sp16s.l	aeq1, aeq3, aep7 }
    176e:	fbbc002f3e 	{ addi	a3, a15, 2; ae_mulq32sp16s.l	aeq2, aeq2, aep7 }
    1773:	653d           	ae_s16i.n	a3, a5, 0
    1775:	fb7639870f 	{ ae_sq32f.i	aeq0, a7, 0; ae_addq56	aeq3, aeq2, aeq1 }
    177a:	f936f9b7ff 	{ ae_sq32f.i	aeq3, a7, -4; ae_subq56	aeq1, aeq2, aeq1 }
    177f:	621214        	ae_sq32f.i	aeq1, a2, 4
    1782:	f01d           	retw.n

00001784 <dct_IV>:
    1784:	004136        	entry	a1, 32
    1787:	f01d           	retw.n

00001789 <dct_IV+0x5>:
    1789:	00000000                                 .......

00001790 <processSnsInterpolateScf_fx>:
    1790:	004136        	entry	a1, 32
    1793:	190c           	movi.n	a9, 1
    1795:	180c           	movi.n	a8, 1
    1797:	119940        	slli	a9, a9, 12
    179a:	60a070        	neg	a10, a7
    179d:	118830        	slli	a8, a8, 13
    17a0:	301994        	ae_cvtp24a16x2.ll	aep1, a9, a9
    17a3:	2490a0        	extui	a9, a10, 0, 3
    17a6:	300884        	ae_cvtp24a16x2.ll	aep0, a8, a8
    17a9:	22bd           	ae_l16si.n	a11, a2, 0
    17ab:	879a           	add.n	a8, a7, a9
    17ad:	68bd           	ae_s16i.n	a11, a8, 0
    17af:	22fd           	ae_l16si.n	a15, a2, 0
    17b1:	fc0c           	movi.n	a12, 15
    17b3:	78fd           	ae_s16i.n	a15, a8, 2
    17b5:	02ad           	mov.n	a10, a2
    17b7:	06c8b2        	addi	a11, a8, 6
    17ba:	40aa04        	ae_lp16f.iu	aep2, a10, 0
    17bd:	328c76        	loop	a12, 17f3 <processSnsInterpolateScf_fx+0x63>
    17c0:	403a14        	ae_lp16f.i	aep3, a10, 2
    17c3:	dd4ea002ce 	{ l16si	a12, a2, 0; ae_subsp24s	aep2, aep3, aep2 }
    17c8:	ea298febee 	{ addi	a14, a11, -2; ae_mulfp24s.ll	aeq0, aep2, aep1 }
    17cd:	eb09c0222e 	{ addi	a2, a2, 2; ae_mulfp24s.ll	aeq3, aep2, aep0 }
    17d2:	1b8f74        	ae_roundsp16q48asym	aep7, aeq0
    17d5:	f97bbf7d6f 	{ ae_trunca16p24s.l	a13, aep7; ae_roundsp16q48asym	aep2, aeq3 }
    17da:	dcda           	add.n	a13, a12, a13
    17dc:	362c24        	ae_trunca16p24s.l	a12, aep2
    17df:	40aa14        	ae_lp16f.iu	aep2, a10, 2
    17e2:	6edd           	ae_s16i.n	a13, a14, 0
    17e4:	ddca           	add.n	a13, a13, a12
    17e6:	6bdd           	ae_s16i.n	a13, a11, 0
    17e8:	ddca           	add.n	a13, a13, a12
    17ea:	7bdd           	ae_s16i.n	a13, a11, 2
    17ec:	ddca           	add.n	a13, a13, a12
    17ee:	025bd2        	s16i	a13, a11, 4
    17f1:	bb8b           	addi.n	a11, a11, 8

000017f3 <processSnsInterpolateScf_fx+0x63>:
    17f3:	3d9822        	l16si	a2, a8, 122
    17f6:	c0c6a2        	addi	a10, a6, -64
    17f9:	8aad           	ae_sext16	a10, a10
    17fb:	22ca           	add.n	a2, a2, a12
    17fd:	3e5822        	s16i	a2, a8, 124
    1800:	22ca           	add.n	a2, a2, a12
    1802:	3f5822        	s16i	a2, a8, 126
    1805:	04bad6        	bgez	a10, 1854 <processSnsInterpolateScf_fx+0xc4>
    1808:	024c           	movi.n	a2, 64
    180a:	c02260        	sub	a2, a2, a6
    180d:	822d           	ae_sext16	a2, a2
    180f:	2212a6        	blti	a2, 1, 1835 <processSnsInterpolateScf_fx+0xa5>
    1812:	92cd           	ae_zext16	a12, a2
    1814:	08ad           	mov.n	a10, a8
    1816:	20b880        	or	a11, a8, a8
    1819:	158c76        	loop	a12, 1832 <processSnsInterpolateScf_fx+0xa2>
    181c:	2acd           	ae_l16si.n	a12, a10, 0
    181e:	3add           	ae_l16si.n	a13, a10, 2
    1820:	aa4b           	addi.n	a10, a10, 4
    1822:	cdca           	add.n	a12, a13, a12
    1824:	cc1b           	addi.n	a12, a12, 1
    1826:	11cc10        	slli	a12, a12, 15
    1829:	31c0c0        	srai	a12, a12, 16
    182c:	6bcd           	ae_s16i.n	a12, a11, 0
    182e:	02cd           	mov.n	a12, a2
    1830:	bb2b           	addi.n	a11, a11, 2
    1832:	000046        	j	1837 <processSnsInterpolateScf_fx+0xa7>

00001835 <processSnsInterpolateScf_fx+0xa5>:
    1835:	0c0c           	movi.n	a12, 0
    1837:	19ac67        	bge	a12, a6, 1854 <processSnsInterpolateScf_fx+0xc4>
    183a:	b2ca           	add.n	a11, a2, a12
    183c:	90ac90        	addx2	a10, a12, a9
    183f:	c0e6c0        	sub	a14, a6, a12
    1842:	90fb90        	addx2	a15, a11, a9
    1845:	27aa           	add.n	a2, a7, a10
    1847:	77fa           	add.n	a7, a7, a15
    1849:	078e76        	loop	a14, 1854 <processSnsInterpolateScf_fx+0xc4>
    184c:	279d           	ae_l16si.n	a9, a7, 0
    184e:	629d           	ae_s16i.n	a9, a2, 0
    1850:	772b           	addi.n	a7, a7, 2
    1852:	222b           	addi.n	a2, a2, 2

00001854 <processSnsInterpolateScf_fx+0xc4>:
    1854:	121566        	bnei	a5, 1, 186a <processSnsInterpolateScf_fx+0xda>
    1857:	0f16a6        	blti	a6, 1, 186a <processSnsInterpolateScf_fx+0xda>
    185a:	965d           	ae_zext16	a5, a6
    185c:	082d           	mov.n	a2, a8
    185e:	088576        	loop	a5, 186a <processSnsInterpolateScf_fx+0xda>
    1861:	225d           	ae_l16si.n	a5, a2, 0
    1863:	605050        	neg	a5, a5
    1866:	625d           	ae_s16i.n	a5, a2, 0
    1868:	222b           	addi.n	a2, a2, 2
    186a:	4316a6        	blti	a6, 1, 18b1 <processSnsInterpolateScf_fx+0x121>
    186d:	fa5621        	l32r	a2, 1c8 (bac4 <InvLog2_16_table1>)
    1870:	fa5751        	l32r	a5, 1cc (bac8 <InvLog2_16_table2>)
    1873:	967d           	ae_zext16	a7, a6
    1875:	0228           	l32i.n	a2, a2, 0
    1877:	0558           	l32i.n	a5, a5, 0
    1879:	1f0c           	movi.n	a15, 1
    187b:	116f10        	slli	a6, a15, 15
    187e:	2f8776        	loop	a7, 18b1 <processSnsInterpolateScf_fx+0x121>
    1881:	287d           	ae_l16si.n	a7, a8, 0
    1883:	549570        	extui	a9, a7, 5, 6
    1886:	a0a920        	addx4	a10, a9, a2
    1889:	909950        	addx2	a9, a9, a5
    188c:	299d           	ae_l16si.n	a9, a9, 0
    188e:	447070        	extui	a7, a7, 0, 5
    1891:	0aa8           	l32i.n	a10, a10, 0
    1893:	1177b0        	slli	a7, a7, 5
    1896:	d17790        	mul16s	a7, a7, a9
    1899:	fa6a           	add.n	a15, a10, a6
    189b:	77fa           	add.n	a7, a7, a15
    189d:	317070        	srai	a7, a7, 16
    18a0:	637d           	ae_s16i.n	a7, a3, 0
    18a2:	287d           	ae_l16si.n	a7, a8, 0
    18a4:	332b           	addi.n	a3, a3, 2
    18a6:	882b           	addi.n	a8, a8, 2
    18a8:	417b70        	srli	a7, a7, 11
    18ab:	771b           	addi.n	a7, a7, 1
    18ad:	647d           	ae_s16i.n	a7, a4, 0
    18af:	442b           	addi.n	a4, a4, 2
    18b1:	f01d           	retw.n

000018b3 <processSnsInterpolateScf_fx+0x123>:
    18b3:	00000000                                 .....

000018b8 <processAriEncoder_fx>:
    18b8:	010136        	entry	a1, 128
    18bb:	202182        	l32i	a8, a1, 128
    18be:	f47c           	movi.n	a4, -1
    18c0:	fd7c           	movi.n	a13, -1
    18c2:	030c           	movi.n	a3, 0
    18c4:	f169           	s32i.n	a6, a1, 60
    18c6:	414840        	srli	a4, a4, 8
    18c9:	f460d0        	extui	a6, a13, 0, 16
    18cc:	2621e2        	l32i	a14, a1, 152
    18cf:	2221f2        	l32i	a15, a1, 136
    18d2:	146152        	s32i	a5, a1, 80
    18d5:	085132        	s16i	a3, a1, 16
    18d8:	5139           	s32i.n	a3, a1, 20
    18da:	1661e2        	s32i	a14, a1, 88
    18dd:	116192        	s32i	a9, a1, 68
    18e0:	e1f9           	s32i.n	a15, a1, 56
    18e2:	105132        	s16i	a3, a1, 32
    18e5:	6149           	s32i.n	a4, a1, 24
    18e7:	7169           	s32i.n	a6, a1, 28
    18e9:	0218e6        	bgei	a8, 1, 18ef <processAriEncoder_fx+0x37>
    18ec:	002786        	j	198e <processAriEncoder_fx+0xd6>
    18ef:	272132        	l32i	a3, a1, 156
    18f2:	112142        	l32i	a4, a1, 68
    18f5:	fa56f1        	l32r	a15, 250 (20ec <ac_encode_fx>)
    18f8:	212142        	l32i	a4, a1, 132
    18fb:	1133c0        	slli	a3, a3, 4
    18fe:	a149           	s32i.n	a4, a1, 40
    1900:	c139           	s32i.n	a3, a1, 48

00001902 <processAriEncoder_fx+0x4a>:
    1902:	273d           	ae_l16si.n	a3, a7, 0
    1904:	b189           	s32i.n	a8, a1, 44
    1906:	f9ef41        	l32r	a4, c4 (b904 <ac_tns_order_cumfreq>)
    1909:	7113a6        	blti	a3, 1, 197e <processAriEncoder_fx+0xc6>
    190c:	f9ed51        	l32r	a5, c0 (b900 <ac_tns_order_freq>)
    190f:	c168           	l32i.n	a6, a1, 48
    1911:	0448           	l32i.n	a4, a4, 0
    1913:	0558           	l32i.n	a5, a5, 0
    1915:	933d           	ae_zext16	a3, a3
    1917:	330b           	addi.n	a3, a3, -1
    1919:	1133f0        	slli	a3, a3, 1
    191c:	446a           	add.n	a4, a4, a6
    191e:	556a           	add.n	a5, a5, a6
    1920:	443a           	add.n	a4, a4, a3
    1922:	353a           	add.n	a3, a5, a3
    1924:	24dd           	ae_l16si.n	a13, a4, 0
    1926:	23ed           	ae_l16si.n	a14, a3, 0
    1928:	10c1b2        	addi	a11, a1, 16
    192b:	14c1c2        	addi	a12, a1, 20
    192e:	02ad           	mov.n	a10, a2
    1930:	9179           	s32i.n	a7, a1, 36
    1932:	0f6d           	mov.n	a6, a15
    1934:	000fe0        	callx8	a15
    1937:	9178           	l32i.n	a7, a1, 36
    1939:	f9e591        	l32r	a9, d0 (b910 <ac_tns_coef_cumfreq>)
    193c:	06fd           	mov.n	a15, a6
    193e:	273d           	ae_l16si.n	a3, a7, 0
    1940:	a158           	l32i.n	a5, a1, 40
    1942:	040c           	movi.n	a4, 0
    1944:	3613a6        	blti	a3, 1, 197e <processAriEncoder_fx+0xc6>
    1947:	030c           	movi.n	a3, 0
    1949:	f9e071        	l32r	a7, cc (b90c <ac_tns_coef_freq>)
    194c:	0988           	l32i.n	a8, a9, 0
    194e:	25fd           	ae_l16si.n	a15, a5, 0
    1950:	07a8           	l32i.n	a10, a7, 0
    1952:	10c1b2        	addi	a11, a1, 16
    1955:	908f80        	addx2	a8, a15, a8
    1958:	909fa0        	addx2	a9, a15, a10
    195b:	883a           	add.n	a8, a8, a3
    195d:	993a           	add.n	a9, a9, a3
    195f:	28dd           	ae_l16si.n	a13, a8, 0
    1961:	29ed           	ae_l16si.n	a14, a9, 0
    1963:	14c1c2        	addi	a12, a1, 20
    1966:	02ad           	mov.n	a10, a2
    1968:	0006e0        	callx8	a6
    196b:	9178           	l32i.n	a7, a1, 36
    196d:	f9d891        	l32r	a9, d0 (b910 <ac_tns_coef_cumfreq>)
    1970:	441b           	addi.n	a4, a4, 1
    1972:	278d           	ae_l16si.n	a8, a7, 0
    1974:	06fd           	mov.n	a15, a6
    1976:	552b           	addi.n	a5, a5, 2
    1978:	22c332        	addi	a3, a3, 34
    197b:	ca2487        	blt	a4, a8, 1949 <processAriEncoder_fx+0x91>
    197e:	a138           	l32i.n	a3, a1, 40
    1980:	b188           	l32i.n	a8, a1, 44
    1982:	772b           	addi.n	a7, a7, 2
    1984:	10c332        	addi	a3, a3, 16
    1987:	880b           	addi.n	a8, a8, -1
    1989:	a139           	s32i.n	a3, a1, 40
    198b:	f73856        	bnez	a8, 1902 <processAriEncoder_fx+0x4a>
    198e:	e148           	l32i.n	a4, a1, 56
    1990:	1621e2        	l32i	a14, a1, 88
    1993:	112152        	l32i	a5, a1, 68
    1996:	2821f2        	l32i	a15, a1, 160
    1999:	2321d2        	l32i	a13, a1, 140
    199c:	fa2e91        	l32r	a9, 254 (bae0 <g_p_enc_stream>)
    199f:	213140        	srai	a3, a4, 1
    19a2:	176132        	s32i	a3, a1, 92
    19a5:	26ce16        	beqz	a14, 1c15 <processAriEncoder_fx+0x35d>
    19a8:	f188           	l32i.n	a8, a1, 60
    19aa:	0f3d           	mov.n	a3, a15
    19ac:	0224e6        	bgei	a4, 2, 19b2 <processAriEncoder_fx+0xfa>
    19af:	011cc6        	j	1e26 <processAriEncoder_fx+0x56e>
    19b2:	0f3d           	mov.n	a3, a15
    19b4:	61f8           	l32i.n	a15, a1, 24
    19b6:	51a8           	l32i.n	a10, a1, 20
    19b8:	0f11b2        	l16ui	a11, a1, 30
    19bb:	101172        	l16ui	a7, a1, 32
    19be:	0e1162        	l16ui	a6, a1, 28
    19c1:	0811c2        	l16ui	a12, a1, 16
    19c4:	ffa092        	movi	a9, 255
    19c7:	040c           	movi.n	a4, 0
    19c9:	119900        	slli	a9, a9, 16
    19cc:	136132        	s32i	a3, a1, 76
    19cf:	126132        	s32i	a3, a1, 72
    19d2:	001206        	j	1a1e <processAriEncoder_fx+0x166>

000019d5 <processAriEncoder_fx+0x11d>:
    19d5:	a138           	l32i.n	a3, a1, 40
    19d7:	dd2b           	addi.n	a13, a13, 2
    19d9:	1261d2        	s32i	a13, a1, 72
    19dc:	213130        	srai	a3, a3, 1
    19df:	b139           	s32i.n	a3, a1, 44
    19e1:	0edd           	mov.n	a13, a14
    19e3:	c148           	l32i.n	a4, a1, 48
    19e5:	f37c           	movi.n	a3, -1
    19e7:	f43030        	extui	a3, a3, 0, 16
    19ea:	0b0347        	bnone	a3, a4, 19f9 <processAriEncoder_fx+0x141>
    19ed:	fa1941        	l32r	a4, 254 (bae0 <g_p_enc_stream>)
    19f0:	d1e8           	l32i.n	a14, a1, 52
    19f2:	0438           	l32i.n	a3, a4, 0
    19f4:	1113e4        	ae_sbi	a3, a14, 1
    19f7:	0439           	s32i.n	a3, a4, 0
    19f9:	b148           	l32i.n	a4, a1, 44
    19fb:	f37c           	movi.n	a3, -1
    19fd:	f43030        	extui	a3, a3, 0, 16
    1a00:	090347        	bnone	a3, a4, 1a0d <processAriEncoder_fx+0x155>
    1a03:	fa1441        	l32r	a4, 254 (bae0 <g_p_enc_stream>)
    1a06:	0438           	l32i.n	a3, a4, 0
    1a08:	111354        	ae_sbi	a3, a5, 1
    1a0b:	0439           	s32i.n	a3, a4, 0
    1a0d:	e148           	l32i.n	a4, a1, 56
    1a0f:	172132        	l32i	a3, a1, 92
    1a12:	dd6b           	addi.n	a13, a13, 6
    1a14:	441b           	addi.n	a4, a4, 1
    1a16:	884b           	addi.n	a8, a8, 4
    1a18:	022437        	blt	a4, a3, 1a1e <processAriEncoder_fx+0x166>
    1a1b:	00fac6        	j	1e0a <processAriEncoder_fx+0x552>
    1a1e:	f9a031        	l32r	a3, a0 (b8e0 <ari_spec_lookup>)
    1a21:	e149           	s32i.n	a4, a1, 56
    1a23:	0d4d           	mov.n	a4, a13
    1a25:	485d           	ae_l16ui.n	a5, a8, 0
    1a27:	58dd           	ae_l16ui.n	a13, a8, 2
    1a29:	0338           	l32i.n	a3, a3, 0
    1a2b:	24ed           	ae_l16si.n	a14, a4, 0
    1a2d:	9139           	s32i.n	a3, a1, 36
    1a2f:	a1e9           	s32i.n	a14, a1, 40
    1a31:	8d3d           	ae_sext16	a3, a13
    1a33:	f189           	s32i.n	a8, a1, 60
    1a35:	858d           	ae_sext16	a8, a5
    1a37:	d159           	s32i.n	a5, a1, 52
    1a39:	1061d2        	s32i	a13, a1, 64
    1a3c:	9158           	l32i.n	a5, a1, 36
    1a3e:	a1d8           	l32i.n	a13, a1, 40
    1a40:	04ed           	mov.n	a14, a4
    1a42:	344d           	ae_l16si.n	a4, a4, 2
    1a44:	608180        	abs	a8, a8
    1a47:	603130        	abs	a3, a3
    1a4a:	d5da           	add.n	a13, a5, a13
    1a4c:	885d           	ae_sext16	a5, a8
    1a4e:	b139           	s32i.n	a3, a1, 44
    1a50:	833d           	ae_sext16	a3, a3
    1a52:	c189           	s32i.n	a8, a1, 48
    1a54:	9159           	s32i.n	a5, a1, 36
    1a56:	a139           	s32i.n	a3, a1, 40
    1a58:	0214e6        	bgei	a4, 1, 1a5e <processAriEncoder_fx+0x1a6>
    1a5b:	002dc6        	j	1b16 <processAriEncoder_fx+0x25e>
    1a5e:	050c           	movi.n	a5, 0
    1a60:	330c           	movi.n	a3, 3
    1a62:	634530        	minu	a4, a5, a3
    1a65:	114460        	slli	a4, a4, 10
    1a68:	4d4a           	add.n	a4, a13, a4
    1a6a:	000442        	l8ui	a4, a4, 0
    1a6d:	f98d81        	l32r	a8, a4 (b8e4 <ari_spec_cumfreq>)
    1a70:	41faf0        	srli	a15, a15, 10
    1a73:	234400        	sext	a4, a4, 7
    1a76:	1134b0        	slli	a3, a4, 5
    1a79:	903430        	addx2	a3, a4, a3
    1a7c:	f98b41        	l32r	a4, a8 (b8e8 <ari_spec_freq>)
    1a7f:	0888           	l32i.n	a8, a8, 0
    1a81:	0448           	l32i.n	a4, a4, 0
    1a83:	883a           	add.n	a8, a8, a3
    1a85:	101882        	l16ui	a8, a8, 32
    1a88:	343a           	add.n	a3, a4, a3
    1a8a:	101332        	l16ui	a3, a3, 32
    1a8d:	824f80        	mull	a4, a15, a8
    1a90:	82ff30        	mull	a15, a15, a3
    1a93:	34aa           	add.n	a3, a4, a10
    1a95:	fa7c           	movi.n	a10, -1
    1a97:	4188a0        	srli	a8, a10, 8
    1a9a:	10a380        	and	a10, a3, a8
    1a9d:	754830        	extui	a4, a3, 24, 8
    1aa0:	180c           	movi.n	a8, 1
    1aa2:	93b840        	movnez	a11, a8, a4
    1aa5:	601fb6        	bltui	a15, 0x10000, 1b09 <processAriEncoder_fx+0x251>
    1aa8:	a59c           	beqz.n	a5, 1ac6 <processAriEncoder_fx+0x20e>
    1aaa:	f9ea81        	l32r	a8, 254 (bae0 <g_p_enc_stream>)
    1aad:	9148           	l32i.n	a4, a1, 36
    1aaf:	400500        	ssr	a5
    1ab2:	0838           	l32i.n	a3, a8, 0
    1ab4:	b14040        	sra	a4, a4
    1ab7:	111344        	ae_sbi	a3, a4, 1
    1aba:	a148           	l32i.n	a4, a1, 40
    1abc:	0839           	s32i.n	a3, a8, 0
    1abe:	b14040        	sra	a4, a4
    1ac1:	111344        	ae_sbi	a3, a4, 1
    1ac4:	0839           	s32i.n	a3, a8, 0
    1ac6:	3e4d           	ae_l16si.n	a4, a14, 2
    1ac8:	551b           	addi.n	a5, a5, 1
    1aca:	922547        	blt	a5, a4, 1a60 <processAriEncoder_fx+0x1a8>
    1acd:	001146        	j	1b16 <processAriEncoder_fx+0x25e>

00001ad0 <processAriEncoder_fx+0x218>:
    1ad0:	863d           	ae_sext16	a3, a6
    1ad2:	00c396        	bltz	a3, 1ae2 <processAriEncoder_fx+0x22a>
    1ad5:	8c8d           	ae_sext16	a8, a12
    1ad7:	fc1b           	addi.n	a15, a12, 1
    1ad9:	3b6a           	add.n	a3, a11, a6
    1adb:	828a           	add.n	a8, a2, a8
    1add:	0fcd           	mov.n	a12, a15
    1adf:	004832        	s8i	a3, a8, 0
    1ae2:	873d           	ae_sext16	a3, a7
    1ae4:	1113a6        	blti	a3, 1, 1af9 <processAriEncoder_fx+0x241>
    1ae7:	973d           	ae_zext16	a3, a7
    1ae9:	6b0b           	addi.n	a6, a11, -1
    1aeb:	088376        	loop	a3, 1af7 <processAriEncoder_fx+0x23f>
    1aee:	8c3d           	ae_sext16	a3, a12
    1af0:	323a           	add.n	a3, a2, a3
    1af2:	cc1b           	addi.n	a12, a12, 1
    1af4:	004362        	s8i	a6, a3, 0

00001af7 <processAriEncoder_fx+0x23f>:
    1af7:	070c           	movi.n	a7, 0

00001af9 <processAriEncoder_fx+0x241>:
    1af9:	f560a0        	extui	a6, a10, 16, 16
    1afc:	0b0c           	movi.n	a11, 0
    1afe:	9a3d           	ae_zext16	a3, a10
    1b00:	11f480        	slli	a15, a4, 8
    1b03:	11a380        	slli	a10, a3, 8
    1b06:	9ef4f6        	bgeui	a4, 0x100, 1aa8 <processAriEncoder_fx+0x1f0>
    1b09:	0f4d           	mov.n	a4, a15
    1b0b:	c13a97        	bltu	a10, a9, 1ad0 <processAriEncoder_fx+0x218>
    1b0e:	be1b26        	beqi	a11, 1, 1ad0 <processAriEncoder_fx+0x218>
    1b11:	771b           	addi.n	a7, a7, 1
    1b13:	fff9c6        	j	1afe <processAriEncoder_fx+0x246>

00001b16 <processAriEncoder_fx+0x25e>:
    1b16:	843d           	ae_sext16	a3, a4
    1b18:	380c           	movi.n	a8, 3
    1b1a:	433380        	min	a3, a3, a8
    1b1d:	113360        	slli	a3, a3, 10
    1b20:	3d3a           	add.n	a3, a13, a3
    1b22:	000332        	l8ui	a3, a3, 0
    1b25:	f95fd1        	l32r	a13, a4 (b8e4 <ari_spec_cumfreq>)
    1b28:	415af0        	srli	a5, a15, 10
    1b2b:	f95ff1        	l32r	a15, a8 (b8e8 <ari_spec_freq>)
    1b2e:	0d88           	l32i.n	a8, a13, 0
    1b30:	233300        	sext	a3, a3, 7
    1b33:	11d3b0        	slli	a13, a3, 5
    1b36:	156152        	s32i	a5, a1, 84
    1b39:	0f58           	l32i.n	a5, a15, 0
    1b3b:	029ef2        	l16si	a15, a14, 4
    1b3e:	9033d0        	addx2	a3, a3, a13
    1b41:	883a           	add.n	a8, a8, a3
    1b43:	353a           	add.n	a3, a5, a3
    1b45:	908f80        	addx2	a8, a15, a8
    1b48:	903f30        	addx2	a3, a15, a3
    1b4b:	488d           	ae_l16ui.n	a8, a8, 0
    1b4d:	1521f2        	l32i	a15, a1, 84
    1b50:	433d           	ae_l16ui.n	a3, a3, 0
    1b52:	0edd           	mov.n	a13, a14
    1b54:	828f80        	mull	a8, a15, a8
    1b57:	82ff30        	mull	a15, a15, a3
    1b5a:	38aa           	add.n	a3, a8, a10
    1b5c:	fa7c           	movi.n	a10, -1
    1b5e:	4188a0        	srli	a8, a10, 8
    1b61:	10a380        	and	a10, a3, a8
    1b64:	755830        	extui	a5, a3, 24, 8
    1b67:	180c           	movi.n	a8, 1
    1b69:	93b850        	movnez	a11, a8, a5
    1b6c:	f188           	l32i.n	a8, a1, 60
    1b6e:	3b1fb6        	bltui	a15, 0x10000, 1bad <processAriEncoder_fx+0x2f5>
    1b71:	0011c6        	j	1bbc <processAriEncoder_fx+0x304>

00001b74 <processAriEncoder_fx+0x2bc>:
    1b74:	863d           	ae_sext16	a3, a6
    1b76:	00c396        	bltz	a3, 1b86 <processAriEncoder_fx+0x2ce>
    1b79:	8cfd           	ae_sext16	a15, a12
    1b7b:	5c1b           	addi.n	a5, a12, 1
    1b7d:	3b6a           	add.n	a3, a11, a6
    1b7f:	62fa           	add.n	a6, a2, a15
    1b81:	05cd           	mov.n	a12, a5
    1b83:	004632        	s8i	a3, a6, 0
    1b86:	873d           	ae_sext16	a3, a7
    1b88:	1113a6        	blti	a3, 1, 1b9d <processAriEncoder_fx+0x2e5>
    1b8b:	973d           	ae_zext16	a3, a7
    1b8d:	5b0b           	addi.n	a5, a11, -1
    1b8f:	088376        	loop	a3, 1b9b <processAriEncoder_fx+0x2e3>
    1b92:	8c3d           	ae_sext16	a3, a12
    1b94:	323a           	add.n	a3, a2, a3
    1b96:	cc1b           	addi.n	a12, a12, 1
    1b98:	004352        	s8i	a5, a3, 0

00001b9b <processAriEncoder_fx+0x2e3>:
    1b9b:	070c           	movi.n	a7, 0

00001b9d <processAriEncoder_fx+0x2e5>:
    1b9d:	f560a0        	extui	a6, a10, 16, 16
    1ba0:	0b0c           	movi.n	a11, 0
    1ba2:	9a3d           	ae_zext16	a3, a10
    1ba4:	11f480        	slli	a15, a4, 8
    1ba7:	11a380        	slli	a10, a3, 8
    1baa:	0cf4f6        	bgeui	a4, 0x100, 1bba <processAriEncoder_fx+0x302>
    1bad:	0f4d           	mov.n	a4, a15
    1baf:	c13a97        	bltu	a10, a9, 1b74 <processAriEncoder_fx+0x2bc>
    1bb2:	be1b26        	beqi	a11, 1, 1b74 <processAriEncoder_fx+0x2bc>
    1bb5:	771b           	addi.n	a7, a7, 1
    1bb7:	fff9c6        	j	1ba2 <processAriEncoder_fx+0x2ea>

00001bba <processAriEncoder_fx+0x302>:
    1bba:	5d4d           	ae_l16ui.n	a4, a13, 2
    1bbc:	d138           	l32i.n	a3, a1, 52
    1bbe:	102152        	l32i	a5, a1, 64
    1bc1:	413f30        	srli	a3, a3, 15
    1bc4:	d139           	s32i.n	a3, a1, 52
    1bc6:	843d           	ae_sext16	a3, a4
    1bc8:	415f50        	srli	a5, a5, 15
    1bcb:	0213e6        	bgei	a3, 1, 1bd1 <processAriEncoder_fx+0x319>
    1bce:	ff8446        	j	19e3 <processAriEncoder_fx+0x12b>
    1bd1:	106152        	s32i	a5, a1, 64
    1bd4:	c158           	l32i.n	a5, a1, 48
    1bd6:	b148           	l32i.n	a4, a1, 44
    1bd8:	1221d2        	l32i	a13, a1, 72
    1bdb:	043050        	extui	a3, a5, 0, 1
    1bde:	044040        	extui	a4, a4, 0, 1
    1be1:	6d3d           	ae_s16i.n	a3, a13, 0
    1be3:	0d3d           	mov.n	a3, a13
    1be5:	081566        	bnei	a5, 1, 1bf1 <processAriEncoder_fx+0x339>
    1be8:	d158           	l32i.n	a5, a1, 52
    1bea:	d34b           	addi.n	a13, a3, 4
    1bec:	735d           	ae_s16i.n	a5, a3, 2
    1bee:	000046        	j	1bf3 <processAriEncoder_fx+0x33b>

00001bf1 <processAriEncoder_fx+0x339>:
    1bf1:	d32b           	addi.n	a13, a3, 2
    1bf3:	9138           	l32i.n	a3, a1, 36
    1bf5:	6d4d           	ae_s16i.n	a4, a13, 0
    1bf7:	b148           	l32i.n	a4, a1, 44
    1bf9:	102152        	l32i	a5, a1, 64
    1bfc:	213130        	srai	a3, a3, 1
    1bff:	c139           	s32i.n	a3, a1, 48
    1c01:	021426        	beqi	a4, 1, 1c07 <processAriEncoder_fx+0x34f>
    1c04:	ff7346        	j	19d5 <processAriEncoder_fx+0x11d>
    1c07:	3d4b           	addi.n	a3, a13, 4
    1c09:	7d5d           	ae_s16i.n	a5, a13, 2
    1c0b:	0d0c           	movi.n	a13, 0
    1c0d:	126132        	s32i	a3, a1, 72
    1c10:	b1d9           	s32i.n	a13, a1, 44
    1c12:	ff72c6        	j	19e1 <processAriEncoder_fx+0x129>

00001c15 <processAriEncoder_fx+0x35d>:
    1c15:	f168           	l32i.n	a6, a1, 60
    1c17:	030c           	movi.n	a3, 0
    1c19:	9139           	s32i.n	a3, a1, 36
    1c1b:	0224e6        	bgei	a4, 2, 1c21 <processAriEncoder_fx+0x369>
    1c1e:	008b06        	j	1e4e <processAriEncoder_fx+0x596>
    1c21:	1361f2        	s32i	a15, a1, 76
    1c24:	6148           	l32i.n	a4, a1, 24
    1c26:	5158           	l32i.n	a5, a1, 20
    1c28:	0f1192        	l16ui	a9, a1, 30
    1c2b:	1011f2        	l16ui	a15, a1, 32
    1c2e:	0e1132        	l16ui	a3, a1, 28
    1c31:	081172        	l16ui	a7, a1, 16
    1c34:	ffa0e2        	movi	a14, 255
    1c37:	0b0c           	movi.n	a11, 0
    1c39:	11ee00        	slli	a14, a14, 16
    1c3c:	d1b9           	s32i.n	a11, a1, 52
    1c3e:	f918b1        	l32r	a11, a0 (b8e0 <ari_spec_lookup>)
    1c41:	46cd           	ae_l16ui.n	a12, a6, 0
    1c43:	568d           	ae_l16ui.n	a8, a6, 2
    1c45:	0ba8           	l32i.n	a10, a11, 0
    1c47:	2dbd           	ae_l16si.n	a11, a13, 0
    1c49:	f169           	s32i.n	a6, a1, 60
    1c4b:	3d6d           	ae_l16si.n	a6, a13, 2
    1c4d:	1561c2        	s32i	a12, a1, 84
    1c50:	8ccd           	ae_sext16	a12, a12
    1c52:	aaba           	add.n	a10, a10, a11
    1c54:	106182        	s32i	a8, a1, 64
    1c57:	888d           	ae_sext16	a8, a8
    1c59:	91d9           	s32i.n	a13, a1, 36
    1c5b:	e1c9           	s32i.n	a12, a1, 56
    1c5d:	a1a9           	s32i.n	a10, a1, 40
    1c5f:	c189           	s32i.n	a8, a1, 48
    1c61:	0216e6        	bgei	a6, 1, 1c67 <processAriEncoder_fx+0x3af>
    1c64:	003246        	j	1d31 <processAriEncoder_fx+0x479>
    1c67:	e188           	l32i.n	a8, a1, 56
    1c69:	c168           	l32i.n	a6, a1, 48
    1c6b:	0b0c           	movi.n	a11, 0
    1c6d:	60c180        	abs	a12, a8
    1c70:	606160        	abs	a6, a6
    1c73:	8c8d           	ae_sext16	a8, a12
    1c75:	86dd           	ae_sext16	a13, a6
    1c77:	b189           	s32i.n	a8, a1, 44
    1c79:	360c           	movi.n	a6, 3
    1c7b:	a188           	l32i.n	a8, a1, 40
    1c7d:	636b60        	minu	a6, a11, a6
    1c80:	116660        	slli	a6, a6, 10
    1c83:	686a           	add.n	a6, a8, a6
    1c85:	000662        	l8ui	a6, a6, 0
    1c88:	f907a1        	l32r	a10, a4 (b8e4 <ari_spec_cumfreq>)
    1c8b:	f907c1        	l32r	a12, a8 (b8e8 <ari_spec_freq>)
    1c8e:	236600        	sext	a6, a6, 7
    1c91:	0a88           	l32i.n	a8, a10, 0
    1c93:	11a6b0        	slli	a10, a6, 5
    1c96:	9066a0        	addx2	a6, a6, a10
    1c99:	0ca8           	l32i.n	a10, a12, 0
    1c9b:	886a           	add.n	a8, a8, a6
    1c9d:	101882        	l16ui	a8, a8, 32
    1ca0:	6a6a           	add.n	a6, a10, a6
    1ca2:	414a40        	srli	a4, a4, 10
    1ca5:	101662        	l16ui	a6, a6, 32
    1ca8:	828480        	mull	a8, a4, a8
    1cab:	fa7c           	movi.n	a10, -1
    1cad:	585a           	add.n	a5, a8, a5
    1caf:	824460        	mull	a4, a4, a6
    1cb2:	756850        	extui	a6, a5, 24, 8
    1cb5:	4188a0        	srli	a8, a10, 8
    1cb8:	1c0c           	movi.n	a12, 1
    1cba:	105580        	and	a5, a5, a8
    1cbd:	939c60        	movnez	a9, a12, a6
    1cc0:	6014b6        	bltui	a4, 0x10000, 1d24 <processAriEncoder_fx+0x46c>
    1cc3:	f964c1        	l32r	a12, 254 (bae0 <g_p_enc_stream>)
    1cc6:	b168           	l32i.n	a6, a1, 44
    1cc8:	400b00        	ssr	a11
    1ccb:	0c88           	l32i.n	a8, a12, 0
    1ccd:	b16060        	sra	a6, a6
    1cd0:	b1a0d0        	sra	a10, a13
    1cd3:	111864        	ae_sbi	a8, a6, 1
    1cd6:	0c89           	s32i.n	a8, a12, 0
    1cd8:	bb1b           	addi.n	a11, a11, 1
    1cda:	1118a4        	ae_sbi	a8, a10, 1
    1cdd:	91a8           	l32i.n	a10, a1, 36
    1cdf:	0c89           	s32i.n	a8, a12, 0
    1ce1:	5a6d           	ae_l16ui.n	a6, a10, 2
    1ce3:	86ad           	ae_sext16	a10, a6
    1ce5:	902ba7        	blt	a11, a10, 1c79 <processAriEncoder_fx+0x3c1>
    1ce8:	001146        	j	1d31 <processAriEncoder_fx+0x479>

00001ceb <processAriEncoder_fx+0x433>:
    1ceb:	834d           	ae_sext16	a4, a3
    1ced:	00c496        	bltz	a4, 1cfd <processAriEncoder_fx+0x445>
    1cf0:	87cd           	ae_sext16	a12, a7
    1cf2:	471b           	addi.n	a4, a7, 1
    1cf4:	393a           	add.n	a3, a9, a3
    1cf6:	82ca           	add.n	a8, a2, a12
    1cf8:	047d           	mov.n	a7, a4
    1cfa:	004832        	s8i	a3, a8, 0
    1cfd:	8f3d           	ae_sext16	a3, a15
    1cff:	1113a6        	blti	a3, 1, 1d14 <processAriEncoder_fx+0x45c>
    1d02:	9f4d           	ae_zext16	a4, a15
    1d04:	390b           	addi.n	a3, a9, -1
    1d06:	088476        	loop	a4, 1d12 <processAriEncoder_fx+0x45a>
    1d09:	874d           	ae_sext16	a4, a7
    1d0b:	424a           	add.n	a4, a2, a4
    1d0d:	771b           	addi.n	a7, a7, 1
    1d0f:	004432        	s8i	a3, a4, 0

00001d12 <processAriEncoder_fx+0x45a>:
    1d12:	0f0c           	movi.n	a15, 0

00001d14 <processAriEncoder_fx+0x45c>:
    1d14:	f53050        	extui	a3, a5, 16, 16
    1d17:	090c           	movi.n	a9, 0
    1d19:	955d           	ae_zext16	a5, a5
    1d1b:	114680        	slli	a4, a6, 8
    1d1e:	115580        	slli	a5, a5, 8
    1d21:	9ef6f6        	bgeui	a6, 0x100, 1cc3 <processAriEncoder_fx+0x40b>
    1d24:	046d           	mov.n	a6, a4
    1d26:	c135e7        	bltu	a5, a14, 1ceb <processAriEncoder_fx+0x433>
    1d29:	be1926        	beqi	a9, 1, 1ceb <processAriEncoder_fx+0x433>
    1d2c:	ff1b           	addi.n	a15, a15, 1
    1d2e:	fff9c6        	j	1d19 <processAriEncoder_fx+0x461>

00001d31 <processAriEncoder_fx+0x479>:
    1d31:	866d           	ae_sext16	a6, a6
    1d33:	380c           	movi.n	a8, 3
    1d35:	a1a8           	l32i.n	a10, a1, 40
    1d37:	436680        	min	a6, a6, a8
    1d3a:	116660        	slli	a6, a6, 10
    1d3d:	6a6a           	add.n	a6, a10, a6
    1d3f:	000662        	l8ui	a6, a6, 0
    1d42:	f8d8b1        	l32r	a11, a4 (b8e4 <ari_spec_cumfreq>)
    1d45:	91d8           	l32i.n	a13, a1, 36
    1d47:	f8d8a1        	l32r	a10, a8 (b8e8 <ari_spec_freq>)
    1d4a:	0b88           	l32i.n	a8, a11, 0
    1d4c:	236600        	sext	a6, a6, 7
    1d4f:	11b6b0        	slli	a11, a6, 5
    1d52:	029dc2        	l16si	a12, a13, 4
    1d55:	9066b0        	addx2	a6, a6, a11
    1d58:	0aa8           	l32i.n	a10, a10, 0
    1d5a:	886a           	add.n	a8, a8, a6
    1d5c:	908c80        	addx2	a8, a12, a8
    1d5f:	6a6a           	add.n	a6, a10, a6
    1d61:	488d           	ae_l16ui.n	a8, a8, 0
    1d63:	906c60        	addx2	a6, a12, a6
    1d66:	414a40        	srli	a4, a4, 10
    1d69:	466d           	ae_l16ui.n	a6, a6, 0
    1d6b:	828480        	mull	a8, a4, a8
    1d6e:	fb7c           	movi.n	a11, -1
    1d70:	585a           	add.n	a5, a8, a5
    1d72:	4188b0        	srli	a8, a11, 8
    1d75:	824460        	mull	a4, a4, a6
    1d78:	d1b8           	l32i.n	a11, a1, 52
    1d7a:	75a850        	extui	a10, a5, 24, 8
    1d7d:	1c0c           	movi.n	a12, 1
    1d7f:	105580        	and	a5, a5, a8
    1d82:	939ca0        	movnez	a9, a12, a10
    1d85:	7414b6        	bltui	a4, 0x10000, 1dfd <processAriEncoder_fx+0x545>
    1d88:	e168           	l32i.n	a6, a1, 56
    1d8a:	f932a1        	l32r	a10, 254 (bae0 <g_p_enc_stream>)
    1d8d:	152182        	l32i	a8, a1, 84
    1d90:	868c           	beqz.n	a6, 1d9c <processAriEncoder_fx+0x4e4>
    1d92:	0a68           	l32i.n	a6, a10, 0
    1d94:	418f80        	srli	a8, a8, 15
    1d97:	111684        	ae_sbi	a6, a8, 1
    1d9a:	0a69           	s32i.n	a6, a10, 0
    1d9c:	c168           	l32i.n	a6, a1, 48
    1d9e:	f92da1        	l32r	a10, 254 (bae0 <g_p_enc_stream>)
    1da1:	102182        	l32i	a8, a1, 64
    1da4:	868c           	beqz.n	a6, 1db0 <processAriEncoder_fx+0x4f8>
    1da6:	0a68           	l32i.n	a6, a10, 0
    1da8:	418f80        	srli	a8, a8, 15
    1dab:	111684        	ae_sbi	a6, a8, 1
    1dae:	0a69           	s32i.n	a6, a10, 0
    1db0:	f168           	l32i.n	a6, a1, 60
    1db2:	172182        	l32i	a8, a1, 92
    1db5:	bb1b           	addi.n	a11, a11, 1
    1db7:	dd6b           	addi.n	a13, a13, 6
    1db9:	664b           	addi.n	a6, a6, 4
    1dbb:	02ab87        	bge	a11, a8, 1dc1 <processAriEncoder_fx+0x509>
    1dbe:	ff9e86        	j	1c3c <processAriEncoder_fx+0x384>
    1dc1:	001b06        	j	1e31 <processAriEncoder_fx+0x579>

00001dc4 <processAriEncoder_fx+0x50c>:
    1dc4:	834d           	ae_sext16	a4, a3
    1dc6:	00c496        	bltz	a4, 1dd6 <processAriEncoder_fx+0x51e>
    1dc9:	87cd           	ae_sext16	a12, a7
    1dcb:	471b           	addi.n	a4, a7, 1
    1dcd:	393a           	add.n	a3, a9, a3
    1dcf:	82ca           	add.n	a8, a2, a12
    1dd1:	047d           	mov.n	a7, a4
    1dd3:	004832        	s8i	a3, a8, 0
    1dd6:	8f3d           	ae_sext16	a3, a15
    1dd8:	1113a6        	blti	a3, 1, 1ded <processAriEncoder_fx+0x535>
    1ddb:	9f4d           	ae_zext16	a4, a15
    1ddd:	390b           	addi.n	a3, a9, -1
    1ddf:	088476        	loop	a4, 1deb <processAriEncoder_fx+0x533>
    1de2:	874d           	ae_sext16	a4, a7
    1de4:	424a           	add.n	a4, a2, a4
    1de6:	771b           	addi.n	a7, a7, 1
    1de8:	004432        	s8i	a3, a4, 0

00001deb <processAriEncoder_fx+0x533>:
    1deb:	0f0c           	movi.n	a15, 0

00001ded <processAriEncoder_fx+0x535>:
    1ded:	f53050        	extui	a3, a5, 16, 16
    1df0:	090c           	movi.n	a9, 0
    1df2:	955d           	ae_zext16	a5, a5
    1df4:	114680        	slli	a4, a6, 8
    1df7:	115580        	slli	a5, a5, 8
    1dfa:	8af6f6        	bgeui	a6, 0x100, 1d88 <processAriEncoder_fx+0x4d0>
    1dfd:	046d           	mov.n	a6, a4
    1dff:	c135e7        	bltu	a5, a14, 1dc4 <processAriEncoder_fx+0x50c>
    1e02:	be1926        	beqi	a9, 1, 1dc4 <processAriEncoder_fx+0x50c>
    1e05:	ff1b           	addi.n	a15, a15, 1
    1e07:	fff9c6        	j	1df2 <processAriEncoder_fx+0x53a>

00001e0a <processAriEncoder_fx+0x552>:
    1e0a:	61f9           	s32i.n	a15, a1, 24
    1e0c:	f91291        	l32r	a9, 254 (bae0 <g_p_enc_stream>)
    1e0f:	112152        	l32i	a5, a1, 68
    1e12:	1321f2        	l32i	a15, a1, 76
    1e15:	122132        	l32i	a3, a1, 72
    1e18:	51a9           	s32i.n	a10, a1, 20
    1e1a:	0f51b2        	s16i	a11, a1, 30
    1e1d:	105172        	s16i	a7, a1, 32
    1e20:	0e5162        	s16i	a6, a1, 28
    1e23:	0851c2        	s16i	a12, a1, 16
    1e26:	c033f0        	sub	a3, a3, a15
    1e29:	413130        	srli	a3, a3, 1
    1e2c:	9139           	s32i.n	a3, a1, 36
    1e2e:	000706        	j	1e4e <processAriEncoder_fx+0x596>

00001e31 <processAriEncoder_fx+0x579>:
    1e31:	1051f2        	s16i	a15, a1, 32
    1e34:	0f0c           	movi.n	a15, 0
    1e36:	5159           	s32i.n	a5, a1, 20
    1e38:	0f5192        	s16i	a9, a1, 30
    1e3b:	91f9           	s32i.n	a15, a1, 36
    1e3d:	f90591        	l32r	a9, 254 (bae0 <g_p_enc_stream>)
    1e40:	112152        	l32i	a5, a1, 68
    1e43:	1321f2        	l32i	a15, a1, 76
    1e46:	6149           	s32i.n	a4, a1, 24
    1e48:	0e5132        	s16i	a3, a1, 28
    1e4b:	085172        	s16i	a7, a1, 16
    1e4e:	f90261        	l32r	a6, 258 (badc <g_p_enc_based>)
    1e51:	0e9172        	l16si	a7, a1, 28
    1e54:	1091a2        	l16si	a10, a1, 32
    1e57:	61b8           	l32i.n	a11, a1, 24
    1e59:	640c           	movi.n	a4, 6
    1e5b:	e87c           	movi.n	a8, -2
    1e5d:	a38470        	movltz	a8, a4, a7
    1e60:	0938           	l32i.n	a3, a9, 0
    1e62:	06c8           	l32i.n	a12, a6, 0
    1e64:	114ad0        	slli	a4, a10, 3
    1e67:	0e0c           	movi.n	a14, 0
    1e69:	606040        	neg	a6, a4
    1e6c:	0d0c           	movi.n	a13, 0
    1e6e:	142142        	l32i	a4, a1, 80
    1e71:	a1e9           	s32i.n	a14, a1, 40
    1e73:	72eda0        	salt	a14, a13, a10
    1e76:	40fbd0        	nsau	a13, a11
    1e79:	c0c3c0        	sub	a12, a3, a12
    1e7c:	83dbb0        	moveqz	a13, a11, a11
    1e7f:	c034d0        	sub	a3, a4, a13
    1e82:	93e6e0        	movnez	a14, a6, a14
    1e85:	0042c4        	rur.ae_bitptr	a4
    1e88:	6c2b           	addi.n	a6, a12, 2
    1e8a:	338a           	add.n	a3, a3, a8
    1e8c:	118610        	slli	a8, a6, 15
    1e8f:	418c80        	srli	a8, a8, 12
    1e92:	e3ea           	add.n	a14, a3, a14
    1e94:	081132        	l16ui	a3, a1, 16
    1e97:	884a           	add.n	a8, a8, a4
    1e99:	b189           	s32i.n	a8, a1, 44
    1e9b:	c08e80        	sub	a8, a14, a8
    1e9e:	1621e2        	l32i	a14, a1, 88
    1ea1:	11c3d0        	slli	a12, a3, 3
    1ea4:	c048c0        	sub	a4, a8, a12
    1ea7:	844d           	ae_sext16	a4, a4
    1ea9:	158e16        	beqz	a14, 2005 <processAriEncoder_fx+0x74d>
    1eac:	9158           	l32i.n	a5, a1, 36
    1eae:	0968           	l32i.n	a6, a9, 0
    1eb0:	080c           	movi.n	a8, 0
    1eb2:	855d           	ae_sext16	a5, a5
    1eb4:	434540        	min	a4, a5, a4
    1eb7:	9149           	s32i.n	a4, a1, 36
    1eb9:	114400        	slli	a4, a4, 16
    1ebc:	1114a6        	blti	a4, 1, 1ed1 <processAriEncoder_fx+0x619>
    1ebf:	91e8           	l32i.n	a14, a1, 36
    1ec1:	a189           	s32i.n	a8, a1, 40
    1ec3:	064d           	mov.n	a4, a6
    1ec5:	088e76        	loop	a14, 1ed1 <processAriEncoder_fx+0x619>
    1ec8:	4fcd           	ae_l16ui.n	a12, a15, 0
    1eca:	ff2b           	addi.n	a15, a15, 2
    1ecc:	1114c4        	ae_sbi	a4, a12, 1
    1ecf:	0949           	s32i.n	a4, a9, 0

00001ed1 <processAriEncoder_fx+0x619>:
    1ed1:	f67c           	movi.n	a6, -1
    1ed3:	f9cdc2        	addi	a12, a13, -7
    1ed6:	5148           	l32i.n	a4, a1, 20
    1ed8:	400c00        	ssr	a12
    1edb:	416860        	srli	a6, a6, 8
    1ede:	190c           	movi.n	a9, 1
    1ee0:	91e060        	srl	a14, a6
    1ee3:	84ea           	add.n	a8, a4, a14
    1ee5:	f4ba           	add.n	a15, a4, a11
    1ee7:	019980        	slli	a9, a9, 24
    1eea:	30be60        	xor	a11, a14, a6
    1eed:	625680        	saltu	a5, a6, a8
    1ef0:	629f90        	saltu	a9, a15, a9
    1ef3:	10bb80        	and	a11, a11, a8
    1ef6:	1d1957        	beq	a9, a5, 1f17 <processAriEncoder_fx+0x65f>
    1ef9:	105f60        	and	a5, a15, a6
    1efc:	8bea           	add.n	a8, a11, a14
    1efe:	0d3857        	bltu	a8, a5, 1f0f <processAriEncoder_fx+0x657>
    1f01:	4151e0        	srli	a5, a14, 1
    1f04:	845a           	add.n	a8, a4, a5
    1f06:	305560        	xor	a5, a5, a6
    1f09:	facdc2        	addi	a12, a13, -6
    1f0c:	10b850        	and	a11, a8, a5

00001f0f <processAriEncoder_fx+0x657>:
    1f0f:	04bb47        	bgeu	a11, a4, 1f17 <processAriEncoder_fx+0x65f>
    1f12:	140c           	movi.n	a4, 1
    1f14:	0f5142        	s16i	a4, a1, 30
    1f17:	f8cf91        	l32r	a9, 254 (bae0 <g_p_enc_stream>)
    1f1a:	8c4d           	ae_sext16	a4, a12
    1f1c:	51b9           	s32i.n	a11, a1, 20
    1f1e:	6d14a6        	blti	a4, 1, 1f8f <processAriEncoder_fx+0x6d7>
    1f21:	0f1142        	l16ui	a4, a1, 30
    1f24:	ffa0f2        	movi	a15, 255
    1f27:	9ced           	ae_zext16	a14, a12
    1f29:	dc0b           	addi.n	a13, a12, -1
    1f2b:	11ff00        	slli	a15, a15, 16
    1f2e:	000e46        	j	1f6b <processAriEncoder_fx+0x6b3>

00001f31 <processAriEncoder_fx+0x679>:
	...

00001f32 <processAriEncoder_fx+0x67a>:
    1f32:	875d           	ae_sext16	a5, a7
    1f34:	00c596        	bltz	a5, 1f44 <processAriEncoder_fx+0x68c>
    1f37:	838d           	ae_sext16	a8, a3
    1f39:	631b           	addi.n	a6, a3, 1
    1f3b:	547a           	add.n	a5, a4, a7
    1f3d:	828a           	add.n	a8, a2, a8
    1f3f:	063d           	mov.n	a3, a6
    1f41:	004852        	s8i	a5, a8, 0
    1f44:	8a5d           	ae_sext16	a5, a10
    1f46:	1115a6        	blti	a5, 1, 1f5b <processAriEncoder_fx+0x6a3>
    1f49:	9a5d           	ae_zext16	a5, a10
    1f4b:	440b           	addi.n	a4, a4, -1
    1f4d:	088576        	loop	a5, 1f59 <processAriEncoder_fx+0x6a1>
    1f50:	835d           	ae_sext16	a5, a3
    1f52:	525a           	add.n	a5, a2, a5
    1f54:	331b           	addi.n	a3, a3, 1
    1f56:	004542        	s8i	a4, a5, 0

00001f59 <processAriEncoder_fx+0x6a1>:
    1f59:	0a0c           	movi.n	a10, 0

00001f5b <processAriEncoder_fx+0x6a3>:
    1f5b:	f570b0        	extui	a7, a11, 16, 16
    1f5e:	040c           	movi.n	a4, 0
    1f60:	9b5d           	ae_zext16	a5, a11
    1f62:	f8cee2        	addi	a14, a14, -8
    1f65:	11b580        	slli	a11, a5, 8
    1f68:	0a1ea6        	blti	a14, 1, 1f76 <processAriEncoder_fx+0x6be>
    1f6b:	c33bf7        	bltu	a11, a15, 1f32 <processAriEncoder_fx+0x67a>
    1f6e:	c01426        	beqi	a4, 1, 1f32 <processAriEncoder_fx+0x67a>
    1f71:	aa1b           	addi.n	a10, a10, 1
    1f73:	fffa46        	j	1f60 <processAriEncoder_fx+0x6a8>

00001f76 <processAriEncoder_fx+0x6be>:
    1f76:	857c           	movi.n	a5, -8
    1f78:	10fd50        	and	a15, a13, a5
    1f7b:	0f5142        	s16i	a4, a1, 30
    1f7e:	c04cf0        	sub	a4, a12, a15
    1f81:	f8c4c2        	addi	a12, a4, -8
    1f84:	1051a2        	s16i	a10, a1, 32
    1f87:	0e5172        	s16i	a7, a1, 28
    1f8a:	085132        	s16i	a3, a1, 16
    1f8d:	51b9           	s32i.n	a11, a1, 20
    1f8f:	8a4d           	ae_sext16	a4, a10
    1f91:	bc8b           	addi.n	a11, a12, 8
    1f93:	0214e6        	bgei	a4, 1, 1f99 <processAriEncoder_fx+0x6e1>
    1f96:	002786        	j	2038 <processAriEncoder_fx+0x780>
    1f99:	834d           	ae_sext16	a4, a3
    1f9b:	d31b           	addi.n	a13, a3, 1
    1f9d:	424a           	add.n	a4, a2, a4
    1f9f:	9a3d           	ae_zext16	a3, a10
    1fa1:	004472        	s8i	a7, a4, 0
    1fa4:	8d4d           	ae_sext16	a4, a13
    1fa6:	0851d2        	s16i	a13, a1, 16
    1fa9:	1e1326        	beqi	a3, 1, 1fcb <processAriEncoder_fx+0x713>
    1fac:	530b           	addi.n	a5, a3, -1
    1fae:	ffa072        	movi	a7, 255
    1fb1:	ad1b           	addi.n	a10, a13, 1
    1fb3:	0c8576        	loop	a5, 1fc3 <processAriEncoder_fx+0x70b>
    1fb6:	424a           	add.n	a4, a2, a4
    1fb8:	004472        	s8i	a7, a4, 0
    1fbb:	330b           	addi.n	a3, a3, -1
    1fbd:	0add           	mov.n	a13, a10
    1fbf:	8a4d           	ae_sext16	a4, a10
    1fc1:	aa1b           	addi.n	a10, a10, 1

00001fc3 <processAriEncoder_fx+0x70b>:
    1fc3:	5a0b           	addi.n	a5, a10, -1
    1fc5:	105132        	s16i	a3, a1, 32
    1fc8:	085152        	s16i	a5, a1, 16

00001fcb <processAriEncoder_fx+0x713>:
    1fcb:	324a           	add.n	a3, a2, a4
    1fcd:	000342        	l8ui	a4, a3, 0
    1fd0:	6070c0        	neg	a7, a12
    1fd3:	8c5d           	ae_sext16	a5, a12
    1fd5:	987c           	movi.n	a8, -7
    1fd7:	400700        	ssr	a7
    1fda:	202587        	blt	a5, a8, 1ffe <processAriEncoder_fx+0x746>
    1fdd:	ffa052        	movi	a5, 255
    1fe0:	8b8d           	ae_sext16	a8, a11
    1fe2:	80a0a2        	movi	a10, 128
    1fe5:	070c           	movi.n	a7, 0
    1fe7:	91c050        	srl	a12, a5
    1fea:	108876        	loop	a8, 1ffe <processAriEncoder_fx+0x746>
    1fed:	105ac0        	and	a5, a10, a12
    1ff0:	204a40        	or	a4, a10, a4
    1ff3:	4181a0        	srli	a8, a10, 1
    1ff6:	93a750        	movnez	a10, a7, a5
    1ff9:	c044a0        	sub	a4, a4, a10
    1ffc:	08ad           	mov.n	a10, a8

00001ffe <processAriEncoder_fx+0x746>:
    1ffe:	004342        	s8i	a4, a3, 0
    2001:	001906        	j	2069 <processAriEncoder_fx+0x7b1>

00002004 <processAriEncoder_fx+0x74c>:
	...

00002005 <processAriEncoder_fx+0x74d>:
    2005:	252162        	l32i	a6, a1, 148
    2008:	09c8           	l32i.n	a12, a9, 0
    200a:	0e0c           	movi.n	a14, 0
    200c:	434640        	min	a4, a6, a4
    200f:	a149           	s32i.n	a4, a1, 40
    2011:	114400        	slli	a4, a4, 16
    2014:	0214e6        	bgei	a4, 1, 201a <processAriEncoder_fx+0x762>
    2017:	ffad86        	j	1ed1 <processAriEncoder_fx+0x619>
    201a:	a158           	l32i.n	a5, a1, 40
    201c:	242142        	l32i	a4, a1, 144
    201f:	85fd           	ae_sext16	a15, a5
    2021:	0e8f76        	loop	a15, 2033 <processAriEncoder_fx+0x77b>
    2024:	f4ea           	add.n	a15, a4, a14
    2026:	000ff2        	l8ui	a15, a15, 0
    2029:	ee1b           	addi.n	a14, a14, 1
    202b:	23ff00        	sext	a15, a15, 7
    202e:	111cf4        	ae_sbi	a12, a15, 1
    2031:	09c9           	s32i.n	a12, a9, 0

00002033 <processAriEncoder_fx+0x77b>:
    2033:	ffa686        	j	1ed1 <processAriEncoder_fx+0x619>

00002036 <processAriEncoder_fx+0x77e>:
	...

00002038 <processAriEncoder_fx+0x780>:
    2038:	834d           	ae_sext16	a4, a3
    203a:	424a           	add.n	a4, a2, a4
    203c:	0004a2        	l8ui	a10, a4, 0
    203f:	8c5d           	ae_sext16	a5, a12
    2041:	987c           	movi.n	a8, -7
    2043:	1d2587        	blt	a5, a8, 2064 <processAriEncoder_fx+0x7ac>
    2046:	8b5d           	ae_sext16	a5, a11
    2048:	80a0d2        	movi	a13, 128
    204b:	0c0c           	movi.n	a12, 0
    204d:	108576        	loop	a5, 2061 <processAriEncoder_fx+0x7a9>
    2050:	105d70        	and	a5, a13, a7
    2053:	208da0        	or	a8, a13, a10
    2056:	4191d0        	srli	a9, a13, 1
    2059:	93dc50        	movnez	a13, a12, a5
    205c:	c0a8d0        	sub	a10, a8, a13
    205f:	09dd           	mov.n	a13, a9

00002061 <processAriEncoder_fx+0x7a9>:
    2061:	f87c91        	l32r	a9, 254 (bae0 <g_p_enc_stream>)

00002064 <processAriEncoder_fx+0x7ac>:
    2064:	03dd           	mov.n	a13, a3
    2066:	0044a2        	s8i	a10, a4, 0
    2069:	f87b41        	l32r	a4, 258 (badc <g_p_enc_based>)
    206c:	142132        	l32i	a3, a1, 80
    206f:	0958           	l32i.n	a5, a9, 0
    2071:	0448           	l32i.n	a4, a4, 0
    2073:	330b           	addi.n	a3, a3, -1
    2075:	833d           	ae_sext16	a3, a3
    2077:	213330        	srai	a3, a3, 3
    207a:	c0f540        	sub	a15, a5, a4
    207d:	223a           	add.n	a2, a2, a3
    207f:	3f2b           	addi.n	a3, a15, 2
    2081:	117310        	slli	a7, a3, 15
    2084:	f83a31        	l32r	a3, 16c (ba2c <BitReverseTable256>)
    2087:	1617a6        	blti	a7, 1, 20a1 <processAriEncoder_fx+0x7e9>
    208a:	215f70        	srai	a5, a7, 15
    208d:	108576        	loop	a5, 20a1 <processAriEncoder_fx+0x7e9>
    2090:	000472        	l8ui	a7, a4, 0
    2093:	0358           	l32i.n	a5, a3, 0
    2095:	441b           	addi.n	a4, a4, 1
    2097:	557a           	add.n	a5, a5, a7
    2099:	000552        	l8ui	a5, a5, 0
    209c:	004252        	s8i	a5, a2, 0
    209f:	220b           	addi.n	a2, a2, -1

000020a1 <processAriEncoder_fx+0x7e9>:
    20a1:	0072c4        	rur.ae_bitptr	a7
    20a4:	0358           	l32i.n	a5, a3, 0
    20a6:	e34f10        	rur.ae_bithead	a4
    20a9:	37ac           	beqz.n	a7, 20d0 <processAriEncoder_fx+0x818>
    20ab:	758840        	extui	a8, a4, 24, 8
    20ae:	558a           	add.n	a5, a5, a8
    20b0:	000592        	l8ui	a9, a5, 0
    20b3:	9f0c           	movi.n	a15, 9
    20b5:	0e37f7        	bltu	a7, a15, 20c7 <processAriEncoder_fx+0x80f>
    20b8:	004292        	s8i	a9, a2, 0
    20bb:	0338           	l32i.n	a3, a3, 0
    20bd:	754040        	extui	a4, a4, 16, 8
    20c0:	220b           	addi.n	a2, a2, -1
    20c2:	334a           	add.n	a3, a3, a4
    20c4:	000392        	l8ui	a9, a3, 0

000020c7 <processAriEncoder_fx+0x80f>:
    20c7:	000232        	l8ui	a3, a2, 0
    20ca:	203390        	or	a3, a3, a9
    20cd:	004232        	s8i	a3, a2, 0
    20d0:	b128           	l32i.n	a2, a1, 44
    20d2:	142132        	l32i	a3, a1, 80
    20d5:	a148           	l32i.n	a4, a1, 40
    20d7:	91f8           	l32i.n	a15, a1, 36
    20d9:	22ba           	add.n	a2, a2, a11
    20db:	c03340        	sub	a3, a3, a4
    20de:	b02d20        	addx8	a2, a13, a2
    20e1:	c033f0        	sub	a3, a3, a15
    20e4:	c02320        	sub	a2, a3, a2
    20e7:	822d           	ae_sext16	a2, a2
    20e9:	f01d           	retw.n

000020eb <processAriEncoder_fx+0x833>:
	...

000020ec <ac_encode_fx>:
    20ec:	004136        	entry	a1, 32
    20ef:	1478           	l32i.n	a7, a4, 4
    20f1:	0498           	l32i.n	a9, a4, 0
    20f3:	1f0c           	movi.n	a15, 1
    20f5:	418a70        	srli	a8, a7, 10
    20f8:	825850        	mull	a5, a8, a5
    20fb:	fa7c           	movi.n	a10, -1
    20fd:	759a           	add.n	a7, a5, a9
    20ff:	015f80        	slli	a5, a15, 24
    2102:	0479           	s32i.n	a7, a4, 0
    2104:	0c3757        	bltu	a7, a5, 2114 <ac_encode_fx+0x28>
    2107:	4198a0        	srli	a9, a10, 8
    210a:	107790        	and	a7, a7, a9
    210d:	150c           	movi.n	a5, 1
    210f:	055452        	s16i	a5, a4, 10
    2112:	0479           	s32i.n	a7, a4, 0

00002114 <ac_encode_fx+0x28>:
    2114:	828860        	mull	a8, a8, a6
    2117:	1489           	s32i.n	a8, a4, 4
    2119:	7318f6        	bgeui	a8, 0x10000, 2190 <ac_encode_fx+0xa4>
    211c:	ffa052        	movi	a5, 255
    211f:	115500        	slli	a5, a5, 16
    2122:	060c           	movi.n	a6, 0
    2124:	000386        	j	2136 <ac_encode_fx+0x4a>

00002127 <ac_encode_fx+0x3b>:
    2127:	9a1b           	addi.n	a9, a10, 1
    2129:	065492        	s16i	a9, a4, 12
    212c:	977d           	ae_zext16	a7, a7
    212e:	117780        	slli	a7, a7, 8
    2131:	0479           	s32i.n	a7, a4, 0
    2133:	5918f6        	bgeui	a8, 0x10000, 2190 <ac_encode_fx+0xa4>
    2136:	118880        	slli	a8, a8, 8
    2139:	1489           	s32i.n	a8, a4, 4
    213b:	083757        	bltu	a7, a5, 2147 <ac_encode_fx+0x5b>
    213e:	051492        	l16ui	a9, a4, 10
    2141:	0694a2        	l16si	a10, a4, 12
    2144:	df1966        	bnei	a9, 1, 2127 <ac_encode_fx+0x3b>
    2147:	049472        	l16si	a7, a4, 8
    214a:	0a0482        	l8ui	a8, a4, 10
    214d:	00c796        	bltz	a7, 215d <ac_encode_fx+0x71>
    2150:	239d           	ae_l16si.n	a9, a3, 0
    2152:	787a           	add.n	a7, a8, a7
    2154:	f91b           	addi.n	a15, a9, 1
    2156:	929a           	add.n	a9, a2, a9
    2158:	63fd           	ae_s16i.n	a15, a3, 0
    215a:	004972        	s8i	a7, a9, 0
    215d:	069472        	l16si	a7, a4, 12
    2160:	1c17a6        	blti	a7, 1, 2180 <ac_encode_fx+0x94>
    2163:	0a0472        	l8ui	a7, a4, 10
    2166:	238d           	ae_l16si.n	a8, a3, 0
    2168:	770b           	addi.n	a7, a7, -1
    216a:	981b           	addi.n	a9, a8, 1
    216c:	828a           	add.n	a8, a2, a8
    216e:	639d           	ae_s16i.n	a9, a3, 0
    2170:	004872        	s8i	a7, a8, 0
    2173:	069472        	l16si	a7, a4, 12
    2176:	770b           	addi.n	a7, a7, -1
    2178:	87fd           	ae_sext16	a15, a7
    217a:	065472        	s16i	a7, a4, 12
    217d:	e21fe6        	bgei	a15, 1, 2163 <ac_encode_fx+0x77>
    2180:	0478           	l32i.n	a7, a4, 0
    2182:	055462        	s16i	a6, a4, 10
    2185:	318070        	srai	a8, a7, 16
    2188:	045482        	s16i	a8, a4, 8
    218b:	1488           	l32i.n	a8, a4, 4
    218d:	ffe6c6        	j	212c <ac_encode_fx+0x40>

00002190 <ac_encode_fx+0xa4>:
    2190:	f01d           	retw.n

00002192 <ac_encode_fx+0xa6>:
	...

00002194 <processAriDecoder_fx>:
    2194:	010136        	entry	a1, 128
    2197:	f83281        	l32r	a8, 260 (bad4 <g_p_dec_based>)
    219a:	f830e1        	l32r	a14, 25c (bad8 <g_p_dec_stream>)
    219d:	a04770        	addx4	a4, a7, a7
    21a0:	1144b0        	slli	a4, a4, 5
    21a3:	a44d           	ae_clamps16	a4, a4
    21a5:	0e78           	l32i.n	a7, a14, 0
    21a7:	0888           	l32i.n	a8, a8, 0
    21a9:	00b2c4        	rur.ae_bitptr	a11
    21ac:	c0c540        	sub	a12, a5, a4
    21af:	60afd2        	movi	a13, -160
    21b2:	4cda           	add.n	a4, a12, a13
    21b4:	ec7c           	movi.n	a12, -2
    21b6:	7f0c           	movi.n	a15, 7
    21b8:	21e350        	srai	a14, a5, 3
    21bb:	2169           	s32i.n	a6, a1, 8
    21bd:	6e1b           	addi.n	a6, a14, 1
    21bf:	62bfb0        	saltu	a11, a15, a11
    21c2:	c08780        	sub	a8, a7, a8
    21c5:	f4c0c0        	extui	a12, a12, 0, 16
    21c8:	10d8c0        	and	a13, a8, a12
    21cb:	166162        	s32i	a6, a1, 88
    21ce:	c066b0        	sub	a6, a6, a11
    21d1:	c066d0        	sub	a6, a6, a13
    21d4:	2f21a2        	l32i	a10, a1, 188
    21d7:	2d2192        	l32i	a9, a1, 180
    21da:	2721f2        	l32i	a15, a1, 156
    21dd:	41a9           	s32i.n	a10, a1, 16
    21df:	5199           	s32i.n	a9, a1, 20
    21e1:	636d           	ae_s16i.n	a6, a3, 0
    21e3:	116132        	s32i	a3, a1, 68
    21e6:	1261f2        	s32i	a15, a1, 72
    21e9:	252162        	l32i	a6, a1, 148
    21ec:	232192        	l32i	a9, a1, 140
    21ef:	2e21a2        	l32i	a10, a1, 184
    21f2:	2c21e2        	l32i	a14, a1, 176
    21f5:	2b21c2        	l32i	a12, a1, 172
    21f8:	2a2172        	l32i	a7, a1, 168
    21fb:	2921d2        	l32i	a13, a1, 164
    21fe:	262182        	l32i	a8, a1, 152
    2201:	2421f2        	l32i	a15, a1, 144
    2204:	202132        	l32i	a3, a1, 128
    2207:	6169           	s32i.n	a6, a1, 24
    2209:	d199           	s32i.n	a9, a1, 52
    220b:	2221b2        	l32i	a11, a1, 136
    220e:	212162        	l32i	a6, a1, 132
    2211:	844d           	ae_sext16	a4, a4
    2213:	390c           	movi.n	a9, 3
    2215:	a1b9           	s32i.n	a11, a1, 40
    2217:	9149           	s32i.n	a4, a1, 36
    2219:	7169           	s32i.n	a6, a1, 28
    221b:	00a0b2        	movi	a11, 0
    221e:	204220        	or	a4, a2, a2
    2221:	098976        	loop	a9, 222e <processAriDecoder_fx+0x9a>
    2224:	000492        	l8ui	a9, a4, 0
    2227:	116b80        	slli	a6, a11, 8
    222a:	441b           	addi.n	a4, a4, 1
    222c:	b69a           	add.n	a11, a6, a9

0000222e <processAriDecoder_fx+0x9a>:
    222e:	7148           	l32i.n	a4, a1, 28
    2230:	1061a2        	s32i	a10, a1, 64
    2233:	8179           	s32i.n	a7, a1, 32
    2235:	136182        	s32i	a8, a1, 76
    2238:	f1c9           	s32i.n	a12, a1, 60
    223a:	e1d9           	s32i.n	a13, a1, 56
    223c:	156152        	s32i	a5, a1, 84
    223f:	1461e2        	s32i	a14, a1, 80
    2242:	1761f2        	s32i	a15, a1, 92
    2245:	0214e6        	bgei	a4, 1, 224b <processAriDecoder_fx+0xb7>
    2248:	0066c6        	j	23e7 <processAriDecoder_fx+0x253>
    224b:	f79e41        	l32r	a4, c4 (b904 <ac_tns_order_cumfreq>)
    224e:	f79c51        	l32r	a5, c0 (b900 <ac_tns_order_freq>)
    2251:	1133c0        	slli	a3, a3, 4
    2254:	0448           	l32i.n	a4, a4, 0
    2256:	0558           	l32i.n	a5, a5, 0
    2258:	6188           	l32i.n	a8, a1, 24
    225a:	443a           	add.n	a4, a4, a3
    225c:	060c           	movi.n	a6, 0
    225e:	353a           	add.n	a3, a5, a3
    2260:	f48b           	addi.n	a15, a4, 8
    2262:	fe7c           	movi.n	a14, -1
    2264:	1169           	s32i.n	a6, a1, 4
    2266:	4168e0        	srli	a6, a14, 8
    2269:	370c           	movi.n	a7, 3
    226b:	b139           	s32i.n	a3, a1, 44
    226d:	c149           	s32i.n	a4, a1, 48
    226f:	31f9           	s32i.n	a15, a1, 12

00002271 <processAriDecoder_fx+0xdd>:
    2271:	283d           	ae_l16si.n	a3, a8, 0
    2273:	3198           	l32i.n	a9, a1, 12
    2275:	415a60        	srli	a5, a6, 10
    2278:	0213e6        	bgei	a3, 1, 227e <processAriDecoder_fx+0xea>
    227b:	0052c6        	j	23ca <processAriDecoder_fx+0x236>
    227e:	140c           	movi.n	a4, 1
    2280:	293d           	ae_l16si.n	a3, a9, 0
    2282:	2c0c           	movi.n	a12, 2
    2284:	b1f8           	l32i.n	a15, a1, 44
    2286:	823530        	mull	a3, a5, a3
    2289:	00aca2        	movi	a10, 0xfffffc00
    228c:	623b30        	saltu	a3, a11, a3
    228f:	303340        	xor	a3, a3, a4
    2292:	a043c0        	addx4	a4, a3, a12
    2295:	c1c8           	l32i.n	a12, a1, 48
    2297:	1133e0        	slli	a3, a3, 2
    229a:	10e6a0        	and	a14, a6, a10
    229d:	9094c0        	addx2	a9, a4, a12
    22a0:	299d           	ae_l16si.n	a9, a9, 0
    22a2:	829590        	mull	a9, a5, a9
    22a5:	629b90        	saltu	a9, a11, a9
    22a8:	833490        	moveqz	a3, a4, a9
    22ab:	431b           	addi.n	a4, a3, 1
    22ad:	90d4c0        	addx2	a13, a4, a12
    22b0:	2d9d           	ae_l16si.n	a9, a13, 0
    22b2:	829590        	mull	a9, a5, a9
    22b5:	629b90        	saltu	a9, a11, a9
    22b8:	833490        	moveqz	a3, a4, a9
    22bb:	431b           	addi.n	a4, a3, 1
    22bd:	9093c0        	addx2	a9, a3, a12
    22c0:	684d           	ae_s16i.n	a4, a8, 0
    22c2:	9033f0        	addx2	a3, a3, a15
    22c5:	299d           	ae_l16si.n	a9, a9, 0
    22c7:	233d           	ae_l16si.n	a3, a3, 0
    22c9:	624be0        	saltu	a4, a11, a14
    22cc:	829950        	mull	a9, a9, a5
    22cf:	826530        	mull	a6, a5, a3
    22d2:	c0bb90        	sub	a11, a11, a9
    22d5:	1716f6        	bgeui	a6, 0x10000, 22f0 <processAriDecoder_fx+0x15c>
    22d8:	0b3d           	mov.n	a3, a11
    22da:	875d           	ae_sext16	a5, a7
    22dc:	525a           	add.n	a5, a2, a5
    22de:	0005b2        	l8ui	a11, a5, 0
    22e1:	06fd           	mov.n	a15, a6
    22e3:	771b           	addi.n	a7, a7, 1
    22e5:	8af3b0        	depbits	a11, a3, 8, 16
    22e8:	116680        	slli	a6, a6, 8
    22eb:	0b3d           	mov.n	a3, a11
    22ed:	e9ffb6        	bltui	a15, 0x100, 22da <processAriDecoder_fx+0x146>
    22f0:	f778d1        	l32r	a13, d0 (b910 <ac_tns_coef_cumfreq>)
    22f3:	f776e1        	l32r	a14, cc (b90c <ac_tns_coef_freq>)
    22f6:	1138           	l32i.n	a3, a1, 4
    22f8:	150c           	movi.n	a5, 1
    22fa:	0df8           	l32i.n	a15, a13, 0
    22fc:	833540        	moveqz	a3, a5, a4
    22ff:	0e98           	l32i.n	a9, a14, 0
    2301:	5148           	l32i.n	a4, a1, 20
    2303:	050c           	movi.n	a5, 0
    2305:	1139           	s32i.n	a3, a1, 4
    2307:	112132        	l32i	a3, a1, 68
    230a:	41ca60        	srli	a12, a6, 10
    230d:	1d0c           	movi.n	a13, 1
    230f:	233d           	ae_l16si.n	a3, a3, 0
    2311:	4e0c           	movi.n	a14, 4
    2313:	c03370        	sub	a3, a3, a7
    2316:	833d           	ae_sext16	a3, a3
    2318:	2f1396        	bltz	a3, 260d <processAriDecoder_fx+0x479>
    231b:	089f32        	l16si	a3, a15, 16
    231e:	08ad           	mov.n	a10, a8
    2320:	823c30        	mull	a3, a12, a3
    2323:	623b30        	saltu	a3, a11, a3
    2326:	3033d0        	xor	a3, a3, a13
    2329:	b0d3e0        	addx8	a13, a3, a14
    232c:	90edf0        	addx2	a14, a13, a15
    232f:	2eed           	ae_l16si.n	a14, a14, 0
    2331:	1133d0        	slli	a3, a3, 3
    2334:	82ece0        	mull	a14, a12, a14
    2337:	62ebe0        	saltu	a14, a11, a14
    233a:	833de0        	moveqz	a3, a13, a14
    233d:	d32b           	addi.n	a13, a3, 2
    233f:	908df0        	addx2	a8, a13, a15
    2342:	28ed           	ae_l16si.n	a14, a8, 0
    2344:	82ece0        	mull	a14, a12, a14
    2347:	62ebe0        	saltu	a14, a11, a14
    234a:	833de0        	moveqz	a3, a13, a14
    234d:	d31b           	addi.n	a13, a3, 1
    234f:	908df0        	addx2	a8, a13, a15
    2352:	28ed           	ae_l16si.n	a14, a8, 0
    2354:	828ce0        	mull	a8, a12, a14
    2357:	03ed           	mov.n	a14, a3
    2359:	283b87        	bltu	a11, a8, 2385 <processAriDecoder_fx+0x1f1>
    235c:	e80c           	movi.n	a8, 14
    235e:	0ded           	mov.n	a14, a13
    2360:	219387        	bne	a3, a8, 2385 <processAriDecoder_fx+0x1f1>
    2363:	109f32        	l16si	a3, a15, 32
    2366:	0e1c           	movi.n	a14, 16
    2368:	00ac82        	movi	a8, 0xfffffc00
    236b:	823c30        	mull	a3, a12, a3
    236e:	106680        	and	a6, a6, a8
    2371:	623b30        	saltu	a3, a11, a3
    2374:	83de30        	moveqz	a13, a14, a3
    2377:	1138           	l32i.n	a3, a1, 4
    2379:	626b60        	saltu	a6, a11, a6
    237c:	1e0c           	movi.n	a14, 1
    237e:	833e60        	moveqz	a3, a14, a6
    2381:	0ded           	mov.n	a14, a13
    2383:	1139           	s32i.n	a3, a1, 4
    2385:	113ef0        	slli	a3, a14, 1
    2388:	6f3a           	add.n	a6, a15, a3
    238a:	64ed           	ae_s16i.n	a14, a4, 0
    238c:	393a           	add.n	a3, a9, a3
    238e:	266d           	ae_l16si.n	a6, a6, 0
    2390:	233d           	ae_l16si.n	a3, a3, 0
    2392:	8286c0        	mull	a8, a6, a12
    2395:	826c30        	mull	a6, a12, a3
    2398:	c0bb80        	sub	a11, a11, a8
    239b:	1716f6        	bgeui	a6, 0x10000, 23b6 <processAriDecoder_fx+0x222>
    239e:	0b3d           	mov.n	a3, a11
    23a0:	878d           	ae_sext16	a8, a7
    23a2:	828a           	add.n	a8, a2, a8
    23a4:	0008b2        	l8ui	a11, a8, 0
    23a7:	06ed           	mov.n	a14, a6
    23a9:	771b           	addi.n	a7, a7, 1
    23ab:	8af3b0        	depbits	a11, a3, 8, 16
    23ae:	116680        	slli	a6, a6, 8
    23b1:	0b3d           	mov.n	a3, a11
    23b3:	e9feb6        	bltui	a14, 0x100, 23a0 <processAriDecoder_fx+0x20c>
    23b6:	2a3d           	ae_l16si.n	a3, a10, 0
    23b8:	551b           	addi.n	a5, a5, 1
    23ba:	0a8d           	mov.n	a8, a10
    23bc:	22cff2        	addi	a15, a15, 34
    23bf:	22c992        	addi	a9, a9, 34
    23c2:	442b           	addi.n	a4, a4, 2
    23c4:	02a537        	bge	a5, a3, 23ca <processAriDecoder_fx+0x236>
    23c7:	ffcf06        	j	2307 <processAriDecoder_fx+0x173>
    23ca:	5138           	l32i.n	a3, a1, 20
    23cc:	71f8           	l32i.n	a15, a1, 28
    23ce:	882b           	addi.n	a8, a8, 2
    23d0:	10c332        	addi	a3, a3, 16
    23d3:	5139           	s32i.n	a3, a1, 20
    23d5:	3f0b           	addi.n	a3, a15, -1
    23d7:	7139           	s32i.n	a3, a1, 28
    23d9:	e94356        	bnez	a3, 2271 <processAriDecoder_fx+0xdd>
    23dc:	1138           	l32i.n	a3, a1, 4
    23de:	0213a6        	blti	a3, 1, 23e4 <processAriDecoder_fx+0x250>
    23e1:	008a06        	j	260d <processAriDecoder_fx+0x479>
    23e4:	000286        	j	23f2 <processAriDecoder_fx+0x25e>

000023e7 <processAriDecoder_fx+0x253>:
    23e7:	f67c           	movi.n	a6, -1
    23e9:	030c           	movi.n	a3, 0
    23eb:	416860        	srli	a6, a6, 8
    23ee:	370c           	movi.n	a7, 3
    23f0:	1139           	s32i.n	a3, a1, 4
    23f2:	2138           	l32i.n	a3, a1, 8
    23f4:	d1d8           	l32i.n	a13, a1, 52
    23f6:	fc208000cf 	{ movi	a12, 0; ae_zerop48	aep0 }
    23fb:	21e130        	srai	a14, a3, 1
    23fe:	0f0c           	movi.n	a15, 0
    2400:	31c9           	s32i.n	a12, a1, 12
    2402:	61e9           	s32i.n	a14, a1, 24
    2404:	021de6        	bgei	a13, 1, 240a <processAriDecoder_fx+0x276>
    2407:	0082c6        	j	2616 <processAriDecoder_fx+0x482>
    240a:	f75ad1        	l32r	a13, 174 (ba34 <Bit_Shft>)
    240d:	9138           	l32i.n	a3, a1, 36
    240f:	f75a41        	l32r	a4, 178 (ba38 <AB_Shft>)
    2412:	8158           	l32i.n	a5, a1, 32
    2414:	0dd8           	l32i.n	a13, a13, 0
    2416:	723f30        	salt	a3, a15, a3
    2419:	04f8           	l32i.n	a15, a4, 0
    241b:	080c           	movi.n	a8, 0
    241d:	fcc5c2        	addi	a12, a5, -4
    2420:	b1f9           	s32i.n	a15, a1, 44
    2422:	c139           	s32i.n	a3, a1, 48
    2424:	090c           	movi.n	a9, 0
    2426:	e0a052        	movi	a5, 224
    2429:	3189           	s32i.n	a8, a1, 12
    242b:	040c           	movi.n	a4, 0
    242d:	0f0c           	movi.n	a15, 0
    242f:	001e46        	j	24ac <processAriDecoder_fx+0x318>

00002432 <processAriDecoder_fx+0x29e>:
    2432:	e30c           	movi.n	a3, 14
    2434:	029437        	bne	a4, a3, 243a <processAriDecoder_fx+0x2a6>
    2437:	007486        	j	260d <processAriDecoder_fx+0x479>
    243a:	a138           	l32i.n	a3, a1, 40
    243c:	61e8           	l32i.n	a14, a1, 24
    243e:	91f8           	l32i.n	a15, a1, 36
    2440:	51c8           	l32i.n	a12, a1, 20
    2442:	0e1366        	bnei	a3, 1, 2454 <processAriDecoder_fx+0x2c0>
    2445:	3188           	l32i.n	a8, a1, 12
    2447:	4198           	l32i.n	a9, a1, 16
    2449:	381b           	addi.n	a3, a8, 1
    244b:	888d           	ae_sext16	a8, a8
    244d:	908890        	addx2	a8, a8, a9
    2450:	3139           	s32i.n	a3, a1, 12
    2452:	68fd           	ae_s16i.n	a15, a8, 0
    2454:	b188           	l32i.n	a8, a1, 44
    2456:	1135e0        	slli	a3, a5, 2
    2459:	031644        	wur.ae_sar	a4
    245c:	452834        	ae_lp16x2f.x	aep2, a8, a3
    245f:	0b20a4        	ae_sllssp24s	aep2, aep2
    2462:	079214        	ae_addsp24s	aep1, aep1, aep2
    2465:	469c14        	ae_sp16x2f.iu	aep1, a12, 4
    2468:	2cad           	ae_l16si.n	a10, a12, 0
    246a:	f77c91        	l32r	a9, 25c (bad8 <g_p_dec_stream>)
    246d:	038f14        	ae_lbi	a8, 1
    2470:	101aa6        	blti	a10, 1, 2484 <processAriDecoder_fx+0x2f0>
    2473:	0938           	l32i.n	a3, a9, 0
    2475:	0013f4        	ae_dbi	a3, 1
    2478:	0939           	s32i.n	a3, a9, 0
    247a:	061866        	bnei	a8, 1, 2484 <processAriDecoder_fx+0x2f0>
    247d:	2c3d           	ae_l16si.n	a3, a12, 0
    247f:	603030        	neg	a3, a3
    2482:	6c3d           	ae_s16i.n	a3, a12, 0
    2484:	3c3d           	ae_l16si.n	a3, a12, 2
    2486:	f77591        	l32r	a9, 25c (bad8 <g_p_dec_stream>)
    2489:	038f14        	ae_lbi	a8, 1
    248c:	1013a6        	blti	a3, 1, 24a0 <processAriDecoder_fx+0x30c>
    248f:	0938           	l32i.n	a3, a9, 0
    2491:	0013f4        	ae_dbi	a3, 1
    2494:	0939           	s32i.n	a3, a9, 0
    2496:	061866        	bnei	a8, 1, 24a0 <processAriDecoder_fx+0x30c>
    2499:	3c3d           	ae_l16si.n	a3, a12, 2
    249b:	603030        	neg	a3, a3
    249e:	7c3d           	ae_s16i.n	a3, a12, 2
    24a0:	d138           	l32i.n	a3, a1, 52
    24a2:	7198           	l32i.n	a9, a1, 28
    24a4:	ff2b           	addi.n	a15, a15, 2
    24a6:	022f37        	blt	a15, a3, 24ac <processAriDecoder_fx+0x318>
    24a9:	005a46        	j	2616 <processAriDecoder_fx+0x482>
    24ac:	f73131        	l32r	a3, 170 (ba30 <Tab_T>)
    24af:	1144c0        	slli	a4, a4, 4
    24b2:	454a           	add.n	a4, a5, a4
    24b4:	0338           	l32i.n	a3, a3, 0
    24b6:	348090        	extui	a8, a9, 0, 4
    24b9:	51c9           	s32i.n	a12, a1, 20
    24bb:	334a           	add.n	a3, a3, a4
    24bd:	000332        	l8ui	a3, a3, 0
    24c0:	f6f8a1        	l32r	a10, a0 (b8e0 <ari_spec_lookup>)
    24c3:	c1c8           	l32i.n	a12, a1, 48
    24c5:	1198c0        	slli	a9, a8, 4
    24c8:	593a           	add.n	a5, a9, a3
    24ca:	0a38           	l32i.n	a3, a10, 0
    24cc:	7159           	s32i.n	a5, a1, 28
    24ce:	9a0c50        	depbits	a5, a12, 9, 1
    24d1:	724ef0        	salt	a4, a14, a15
    24d4:	01d592        	addmi	a9, a5, 0x100
    24d7:	839540        	moveqz	a9, a5, a4
    24da:	339a           	add.n	a3, a3, a9
    24dc:	000332        	l8ui	a3, a3, 0
    24df:	f6f281        	l32r	a8, a8 (b8e8 <ari_spec_freq>)
    24e2:	f6f0a1        	l32r	a10, a4 (b8e4 <ari_spec_cumfreq>)
    24e5:	233300        	sext	a3, a3, 7
    24e8:	0848           	l32i.n	a4, a8, 0
    24ea:	0a58           	l32i.n	a5, a10, 0
    24ec:	11c3b0        	slli	a12, a3, 5
    24ef:	9083c0        	addx2	a8, a3, a12
    24f2:	a58a           	add.n	a10, a5, a8
    24f4:	448a           	add.n	a4, a4, a8
    24f6:	413a60        	srli	a3, a6, 10
    24f9:	151c           	movi.n	a5, 17
    24fb:	22c442        	addi	a4, a4, 34
    24fe:	20cac2        	addi	a12, a10, 32
    2501:	2c8d           	ae_l16si.n	a8, a12, 0
    2503:	feccc2        	addi	a12, a12, -2
    2506:	550b           	addi.n	a5, a5, -1
    2508:	828380        	mull	a8, a3, a8
    250b:	fec442        	addi	a4, a4, -2
    250e:	ef3b87        	bltu	a11, a8, 2501 <processAriDecoder_fx+0x36d>
    2511:	24cd           	ae_l16si.n	a12, a4, 0
    2513:	624b60        	saltu	a4, a11, a6
    2516:	c0bb80        	sub	a11, a11, a8
    2519:	8263c0        	mull	a6, a3, a12
    251c:	0b3d           	mov.n	a3, a11
    251e:	1516f6        	bgeui	a6, 0x10000, 2537 <processAriDecoder_fx+0x3a3>
    2521:	878d           	ae_sext16	a8, a7
    2523:	828a           	add.n	a8, a2, a8
    2525:	0008b2        	l8ui	a11, a8, 0
    2528:	06cd           	mov.n	a12, a6
    252a:	771b           	addi.n	a7, a7, 1
    252c:	8af3b0        	depbits	a11, a3, 8, 16
    252f:	116680        	slli	a6, a6, 8
    2532:	0b3d           	mov.n	a3, a11
    2534:	e9fcb6        	bltui	a12, 0x100, 2521 <processAriDecoder_fx+0x38d>
    2537:	fc20f0118e 	{ l32i	a8, a1, 4; ae_zerop48	aep1 }
    253c:	130c           	movi.n	a3, 1
    253e:	51c8           	l32i.n	a12, a1, 20
    2540:	838340        	moveqz	a8, a3, a4
    2543:	040c           	movi.n	a4, 0
    2545:	1189           	s32i.n	a8, a1, 4
    2547:	02b5e6        	bgei	a5, 16, 254d <processAriDecoder_fx+0x3b9>
    254a:	ffc186        	j	2454 <processAriDecoder_fx+0x2c0>
    254d:	a138           	l32i.n	a3, a1, 40
    254f:	91f9           	s32i.n	a15, a1, 36
    2551:	f74281        	l32r	a8, 25c (bad8 <g_p_dec_stream>)
    2554:	13dc           	bnez.n	a3, 2569 <processAriDecoder_fx+0x3d5>
    2556:	034f24        	ae_lbi	a4, 2
    2559:	0838           	l32i.n	a3, a8, 0
    255b:	1144e0        	slli	a4, a4, 2
    255e:	0023f4        	ae_dbi	a3, 2
    2561:	0839           	s32i.n	a3, a8, 0
    2563:	451d44        	ae_lp16x2f.x	aep1, a13, a4
    2566:	078114        	ae_addsp24s	aep1, aep0, aep1
    2569:	140c           	movi.n	a4, 1
    256b:	0f0c           	movi.n	a15, 0
    256d:	f70331        	l32r	a3, 17c (ba3c <Tab_esc_Dec>)
    2570:	f6cc81        	l32r	a8, a0 (b8e0 <ari_spec_lookup>)
    2573:	f6ccc1        	l32r	a12, a4 (b8e4 <ari_spec_cumfreq>)
    2576:	0338           	l32i.n	a3, a3, 0
    2578:	0888           	l32i.n	a8, a8, 0
    257a:	0cc8           	l32i.n	a12, a12, 0
    257c:	33fa           	add.n	a3, a3, a15
    257e:	333d           	ae_l16si.n	a3, a3, 2
    2580:	41ea60        	srli	a14, a6, 10
    2583:	393a           	add.n	a3, a9, a3
    2585:	383a           	add.n	a3, a8, a3
    2587:	000332        	l8ui	a3, a3, 0
    258a:	233300        	sext	a3, a3, 7
    258d:	11a3b0        	slli	a10, a3, 5
    2590:	9033a0        	addx2	a3, a3, a10
    2593:	a51b           	addi.n	a10, a5, 1
    2595:	903530        	addx2	a3, a5, a3
    2598:	0a5d           	mov.n	a5, a10
    259a:	8c3a           	add.n	a8, a12, a3
    259c:	488d           	ae_l16ui.n	a8, a8, 0
    259e:	fec332        	addi	a3, a3, -2
    25a1:	550b           	addi.n	a5, a5, -1
    25a3:	828e80        	mull	a8, a14, a8
    25a6:	f03b87        	bltu	a11, a8, 259a <processAriDecoder_fx+0x406>
    25a9:	f6bfc1        	l32r	a12, a8 (b8e8 <ari_spec_freq>)
    25ac:	0cc8           	l32i.n	a12, a12, 0
    25ae:	3c3a           	add.n	a3, a12, a3
    25b0:	53cd           	ae_l16ui.n	a12, a3, 2
    25b2:	623b60        	saltu	a3, a11, a6
    25b5:	c0bb80        	sub	a11, a11, a8
    25b8:	826ec0        	mull	a6, a14, a12
    25bb:	0b8d           	mov.n	a8, a11
    25bd:	1516f6        	bgeui	a6, 0x10000, 25d6 <processAriDecoder_fx+0x442>
    25c0:	87bd           	ae_sext16	a11, a7
    25c2:	b2ba           	add.n	a11, a2, a11
    25c4:	000bb2        	l8ui	a11, a11, 0
    25c7:	06cd           	mov.n	a12, a6
    25c9:	771b           	addi.n	a7, a7, 1
    25cb:	8af8b0        	depbits	a11, a8, 8, 16
    25ce:	116680        	slli	a6, a6, 8
    25d1:	0b8d           	mov.n	a8, a11
    25d3:	e9fcb6        	bltui	a12, 0x100, 25c0 <processAriDecoder_fx+0x42c>
    25d6:	11a8           	l32i.n	a10, a1, 4
    25d8:	180c           	movi.n	a8, 1
    25da:	03ef24        	ae_lbi	a14, 2
    25dd:	83a830        	moveqz	a10, a8, a3
    25e0:	11a9           	s32i.n	a10, a1, 4
    25e2:	02b5e6        	bgei	a5, 16, 25e8 <processAriDecoder_fx+0x454>
    25e5:	ff9246        	j	2432 <processAriDecoder_fx+0x29e>
    25e8:	f71dc1        	l32r	a12, 25c (bad8 <g_p_dec_stream>)
    25eb:	031644        	wur.ae_sar	a4
    25ee:	118ee0        	slli	a8, a14, 2
    25f1:	0c38           	l32i.n	a3, a12, 0
    25f3:	441b           	addi.n	a4, a4, 1
    25f5:	452d84        	ae_lp16x2f.x	aep2, a13, a8
    25f8:	0023f4        	ae_dbi	a3, 2
    25fb:	f92b940c3f 	{ s32i.n	a3, a12, 0; ae_sllssp24s	aep2, aep2 }
    2600:	d845400eef 	{ movi	a14, 14; ae_addsp24s	aep1, aep1, aep2 }
    2605:	ff2b           	addi.n	a15, a15, 2
    2607:	0214e7        	beq	a4, a14, 260d <processAriDecoder_fx+0x479>
    260a:	ffd7c6        	j	256d <processAriDecoder_fx+0x3d9>
    260d:	172132        	l32i	a3, a1, 92
    2610:	120c           	movi.n	a2, 1
    2612:	632d           	ae_s16i.n	a2, a3, 0
    2614:	f01d           	retw.n

00002616 <processAriDecoder_fx+0x482>:
    2616:	f71121        	l32r	a2, 25c (bad8 <g_p_dec_stream>)
    2619:	f71131        	l32r	a3, 260 (bad4 <g_p_dec_based>)
    261c:	0042c4        	rur.ae_bitptr	a4
    261f:	0228           	l32i.n	a2, a2, 0
    2621:	0338           	l32i.n	a3, a3, 0
    2623:	1621c2        	l32i	a12, a1, 88
    2626:	7b0c           	movi.n	a11, 7
    2628:	c02230        	sub	a2, a2, a3
    262b:	112210        	slli	a2, a2, 15
    262e:	623b40        	saltu	a3, a11, a4
    2631:	312020        	srai	a2, a2, 16
    2634:	1121d2        	l32i	a13, a1, 68
    2637:	11e8           	l32i.n	a14, a1, 4
    2639:	c03c30        	sub	a3, a12, a3
    263c:	1122f0        	slli	a2, a2, 1
    263f:	c02320        	sub	a2, a3, a2
    2642:	6d2d           	ae_s16i.n	a2, a13, 0
    2644:	c51ee6        	bgei	a14, 1, 260d <processAriDecoder_fx+0x479>
    2647:	873d           	ae_sext16	a3, a7
    2649:	822d           	ae_sext16	a2, a2
    264b:	c02320        	sub	a2, a3, a2
    264e:	bb42e6        	bgei	a2, 4, 260d <processAriDecoder_fx+0x479>
    2651:	2128           	l32i.n	a2, a1, 8
    2653:	8138           	l32i.n	a3, a1, 32
    2655:	21e8           	l32i.n	a14, a1, 8
    2657:	10af27        	bge	a15, a2, 266b <processAriDecoder_fx+0x4d7>
    265a:	0b0c           	movi.n	a11, 0
    265c:	90af30        	addx2	a10, a15, a3
    265f:	c02ef0        	sub	a2, a14, a15
    2662:	11c2f0        	slli	a12, a2, 1
    2665:	f6ff21        	l32r	a2, 264 (bf8 <basop_memset>)
    2668:	0002e0        	callx8	a2
    266b:	f6fc31        	l32r	a3, 25c (bad8 <g_p_dec_stream>)
    266e:	f6fc41        	l32r	a4, 260 (bad4 <g_p_dec_based>)
    2671:	f6fde1        	l32r	a14, 268 (fff0000 <_end+0xffe4518>)
    2674:	0338           	l32i.n	a3, a3, 0
    2676:	0448           	l32i.n	a4, a4, 0
    2678:	1521d2        	l32i	a13, a1, 84
    267b:	00f2c4        	rur.ae_bitptr	a15
    267e:	c03340        	sub	a3, a3, a4
    2681:	113310        	slli	a3, a3, 15
    2684:	40f620        	nsau	a2, a6
    2687:	1157d0        	slli	a5, a7, 3
    268a:	33ea           	add.n	a3, a3, a14
    268c:	413c30        	srli	a3, a3, 12
    268f:	832660        	moveqz	a2, a6, a6
    2692:	c05d50        	sub	a5, a13, a5
    2695:	c02520        	sub	a2, a5, a2
    2698:	33fa           	add.n	a3, a3, a15
    269a:	c02230        	sub	a2, a2, a3
    269d:	1ec222        	addi	a2, a2, 30
    26a0:	822d           	ae_sext16	a2, a2
    26a2:	f67296        	bltz	a2, 260d <processAriDecoder_fx+0x479>
    26a5:	a138           	l32i.n	a3, a1, 40
    26a7:	e1f8           	l32i.n	a15, a1, 56
    26a9:	3148           	l32i.n	a4, a1, 12
    26ab:	120316        	beqz	a3, 27cf <processAriDecoder_fx+0x63b>
    26ae:	030c           	movi.n	a3, 0
    26b0:	6f3d           	ae_s16i.n	a3, a15, 0
    26b2:	1021b2        	l32i	a11, a1, 64
    26b5:	81c8           	l32i.n	a12, a1, 32
    26b7:	f1d8           	l32i.n	a13, a1, 60
    26b9:	61f8           	l32i.n	a15, a1, 24
    26bb:	846d           	ae_sext16	a6, a4
    26bd:	0216e6        	bgei	a6, 1, 26c3 <processAriDecoder_fx+0x52f>
    26c0:	003186        	j	278a <processAriDecoder_fx+0x5f6>
    26c3:	f47c           	movi.n	a4, -1
    26c5:	f44040        	extui	a4, a4, 0, 16
    26c8:	f57c           	movi.n	a5, -1
    26ca:	bc8676        	loop	a6, 278a <processAriDecoder_fx+0x5f6>
    26cd:	0b9216        	beqz	a2, 278a <processAriDecoder_fx+0x5f6>
    26d0:	4168           	l32i.n	a6, a1, 16
    26d2:	f6e2e1        	l32r	a14, 25c (bad8 <g_p_dec_stream>)
    26d5:	037f14        	ae_lbi	a7, 1
    26d8:	266d           	ae_l16si.n	a6, a6, 0
    26da:	0e98           	l32i.n	a9, a14, 0
    26dc:	11a700        	slli	a10, a7, 16
    26df:	9066c0        	addx2	a6, a6, a12
    26e2:	267d           	ae_l16si.n	a7, a6, 0
    26e4:	0019f4        	ae_dbi	a9, 1
    26e7:	820b           	addi.n	a8, a2, -1
    26e9:	886d           	ae_sext16	a6, a8
    26eb:	0e99           	s32i.n	a9, a14, 0
    26ed:	311aa6        	blti	a10, 1, 2722 <processAriDecoder_fx+0x58e>
    26f0:	729370        	salt	a9, a3, a7
    26f3:	779a           	add.n	a7, a7, a9
    26f5:	877d           	ae_sext16	a7, a7
    26f7:	025796        	bltz	a7, 2720 <processAriDecoder_fx+0x58c>
    26fa:	47ec           	bnez.n	a7, 2722 <processAriDecoder_fx+0x58e>
    26fc:	028487        	bany	a4, a8, 2702 <processAriDecoder_fx+0x56e>
    26ff:	0021c6        	j	278a <processAriDecoder_fx+0x5f6>
    2702:	f6d691        	l32r	a9, 25c (bad8 <g_p_dec_stream>)
    2705:	036f14        	ae_lbi	a6, 1
    2708:	fec222        	addi	a2, a2, -2
    270b:	0988           	l32i.n	a8, a9, 0
    270d:	170c           	movi.n	a7, 1
    270f:	112200        	slli	a2, a2, 16
    2712:	0018f4        	ae_dbi	a8, 1
    2715:	937560        	movnez	a7, a5, a6
    2718:	316020        	srai	a6, a2, 16
    271b:	0989           	s32i.n	a8, a9, 0
    271d:	000046        	j	2722 <processAriDecoder_fx+0x58e>

00002720 <processAriDecoder_fx+0x58c>:
    2720:	770b           	addi.n	a7, a7, -1
    2722:	4128           	l32i.n	a2, a1, 16
    2724:	4188           	l32i.n	a8, a1, 16
    2726:	f6cde1        	l32r	a14, 25c (bad8 <g_p_dec_stream>)
    2729:	222d           	ae_l16si.n	a2, a2, 0
    272b:	03af14        	ae_lbi	a10, 1
    272e:	0e98           	l32i.n	a9, a14, 0
    2730:	9022c0        	addx2	a2, a2, a12
    2733:	627d           	ae_s16i.n	a7, a2, 0
    2735:	051616        	beqz	a6, 278a <processAriDecoder_fx+0x5f6>
    2738:	282d           	ae_l16si.n	a2, a8, 0
    273a:	11aa00        	slli	a10, a10, 16
    273d:	0019f4        	ae_dbi	a9, 1
    2740:	9022c0        	addx2	a2, a2, a12
    2743:	327d           	ae_l16si.n	a7, a2, 2
    2745:	860b           	addi.n	a8, a6, -1
    2747:	882d           	ae_sext16	a2, a8
    2749:	0e99           	s32i.n	a9, a14, 0
    274b:	2e1aa6        	blti	a10, 1, 277d <processAriDecoder_fx+0x5e9>
    274e:	729370        	salt	a9, a3, a7
    2751:	779a           	add.n	a7, a7, a9
    2753:	877d           	ae_sext16	a7, a7
    2755:	022796        	bltz	a7, 277b <processAriDecoder_fx+0x5e7>
    2758:	17ec           	bnez.n	a7, 277d <processAriDecoder_fx+0x5e9>
    275a:	2c0487        	bnone	a4, a8, 278a <processAriDecoder_fx+0x5f6>
    275d:	f6bf91        	l32r	a9, 25c (bad8 <g_p_dec_stream>)
    2760:	032f14        	ae_lbi	a2, 1
    2763:	170c           	movi.n	a7, 1
    2765:	0988           	l32i.n	a8, a9, 0
    2767:	fec6e2        	addi	a14, a6, -2
    276a:	937520        	movnez	a7, a5, a2
    276d:	112e00        	slli	a2, a14, 16
    2770:	0018f4        	ae_dbi	a8, 1
    2773:	312020        	srai	a2, a2, 16
    2776:	0989           	s32i.n	a8, a9, 0
    2778:	000046        	j	277d <processAriDecoder_fx+0x5e9>

0000277b <processAriDecoder_fx+0x5e7>:
    277b:	770b           	addi.n	a7, a7, -1
    277d:	4188           	l32i.n	a8, a1, 16
    277f:	286d           	ae_l16si.n	a6, a8, 0
    2781:	882b           	addi.n	a8, a8, 2
    2783:	4189           	s32i.n	a8, a1, 16
    2785:	9066c0        	addx2	a6, a6, a12
    2788:	767d           	ae_s16i.n	a7, a6, 2

0000278a <processAriDecoder_fx+0x5f6>:
    278a:	2128           	l32i.n	a2, a1, 8
    278c:	230c           	movi.n	a3, 2
    278e:	fc2498833f 	{ ae_cvtp24a16x2.ll	aep0, a3, a3; ae_zeroq56	aeq0 }
    2793:	1c22a6        	blti	a2, 2, 27b3 <processAriDecoder_fx+0x61f>
    2796:	0c2d           	mov.n	a2, a12
    2798:	44a204        	ae_lp16x2f.iu	aep2, a2, 0
    279b:	130c           	movi.n	a3, 1
    279d:	00a042        	movi	a4, 0
    27a0:	fd4018943f 	{ ae_cvtp24a16x2.ll	aep1, a4, a3; ae_absp24	aep2, aep2 }
    27a5:	0a8f76        	loop	a15, 27b3 <processAriDecoder_fx+0x61f>
    27a8:	e228adf21f 	{ ae_lp16x2f.iu	aep7, a2, 4; ae_mulaap24s.hh.ll	aeq0, aep2, aep1 }
    27ad:	079014        	ae_addsp24s	aep1, aep1, aep0
    27b0:	07bf24        	ae_absp24	aep2, aep7
    27b3:	d1f8           	l32i.n	a15, a1, 52
    27b5:	368204        	ae_trunca32q48	a2, aeq0
    27b8:	6d2d           	ae_s16i.n	a2, a13, 0
    27ba:	0a2f66        	bnei	a15, 2, 27c8 <processAriDecoder_fx+0x634>
    27bd:	4c2d           	ae_l16ui.n	a2, a12, 0
    27bf:	132132        	l32i	a3, a1, 76
    27c2:	122142        	l32i	a4, a1, 72
    27c5:	053216        	beqz	a2, 281c <processAriDecoder_fx+0x688>

000027c8 <processAriDecoder_fx+0x634>:
    27c8:	020c           	movi.n	a2, 0
    27ca:	6b2d           	ae_s16i.n	a2, a11, 0
    27cc:	f01d           	retw.n

000027ce <processAriDecoder_fx+0x63a>:
	...

000027cf <processAriDecoder_fx+0x63b>:
    27cf:	e178           	l32i.n	a7, a1, 56
    27d1:	2148           	l32i.n	a4, a1, 8
    27d3:	1021b2        	l32i	a11, a1, 64
    27d6:	81c8           	l32i.n	a12, a1, 32
    27d8:	f1d8           	l32i.n	a13, a1, 60
    27da:	61f8           	l32i.n	a15, a1, 24
    27dc:	023d           	mov.n	a3, a2
    27de:	672d           	ae_s16i.n	a2, a7, 0
    27e0:	3014a6        	blti	a4, 1, 2814 <processAriDecoder_fx+0x680>
    27e3:	2148           	l32i.n	a4, a1, 8
    27e5:	142182        	l32i	a8, a1, 80
    27e8:	f69d61        	l32r	a6, 25c (bad8 <g_p_dec_stream>)
    27eb:	0c3d           	mov.n	a3, a12
    27ed:	1f8476        	loop	a4, 2810 <processAriDecoder_fx+0x67c>
    27f0:	434d           	ae_l16ui.n	a4, a3, 0
    27f2:	06e8           	l32i.n	a14, a6, 0
    27f4:	920b           	addi.n	a9, a2, -1
    27f6:	449c           	beqz.n	a4, 280e <processAriDecoder_fx+0x67a>
    27f8:	52bc           	beqz.n	a2, 2831 <processAriDecoder_fx+0x69d>
    27fa:	034f14        	ae_lbi	a4, 1
    27fd:	684d           	ae_s16i.n	a4, a8, 0
    27ff:	582b           	addi.n	a5, a8, 2
    2801:	112900        	slli	a2, a9, 16
    2804:	001ef4        	ae_dbi	a14, 1
    2807:	312020        	srai	a2, a2, 16
    280a:	058d           	mov.n	a8, a5
    280c:	06e9           	s32i.n	a14, a6, 0
    280e:	332b           	addi.n	a3, a3, 2

00002810 <processAriDecoder_fx+0x67c>:
    2810:	023d           	mov.n	a3, a2
    2812:	472d           	ae_l16ui.n	a2, a7, 0

00002814 <processAriDecoder_fx+0x680>:
    2814:	c02230        	sub	a2, a2, a3
    2817:	672d           	ae_s16i.n	a2, a7, 0
    2819:	ffdb46        	j	278a <processAriDecoder_fx+0x5f6>

0000281c <processAriDecoder_fx+0x688>:
    281c:	a87366        	bnei	a3, 7, 27c8 <processAriDecoder_fx+0x634>
    281f:	3c2d           	ae_l16si.n	a2, a12, 2
    2821:	f37c           	movi.n	a3, -1
    2823:	f43030        	extui	a3, a3, 0, 16
    2826:	202240        	or	a2, a2, a4
    2829:	9b8327        	bany	a3, a2, 27c8 <processAriDecoder_fx+0x634>
    282c:	120c           	movi.n	a2, 1
    282e:	ffe606        	j	27ca <processAriDecoder_fx+0x636>

00002831 <processAriDecoder_fx+0x69d>:
    2831:	020c           	movi.n	a2, 0
    2833:	fff646        	j	2810 <processAriDecoder_fx+0x67c>

00002836 <processAriDecoder_fx+0x6a2>:
	...

00002838 <processAriDecoderScaling_fx>:
    2838:	004136        	entry	a1, 32
    283b:	fc20ed820f 	{ ae_lp16x2f.iu	aep0, a2, 0; ae_zerop48	aep1 }
    2840:	216130        	srai	a6, a3, 1
    2843:	1123a6        	blti	a3, 2, 2858 <processAriDecoderScaling_fx+0x20>
    2846:	f96293722f 	{ or	a7, a2, a2; ae_movp48	aep2, aep0 }
    284b:	f03d           	nop.n
    284d:	078676        	loop	a6, 2858 <processAriDecoderScaling_fx+0x20>
    2850:	fd486da71f 	{ ae_lp16x2f.iu	aep2, a7, 4; ae_abssp24s	aep3, aep2 }
    2855:	0f9b14        	ae_orp48	aep1, aep1, aep3

00002858 <processAriDecoderScaling_fx+0x20>:
    2858:	dd25800f7f 	{ movi	a7, 15; ae_selp24.lh	aep2, aep1, aep1 }
    285d:	071a14        	ae_maxp24s	aep1, aep1, aep2
    2860:	361824        	ae_trunca16p24s.l	a8, aep1
    2863:	40e890        	nsa	a9, a8
    2866:	98ad           	ae_zext16	a10, a8
    2868:	f0c982        	addi	a8, a9, -16
    286b:	8387a0        	moveqz	a8, a7, a10
    286e:	031684        	wur.ae_sar	a8
    2871:	0d23a6        	blti	a3, 2, 2882 <processAriDecoderScaling_fx+0x4a>
    2874:	f8c432        	addi	a3, a4, -8
    2877:	078676        	loop	a6, 2882 <processAriDecoderScaling_fx+0x4a>
    287a:	f823ed821f 	{ ae_lp16x2f.iu	aep0, a2, 4; ae_sllssp24s	aep1, aep0 }
    287f:	5e9314        	ae_sp24x2f.iu	aep1, a3, 8
    2882:	c02780        	sub	a2, a7, a8
    2885:	652d           	ae_s16i.n	a2, a5, 0
    2887:	f01d           	retw.n

00002889 <processAriDecoderScaling_fx+0x51>:
    2889:	000000                                        ...

0000288c <find_last_nz_pair>:
    288c:	006136        	entry	a1, 48
    288f:	216130        	srai	a6, a3, 1
    2892:	217230        	srai	a7, a3, 2
    2895:	055162        	s16i	a6, a1, 10
    2898:	676a           	add.n	a6, a7, a6
    289a:	41e330        	srli	a14, a3, 3
    289d:	440c           	movi.n	a4, 4
    289f:	76ea           	add.n	a7, a6, a14
    28a1:	ff7c           	movi.n	a15, -1
    28a3:	065162        	s16i	a6, a1, 12
    28a6:	075172        	s16i	a7, a1, 14
    28a9:	51eb           	addi.n	a5, a1, 14
    28ab:	060c           	movi.n	a6, 0
    28ad:	017ff0        	slli	a7, a15, 17
    28b0:	fcc222        	addi	a2, a2, -4
    28b3:	045142        	s16i	a4, a1, 8

000028b6 <find_last_nz_pair+0x2a>:
    28b6:	440b           	addi.n	a4, a4, -1
    28b8:	034496        	bltz	a4, 28f0 <find_last_nz_pair+0x64>
    28bb:	259d           	ae_l16si.n	a9, a5, 0
    28bd:	908320        	addx2	a8, a3, a2
    28c0:	262397        	blt	a3, a9, 28ea <find_last_nz_pair+0x5e>
    28c3:	c09390        	sub	a9, a3, a9
    28c6:	992b           	addi.n	a9, a9, 2
    28c8:	41a190        	srli	a10, a9, 1
    28cb:	119300        	slli	a9, a3, 16
    28ce:	188a76        	loop	a10, 28ea <find_last_nz_pair+0x5e>
    28d1:	48bd           	ae_l16ui.n	a11, a8, 0
    28d3:	31a090        	srai	a10, a9, 16
    28d6:	1b8c           	beqz.n	a11, 28db <find_last_nz_pair+0x4f>
    28d8:	5366a0        	max	a6, a6, a10
    28db:	58bd           	ae_l16ui.n	a11, a8, 2
    28dd:	1b8c           	beqz.n	a11, 28e2 <find_last_nz_pair+0x56>
    28df:	5366a0        	max	a6, a6, a10
    28e2:	fec332        	addi	a3, a3, -2
    28e5:	fcc882        	addi	a8, a8, -4
    28e8:	997a           	add.n	a9, a9, a7

000028ea <find_last_nz_pair+0x5e>:
    28ea:	fec552        	addi	a5, a5, -2
    28ed:	c516a6        	blti	a6, 1, 28b6 <find_last_nz_pair+0x2a>

000028f0 <find_last_nz_pair+0x64>:
    28f0:	220c           	movi.n	a2, 2
    28f2:	532620        	max	a2, a6, a2
    28f5:	f01d           	retw.n

000028f7 <find_last_nz_pair+0x6b>:
	...

000028f8 <processSnsQuantizeScfEncoder_fx>:
    28f8:	016136        	entry	a1, 176
    28fb:	f616e1        	l32r	a14, 154 (ba08 <st1SCF0_7_base5_32x8_Q14>)
    28fe:	186132        	s32i	a3, a1, 96
    2901:	f615f1        	l32r	a15, 158 (ba0c <st1SCF8_15_base5_32x8_Q14>)
    2904:	0e38           	l32i.n	a3, a14, 0
    2906:	056d           	mov.n	a6, a5
    2908:	f65951        	l32r	a5, 26c (2dbc <stage1_base>)
    290b:	047d           	mov.n	a7, a4
    290d:	0f48           	l32i.n	a4, a15, 0
    290f:	02ad           	mov.n	a10, a2
    2911:	03bd           	mov.n	a11, a3
    2913:	0005e0        	callx8	a5
    2916:	059d           	mov.n	a9, a5
    2918:	0a5d           	mov.n	a5, a10
    291a:	10c2a2        	addi	a10, a2, 16
    291d:	04bd           	mov.n	a11, a4
    291f:	105652        	s16i	a5, a6, 32
    2922:	0009e0        	callx8	a9
    2925:	1155d0        	slli	a5, a5, 3
    2928:	118ad0        	slli	a8, a10, 3
    292b:	855d           	ae_sext16	a5, a5
    292d:	888d           	ae_sext16	a8, a8
    292f:	890c           	movi.n	a9, 8
    2931:	903530        	addx2	a3, a5, a3
    2934:	1156a2        	s16i	a10, a6, 34
    2937:	904840        	addx2	a4, a8, a4
    293a:	075d           	mov.n	a5, a7
    293c:	226172        	s32i	a7, a1, 136
    293f:	0e8976        	loop	a9, 2951 <processSnsQuantizeScfEncoder_fx+0x59>
    2942:	237d           	ae_l16si.n	a7, a3, 0
    2944:	657d           	ae_s16i.n	a7, a5, 0
    2946:	247d           	ae_l16si.n	a7, a4, 0
    2948:	085572        	s16i	a7, a5, 16
    294b:	332b           	addi.n	a3, a3, 2
    294d:	442b           	addi.n	a4, a4, 2
    294f:	552b           	addi.n	a5, a5, 2

00002951 <processSnsQuantizeScfEncoder_fx+0x59>:
    2951:	182172        	l32i	a7, a1, 96
    2954:	109632        	l16si	a3, a6, 32
    2957:	24c6f2        	addi	a15, a6, 36
    295a:	0739           	s32i.n	a3, a7, 0
    295c:	222132        	l32i	a3, a1, 136
    295f:	119642        	l16si	a4, a6, 34
    2962:	051c           	movi.n	a5, 16
    2964:	1749           	s32i.n	a4, a7, 4
    2966:	064d           	mov.n	a4, a6
    2968:	1d61f2        	s32i	a15, a1, 116
    296b:	0e8576        	loop	a5, 297d <processSnsQuantizeScfEncoder_fx+0x85>
    296e:	225d           	ae_l16si.n	a5, a2, 0
    2970:	237d           	ae_l16si.n	a7, a3, 0
    2972:	222b           	addi.n	a2, a2, 2
    2974:	332b           	addi.n	a3, a3, 2
    2976:	c05570        	sub	a5, a5, a7
    2979:	645d           	ae_s16i.n	a5, a4, 0
    297b:	442b           	addi.n	a4, a4, 2
    297d:	f5f341        	l32r	a4, 14c (ba00 <sns_Kval>)
    2980:	64a152        	movi	a5, 0x164
    2983:	aca1a2        	movi	a10, 0x1ac
    2986:	04c8           	l32i.n	a12, a4, 0
    2988:	565a           	add.n	a5, a6, a5
    298a:	98a182        	movi	a8, 0x198
    298d:	069c42        	l16si	a4, a12, 12
    2990:	d25642        	s16i	a4, a6, 0x1a4
    2993:	049c42        	l16si	a4, a12, 8
    2996:	d35642        	s16i	a4, a6, 0x1a6
    2999:	029c42        	l16si	a4, a12, 4
    299c:	d45642        	s16i	a4, a6, 0x1a8
    299f:	3c4d           	ae_l16si.n	a4, a12, 2
    29a1:	a4a192        	movi	a9, 0x1a4
    29a4:	b4a132        	movi	a3, 0x1b4
    29a7:	c4a1d2        	movi	a13, 0x1c4
    29aa:	44a122        	movi	a2, 0x144
    29ad:	1f6152        	s32i	a5, a1, 124
    29b0:	568a           	add.n	a5, a6, a8
    29b2:	a6aa           	add.n	a10, a6, a10
    29b4:	84a1f2        	movi	a15, 0x184
    29b7:	d55642        	s16i	a4, a6, 0x1aa
    29ba:	f62d81        	l32r	a8, 270 (9c5c <dct16_fx>)
    29bd:	b62a           	add.n	a11, a6, a2
    29bf:	26fa           	add.n	a2, a6, a15
    29c1:	069cf2        	l16si	a15, a12, 12
    29c4:	070c           	movi.n	a7, 0
    29c6:	d4a1e2        	movi	a14, 0x1d4
    29c9:	969a           	add.n	a9, a6, a9
    29cb:	1c61a2        	s32i	a10, a1, 112
    29ce:	363a           	add.n	a3, a6, a3
    29d0:	d6da           	add.n	a13, a6, a13
    29d2:	06ad           	mov.n	a10, a6
    29d4:	1b6132        	s32i	a3, a1, 108
    29d7:	216122        	s32i	a2, a1, 132
    29da:	206152        	s32i	a5, a1, 128
    29dd:	196192        	s32i	a9, a1, 100
    29e0:	1a61d2        	s32i	a13, a1, 104
    29e3:	46ea           	add.n	a4, a6, a14
    29e5:	d75672        	s16i	a7, a6, 0x1ae
    29e8:	d85672        	s16i	a7, a6, 0x1b0
    29eb:	d95672        	s16i	a7, a6, 0x1b2
    29ee:	d656f2        	s16i	a15, a6, 0x1ac
    29f1:	0b3d           	mov.n	a3, a11
    29f3:	1e61b2        	s32i	a11, a1, 120
    29f6:	0008e0        	callx8	a8
    29f9:	aa0c           	movi.n	a10, 10
    29fb:	091c           	movi.n	a9, 16
    29fd:	1c21e2        	l32i	a14, a1, 112
    2a00:	1921f2        	l32i	a15, a1, 100
    2a03:	41a9           	s32i.n	a10, a1, 16
    2a05:	3199           	s32i.n	a9, a1, 12
    2a07:	21e9           	s32i.n	a14, a1, 8
    2a09:	11f9           	s32i.n	a15, a1, 4
    2a0b:	f61a81        	l32r	a8, 274 (8794 <pvq_enc_search_fx>)
    2a0e:	1f21c2        	l32i	a12, a1, 124
    2a11:	1b21f2        	l32i	a15, a1, 108
    2a14:	1a2192        	l32i	a9, a1, 104
    2a17:	03ad           	mov.n	a10, a3
    2a19:	04bd           	mov.n	a11, a4
    2a1b:	02dd           	mov.n	a13, a2
    2a1d:	05ed           	mov.n	a14, a5
    2a1f:	0199           	s32i.n	a9, a1, 0
    2a21:	0008e0        	callx8	a8
    2a24:	24a182        	movi	a8, 0x124
    2a27:	368a           	add.n	a3, a6, a8
    2a29:	a4a0a2        	movi	a10, 164
    2a2c:	1b6132        	s32i	a3, a1, 108
    2a2f:	04a192        	movi	a9, 0x104
    2a32:	f61131        	l32r	a3, 278 (c14 <basop_memmove>)
    2a35:	44c622        	addi	a2, a6, 68
    2a38:	64c6e2        	addi	a14, a6, 100
    2a3b:	56aa           	add.n	a5, a6, a10
    2a3d:	a69a           	add.n	a10, a6, a9
    2a3f:	84a0f2        	movi	a15, 132
    2a42:	0c2c           	movi.n	a12, 32
    2a44:	04bd           	mov.n	a11, a4
    2a46:	196122        	s32i	a2, a1, 100
    2a49:	1a61e2        	s32i	a14, a1, 104
    2a4c:	26fa           	add.n	a2, a6, a15
    2a4e:	1c61a2        	s32i	a10, a1, 112
    2a51:	236142        	s32i	a4, a1, 140
    2a54:	0003e0        	callx8	a3
    2a57:	034d           	mov.n	a4, a3
    2a59:	1d2132        	l32i	a3, a1, 116
    2a5c:	1f21b2        	l32i	a11, a1, 124
    2a5f:	0c2c           	movi.n	a12, 32
    2a61:	03ad           	mov.n	a10, a3
    2a63:	0004e0        	callx8	a4
    2a66:	1e21b2        	l32i	a11, a1, 120
    2a69:	0c2c           	movi.n	a12, 32
    2a6b:	02ad           	mov.n	a10, a2
    2a6d:	0004e0        	callx8	a4
    2a70:	f5b741        	l32r	a4, 14c (ba00 <sns_Kval>)
    2a73:	0d1c           	movi.n	a13, 16
    2a75:	05ad           	mov.n	a10, a5
    2a77:	0448           	l32i.n	a4, a4, 0
    2a79:	03bd           	mov.n	a11, a3
    2a7b:	1e6152        	s32i	a5, a1, 120
    2a7e:	0494c2        	l16si	a12, a4, 8
    2a81:	f5fe41        	l32r	a4, 27c (316c <pvq_dec_en1_normQ14_fx>)
    2a84:	0004e0        	callx8	a4
    2a87:	f5b131        	l32r	a3, 14c (ba00 <sns_Kval>)
    2a8a:	1b21a2        	l32i	a10, a1, 108
    2a8d:	1c21b2        	l32i	a11, a1, 112
    2a90:	03f8           	l32i.n	a15, a3, 0
    2a92:	0d1c           	movi.n	a13, 16
    2a94:	069fc2        	l16si	a12, a15, 12
    2a97:	0004e0        	callx8	a4
    2a9a:	212132        	l32i	a3, a1, 132
    2a9d:	1921a2        	l32i	a10, a1, 100
    2aa0:	f5f641        	l32r	a4, 278 (c14 <basop_memmove>)
    2aa3:	4c1c           	movi.n	a12, 20
    2aa5:	03bd           	mov.n	a11, a3
    2aa7:	0004e0        	callx8	a4
    2aaa:	1a21a2        	l32i	a10, a1, 104
    2aad:	4c1c           	movi.n	a12, 20
    2aaf:	03bd           	mov.n	a11, a3
    2ab1:	0004e0        	callx8	a4
    2ab4:	202192        	l32i	a9, a1, 128
    2ab7:	140c           	movi.n	a4, 1
    2ab9:	650c           	movi.n	a5, 6
    2abb:	58c632        	addi	a3, a6, 88
    2abe:	114400        	slli	a4, a4, 16
    2ac1:	0c8576        	loop	a5, 2ad1 <processSnsQuantizeScfEncoder_fx+0x1d9>
    2ac4:	215f70        	srai	a5, a7, 15
    2ac7:	595a           	add.n	a5, a9, a5
    2ac9:	255d           	ae_l16si.n	a5, a5, 0
    2acb:	635d           	ae_s16i.n	a5, a3, 0
    2acd:	774a           	add.n	a7, a7, a4
    2acf:	332b           	addi.n	a3, a3, 2
    2ad1:	e4a042        	movi	a4, 228
    2ad4:	f5e451        	l32r	a5, 264 (bf8 <basop_memset>)
    2ad7:	c4a032        	movi	a3, 196
    2ada:	764a           	add.n	a7, a6, a4
    2adc:	78c6a2        	addi	a10, a6, 120
    2adf:	0b0c           	movi.n	a11, 0
    2ae1:	cc0c           	movi.n	a12, 12
    2ae3:	363a           	add.n	a3, a6, a3
    2ae5:	1d6172        	s32i	a7, a1, 116
    2ae8:	060c           	movi.n	a6, 0
    2aea:	0005e0        	callx8	a5
    2aed:	f59751        	l32r	a5, 14c (ba00 <sns_Kval>)
    2af0:	1921b2        	l32i	a11, a1, 100
    2af3:	f5e241        	l32r	a4, 27c (316c <pvq_dec_en1_normQ14_fx>)
    2af6:	0558           	l32i.n	a5, a5, 0
    2af8:	0d1c           	movi.n	a13, 16
    2afa:	03ad           	mov.n	a10, a3
    2afc:	25cd           	ae_l16si.n	a12, a5, 0
    2afe:	0004e0        	callx8	a4
    2b01:	f59251        	l32r	a5, 14c (ba00 <sns_Kval>)
    2b04:	1a21b2        	l32i	a11, a1, 104
    2b07:	0d1c           	movi.n	a13, 16
    2b09:	0558           	l32i.n	a5, a5, 0
    2b0b:	07ad           	mov.n	a10, a7
    2b0d:	0295c2        	l16si	a12, a5, 4
    2b10:	0004e0        	callx8	a4
    2b13:	f58a51        	l32r	a5, 13c (b9f0 <sns_gaintabPtr>)
    2b16:	f58a71        	l32r	a7, 140 (b9f4 <sns_gainSz>)
    2b19:	f87c           	movi.n	a8, -1
    2b1b:	0558           	l32i.n	a5, a5, 0
    2b1d:	07a8           	l32i.n	a10, a7, 0
    2b1f:	8139           	s32i.n	a3, a1, 32
    2b21:	418180        	srli	a8, a8, 1
    2b24:	1d2142        	l32i	a4, a1, 116
    2b27:	360834        	ae_cvtq48a32s	aeq0, a8
    2b2a:	0588           	l32i.n	a8, a5, 0
    2b2c:	4acd           	ae_l16ui.n	a12, a10, 0
    2b2e:	9149           	s32i.n	a4, a1, 36
    2b30:	1e21d2        	l32i	a13, a1, 120
    2b33:	1598           	l32i.n	a9, a5, 4
    2b35:	3abd           	ae_l16si.n	a11, a10, 2
    2b37:	a1d9           	s32i.n	a13, a1, 40
    2b39:	1b21f2        	l32i	a15, a1, 108
    2b3c:	156192        	s32i	a9, a1, 84
    2b3f:	25e8           	l32i.n	a14, a5, 8
    2b41:	029a92        	l16si	a9, a10, 4
    2b44:	b1f9           	s32i.n	a15, a1, 44
    2b46:	3558           	l32i.n	a5, a5, 12
    2b48:	039aa2        	l16si	a10, a10, 6
    2b4b:	146182        	s32i	a8, a1, 80
    2b4e:	0d51b2        	s16i	a11, a1, 26
    2b51:	0e5192        	s16i	a9, a1, 28
    2b54:	0f51a2        	s16i	a10, a1, 30
    2b57:	1ac132        	addi	a3, a1, 26
    2b5a:	f47c           	movi.n	a4, -1
    2b5c:	20c172        	addi	a7, a1, 32
    2b5f:	1661e2        	s32i	a14, a1, 88
    2b62:	50c182        	addi	a8, a1, 80
    2b65:	890c           	movi.n	a9, 8
    2b67:	8cbd           	ae_sext16	a11, a12
    2b69:	0c51c2        	s16i	a12, a1, 24
    2b6c:	176152        	s32i	a5, a1, 92

00002b6f <processSnsQuantizeScfEncoder_fx+0x277>:
    2b6f:	8c5d           	ae_sext16	a5, a12
    2b71:	4415a6        	blti	a5, 1, 2bb9 <processSnsQuantizeScfEncoder_fx+0x2c1>
    2b74:	fd24b008ce 	{ l32i	a12, a8, 0; ae_zeroq56	aeq1 }
    2b79:	07d8           	l32i.n	a13, a7, 0
    2b7b:	0e0c           	movi.n	a14, 0
    2b7d:	0c5d           	mov.n	a5, a12
    2b7f:	408504        	ae_lp16f.iu	aep0, a5, 0
    2b82:	0dfd           	mov.n	a15, a13
    2b84:	205220        	or	a5, a2, a2
    2b87:	449f04        	ae_lp16x2f.iu	aep1, a15, 0
    2b8a:	44a504        	ae_lp16x2f.iu	aep2, a5, 0
    2b8d:	128976        	loop	a9, 2ba3 <processSnsQuantizeScfEncoder_fx+0x2ab>
    2b90:	008164        	ae_mulfs32p16s.lh	aeq2, aep0, aep1
    2b93:	008974        	ae_mulfs32p16s.ll	aeq3, aep0, aep1
    2b96:	09af14        	ae_truncp24q48x2	aep1, aeq2, aeq3
    2b99:	dd2aad9f1f 	{ ae_lp16x2f.iu	aep1, a15, 4; ae_subsp24s	aep2, aep2, aep1 }
    2b9e:	e248eda51f 	{ ae_lp16x2f.iu	aep2, a5, 4; ae_mulaap24s.hh.ll	aeq1, aep2, aep2 }

00002ba3 <processSnsQuantizeScfEncoder_fx+0x2ab>:
    2ba3:	098104        	ae_ltq56s	b0, aeq1, aeq0
    2ba6:	060076        	bf	b0, 2bb0 <processSnsQuantizeScfEncoder_fx+0x2b8>
    2ba9:	fc0c53466f 	{ or	a4, a6, a6; ae_movq56	aeq0, aeq1 }
    2bae:	0ead           	mov.n	a10, a14

00002bb0 <processSnsQuantizeScfEncoder_fx+0x2b8>:
    2bb0:	ee1b           	addi.n	a14, a14, 1
    2bb2:	cc2b           	addi.n	a12, a12, 2
    2bb4:	fd249c5ebe 	{ blt	a14, a11, 2b7d <processSnsQuantizeScfEncoder_fx+0x285>; ae_zeroq56	aeq1 }
    2bb9:	0e3626        	beqi	a6, 3, 2bcb <processSnsQuantizeScfEncoder_fx+0x2d3>
    2bbc:	23bd           	ae_l16si.n	a11, a3, 0
    2bbe:	661b           	addi.n	a6, a6, 1
    2bc0:	774b           	addi.n	a7, a7, 4
    2bc2:	884b           	addi.n	a8, a8, 4
    2bc4:	332b           	addi.n	a3, a3, 2
    2bc6:	0bcd           	mov.n	a12, a11
    2bc8:	ffe8c6        	j	2b6f <processSnsQuantizeScfEncoder_fx+0x277>

00002bcb <processSnsQuantizeScfEncoder_fx+0x2d3>:
    2bcb:	113a00        	slli	a3, a10, 16
    2bce:	213e30        	srai	a3, a3, 14
    2bd1:	541b           	addi.n	a5, a4, 1
    2bd3:	734a           	add.n	a7, a3, a4
    2bd5:	837450        	moveqz	a7, a4, a5
    2bd8:	20c162        	addi	a6, a1, 32
    2bdb:	143070        	extui	a3, a7, 0, 2
    2bde:	a0f360        	addx4	a15, a3, a6
    2be1:	0fa8           	l32i.n	a10, a15, 0
    2be3:	f5a741        	l32r	a4, 280 (a0d4 <idct16_fx>)
    2be6:	02bd           	mov.n	a11, a2
    2be8:	0004e0        	callx8	a4
    2beb:	50c142        	addi	a4, a1, 80
    2bee:	a04340        	addx4	a4, a3, a4
    2bf1:	0468           	l32i.n	a6, a4, 0
    2bf3:	115720        	slli	a5, a7, 14
    2bf6:	314050        	srai	a4, a5, 16
    2bf9:	905460        	addx2	a5, a4, a6
    2bfc:	25bd           	ae_l16si.n	a11, a5, 0
    2bfe:	f5a151        	l32r	a5, 284 (3140 <pvq_dec_scale_vec_fx>)
    2c01:	2221c2        	l32i	a12, a1, 136
    2c04:	02ad           	mov.n	a10, a2
    2c06:	0005e0        	callx8	a5
    2c09:	182162        	l32i	a6, a1, 96
    2c0c:	045070        	extui	a5, a7, 0, 1
    2c0f:	f54f21        	l32r	a2, 14c (ba00 <sns_Kval>)
    2c12:	2639           	s32i.n	a3, a6, 8
    2c14:	4ae717        	bbsi	a7, 1, 2c62 <processSnsQuantizeScfEncoder_fx+0x36a>
    2c17:	f54d21        	l32r	a2, 14c (ba00 <sns_Kval>)
    2c1a:	2121b2        	l32i	a11, a1, 132
    2c1d:	20c1a2        	addi	a10, a1, 32
    2c20:	0228           	l32i.n	a2, a2, 0
    2c22:	ac0c           	movi.n	a12, 10
    2c24:	a02320        	addx4	a2, a3, a2
    2c27:	22dd           	ae_l16si.n	a13, a2, 0
    2c29:	f59731        	l32r	a3, 288 (2f30 <mpvq_index_fx>)
    2c2c:	0003e0        	callx8	a3
    2c2f:	1821f2        	l32i	a15, a1, 96
    2c32:	9168           	l32i.n	a6, a1, 36
    2c34:	182172        	l32i	a7, a1, 96
    2c37:	1821e2        	l32i	a14, a1, 96
    2c3a:	5f69           	s32i.n	a6, a15, 20
    2c3c:	182162        	l32i	a6, a1, 96
    2c3f:	109122        	l16si	a2, a1, 32
    2c42:	3749           	s32i.n	a4, a7, 12
    2c44:	4e29           	s32i.n	a2, a14, 16
    2c46:	b5fc           	bnez.n	a5, 2c85 <processSnsQuantizeScfEncoder_fx+0x38d>
    2c48:	2021b2        	l32i	a11, a1, 128
    2c4b:	20c1a2        	addi	a10, a1, 32
    2c4e:	6c0c           	movi.n	a12, 6
    2c50:	1d0c           	movi.n	a13, 1
    2c52:	620c           	movi.n	a2, 6
    2c54:	0003e0        	callx8	a3
    2c57:	109132        	l16si	a3, a1, 32
    2c5a:	9148           	l32i.n	a4, a1, 36
    2c5c:	903430        	addx2	a3, a4, a3
    2c5f:	001346        	j	2cb0 <processSnsQuantizeScfEncoder_fx+0x3b8>

00002c62 <processSnsQuantizeScfEncoder_fx+0x36a>:
    2c62:	3649           	s32i.n	a4, a6, 12
    2c64:	45ec           	bnez.n	a5, 2c8c <processSnsQuantizeScfEncoder_fx+0x394>
    2c66:	0228           	l32i.n	a2, a2, 0
    2c68:	1f21b2        	l32i	a11, a1, 124
    2c6b:	20c1a2        	addi	a10, a1, 32
    2c6e:	a02320        	addx4	a2, a3, a2
    2c71:	22dd           	ae_l16si.n	a13, a2, 0
    2c73:	f58521        	l32r	a2, 288 (2f30 <mpvq_index_fx>)
    2c76:	0c1c           	movi.n	a12, 16
    2c78:	0002e0        	callx8	a2
    2c7b:	101122        	l16ui	a2, a1, 32
    2c7e:	9138           	l32i.n	a3, a1, 36
    2c80:	f47c           	movi.n	a4, -1
    2c82:	000886        	j	2ca8 <processSnsQuantizeScfEncoder_fx+0x3b0>

00002c85 <processSnsQuantizeScfEncoder_fx+0x38d>:
    2c85:	e37c           	movi.n	a3, -2
    2c87:	620c           	movi.n	a2, 6
    2c89:	0008c6        	j	2cb0 <processSnsQuantizeScfEncoder_fx+0x3b8>

00002c8c <processSnsQuantizeScfEncoder_fx+0x394>:
    2c8c:	0228           	l32i.n	a2, a2, 0
    2c8e:	2321b2        	l32i	a11, a1, 140
    2c91:	20c1a2        	addi	a10, a1, 32
    2c94:	a02320        	addx4	a2, a3, a2
    2c97:	22dd           	ae_l16si.n	a13, a2, 0
    2c99:	f57b21        	l32r	a2, 288 (2f30 <mpvq_index_fx>)
    2c9c:	0c1c           	movi.n	a12, 16
    2c9e:	0002e0        	callx8	a2
    2ca1:	101122        	l16ui	a2, a1, 32
    2ca4:	9138           	l32i.n	a3, a1, 36
    2ca6:	e47c           	movi.n	a4, -2
    2ca8:	5639           	s32i.n	a3, a6, 20
    2caa:	823d           	ae_sext16	a3, a2
    2cac:	420c           	movi.n	a2, 4
    2cae:	6649           	s32i.n	a4, a6, 24
    2cb0:	a02260        	addx4	a2, a2, a6
    2cb3:	0239           	s32i.n	a3, a2, 0
    2cb5:	f01d           	retw.n

00002cb7 <processSnsQuantizeScfEncoder_fx+0x3bf>:
	...

00002cb8 <processSnsQuantizeScfDecoder_fx>:
    2cb8:	006136        	entry	a1, 48
    2cbb:	026d           	mov.n	a6, a2
    2cbd:	f52691        	l32r	a9, 158 (ba0c <st1SCF8_15_base5_32x8_Q14>)
    2cc0:	f525f1        	l32r	a15, 154 (ba08 <st1SCF0_7_base5_32x8_Q14>)
    2cc3:	225d           	ae_l16si.n	a5, a2, 0
    2cc5:	029282        	l16si	a8, a2, 4
    2cc8:	0f28           	l32i.n	a2, a15, 0
    2cca:	0998           	l32i.n	a9, a9, 0
    2ccc:	1155d0        	slli	a5, a5, 3
    2ccf:	1188d0        	slli	a8, a8, 3
    2cd2:	888d           	ae_sext16	a8, a8
    2cd4:	855d           	ae_sext16	a5, a5
    2cd6:	870c           	movi.n	a7, 8
    2cd8:	902520        	addx2	a2, a5, a2
    2cdb:	908890        	addx2	a8, a8, a9
    2cde:	035d           	mov.n	a5, a3
    2ce0:	3139           	s32i.n	a3, a1, 12
    2ce2:	0e8776        	loop	a7, 2cf4 <processSnsQuantizeScfDecoder_fx+0x3c>
    2ce5:	227d           	ae_l16si.n	a7, a2, 0
    2ce7:	657d           	ae_s16i.n	a7, a5, 0
    2ce9:	287d           	ae_l16si.n	a7, a8, 0
    2ceb:	085572        	s16i	a7, a5, 16
    2cee:	222b           	addi.n	a2, a2, 2
    2cf0:	882b           	addi.n	a8, a8, 2
    2cf2:	552b           	addi.n	a5, a5, 2

00002cf4 <processSnsQuantizeScfDecoder_fx+0x3c>:
    2cf4:	f51251        	l32r	a5, 13c (b9f0 <sns_gaintabPtr>)
    2cf7:	2638           	l32i.n	a3, a6, 8
    2cf9:	f514a1        	l32r	a10, 14c (ba00 <sns_Kval>)
    2cfc:	05b8           	l32i.n	a11, a5, 0
    2cfe:	602040        	neg	a2, a4
    2d01:	11d300        	slli	a13, a3, 16
    2d04:	242020        	extui	a2, a2, 0, 3
    2d07:	0ac8           	l32i.n	a12, a10, 0
    2d09:	21aed0        	srai	a10, a13, 14
    2d0c:	742a           	add.n	a7, a4, a2
    2d0e:	2baa           	add.n	a2, a11, a10
    2d10:	3688           	l32i.n	a8, a6, 12
    2d12:	02f8           	l32i.n	a15, a2, 0
    2d14:	5caa           	add.n	a5, a12, a10
    2d16:	455d           	ae_l16ui.n	a5, a5, 0
    2d18:	4698           	l32i.n	a9, a6, 16
    2d1a:	9088f0        	addx2	a8, a8, a15
    2d1d:	56e8           	l32i.n	a14, a6, 20
    2d1f:	40c7b2        	addi	a11, a7, 64
    2d22:	48fd           	ae_l16ui.n	a15, a8, 0
    2d24:	93cd           	ae_zext16	a12, a3
    2d26:	20c742        	addi	a4, a7, 32
    2d29:	21b9           	s32i.n	a11, a1, 8
    2d2b:	11f9           	s32i.n	a15, a1, 4
    2d2d:	855d           	ae_sext16	a5, a5
    2d2f:	89dd           	ae_sext16	a13, a9
    2d31:	252cf6        	bgeui	a12, 2, 2d5a <processSnsQuantizeScfDecoder_fx+0xa2>
    2d34:	f55621        	l32r	a2, 28c (30f0 <pvq_dec_deidx_fx>)
    2d37:	ac0c           	movi.n	a12, 10
    2d39:	07ad           	mov.n	a10, a7
    2d3b:	05bd           	mov.n	a11, a5
    2d3d:	0002e0        	callx8	a2
    2d40:	f87c           	movi.n	a8, -1
    2d42:	f48080        	extui	a8, a8, 0, 16
    2d45:	0a2d           	mov.n	a2, a10
    2d47:	200837        	bnone	a8, a3, 2d6b <processSnsQuantizeScfDecoder_fx+0xb3>
    2d4a:	f54631        	l32r	a3, 264 (bf8 <basop_memset>)
    2d4d:	14c7a2        	addi	a10, a7, 20
    2d50:	0b0c           	movi.n	a11, 0
    2d52:	cc0c           	movi.n	a12, 12
    2d54:	0003e0        	callx8	a3
    2d57:	000d06        	j	2d8f <processSnsQuantizeScfDecoder_fx+0xd7>

00002d5a <processSnsQuantizeScfDecoder_fx+0xa2>:
    2d5a:	f54c31        	l32r	a3, 28c (30f0 <pvq_dec_deidx_fx>)
    2d5d:	0c1c           	movi.n	a12, 16
    2d5f:	07ad           	mov.n	a10, a7
    2d61:	05bd           	mov.n	a11, a5
    2d63:	0003e0        	callx8	a3
    2d66:	0a2d           	mov.n	a2, a10
    2d68:	0008c6        	j	2d8f <processSnsQuantizeScfDecoder_fx+0xd7>

00002d6b <processSnsQuantizeScfDecoder_fx+0xb3>:
    2d6b:	f4f881        	l32r	a8, 14c (ba00 <sns_Kval>)
    2d6e:	6668           	l32i.n	a6, a6, 24
    2d70:	833d           	ae_sext16	a3, a3
    2d72:	0888           	l32i.n	a8, a8, 0
    2d74:	869d           	ae_sext16	a9, a6
    2d76:	14c7a2        	addi	a10, a7, 20
    2d79:	a03380        	addx4	a3, a3, a8
    2d7c:	33bd           	ae_l16si.n	a11, a3, 2
    2d7e:	f54331        	l32r	a3, 28c (30f0 <pvq_dec_deidx_fx>)
    2d81:	21e190        	srai	a14, a9, 1
    2d84:	04d060        	extui	a13, a6, 0, 1
    2d87:	6c0c           	movi.n	a12, 6
    2d89:	0003e0        	callx8	a3
    2d8c:	202a20        	or	a2, a10, a2
    2d8f:	f53b31        	l32r	a3, 27c (316c <pvq_dec_en1_normQ14_fx>)
    2d92:	0d1c           	movi.n	a13, 16
    2d94:	04ad           	mov.n	a10, a4
    2d96:	07bd           	mov.n	a11, a7
    2d98:	05cd           	mov.n	a12, a5
    2d9a:	0003e0        	callx8	a3
    2d9d:	04ad           	mov.n	a10, a4
    2d9f:	2148           	l32i.n	a4, a1, 8
    2da1:	f53731        	l32r	a3, 280 (a0d4 <idct16_fx>)
    2da4:	04bd           	mov.n	a11, a4
    2da6:	0003e0        	callx8	a3
    2da9:	1138           	l32i.n	a3, a1, 4
    2dab:	31c8           	l32i.n	a12, a1, 12
    2dad:	04ad           	mov.n	a10, a4
    2daf:	83bd           	ae_sext16	a11, a3
    2db1:	f53431        	l32r	a3, 284 (3140 <pvq_dec_scale_vec_fx>)
    2db4:	0003e0        	callx8	a3
    2db7:	f01d           	retw.n

00002db9 <processSnsQuantizeScfDecoder_fx+0x101>:
    2db9:	000000                                        ...

00002dbc <stage1_base>:
    2dbc:	004136        	entry	a1, 32
    2dbf:	fc2493433f 	{ or	a4, a3, a3; ae_zeroq56	aeq0 }
    2dc4:	fd046d820f 	{ ae_lp16x2f.iu	aep0, a2, 0; ae_movq56	aeq1, aeq0 }
    2dc9:	460c           	movi.n	a6, 4
    2dcb:	f962ad940f 	{ ae_lp16x2f.iu	aep1, a4, 0; ae_movp48	aep2, aep0 }
    2dd0:	025d           	mov.n	a5, a2
    2dd2:	0020f0        	nop
    2dd5:	098676        	loop	a6, 2de2 <stage1_base+0x26>
    2dd8:	dd46ad941f 	{ ae_lp16x2f.iu	aep1, a4, 4; ae_subsp24s	aep2, aep1, aep2 }
    2ddd:	e248eda51f 	{ ae_lp16x2f.iu	aep2, a5, 4; ae_mulaap24s.hh.ll	aeq1, aep2, aep2 }

00002de2 <stage1_base+0x26>:
    2de2:	f96281033e 	{ addi	a3, a3, 16; ae_movp48	aep2, aep0 }
    2de7:	040c           	movi.n	a4, 0
    2de9:	150c           	movi.n	a5, 1
    2deb:	04a062        	movi	a6, 4
    2dee:	fe0c6d930f 	{ ae_lp16x2f.iu	aep1, a3, 0; ae_movq56	aeq2, aeq1 }

00002df3 <stage1_base+0x37>:
    2df3:	027d           	mov.n	a7, a2
    2df5:	098676        	loop	a6, 2e02 <stage1_base+0x46>
    2df8:	dd46ad931f 	{ ae_lp16x2f.iu	aep1, a3, 4; ae_subsp24s	aep2, aep1, aep2 }
    2dfd:	f14b2da71f 	{ ae_lp16x2f.iu	aep2, a7, 4; ae_mulssp24s.hh.ll	aeq2, aep2, aep2 }

00002e02 <stage1_base+0x46>:
    2e02:	d6503f00bf 	{ ae_movp48	aep2, aep0; ae_ltq56s	b0, aeq0, aeq2 }
    2e07:	01c2c4        	ae_maxq56s	aeq3, aeq2, aeq0
    2e0a:	015fc4        	ae_subq56	aeq1, aeq1, aeq3
    2e0d:	fe0c56450f 	{ movt	a4, a5, b0; ae_movq56	aeq2, aeq1 }
    2e12:	551b           	addi.n	a5, a5, 1
    2e14:	dbc566        	bnei	a5, 32, 2df3 <stage1_base+0x37>
    2e17:	842d           	ae_sext16	a2, a4
    2e19:	f01d           	retw.n

00002e1b <stage1_base+0x5f>:
    2e1b:	00000000                                 .....

00002e20 <get_size_mpvq_calc_offset_fx>:
    2e20:	004136        	entry	a1, 32
    2e23:	060c           	movi.n	a6, 0
    2e25:	f41b           	addi.n	a15, a4, 1
    2e27:	1269           	s32i.n	a6, a2, 4
    2e29:	626d           	ae_s16i.n	a6, a2, 0
    2e2b:	8f6d           	ae_sext16	a6, a15
    2e2d:	065232        	s16i	a3, a2, 12
    2e30:	075242        	s16i	a4, a2, 14
    2e33:	019696        	bltz	a6, 2e50 <get_size_mpvq_calc_offset_fx+0x30>
    2e36:	f4c971        	l32r	a7, 15c (ba1c <MPVQ_offs_ptr>)
    2e39:	961b           	addi.n	a9, a6, 1
    2e3b:	058d           	mov.n	a8, a5
    2e3d:	0778           	l32i.n	a7, a7, 0
    2e3f:	a07370        	addx4	a7, a3, a7
    2e42:	002772        	l32i	a7, a7, 0
    2e45:	078976        	loop	a9, 2e50 <get_size_mpvq_calc_offset_fx+0x30>
    2e48:	0798           	l32i.n	a9, a7, 0
    2e4a:	0899           	s32i.n	a9, a8, 0
    2e4c:	774b           	addi.n	a7, a7, 4
    2e4e:	884b           	addi.n	a8, a8, 4

00002e50 <get_size_mpvq_calc_offset_fx+0x30>:
    2e50:	f4c471        	l32r	a7, 160 (ba20 <tabledKMAX>)
    2e53:	a06650        	addx4	a6, a6, a5
    2e56:	948d           	ae_zext16	a8, a4
    2e58:	0778           	l32i.n	a7, a7, 0
    2e5a:	903370        	addx2	a3, a3, a7
    2e5d:	437d           	ae_l16ui.n	a7, a3, 0
    2e5f:	0638           	l32i.n	a3, a6, 0
    2e61:	041787        	beq	a7, a8, 2e69 <get_size_mpvq_calc_offset_fx+0x49>
    2e64:	413130        	srli	a3, a3, 1
    2e67:	0639           	s32i.n	a3, a6, 0

00002e69 <get_size_mpvq_calc_offset_fx+0x49>:
    2e69:	a04450        	addx4	a4, a4, a5
    2e6c:	0448           	l32i.n	a4, a4, 0
    2e6e:	414140        	srli	a4, a4, 1
    2e71:	334a           	add.n	a3, a3, a4
    2e73:	331b           	addi.n	a3, a3, 1
    2e75:	2239           	s32i.n	a3, a2, 8
    2e77:	f01d           	retw.n

00002e79 <get_size_mpvq_calc_offset_fx+0x59>:
    2e79:	000000                                        ...

00002e7c <mpvq_deindex_fx>:
    2e7c:	004136        	entry	a1, 32
    2e7f:	069252        	l16si	a5, a2, 12
    2e82:	0b0c           	movi.n	a11, 0
    2e84:	04ad           	mov.n	a10, a4
    2e86:	11c5f0        	slli	a12, a5, 1
    2e89:	f4f651        	l32r	a5, 264 (bf8 <basop_memset>)
    2e8c:	0005e0        	callx8	a5
    2e8f:	071262        	l16ui	a6, a2, 14
    2e92:	069252        	l16si	a5, a2, 12
    2e95:	42bd           	ae_l16ui.n	a11, a2, 0
    2e97:	093616        	beqz	a6, 2f2e <mpvq_deindex_fx+0xb2>
    2e9a:	0215e6        	bgei	a5, 1, 2ea0 <mpvq_deindex_fx+0x24>
    2e9d:	002346        	j	2f2e <mpvq_deindex_fx+0xb2>
    2ea0:	1228           	l32i.n	a2, a2, 4
    2ea2:	f97c           	movi.n	a9, -1
    2ea4:	fc7c           	movi.n	a12, -1
    2ea6:	180c           	movi.n	a8, 1
    2ea8:	fcc372        	addi	a7, a3, -4
    2eab:	f49090        	extui	a9, a9, 0, 16
    2eae:	fa7c           	movi.n	a10, -1
    2eb0:	938cb0        	movnez	a8, a12, a11

00002eb3 <mpvq_deindex_fx+0x37>:
    2eb3:	06f216        	beqz	a2, 2f26 <mpvq_deindex_fx+0xaa>
    2eb6:	86bd           	ae_sext16	a11, a6
    2eb8:	a0bb30        	addx4	a11, a11, a3
    2ebb:	0bc8           	l32i.n	a12, a11, 0
    2ebd:	06bd           	mov.n	a11, a6
    2ebf:	0fb2c7        	bgeu	a2, a12, 2ed2 <mpvq_deindex_fx+0x56>
    2ec2:	b60b           	addi.n	a11, a6, -1
    2ec4:	8bcd           	ae_sext16	a12, a11
    2ec6:	a0cc30        	addx4	a12, a12, a3
    2ec9:	0cc8           	l32i.n	a12, a12, 0
    2ecb:	bb0b           	addi.n	a11, a11, -1
    2ecd:	f332c7        	bltu	a2, a12, 2ec4 <mpvq_deindex_fx+0x48>
    2ed0:	bb1b           	addi.n	a11, a11, 1
    2ed2:	c0d6b0        	sub	a13, a6, a11
    2ed5:	c022c0        	sub	a2, a2, a12
    2ed8:	1409d7        	bnone	a9, a13, 2ef0 <mpvq_deindex_fx+0x74>
    2edb:	6060d0        	neg	a6, a13
    2ede:	b36d80        	movgez	a6, a13, a8
    2ee1:	04c020        	extui	a12, a2, 0, 1
    2ee4:	180c           	movi.n	a8, 1
    2ee6:	646d           	ae_s16i.n	a6, a4, 0
    2ee8:	412120        	srli	a2, a2, 1
    2eeb:	0b6d           	mov.n	a6, a11
    2eed:	938ac0        	movnez	a8, a10, a12
    2ef0:	b61b           	addi.n	a11, a6, 1
    2ef2:	8bbd           	ae_sext16	a11, a11
    2ef4:	271ba6        	blti	a11, 1, 2f1f <mpvq_deindex_fx+0xa3>
    2ef7:	9bed           	ae_zext16	a14, a11
    2ef9:	0b0c           	movi.n	a11, 0
    2efb:	03dd           	mov.n	a13, a3
    2efd:	ce1b           	addi.n	a12, a14, 1
    2eff:	0d8e76        	loop	a14, 2f10 <mpvq_deindex_fx+0x94>
    2f02:	1de8           	l32i.n	a14, a13, 4
    2f04:	0df8           	l32i.n	a15, a13, 0
    2f06:	0db9           	s32i.n	a11, a13, 0
    2f08:	c0eeb0        	sub	a14, a14, a11
    2f0b:	dd4b           	addi.n	a13, a13, 4
    2f0d:	c0bef0        	sub	a11, a14, a15

00002f10 <mpvq_deindex_fx+0x94>:
    2f10:	a0cc70        	addx4	a12, a12, a7
    2f13:	550b           	addi.n	a5, a5, -1
    2f15:	442b           	addi.n	a4, a4, 2
    2f17:	0cb9           	s32i.n	a11, a12, 0
    2f19:	f96556        	bnez	a5, 2eb3 <mpvq_deindex_fx+0x37>
    2f1c:	000386        	j	2f2e <mpvq_deindex_fx+0xb2>

00002f1f <mpvq_deindex_fx+0xa3>:
    2f1f:	0b0c           	movi.n	a11, 0
    2f21:	1c0c           	movi.n	a12, 1
    2f23:	fffa46        	j	2f10 <mpvq_deindex_fx+0x94>

00002f26 <mpvq_deindex_fx+0xaa>:
    2f26:	602060        	neg	a2, a6
    2f29:	b32680        	movgez	a2, a6, a8
    2f2c:	642d           	ae_s16i.n	a2, a4, 0
    2f2e:	f01d           	retw.n

00002f30 <mpvq_index_fx>:
    2f30:	010136        	entry	a1, 128
    2f33:	160c           	movi.n	a6, 1
    2f35:	116610        	slli	a6, a6, 15
    2f38:	156152        	s32i	a5, a1, 84
    2f3b:	075252        	s16i	a5, a2, 14
    2f3e:	f4d451        	l32r	a5, 290 (9c4c <UL_deposit_h>)
    2f41:	06ad           	mov.n	a10, a6
    2f43:	065242        	s16i	a4, a2, 12
    2f46:	0005e0        	callx8	a5
    2f49:	fec442        	addi	a4, a4, -2
    2f4c:	844d           	ae_sext16	a4, a4
    2f4e:	907430        	addx2	a7, a4, a3
    2f51:	146142        	s32i	a4, a1, 80
    2f54:	374d           	ae_l16si.n	a4, a7, 2
    2f56:	278d           	ae_l16si.n	a8, a7, 0
    2f58:	090c           	movi.n	a9, 0
    2f5a:	06ad           	mov.n	a10, a6
    2f5c:	136122        	s32i	a2, a1, 76
    2f5f:	1299           	s32i.n	a9, a2, 4
    2f61:	602180        	abs	a2, a8
    2f64:	604140        	abs	a4, a4
    2f67:	126132        	s32i	a3, a1, 72
    2f6a:	342a           	add.n	a3, a4, a2
    2f6c:	0005e0        	callx8	a5
    2f6f:	f67c           	movi.n	a6, -1
    2f71:	f46060        	extui	a6, a6, 0, 16
    2f74:	03dd           	mov.n	a13, a3
    2f76:	0b0c           	movi.n	a11, 0
    2f78:	3d0637        	bnone	a6, a3, 2fb9 <mpvq_index_fx+0x89>
    2f7b:	1d0627        	bnone	a6, a2, 2f9c <mpvq_index_fx+0x6c>
    2f7e:	1a0647        	bnone	a6, a4, 2f9c <mpvq_index_fx+0x6c>
    2f81:	e97c           	movi.n	a9, -2
    2f83:	372d           	ae_l16si.n	a2, a7, 2
    2f85:	f49090        	extui	a9, a9, 0, 16
    2f88:	260c           	movi.n	a6, 2
    2f8a:	180c           	movi.n	a8, 1
    2f8c:	90f490        	addx2	a15, a4, a9
    2f8f:	a38620        	movltz	a8, a6, a2
    2f92:	102f90        	and	a2, a15, a9
    2f95:	050c           	movi.n	a5, 0
    2f97:	b82a           	add.n	a11, a8, a2
    2f99:	0003c6        	j	2fac <mpvq_index_fx+0x7c>

00002f9c <mpvq_index_fx+0x6c>:
    2f9c:	0b0c           	movi.n	a11, 0
    2f9e:	050c           	movi.n	a5, 0
    2fa0:	0d8627        	bany	a6, a2, 2fb1 <mpvq_index_fx+0x81>
    2fa3:	f27c           	movi.n	a2, -1
    2fa5:	902420        	addx2	a2, a4, a2
    2fa8:	150c           	movi.n	a5, 1
    2faa:	92bd           	ae_zext16	a11, a2
    2fac:	132122        	l32i	a2, a1, 76
    2faf:	12b9           	s32i.n	a11, a2, 4
    2fb1:	902570        	addx2	a2, a5, a7
    2fb4:	422d           	ae_l16ui.n	a2, a2, 0
    2fb6:	41af20        	srli	a10, a2, 15
    2fb9:	152122        	l32i	a2, a1, 84
    2fbc:	030c           	movi.n	a3, 0
    2fbe:	190c           	movi.n	a9, 1
    2fc0:	924d           	ae_zext16	a4, a2
    2fc2:	821b           	addi.n	a8, a2, 1
    2fc4:	220c           	movi.n	a2, 2
    2fc6:	4139           	s32i.n	a3, a1, 16
    2fc8:	5199           	s32i.n	a9, a1, 20
    2fca:	176142        	s32i	a4, a1, 92
    2fcd:	2224b6        	bltui	a4, 2, 2ff3 <mpvq_index_fx+0xc3>
    2fd0:	172152        	l32i	a5, a1, 92
    2fd3:	140c           	movi.n	a4, 1
    2fd5:	18c162        	addi	a6, a1, 24
    2fd8:	251b           	addi.n	a2, a5, 1
    2fda:	550b           	addi.n	a5, a5, -1
    2fdc:	2c0c           	movi.n	a12, 2
    2fde:	01c442        	addi	a4, a4, 1
    2fe1:	0e8576        	loop	a5, 2ff3 <mpvq_index_fx+0xc3>
    2fe4:	82f4c0        	mull	a15, a4, a12
    2fe7:	049d           	mov.n	a9, a4
    2fe9:	4f1b           	addi.n	a4, a15, 1
    2feb:	0649           	s32i.n	a4, a6, 0
    2fed:	491b           	addi.n	a4, a9, 1
    2fef:	cc2b           	addi.n	a12, a12, 2
    2ff1:	664b           	addi.n	a6, a6, 4

00002ff3 <mpvq_index_fx+0xc3>:
    2ff3:	10c132        	addi	a3, a1, 16
    2ff6:	824290        	mull	a4, a2, a9
    2ff9:	a0e230        	addx4	a14, a2, a3
    2ffc:	8dfd           	ae_sext16	a15, a13
    2ffe:	0e49           	s32i.n	a4, a14, 0
    3000:	a02f30        	addx4	a2, a15, a3
    3003:	142142        	l32i	a4, a1, 80
    3006:	0228           	l32i.n	a2, a2, 0
    3008:	039d           	mov.n	a9, a3
    300a:	883d           	ae_sext16	a3, a8
    300c:	0214e6        	bgei	a4, 1, 3012 <mpvq_index_fx+0xe2>
    300f:	003086        	j	30d5 <mpvq_index_fx+0x1a5>
    3012:	1221e2        	l32i	a14, a1, 72
    3015:	166132        	s32i	a3, a1, 88
    3018:	340b           	addi.n	a3, a4, -1
    301a:	9043e0        	addx2	a4, a3, a14
    301d:	244d           	ae_l16si.n	a4, a4, 0
    301f:	905ba0        	addx2	a5, a11, a10
    3022:	060c           	movi.n	a6, 0
    3024:	835b40        	moveqz	a5, a11, a4
    3027:	a35ba0        	movltz	a5, a11, a10
    302a:	608140        	abs	a8, a4
    302d:	1f0c           	movi.n	a15, 1
    302f:	93a640        	movnez	a10, a6, a4
    3032:	bd8a           	add.n	a11, a13, a8
    3034:	a3af40        	movltz	a10, a15, a4
    3037:	852a           	add.n	a8, a5, a2
    3039:	089316        	beqz	a3, 30c6 <mpvq_index_fx+0x196>
    303c:	162162        	l32i	a6, a1, 88
    303f:	1521c2        	l32i	a12, a1, 84
    3042:	14c122        	addi	a2, a1, 20
    3045:	14c1d2        	addi	a13, a1, 20
    3048:	126122        	s32i	a2, a1, 72
    304b:	a0e690        	addx4	a14, a6, a9
    304e:	a0fc90        	addx4	a15, a12, a9
    3051:	fcc772        	addi	a7, a7, -4
    3054:	1461d2        	s32i	a13, a1, 80

00003057 <mpvq_index_fx+0x127>:
    3057:	0f28           	l32i.n	a2, a15, 0
    3059:	152142        	l32i	a4, a1, 84
    305c:	09cd           	mov.n	a12, a9
    305e:	0e98           	l32i.n	a9, a14, 0
    3060:	412120        	srli	a2, a2, 1
    3063:	5714a6        	blti	a4, 1, 30be <mpvq_index_fx+0x18e>
    3066:	172152        	l32i	a5, a1, 92
    3069:	1421d2        	l32i	a13, a1, 80
    306c:	140c           	movi.n	a4, 1
    306e:	0d8576        	loop	a5, 307f <mpvq_index_fx+0x14f>
    3071:	0d58           	l32i.n	a5, a13, 0
    3073:	1d68           	l32i.n	a6, a13, 4
    3075:	0d49           	s32i.n	a4, a13, 0
    3077:	554a           	add.n	a5, a5, a4
    3079:	556a           	add.n	a5, a5, a6
    307b:	dd4b           	addi.n	a13, a13, 4
    307d:	054d           	mov.n	a4, a5

0000307f <mpvq_index_fx+0x14f>:
    307f:	0d59           	s32i.n	a5, a13, 0
    3081:	275d           	ae_l16si.n	a5, a7, 0
    3083:	0fd8           	l32i.n	a13, a15, 0
    3085:	9068a0        	addx2	a6, a8, a10
    3088:	836850        	moveqz	a6, a8, a5
    308b:	292a           	add.n	a2, a9, a2
    308d:	a368a0        	movltz	a6, a8, a10
    3090:	4181d0        	srli	a8, a13, 1
    3093:	228a           	add.n	a2, a2, a8
    3095:	8b4d           	ae_sext16	a4, a11
    3097:	221b           	addi.n	a2, a2, 1
    3099:	a044c0        	addx4	a4, a4, a12
    309c:	0e29           	s32i.n	a2, a14, 0
    309e:	0428           	l32i.n	a2, a4, 0
    30a0:	0d0c           	movi.n	a13, 0
    30a2:	608150        	abs	a8, a5
    30a5:	93ad50        	movnez	a10, a13, a5
    30a8:	1d0c           	movi.n	a13, 1
    30aa:	330b           	addi.n	a3, a3, -1
    30ac:	bb8a           	add.n	a11, a11, a8
    30ae:	fec772        	addi	a7, a7, -2
    30b1:	0c9d           	mov.n	a9, a12
    30b3:	a3ad50        	movltz	a10, a13, a5
    30b6:	862a           	add.n	a8, a6, a2
    30b8:	f9b356        	bnez	a3, 3057 <mpvq_index_fx+0x127>
    30bb:	0001c6        	j	30c6 <mpvq_index_fx+0x196>

000030be <mpvq_index_fx+0x18e>:
    30be:	1221d2        	l32i	a13, a1, 72
    30c1:	150c           	movi.n	a5, 1
    30c3:	ffee06        	j	307f <mpvq_index_fx+0x14f>

000030c6 <mpvq_index_fx+0x196>:
    30c6:	132132        	l32i	a3, a1, 76
    30c9:	8b2d           	ae_sext16	a2, a11
    30cb:	a02290        	addx4	a2, a2, a9
    30ce:	1389           	s32i.n	a8, a3, 4
    30d0:	0228           	l32i.n	a2, a2, 0
    30d2:	162132        	l32i	a3, a1, 88
    30d5:	a03390        	addx4	a3, a3, a9
    30d8:	0338           	l32i.n	a3, a3, 0
    30da:	412120        	srli	a2, a2, 1
    30dd:	132142        	l32i	a4, a1, 76
    30e0:	223a           	add.n	a2, a2, a3
    30e2:	221b           	addi.n	a2, a2, 1
    30e4:	64ad           	ae_s16i.n	a10, a4, 0
    30e6:	2429           	s32i.n	a2, a4, 8
    30e8:	f01d           	retw.n

000030ea <mpvq_index_fx+0x1ba>:
    30ea:	00000000                                 ......

000030f0 <pvq_dec_deidx_fx>:
    30f0:	018136        	entry	a1, 192
    30f3:	40c172        	addi	a7, a1, 64
    30f6:	f46781        	l32r	a8, 294 (2e20 <get_size_mpvq_calc_offset_fx>)
    30f9:	70c1d2        	addi	a13, a1, 112
    30fc:	04bd           	mov.n	a11, a4
    30fe:	03cd           	mov.n	a12, a3
    3100:	07ad           	mov.n	a10, a7
    3102:	0008e0        	callx8	a8
    3105:	f46431        	l32r	a3, 298 (9b54 <memcpy>)
    3108:	10c1a2        	addi	a10, a1, 16
    310b:	0c3c           	movi.n	a12, 48
    310d:	07bd           	mov.n	a11, a7
    310f:	0003e0        	callx8	a3
    3112:	030c           	movi.n	a3, 0
    3114:	085152        	s16i	a5, a1, 16
    3117:	5139           	s32i.n	a3, a1, 20
    3119:	0e1426        	beqi	a4, 1, 312b <pvq_dec_deidx_fx+0x3b>
    311c:	6138           	l32i.n	a3, a1, 24
    311e:	140c           	movi.n	a4, 1
    3120:	725630        	salt	a5, a6, a3
    3123:	303540        	xor	a3, a5, a4
    3126:	935650        	movnez	a5, a6, a5
    3129:	5159           	s32i.n	a5, a1, 20

0000312b <pvq_dec_deidx_fx+0x3b>:
    312b:	f45c41        	l32r	a4, 29c (2e7c <mpvq_deindex_fx>)
    312e:	10c1a2        	addi	a10, a1, 16
    3131:	70c1b2        	addi	a11, a1, 112
    3134:	02cd           	mov.n	a12, a2
    3136:	0004e0        	callx8	a4
    3139:	032d           	mov.n	a2, a3
    313b:	f01d           	retw.n

0000313d <pvq_dec_deidx_fx+0x4d>:
    313d:	000000                                        ...

00003140 <pvq_dec_scale_vec_fx>:
    3140:	004136        	entry	a1, 32
    3143:	850c           	movi.n	a5, 8
    3145:	fcc442        	addi	a4, a4, -4
    3148:	300334        	ae_cvtp24a16x2.ll	aep0, a3, a3
    314b:	449204        	ae_lp16x2f.iu	aep1, a2, 0
    314e:	188576        	loop	a5, 316a <pvq_dec_scale_vec_fx+0x2a>
    3151:	e8062db41f 	{ ae_lp16x2f.iu	aep3, a4, 4; ae_mulfs32p16s.hh	aeq0, aep1, aep0 }
    3156:	001874        	ae_mulfs32p16s.ll	aeq1, aep1, aep0
    3159:	1b8f74        	ae_roundsp16q48asym	aep7, aeq0
    315c:	1b9f24        	ae_roundsp16q48asym	aep2, aeq1
    315f:	1afa14        	ae_selp24.hl	aep1, aep7, aep2
    3162:	d9652d921f 	{ ae_lp16x2f.iu	aep1, a2, 4; ae_addsp24s	aep2, aep1, aep3 }
    3167:	46a404        	ae_sp16x2f.iu	aep2, a4, 0

0000316a <pvq_dec_scale_vec_fx+0x2a>:
    316a:	f01d           	retw.n

0000316c <pvq_dec_en1_normQ14_fx>:
    316c:	006136        	entry	a1, 48
    316f:	fc2493733f 	{ or	a7, a3, a3; ae_zeroq56	aeq0 }
    3174:	216150        	srai	a6, a5, 1
    3177:	0a25a6        	blti	a5, 2, 3185 <pvq_dec_en1_normQ14_fx+0x19>
    317a:	448704        	ae_lp16x2f.iu	aep0, a7, 0
    317d:	048676        	loop	a6, 3185 <pvq_dec_en1_normQ14_fx+0x19>
    3180:	e200ad871f 	{ ae_lp16x2f.iu	aep0, a7, 4; ae_mulaap24s.hh.ll	aeq0, aep0, aep0 }

00003185 <pvq_dec_en1_normQ14_fx+0x19>:
    3185:	368704        	ae_trunca32q48	a7, aeq0
    3188:	f80c           	movi.n	a8, 15
    318a:	b1cb           	addi.n	a11, a1, 12
    318c:	0dd7e6        	bgei	a7, 64, 319d <pvq_dec_en1_normQ14_fx+0x31>
    318f:	f3f581        	l32r	a8, 164 (ba24 <isqrt_Q16tab>)
    3192:	0888           	l32i.n	a8, a8, 0
    3194:	907780        	addx2	a7, a7, a8
    3197:	477d           	ae_l16ui.n	a7, a7, 0
    3199:	000a46        	j	31c6 <pvq_dec_en1_normQ14_fx+0x5a>

0000319c <pvq_dec_en1_normQ14_fx+0x30>:
	...

0000319d <pvq_dec_en1_normQ14_fx+0x31>:
    319d:	87ad           	ae_sext16	a10, a7
    319f:	f44071        	l32r	a7, 2a0 (e0c <ISqrt16>)
    31a2:	065182        	s16i	a8, a1, 12
    31a5:	0007e0        	callx8	a7
    31a8:	069172        	l16si	a7, a1, 12
    31ab:	771b           	addi.n	a7, a7, 1
    31ad:	877d           	ae_sext16	a7, a7
    31af:	00a796        	bltz	a7, 31bd <pvq_dec_en1_normQ14_fx+0x51>
    31b2:	401700        	ssl	a7
    31b5:	a17a00        	sll	a7, a10
    31b8:	877d           	ae_sext16	a7, a7
    31ba:	000206        	j	31c6 <pvq_dec_en1_normQ14_fx+0x5a>

000031bd <pvq_dec_en1_normQ14_fx+0x51>:
    31bd:	607070        	neg	a7, a7
    31c0:	400700        	ssr	a7
    31c3:	b170a0        	sra	a7, a10
    31c6:	40e480        	nsa	a8, a4
    31c9:	f0c882        	addi	a8, a8, -16
    31cc:	838440        	moveqz	a8, a4, a4
    31cf:	031684        	wur.ae_sar	a8
    31d2:	3125a6        	blti	a5, 2, 3207 <pvq_dec_en1_normQ14_fx+0x9b>
    31d5:	d40c           	movi.n	a4, 13
    31d7:	c04480        	sub	a4, a4, a8
    31da:	300774        	ae_cvtp24a16x2.ll	aep0, a7, a7
    31dd:	449304        	ae_lp16x2f.iu	aep1, a3, 0
    31e0:	fcc222        	addi	a2, a2, -4
    31e3:	844d           	ae_sext16	a4, a4
    31e5:	1e8676        	loop	a6, 3207 <pvq_dec_en1_normQ14_fx+0x9b>
    31e8:	0b1094        	ae_sllssp24s	aep1, aep1
    31eb:	010144        	ae_mulfp24s.hh	aeq0, aep0, aep1
    31ee:	010974        	ae_mulfp24s.ll	aeq1, aep0, aep1
    31f1:	fc24fe840f 	{ ae_slaasq56s	aeq0, aeq0, a4; nop }
    31f6:	fb63fe944f 	{ ae_slaasq56s	aeq1, aeq1, a4; ae_roundsp16q48asym	aep7, aeq0 }
    31fb:	1b9f24        	ae_roundsp16q48asym	aep2, aeq1
    31fe:	1afa14        	ae_selp24.hl	aep1, aep7, aep2
    3201:	469214        	ae_sp16x2f.iu	aep1, a2, 4
    3204:	449314        	ae_lp16x2f.iu	aep1, a3, 4

00003207 <pvq_dec_en1_normQ14_fx+0x9b>:
    3207:	f01d           	retw.n

00003209 <pvq_dec_en1_normQ14_fx+0x9d>:
    3209:	00000000                                 .......

00003210 <fftN2>:
    3210:	00a136        	entry	a1, 80
    3213:	1521c2        	l32i	a12, a1, 84
    3216:	9149           	s32i.n	a4, a1, 36
    3218:	8139           	s32i.n	a3, a1, 32
    321a:	2f16a6        	blti	a6, 1, 324d <fftN2+0x3d>
    321d:	d1b670        	mul16s	a11, a6, a7
    3220:	8a7c           	movi.n	a10, -8
    3222:	0c8d           	mov.n	a8, a12
    3224:	5d88a4        	ae_lp24x2f.xu	aep0, a8, a10
    3227:	1137e0        	slli	a3, a7, 2
    322a:	040c           	movi.n	a4, 0
    322c:	8e0c           	movi.n	a14, 8
    322e:	20a660        	or	a10, a6, a6
    3231:	11bbe0        	slli	a11, a11, 2

00003234 <fftN2+0x24>:
    3234:	0e15a6        	blti	a5, 1, 3246 <fftN2+0x36>
    3237:	20d220        	or	a13, a2, a2
    323a:	5d8d44        	ae_lp24x2f.xu	aep0, a13, a4
    323d:	058576        	loop	a5, 3246 <fftN2+0x36>
    3240:	5f88e4        	ae_sp24x2f.xu	aep0, a8, a14
    3243:	5d8db4        	ae_lp24x2f.xu	aep0, a13, a11

00003246 <fftN2+0x36>:
    3246:	aa0b           	addi.n	a10, a10, -1
    3248:	443a           	add.n	a4, a4, a3
    324a:	fe6a56        	bnez	a10, 3234 <fftN2+0x24>

0000324d <fftN2+0x3d>:
    324d:	172132        	l32i	a3, a1, 92
    3250:	341c           	movi.n	a4, 19
    3252:	a179           	s32i.n	a7, a1, 40
    3254:	61c9           	s32i.n	a12, a1, 24
    3256:	7169           	s32i.n	a6, a1, 28
    3258:	b199           	s32i.n	a9, a1, 44
    325a:	292457        	blt	a4, a5, 3287 <fftN2+0x77>
    325d:	519526        	beqi	a5, 10, 32b2 <fftN2+0xa2>
    3260:	f40c           	movi.n	a4, 15
    3262:	021547        	beq	a5, a4, 3268 <fftN2+0x58>
    3265:	002086        	j	32eb <fftN2+0xdb>
    3268:	7148           	l32i.n	a4, a1, 28
    326a:	7178           	l32i.n	a7, a1, 28
    326c:	7b14a6        	blti	a4, 1, 32eb <fftN2+0xdb>
    326f:	6148           	l32i.n	a4, a1, 24
    3271:	2368           	l32i.n	a6, a3, 8
    3273:	b44b           	addi.n	a11, a4, 4
    3275:	2c0c           	movi.n	a12, 2
    3277:	04ad           	mov.n	a10, a4
    3279:	0006e0        	callx8	a6
    327c:	770b           	addi.n	a7, a7, -1
    327e:	78c442        	addi	a4, a4, 120
    3281:	fec756        	bnez	a7, 3271 <fftN2+0x61>
    3284:	0018c6        	j	32eb <fftN2+0xdb>

00003287 <fftN2+0x77>:
    3287:	441c           	movi.n	a4, 20
    3289:	421547        	beq	a5, a4, 32cf <fftN2+0xbf>
    328c:	e41c           	movi.n	a4, 30
    328e:	599547        	bne	a5, a4, 32eb <fftN2+0xdb>
    3291:	7148           	l32i.n	a4, a1, 28
    3293:	7168           	l32i.n	a6, a1, 28
    3295:	f0a072        	movi	a7, 240
    3298:	4f14a6        	blti	a4, 1, 32eb <fftN2+0xdb>
    329b:	6148           	l32i.n	a4, a1, 24
    329d:	4398           	l32i.n	a9, a3, 16
    329f:	b44b           	addi.n	a11, a4, 4
    32a1:	2c0c           	movi.n	a12, 2
    32a3:	04ad           	mov.n	a10, a4
    32a5:	0009e0        	callx8	a9
    32a8:	660b           	addi.n	a6, a6, -1
    32aa:	447a           	add.n	a4, a4, a7
    32ac:	fed656        	bnez	a6, 329d <fftN2+0x8d>
    32af:	000e06        	j	32eb <fftN2+0xdb>

000032b2 <fftN2+0xa2>:
    32b2:	3516a6        	blti	a6, 1, 32eb <fftN2+0xdb>
    32b5:	7168           	l32i.n	a6, a1, 28
    32b7:	6148           	l32i.n	a4, a1, 24
    32b9:	1378           	l32i.n	a7, a3, 4
    32bb:	b44b           	addi.n	a11, a4, 4
    32bd:	2c0c           	movi.n	a12, 2
    32bf:	04ad           	mov.n	a10, a4
    32c1:	0007e0        	callx8	a7
    32c4:	660b           	addi.n	a6, a6, -1
    32c6:	50c442        	addi	a4, a4, 80
    32c9:	fec656        	bnez	a6, 32b9 <fftN2+0xa9>
    32cc:	0006c6        	j	32eb <fftN2+0xdb>

000032cf <fftN2+0xbf>:
    32cf:	1816a6        	blti	a6, 1, 32eb <fftN2+0xdb>
    32d2:	7168           	l32i.n	a6, a1, 28
    32d4:	6148           	l32i.n	a4, a1, 24
    32d6:	a0a072        	movi	a7, 160
    32d9:	3398           	l32i.n	a9, a3, 12
    32db:	b44b           	addi.n	a11, a4, 4
    32dd:	2c0c           	movi.n	a12, 2
    32df:	04ad           	mov.n	a10, a4
    32e1:	0009e0        	callx8	a9
    32e4:	660b           	addi.n	a6, a6, -1
    32e6:	447a           	add.n	a4, a4, a7
    32e8:	fed656        	bnez	a6, 32d9 <fftN2+0xc9>
    32eb:	71e8           	l32i.n	a14, a1, 28
    32ed:	162142        	l32i	a4, a1, 88
    32f0:	142192        	l32i	a9, a1, 80
    32f3:	b168           	l32i.n	a6, a1, 44
    32f5:	078ee6        	bgei	a14, 8, 3300 <fftN2+0xf0>
    32f8:	1b4e26        	beqi	a14, 4, 3317 <fftN2+0x107>
    32fb:	076e26        	beqi	a14, 6, 3306 <fftN2+0xf6>
    32fe:	f01d           	retw.n

00003300 <fftN2+0xf0>:
    3300:	188e26        	beqi	a14, 8, 331c <fftN2+0x10c>
    3303:	f7ae66        	bnei	a14, 12, 32fe <fftN2+0xee>
    3306:	61f8           	l32i.n	a15, a1, 24
    3308:	8338           	l32i.n	a3, a3, 32
    330a:	2149           	s32i.n	a4, a1, 8
    330c:	11f9           	s32i.n	a15, a1, 4
    330e:	81b8           	l32i.n	a11, a1, 32
    3310:	91c8           	l32i.n	a12, a1, 36
    3312:	a1f8           	l32i.n	a15, a1, 40
    3314:	000486        	j	332a <fftN2+0x11a>

00003317 <fftN2+0x107>:
    3317:	6338           	l32i.n	a3, a3, 24
    3319:	000046        	j	331e <fftN2+0x10e>

0000331c <fftN2+0x10c>:
    331c:	7338           	l32i.n	a3, a3, 28
    331e:	81b8           	l32i.n	a11, a1, 32
    3320:	91c8           	l32i.n	a12, a1, 36
    3322:	a1e8           	l32i.n	a14, a1, 40
    3324:	09fd           	mov.n	a15, a9
    3326:	6198           	l32i.n	a9, a1, 24
    3328:	1149           	s32i.n	a4, a1, 4
    332a:	02ad           	mov.n	a10, a2
    332c:	05dd           	mov.n	a13, a5
    332e:	0199           	s32i.n	a9, a1, 0
    3330:	0003e0        	callx8	a3
    3333:	f01d           	retw.n

00003335 <fftN2+0x125>:
    3335:	000000                                        ...

00003338 <BASOP_cfft>:
    3338:	006136        	entry	a1, 48
    333b:	c198           	l32i.n	a9, a1, 48
    333d:	9e5c           	movi.n	a14, 89
    333f:	05fd           	mov.n	a15, a5
    3341:	312e47        	blt	a14, a4, 3376 <BASOP_cfft+0x3e>
    3344:	752c           	movi.n	a5, 39
    3346:	64a547        	bge	a5, a4, 33ae <BASOP_cfft+0x76>
    3349:	852c           	movi.n	a5, 40
    334b:	029457        	bne	a4, a5, 3351 <BASOP_cfft+0x19>
    334e:	002886        	j	33f4 <BASOP_cfft+0xbc>
    3351:	c53c           	movi.n	a5, 60
    3353:	029457        	bne	a4, a5, 3359 <BASOP_cfft+0x21>
    3356:	002a86        	j	3404 <BASOP_cfft+0xcc>
    3359:	055c           	movi.n	a5, 80
    335b:	021457        	beq	a4, a5, 3361 <BASOP_cfft+0x29>
    335e:	004cc6        	j	3495 <BASOP_cfft+0x15d>
    3361:	f3a841        	l32r	a4, 204 (bab0 <RotVector_320>)
    3364:	3199           	s32i.n	a9, a1, 12
    3366:	f3cf91        	l32r	a9, 2a4 (3210 <fftN2>)
    3369:	04c8           	l32i.n	a12, a4, 0
    336b:	8e2c           	movi.n	a14, 40
    336d:	480c           	movi.n	a8, 4
    336f:	850c           	movi.n	a5, 8
    3371:	ad0c           	movi.n	a13, 10
    3373:	003046        	j	3438 <BASOP_cfft+0x100>

00003376 <BASOP_cfft+0x3e>:
    3376:	9fa052        	movi	a5, 159
    3379:	51a547        	bge	a5, a4, 33ce <BASOP_cfft+0x96>
    337c:	a0a052        	movi	a5, 160
    337f:	029457        	bne	a4, a5, 3385 <BASOP_cfft+0x4d>
    3382:	002806        	j	3426 <BASOP_cfft+0xee>
    3385:	b4a052        	movi	a5, 180
    3388:	029457        	bne	a4, a5, 338e <BASOP_cfft+0x56>
    338b:	002ec6        	j	344a <BASOP_cfft+0x112>
    338e:	f0a052        	movi	a5, 240
    3391:	021457        	beq	a4, a5, 3397 <BASOP_cfft+0x5f>
    3394:	003f46        	j	3495 <BASOP_cfft+0x15d>
    3397:	f39941        	l32r	a4, 1fc (baa8 <RotVector_480>)
    339a:	f3c281        	l32r	a8, 2a4 (3210 <fftN2>)
    339d:	ce3c           	movi.n	a14, 60
    339f:	04c8           	l32i.n	a12, a4, 0
    33a1:	3199           	s32i.n	a9, a1, 12
    33a3:	21e9           	s32i.n	a14, a1, 8
    33a5:	250c           	movi.n	a5, 2
    33a7:	ed1c           	movi.n	a13, 30
    33a9:	8e0c           	movi.n	a14, 8
    33ab:	0034c6        	j	3482 <BASOP_cfft+0x14a>

000033ae <BASOP_cfft+0x76>:
    33ae:	550c           	movi.n	a5, 5
    33b0:	02b466        	bnei	a4, 16, 33b6 <BASOP_cfft+0x7e>
    33b3:	003606        	j	348f <BASOP_cfft+0x157>
    33b6:	e51c           	movi.n	a5, 30
    33b8:	021457        	beq	a4, a5, 33be <BASOP_cfft+0x86>
    33bb:	003586        	j	3495 <BASOP_cfft+0x15d>
    33be:	4948           	l32i.n	a4, a9, 16
    33c0:	02ad           	mov.n	a10, a2
    33c2:	03bd           	mov.n	a11, a3
    33c4:	0fcd           	mov.n	a12, a15
    33c6:	0004e0        	callx8	a4
    33c9:	650c           	movi.n	a5, 6
    33cb:	003006        	j	348f <BASOP_cfft+0x157>

000033ce <BASOP_cfft+0x96>:
    33ce:	a55c           	movi.n	a5, 90
    33d0:	029457        	bne	a4, a5, 33d6 <BASOP_cfft+0x9e>
    33d3:	0025c6        	j	346e <BASOP_cfft+0x136>
    33d6:	78a052        	movi	a5, 120
    33d9:	021457        	beq	a4, a5, 33df <BASOP_cfft+0xa7>
    33dc:	002d46        	j	3495 <BASOP_cfft+0x15d>
    33df:	f38741        	l32r	a4, 1fc (baa8 <RotVector_480>)
    33e2:	3199           	s32i.n	a9, a1, 12
    33e4:	f3b091        	l32r	a9, 2a4 (3210 <fftN2>)
    33e7:	04c8           	l32i.n	a12, a4, 0
    33e9:	ce3c           	movi.n	a14, 60
    33eb:	480c           	movi.n	a8, 4
    33ed:	850c           	movi.n	a5, 8
    33ef:	fd0c           	movi.n	a13, 15
    33f1:	0010c6        	j	3438 <BASOP_cfft+0x100>

000033f4 <BASOP_cfft+0xbc>:
    33f4:	5948           	l32i.n	a4, a9, 20
    33f6:	02ad           	mov.n	a10, a2
    33f8:	03bd           	mov.n	a11, a3
    33fa:	0fcd           	mov.n	a12, a15
    33fc:	07dd           	mov.n	a13, a7
    33fe:	0004e0        	callx8	a4
    3401:	000706        	j	3421 <BASOP_cfft+0xe9>

00003404 <BASOP_cfft+0xcc>:
    3404:	f37e41        	l32r	a4, 1fc (baa8 <RotVector_480>)
    3407:	3199           	s32i.n	a9, a1, 12
    3409:	2159           	s32i.n	a5, a1, 8
    340b:	04c8           	l32i.n	a12, a4, 0
    340d:	f3a551        	l32r	a5, 2a4 (3210 <fftN2>)
    3410:	490c           	movi.n	a9, 4
    3412:	fd0c           	movi.n	a13, 15
    3414:	4e0c           	movi.n	a14, 4
    3416:	02ad           	mov.n	a10, a2
    3418:	03bd           	mov.n	a11, a3
    341a:	1179           	s32i.n	a7, a1, 4
    341c:	0199           	s32i.n	a9, a1, 0
    341e:	0005e0        	callx8	a5
    3421:	750c           	movi.n	a5, 7
    3423:	001a06        	j	348f <BASOP_cfft+0x157>

00003426 <BASOP_cfft+0xee>:
    3426:	f37741        	l32r	a4, 204 (bab0 <RotVector_320>)
    3429:	3199           	s32i.n	a9, a1, 12
    342b:	f39e91        	l32r	a9, 2a4 (3210 <fftN2>)
    342e:	04c8           	l32i.n	a12, a4, 0
    3430:	8e2c           	movi.n	a14, 40
    3432:	280c           	movi.n	a8, 2
    3434:	850c           	movi.n	a5, 8
    3436:	4d1c           	movi.n	a13, 20
    3438:	21e9           	s32i.n	a14, a1, 8
    343a:	8e0c           	movi.n	a14, 8
    343c:	02ad           	mov.n	a10, a2
    343e:	03bd           	mov.n	a11, a3
    3440:	1179           	s32i.n	a7, a1, 4
    3442:	0189           	s32i.n	a8, a1, 0
    3444:	0009e0        	callx8	a9
    3447:	001106        	j	348f <BASOP_cfft+0x157>

0000344a <BASOP_cfft+0x112>:
    344a:	f36d41        	l32r	a4, 200 (baac <RotVector_360>)
    344d:	ce3c           	movi.n	a14, 60
    344f:	f39581        	l32r	a8, 2a4 (3210 <fftN2>)
    3452:	04c8           	l32i.n	a12, a4, 0
    3454:	3199           	s32i.n	a9, a1, 12
    3456:	21e9           	s32i.n	a14, a1, 8
    3458:	450c           	movi.n	a5, 4
    345a:	fd0c           	movi.n	a13, 15
    345c:	ce0c           	movi.n	a14, 12
    345e:	02ad           	mov.n	a10, a2
    3460:	03bd           	mov.n	a11, a3
    3462:	1179           	s32i.n	a7, a1, 4
    3464:	0159           	s32i.n	a5, a1, 0
    3466:	0008e0        	callx8	a8
    3469:	a50c           	movi.n	a5, 10
    346b:	000806        	j	348f <BASOP_cfft+0x157>

0000346e <BASOP_cfft+0x136>:
    346e:	f36641        	l32r	a4, 208 (bab4 <RotVector_15_6>)
    3471:	f38c81        	l32r	a8, 2a4 (3210 <fftN2>)
    3474:	ee1c           	movi.n	a14, 30
    3476:	04c8           	l32i.n	a12, a4, 0
    3478:	3199           	s32i.n	a9, a1, 12
    347a:	21e9           	s32i.n	a14, a1, 8
    347c:	250c           	movi.n	a5, 2
    347e:	fd0c           	movi.n	a13, 15
    3480:	6e0c           	movi.n	a14, 6
    3482:	1179           	s32i.n	a7, a1, 4
    3484:	02ad           	mov.n	a10, a2
    3486:	03bd           	mov.n	a11, a3
    3488:	0159           	s32i.n	a5, a1, 0
    348a:	0008e0        	callx8	a8
    348d:	950c           	movi.n	a5, 9
    348f:	262d           	ae_l16si.n	a2, a6, 0
    3491:	225a           	add.n	a2, a2, a5
    3493:	662d           	ae_s16i.n	a2, a6, 0
    3495:	f01d           	retw.n

00003497 <BASOP_cfft+0x15f>:
	...

00003498 <processApplyGlobalGain_fx>:
    3498:	006136        	entry	a1, 48
    349b:	f38371        	l32r	a7, 2a8 (3cbe80 <_end+0x3c0398>)
    349e:	565a           	add.n	a5, a6, a5
    34a0:	855d           	ae_sext16	a5, a5
    34a2:	82e570        	mull	a14, a5, a7
    34a5:	ff7c           	movi.n	a15, -1
    34a7:	017f70        	slli	a7, a15, 25
    34aa:	f38061        	l32r	a6, 2ac (cdc <BASOP_Util_InvLog2>)
    34ad:	20ae70        	or	a10, a14, a7
    34b0:	3159e0        	srai	a5, a14, 25
    34b3:	0006e0        	callx8	a6
    34b6:	360a34        	ae_cvtq48a32s	aeq0, a10
    34b9:	1b8f04        	ae_roundsp16q48asym	aep0, aeq0
    34bc:	420164        	ae_sp16f.l.i	aep0, a1, 12
    34bf:	2624a6        	blti	a4, 2, 34e9 <processApplyGlobalGain_fx+0x51>
    34c2:	061162        	l16ui	a6, a1, 12
    34c5:	214140        	srai	a4, a4, 1
    34c8:	300664        	ae_cvtp24a16x2.ll	aep0, a6, a6
    34cb:	fcc262        	addi	a6, a2, -4
    34ce:	601204        	ae_lq32f.iu	aeq0, a2, 0
    34d1:	f03d           	nop.n
    34d3:	f03d           	nop.n
    34d5:	108476        	loop	a4, 34e9 <processApplyGlobalGain_fx+0x51>
    34d8:	d4e23d321f 	{ ae_lq32f.iu	aeq1, a2, 4; ae_mulfq32sp16s.l	aeq0, aeq0, aep0 }
    34dd:	030a54        	ae_mulfq32sp16s.l	aeq1, aeq1, aep0
    34e0:	624614        	ae_sq32f.iu	aeq0, a6, 4
    34e3:	601214        	ae_lq32f.iu	aeq0, a2, 4
    34e6:	625614        	ae_sq32f.iu	aeq1, a6, 4

000034e9 <processApplyGlobalGain_fx+0x51>:
    34e9:	232d           	ae_l16si.n	a2, a3, 0
    34eb:	252a           	add.n	a2, a5, a2
    34ed:	221b           	addi.n	a2, a2, 1
    34ef:	632d           	ae_s16i.n	a2, a3, 0
    34f1:	f01d           	retw.n

000034f3 <processApplyGlobalGain_fx+0x5b>:
    34f3:	00000000                                 .....

000034f8 <ProcessingIMDCT>:
    34f8:	00a136        	entry	a1, 80
    34fb:	1821e2        	l32i	a14, a1, 96
    34fe:	bf7c           	movi.n	a15, -5
    3500:	5159           	s32i.n	a5, a1, 20
    3502:	8149           	s32i.n	a4, a1, 32
    3504:	9139           	s32i.n	a3, a1, 36
    3506:	080fe7        	bnone	a15, a14, 3512 <ProcessingIMDCT+0x1a>
    3509:	192142        	l32i	a4, a1, 100
    350c:	021466        	bnei	a4, 1, 3512 <ProcessingIMDCT+0x1a>
    350f:	f01d           	retw.n

00003511 <ProcessingIMDCT+0x19>:
	...

00003512 <ProcessingIMDCT+0x1a>:
    3512:	172182        	l32i	a8, a1, 92
    3515:	7169           	s32i.n	a6, a1, 28
    3517:	152142        	l32i	a4, a1, 84
    351a:	9cc8a2        	addi	a10, a8, -100
    351d:	060c           	movi.n	a6, 0
    351f:	90a132        	movi	a3, 0x190
    3522:	6179           	s32i.n	a7, a1, 24
    3524:	142152        	l32i	a5, a1, 80
    3527:	2ca172        	movi	a7, 0x12c
    352a:	b5c882        	addi	a8, a8, -75
    352d:	9336a0        	movnez	a3, a6, a10
    3530:	937380        	movnez	a7, a3, a8
    3533:	18a747        	bge	a7, a4, 354f <ProcessingIMDCT+0x57>
    3536:	fc2095847f 	{ sub	a8, a4, a7; ae_zerop48	aep0 }
    353b:	1028a6        	blti	a8, 2, 354f <ProcessingIMDCT+0x57>
    353e:	a0f720        	addx4	a15, a7, a2
    3541:	213180        	srai	a3, a8, 1
    3544:	870c           	movi.n	a7, 8
    3546:	f8cf82        	addi	a8, a15, -8
    3549:	028376        	loop	a3, 354f <ProcessingIMDCT+0x57>
    354c:	5f8874        	ae_sp24x2f.xu	aep0, a8, a7

0000354f <ProcessingIMDCT+0x57>:
    354f:	162172        	l32i	a7, a1, 88
    3552:	b179           	s32i.n	a7, a1, 44
    3554:	f35771        	l32r	a7, 2b0 (fd0 <getScaleFactor32_0>)
    3557:	d05450        	subx2	a5, a4, a5
    355a:	02ad           	mov.n	a10, a2
    355c:	04bd           	mov.n	a11, a4
    355e:	a159           	s32i.n	a5, a1, 40
    3560:	213140        	srai	a3, a4, 1
    3563:	0007e0        	callx8	a7
    3566:	0a7d           	mov.n	a7, a10
    3568:	4fcae6        	bgei	a10, 32, 35bb <ProcessingIMDCT+0xc3>
    356b:	9198           	l32i.n	a9, a1, 36
    356d:	1d2162        	l32i	a6, a1, 116
    3570:	1e21f2        	l32i	a15, a1, 120
    3573:	298d           	ae_l16si.n	a8, a9, 0
    3575:	60e060        	neg	a14, a6
    3578:	02ad           	mov.n	a10, a2
    357a:	c08870        	sub	a8, a8, a7
    357d:	698d           	ae_s16i.n	a8, a9, 0
    357f:	2480e0        	extui	a8, a14, 0, 3
    3582:	e68a           	add.n	a14, a6, a8
    3584:	f34c61        	l32r	a6, 2b4 (15f0 <dct_IV_XT>)
    3587:	09bd           	mov.n	a11, a9
    3589:	07cd           	mov.n	a12, a7
    358b:	04dd           	mov.n	a13, a4
    358d:	095d           	mov.n	a5, a9
    358f:	0006e0        	callx8	a6
    3592:	f34761        	l32r	a6, 2b0 (fd0 <getScaleFactor32_0>)
    3595:	02ad           	mov.n	a10, a2
    3597:	04bd           	mov.n	a11, a4
    3599:	0006e0        	callx8	a6
    359c:	256d           	ae_l16si.n	a6, a5, 0
    359e:	7a0b           	addi.n	a7, a10, -1
    35a0:	481c           	movi.n	a8, 20
    35a2:	c06670        	sub	a6, a6, a7
    35a5:	fdc692        	addi	a9, a6, -3
    35a8:	659d           	ae_s16i.n	a9, a5, 0
    35aa:	042847        	blt	a8, a4, 35b2 <ProcessingIMDCT+0xba>
    35ad:	660b           	addi.n	a6, a6, -1
    35af:	000206        	j	35bb <ProcessingIMDCT+0xc3>

000035b2 <ProcessingIMDCT+0xba>:
    35b2:	78a082        	movi	a8, 120
    35b5:	062847        	blt	a8, a4, 35bf <ProcessingIMDCT+0xc7>
    35b8:	fec662        	addi	a6, a6, -2
    35bb:	9158           	l32i.n	a5, a1, 36
    35bd:	656d           	ae_s16i.n	a6, a5, 0
    35bf:	a168           	l32i.n	a6, a1, 40
    35c1:	f31e81        	l32r	a8, 23c (f0c <getScaleFactor16_0>)
    35c4:	51a8           	l32i.n	a10, a1, 20
    35c6:	b1b8           	l32i.n	a11, a1, 44
    35c8:	c06360        	sub	a6, a3, a6
    35cb:	0008e0        	callx8	a8
    35ce:	0bbae6        	bgei	a10, 16, 35dd <ProcessingIMDCT+0xe5>
    35d1:	71d8           	l32i.n	a13, a1, 28
    35d3:	aa0b           	addi.n	a10, a10, -1
    35d5:	2d8d           	ae_l16si.n	a8, a13, 0
    35d7:	c088a0        	sub	a8, a8, a10
    35da:	0000c6        	j	35e1 <ProcessingIMDCT+0xe9>

000035dd <ProcessingIMDCT+0xe5>:
    35dd:	458d           	ae_l16ui.n	a8, a5, 0
    35df:	71d8           	l32i.n	a13, a1, 28
    35e1:	6d8d           	ae_s16i.n	a8, a13, 0
    35e3:	45bd           	ae_l16ui.n	a11, a5, 0
    35e5:	61f8           	l32i.n	a15, a1, 24
    35e7:	c098b0        	sub	a9, a8, a11
    35ea:	89cd           	ae_sext16	a12, a9
    35ec:	869d           	ae_sext16	a9, a6
    35ee:	071ca6        	blti	a12, 1, 35f9 <ProcessingIMDCT+0x101>
    35f1:	c077c0        	sub	a7, a7, a12
    35f4:	658d           	ae_s16i.n	a8, a5, 0
    35f6:	0000c6        	j	35fd <ProcessingIMDCT+0x105>

000035f9 <ProcessingIMDCT+0x101>:
    35f9:	acaa           	add.n	a10, a12, a10
    35fb:	6dbd           	ae_s16i.n	a11, a13, 0
    35fd:	a168           	l32i.n	a6, a1, 40
    35ff:	1d6c           	movi.n	a13, -31
    3601:	877d           	ae_sext16	a7, a7
    3603:	5377d0        	max	a7, a7, a13
    3606:	8acd           	ae_sext16	a12, a10
    3608:	e0c7a2        	addi	a10, a7, -32
    360b:	8aad           	ae_sext16	a10, a10
    360d:	868d           	ae_sext16	a8, a6
    360f:	536cd0        	max	a6, a12, a13
    3612:	21afa0        	srai	a10, a10, 15
    3615:	f0c6e2        	addi	a14, a6, -16
    3618:	107a70        	and	a7, a10, a7
    361b:	8ead           	ae_sext16	a10, a14
    361d:	21afa0        	srai	a10, a10, 15
    3620:	106a60        	and	a6, a10, a6
    3623:	866d           	ae_sext16	a6, a6
    3625:	0219e6        	bgei	a9, 1, 362b <ProcessingIMDCT+0x133>
    3628:	004e86        	j	3766 <ProcessingIMDCT+0x26e>
    362b:	81a8           	l32i.n	a10, a1, 32
    362d:	11e8f0        	slli	a14, a8, 1
    3630:	a0c320        	addx4	a12, a3, a2
    3633:	b0d3a0        	addx8	a13, a3, a10
    3636:	c0dde0        	sub	a13, a13, a14
    3639:	51e8           	l32i.n	a14, a1, 20
    363b:	a0c8c0        	addx4	a12, a8, a12
    363e:	fecdd2        	addi	a13, a13, -2
    3641:	fecfa2        	addi	a10, a15, -2
    3644:	877d           	ae_sext16	a7, a7
    3646:	10c1b2        	addi	a11, a1, 16
    3649:	601c04        	ae_lq32f.iu	aeq0, a12, 0
    364c:	408d04        	ae_lp16f.iu	aep0, a13, 0
    364f:	258976        	loop	a9, 3678 <ProcessingIMDCT+0x180>
    3652:	2efd           	ae_l16si.n	a15, a14, 0
    3654:	fc24fe874f 	{ ae_slaasq56s	aeq1, aeq0, a7; nop }
    3659:	d4e37d1c1f 	{ ae_lq32f.iu	aeq0, a12, 4; ae_mulfq32sp16s.l	aeq1, aeq1, aep0 }
    365e:	11ff00        	slli	a15, a15, 16
    3661:	41f9           	s32i.n	a15, a1, 16
    3663:	608b04        	ae_lq32f.i	aeq2, a11, 0
    3666:	fc24fea68f 	{ ae_slaasq56s	aeq2, aeq2, a6; nop }
    366b:	f956802eee 	{ addi	a14, a14, 2; ae_subsq56s	aeq1, aeq2, aeq1 }
    3670:	f86bec8dff 	{ ae_lp16f.iu	aep0, a13, -2; ae_roundsp16q48asym	aep1, aeq1 }
    3675:	429a14        	ae_sp16f.l.iu	aep1, a10, 2

00003678 <ProcessingIMDCT+0x180>:
    3678:	61f8           	l32i.n	a15, a1, 24
    367a:	90b330        	addx2	a11, a3, a3
    367d:	21a130        	srai	a10, a3, 1
    3680:	5c44a6        	blti	a4, 4, 36e0 <ProcessingIMDCT+0x1e8>
    3683:	b05320        	addx8	a5, a3, a2
    3686:	51e8           	l32i.n	a14, a1, 20
    3688:	8138           	l32i.n	a3, a1, 32
    368a:	11dbf0        	slli	a13, a11, 1
    368d:	21c190        	srai	a12, a9, 1
    3690:	fcc552        	addi	a5, a5, -4
    3693:	41d2d0        	srli	a13, a13, 2
    3696:	a09ce0        	addx4	a9, a12, a14
    3699:	601504        	ae_lq32f.iu	aeq0, a5, 0
    369c:	a0ecf0        	addx4	a14, a12, a15
    369f:	a0cd30        	addx4	a12, a13, a3
    36a2:	fc24fe870f 	{ ae_slaasq56s	aeq0, aeq0, a7; nop }
    36a7:	449904        	ae_lp16x2f.iu	aep1, a9, 0
    36aa:	fcced2        	addi	a13, a14, -4
    36ad:	448cf4        	ae_lp16x2f.iu	aep0, a12, -4
    36b0:	2c8a76        	loop	a10, 36e0 <ProcessingIMDCT+0x1e8>
    36b3:	fd243d55ff 	{ ae_lq32f.iu	aeq2, a5, -4; ae_cvtq48p24s.h	aeq1, aep1 }
    36b8:	ff2c3e964f 	{ ae_slaasq56s	aeq1, aeq1, a6; ae_cvtq48p24s.l	aeq3, aep1 }
    36bd:	f482feb60f 	{ ae_slaasq56s	aeq0, aeq3, a6; ae_mulafq32sp16s.l	aeq1, aeq0, aep0 }
    36c2:	fc24fea78f 	{ ae_slaasq56s	aeq2, aeq2, a7; nop }
    36c7:	f602bd75ff 	{ ae_lq32f.iu	aeq3, a5, -4; ae_mulafq32sp16s.h	aeq0, aeq2, aep0 }
    36cc:	1b9f64        	ae_roundsp16q48asym	aep6, aeq1
    36cf:	fb63feb70f 	{ ae_slaasq56s	aeq0, aeq3, a7; ae_roundsp16q48asym	aep7, aeq0 }
    36d4:	1aef04        	ae_selp24.hl	aep0, aep6, aep7
    36d7:	468d14        	ae_sp16x2f.iu	aep0, a13, 4
    36da:	448cf4        	ae_lp16x2f.iu	aep0, a12, -4
    36dd:	449914        	ae_lp16x2f.iu	aep1, a9, 4
    36e0:	5c44a6        	blti	a4, 4, 3740 <ProcessingIMDCT+0x248>
    36e3:	8158           	l32i.n	a5, a1, 32
    36e5:	c06b80        	sub	a6, a11, a8
    36e8:	1186f0        	slli	a8, a6, 1
    36eb:	418280        	srli	a8, a8, 2
    36ee:	a05a50        	addx4	a5, a10, a5
    36f1:	056d           	mov.n	a6, a5
    36f3:	601204        	ae_lq32f.iu	aeq0, a2, 0
    36f6:	a088f0        	addx4	a8, a8, a15
    36f9:	448504        	ae_lp16x2f.iu	aep0, a5, 0
    36fc:	fc24fe870f 	{ ae_slaasq56s	aeq0, aeq0, a7; nop }
    3701:	4496f4        	ae_lp16x2f.iu	aep1, a6, -4
    3704:	fcc892        	addi	a9, a8, -4
    3707:	358a76        	loop	a10, 3740 <ProcessingIMDCT+0x248>
    370a:	fc10bd521f 	{ ae_lq32f.iu	aeq2, a2, 4; ae_negq56	aeq0, aeq0 }
    370f:	d4e67ea78f 	{ ae_slaasq56s	aeq2, aeq2, a7; ae_mulfq32sp16s.l	aeq1, aeq0, aep1 }
    3714:	068a24        	ae_negq56	aeq2, aeq2
    3717:	039a84        	ae_mulfq32sp16s.h	aeq3, aeq2, aep1
    371a:	030204        	ae_mulfq32sp16s.h	aeq0, aeq0, aep0
    371d:	038294        	ae_mulfq32sp16s.l	aeq2, aeq2, aep0
    3720:	f97bbd721f 	{ ae_lq32f.iu	aeq3, a2, 4; ae_roundsp16q48asym	aep2, aeq3 }
    3725:	1b9f64        	ae_roundsp16q48asym	aep6, aeq1
    3728:	fb63fe625f 	{ ae_selp24.hl	aep1, aep6, aep2; ae_roundsp16q48asym	aep7, aeq0 }
    372d:	f973f3991f 	{ ae_sp16x2f.iu	aep1, a9, 4; ae_roundsp16q48asym	aep3, aeq2 }
    3732:	dcecbeb70f 	{ ae_slaasq56s	aeq0, aeq3, a7; ae_selp24.hl	aep0, aep3, aep7 }
    3737:	4688f4        	ae_sp16x2f.iu	aep0, a8, -4
    373a:	448514        	ae_lp16x2f.iu	aep0, a5, 4
    373d:	4496f4        	ae_lp16x2f.iu	aep1, a6, -4
    3740:	b128           	l32i.n	a2, a1, 44
    3742:	7168           	l32i.n	a6, a1, 28
    3744:	51e8           	l32i.n	a14, a1, 20
    3746:	1422a6        	blti	a2, 2, 375e <ProcessingIMDCT+0x266>
    3749:	9044f0        	addx2	a4, a4, a15
    374c:	215120        	srai	a5, a2, 1
    374f:	fcce22        	addi	a2, a14, -4
    3752:	fcc442        	addi	a4, a4, -4
    3755:	058576        	loop	a5, 375e <ProcessingIMDCT+0x266>
    3758:	448414        	ae_lp16x2f.iu	aep0, a4, 4
    375b:	468214        	ae_sp16x2f.iu	aep0, a2, 4
    375e:	9128           	l32i.n	a2, a1, 36
    3760:	222d           	ae_l16si.n	a2, a2, 0
    3762:	662d           	ae_s16i.n	a2, a6, 0
    3764:	f01d           	retw.n

00003766 <ProcessingIMDCT+0x26e>:
    3766:	877d           	ae_sext16	a7, a7
    3768:	ffc306        	j	3678 <ProcessingIMDCT+0x180>

0000376b <ProcessingIMDCT+0x273>:
    376b:	00000000                                 .....

00003770 <processDecoderEntropy_fx>:
    3770:	008136        	entry	a1, 64
    3773:	887c           	movi.n	a8, -8
    3775:	a50b           	addi.n	a10, a5, -1
    3777:	f48080        	extui	a8, a8, 0, 16
    377a:	108a80        	and	a8, a10, a8
    377d:	8acd           	ae_sext16	a12, a10
    377f:	c0a850        	sub	a10, a8, a5
    3782:	5a8b           	addi.n	a5, a10, 8
    3784:	855d           	ae_sext16	a5, a5
    3786:	60e050        	neg	a14, a5
    3789:	1b0c           	movi.n	a11, 1
    378b:	120c           	movi.n	a2, 1
    378d:	400e00        	ssr	a14
    3790:	918020        	srl	a8, a2
    3793:	11bb00        	slli	a11, a11, 16
    3796:	401500        	ssl	a5
    3799:	41c3c0        	srli	a12, a12, 3
    379c:	a1fb00        	sll	a15, a11
    379f:	1021a2        	l32i	a10, a1, 64
    37a2:	63cd           	ae_s16i.n	a12, a3, 0
    37a4:	f520f0        	extui	a2, a15, 16, 16
    37a7:	f2c4c1        	l32r	a12, 2b8 (3a08 <read_indice>)
    37aa:	182132        	l32i	a3, a1, 96
    37ad:	1421d2        	l32i	a13, a1, 80
    37b0:	a32850        	movltz	a2, a8, a5
    37b3:	642d           	ae_s16i.n	a2, a4, 0
    37b5:	61d9           	s32i.n	a13, a1, 24
    37b7:	1b1aa6        	blti	a10, 1, 37d6 <processDecoderEntropy_fx+0x66>
    37ba:	094d           	mov.n	a4, a9
    37bc:	0c2d           	mov.n	a2, a12
    37be:	000ce0        	callx8	a12
    37c1:	c0f7a0        	sub	a15, a7, a10
    37c4:	049d           	mov.n	a9, a4
    37c6:	8f4d           	ae_sext16	a4, a15
    37c8:	02cd           	mov.n	a12, a2
    37ca:	63ad           	ae_s16i.n	a10, a3, 0
    37cc:	00a4d6        	bgez	a4, 37da <processDecoderEntropy_fx+0x6a>
    37cf:	120c           	movi.n	a2, 1
    37d1:	637d           	ae_s16i.n	a7, a3, 0
    37d3:	007786        	j	39b5 <processDecoderEntropy_fx+0x245>

000037d6 <processDecoderEntropy_fx+0x66>:
    37d6:	07ad           	mov.n	a10, a7
    37d8:	637d           	ae_s16i.n	a7, a3, 0
    37da:	fdca72        	addi	a7, a10, -3
    37dd:	602060        	neg	a2, a6
    37e0:	82dd           	ae_sext16	a13, a2
    37e2:	1b2152        	l32i	a5, a1, 108
    37e5:	140c           	movi.n	a4, 1
    37e7:	280c           	movi.n	a8, 2
    37e9:	877d           	ae_sext16	a7, a7
    37eb:	a38470        	movltz	a8, a4, a7
    37ee:	eb1c           	movi.n	a11, 30
    37f0:	40ed70        	nsa	a7, a13
    37f3:	1f3c           	movi.n	a15, 49
    37f5:	112132        	l32i	a3, a1, 68
    37f8:	c07b70        	sub	a7, a11, a7
    37fb:	ee0c           	movi.n	a14, 14
    37fd:	93e760        	movnez	a14, a7, a6
    3800:	725f50        	salt	a5, a15, a5
    3803:	838450        	moveqz	a8, a4, a5
    3806:	132172        	l32i	a7, a1, 76
    3809:	8ead           	ae_sext16	a10, a14
    380b:	638d           	ae_s16i.n	a8, a3, 0
    380d:	094d           	mov.n	a4, a9
    380f:	0c2d           	mov.n	a2, a12
    3811:	000ce0        	callx8	a12
    3814:	250c           	movi.n	a5, 2
    3816:	905a50        	addx2	a5, a10, a5
    3819:	c06560        	sub	a6, a5, a6
    381c:	866d           	ae_sext16	a6, a6
    381e:	675d           	ae_s16i.n	a5, a7, 0
    3820:	0716a6        	blti	a6, 1, 382b <processDecoderEntropy_fx+0xbb>
    3823:	6128           	l32i.n	a2, a1, 24
    3825:	130c           	movi.n	a3, 1
    3827:	623d           	ae_s16i.n	a3, a2, 0
    3829:	f01d           	retw.n

0000382b <processDecoderEntropy_fx+0xbb>:
    382b:	f28c61        	l32r	a6, 25c (bad8 <g_p_dec_stream>)
    382e:	122182        	l32i	a8, a1, 72
    3831:	03af14        	ae_lbi	a10, 1
    3834:	0698           	l32i.n	a9, a6, 0
    3836:	1a2152        	l32i	a5, a1, 104
    3839:	7159           	s32i.n	a5, a1, 28
    383b:	0019f4        	ae_dbi	a9, 1
    383e:	1921f2        	l32i	a15, a1, 100
    3841:	68ad           	ae_s16i.n	a10, a8, 0
    3843:	172152        	l32i	a5, a1, 92
    3846:	152172        	l32i	a7, a1, 84
    3849:	8a0c           	movi.n	a10, 8
    384b:	41f9           	s32i.n	a15, a1, 16
    384d:	5149           	s32i.n	a4, a1, 20
    384f:	0699           	s32i.n	a9, a6, 0
    3851:	0002e0        	callx8	a2
    3854:	f29581        	l32r	a8, 2a8 (3cbe80 <_end+0x3c0398>)
    3857:	f97c           	movi.n	a9, -1
    3859:	019970        	slli	a9, a9, 25
    385c:	828a80        	mull	a8, a10, a8
    385f:	f29341        	l32r	a4, 2ac (cdc <BASOP_Util_InvLog2>)
    3862:	65ad           	ae_s16i.n	a10, a5, 0
    3864:	20a890        	or	a10, a8, a9
    3867:	0004e0        	callx8	a4
    386a:	080c           	movi.n	a8, 0
    386c:	778d           	ae_s16i.n	a8, a7, 2
    386e:	0648           	l32i.n	a4, a6, 0
    3870:	23ad           	ae_l16si.n	a10, a3, 0
    3872:	039f14        	ae_lbi	a9, 1
    3875:	0014f4        	ae_dbi	a4, 1
    3878:	0649           	s32i.n	a4, a6, 0
    387a:	141aa6        	blti	a10, 1, 3892 <processDecoderEntropy_fx+0x122>
    387d:	679d           	ae_s16i.n	a9, a7, 0
    387f:	0648           	l32i.n	a4, a6, 0
    3881:	23ad           	ae_l16si.n	a10, a3, 0
    3883:	039f14        	ae_lbi	a9, 1
    3886:	0014f4        	ae_dbi	a4, 1
    3889:	881b           	addi.n	a8, a8, 1
    388b:	772b           	addi.n	a7, a7, 2
    388d:	0649           	s32i.n	a4, a6, 0
    388f:	ea28a7        	blt	a8, a10, 387d <processDecoderEntropy_fx+0x10d>
    3892:	4128           	l32i.n	a2, a1, 16
    3894:	f28951        	l32r	a5, 2b8 (3a08 <read_indice>)
    3897:	5a0c           	movi.n	a10, 5
    3899:	629d           	ae_s16i.n	a9, a2, 0
    389b:	0005e0        	callx8	a5
    389e:	7128           	l32i.n	a2, a1, 28
    38a0:	02a9           	s32i.n	a10, a2, 0
    38a2:	5a0c           	movi.n	a10, 5
    38a4:	0005e0        	callx8	a5
    38a7:	f22771        	l32r	a7, 144 (b9f8 <sns_gainMSBbits>)
    38aa:	033f14        	ae_lbi	a3, 1
    38ad:	0648           	l32i.n	a4, a6, 0
    38af:	0778           	l32i.n	a7, a7, 0
    38b1:	0183f0        	slli	a8, a3, 17
    38b4:	12a9           	s32i.n	a10, a2, 4
    38b6:	0014f4        	ae_dbi	a4, 1
    38b9:	21ef80        	srai	a14, a8, 15
    38bc:	0649           	s32i.n	a4, a6, 0
    38be:	47ea           	add.n	a4, a7, a14
    38c0:	24ad           	ae_l16si.n	a10, a4, 0
    38c2:	31f080        	srai	a15, a8, 16
    38c5:	22f9           	s32i.n	a15, a2, 8
    38c7:	0005e0        	callx8	a5
    38ca:	0648           	l32i.n	a4, a6, 0
    38cc:	037f14        	ae_lbi	a7, 1
    38cf:	32a9           	s32i.n	a10, a2, 12
    38d1:	0014f4        	ae_dbi	a4, 1
    38d4:	ff7c           	movi.n	a15, -1
    38d6:	0649           	s32i.n	a4, a6, 0
    38d8:	877d           	ae_sext16	a7, a7
    38da:	f440f0        	extui	a4, a15, 0, 16
    38dd:	4279           	s32i.n	a7, a2, 16
    38df:	430437        	bnone	a4, a3, 3926 <processDecoderEntropy_fx+0x1b6>
    38e2:	ca0c           	movi.n	a10, 12
    38e4:	0005e0        	callx8	a5
    38e7:	0a3d           	mov.n	a3, a10
    38e9:	ca0c           	movi.n	a10, 12
    38eb:	0005e0        	callx8	a5
    38ee:	f21841        	l32r	a4, 150 (ba04 <sns_MPVQ_Sz>)
    38f1:	117a40        	slli	a7, a10, 12
    38f4:	203730        	or	a3, a7, a3
    38f7:	0448           	l32i.n	a4, a4, 0
    38f9:	5239           	s32i.n	a3, a2, 20
    38fb:	4478           	l32i.n	a7, a4, 16
    38fd:	6448           	l32i.n	a4, a4, 24
    38ff:	ef7c           	movi.n	a15, -2
    3901:	904470        	addx2	a4, a4, a7
    3904:	022347        	blt	a3, a4, 390a <processDecoderEntropy_fx+0x19a>
    3907:	002a06        	j	39b3 <processDecoderEntropy_fx+0x243>
    390a:	c03370        	sub	a3, a3, a7
    390d:	0aa396        	bltz	a3, 39bb <processDecoderEntropy_fx+0x24b>
    3910:	3248           	l32i.n	a4, a2, 12
    3912:	047030        	extui	a7, a3, 0, 1
    3915:	41e130        	srli	a14, a3, 1
    3918:	904470        	addx2	a4, a4, a7
    391b:	130c           	movi.n	a3, 1
    391d:	52e9           	s32i.n	a14, a2, 20
    391f:	62f9           	s32i.n	a15, a2, 24
    3921:	3249           	s32i.n	a4, a2, 12
    3923:	002686        	j	39c1 <processDecoderEntropy_fx+0x251>

00003926 <processDecoderEntropy_fx+0x1b6>:
    3926:	da0c           	movi.n	a10, 13
    3928:	0005e0        	callx8	a5
    392b:	0a3d           	mov.n	a3, a10
    392d:	ca0c           	movi.n	a10, 12
    392f:	0005e0        	callx8	a5
    3932:	f20741        	l32r	a4, 150 (ba04 <sns_MPVQ_Sz>)
    3935:	11aa30        	slli	a10, a10, 13
    3938:	203a30        	or	a3, a10, a3
    393b:	0448           	l32i.n	a4, a4, 0
    393d:	0f0c           	movi.n	a15, 0
    393f:	1488           	l32i.n	a8, a4, 4
    3941:	3498           	l32i.n	a9, a4, 12
    3943:	0478           	l32i.n	a7, a4, 0
    3945:	0a0c           	movi.n	a10, 0
    3947:	898a           	add.n	a8, a9, a8
    3949:	829870        	mull	a9, a8, a7
    394c:	11b800        	slli	a11, a8, 16
    394f:	5ca397        	bge	a3, a9, 39af <processDecoderEntropy_fx+0x23f>
    3952:	214190        	srai	a4, a9, 1
    3955:	41e180        	srli	a14, a8, 1
    3958:	724340        	salt	a4, a3, a4
    395b:	83ae40        	moveqz	a10, a14, a4
    395e:	31b1b0        	srai	a11, a11, 17
    3961:	9a4d           	ae_zext16	a4, a10
    3963:	9aba           	add.n	a9, a10, a11
    3965:	5128           	l32i.n	a2, a1, 20
    3967:	8a8d           	ae_sext16	a8, a10
    3969:	89ad           	ae_sext16	a10, a9
    396b:	829470        	mull	a9, a4, a7
    396e:	1ca8a7        	bge	a8, a10, 398e <processDecoderEntropy_fx+0x21e>
    3971:	80f970        	add	a15, a9, a7
    3974:	c04a80        	sub	a4, a10, a8
    3977:	01a092        	movi	a9, 1
    397a:	c0af30        	sub	a10, a15, a3
    397d:	068476        	loop	a4, 3987 <processDecoderEntropy_fx+0x217>
    3980:	724a90        	salt	a4, a10, a9
    3983:	aa7a           	add.n	a10, a10, a7
    3985:	884a           	add.n	a8, a8, a4

00003987 <processDecoderEntropy_fx+0x217>:
    3987:	984d           	ae_zext16	a4, a8
    3989:	829470        	mull	a9, a4, a7
    398c:	888d           	ae_sext16	a8, a8

0000398e <processDecoderEntropy_fx+0x21e>:
    398e:	c04390        	sub	a4, a3, a9
    3991:	7198           	l32i.n	a9, a1, 28
    3993:	4178           	l32i.n	a7, a1, 16
    3995:	fec832        	addi	a3, a8, -2
    3998:	5949           	s32i.n	a4, a9, 20
    399a:	6939           	s32i.n	a3, a9, 24
    399c:	2d28e6        	bgei	a8, 2, 39cd <processDecoderEntropy_fx+0x25d>
    399f:	3938           	l32i.n	a3, a9, 12
    39a1:	e47c           	movi.n	a4, -2
    39a3:	6949           	s32i.n	a4, a9, 24
    39a5:	90f380        	addx2	a15, a3, a8
    39a8:	130c           	movi.n	a3, 1
    39aa:	39f9           	s32i.n	a15, a9, 12
    39ac:	000846        	j	39d1 <processDecoderEntropy_fx+0x261>

000039af <processDecoderEntropy_fx+0x23f>:
    39af:	52f9           	s32i.n	a15, a2, 20
    39b1:	62f9           	s32i.n	a15, a2, 24
    39b3:	120c           	movi.n	a2, 1
    39b5:	6138           	l32i.n	a3, a1, 24
    39b7:	632d           	ae_s16i.n	a2, a3, 0
    39b9:	f01d           	retw.n

000039bb <processDecoderEntropy_fx+0x24b>:
    39bb:	f37c           	movi.n	a3, -1
    39bd:	6239           	s32i.n	a3, a2, 24
    39bf:	030c           	movi.n	a3, 0
    39c1:	029d           	mov.n	a9, a2
    39c3:	f23d51        	l32r	a5, 2b8 (3a08 <read_indice>)
    39c6:	5128           	l32i.n	a2, a1, 20
    39c8:	4178           	l32i.n	a7, a1, 16
    39ca:	0000c6        	j	39d1 <processDecoderEntropy_fx+0x261>

000039cd <processDecoderEntropy_fx+0x25d>:
    39cd:	6939           	s32i.n	a3, a9, 24
    39cf:	030c           	movi.n	a3, 0
    39d1:	2948           	l32i.n	a4, a9, 8
    39d3:	47fd           	ae_l16ui.n	a15, a7, 0
    39d5:	162122        	l32i	a2, a1, 88
    39d8:	343a           	add.n	a3, a4, a3
    39da:	2939           	s32i.n	a3, a9, 8
    39dc:	8f9c           	beqz.n	a15, 39f8 <processDecoderEntropy_fx+0x288>
    39de:	0638           	l32i.n	a3, a6, 0
    39e0:	034f14        	ae_lbi	a4, 1
    39e3:	9a0c           	movi.n	a10, 9
    39e5:	0013f4        	ae_dbi	a3, 1
    39e8:	0639           	s32i.n	a3, a6, 0
    39ea:	f23331        	l32r	a3, 2b8 (3a08 <read_indice>)
    39ed:	774d           	ae_s16i.n	a4, a7, 2
    39ef:	0003e0        	callx8	a3
    39f2:	f23151        	l32r	a5, 2b8 (3a08 <read_indice>)
    39f5:	0000c6        	j	39fc <processDecoderEntropy_fx+0x28c>

000039f8 <processDecoderEntropy_fx+0x288>:
    39f8:	0a0c           	movi.n	a10, 0
    39fa:	77ad           	ae_s16i.n	a10, a7, 2
    39fc:	0257a2        	s16i	a10, a7, 4
    39ff:	3a0c           	movi.n	a10, 3
    3a01:	0005e0        	callx8	a5
    3a04:	62ad           	ae_s16i.n	a10, a2, 0
    3a06:	f01d           	retw.n

00003a08 <read_indice>:
    3a08:	004136        	entry	a1, 32
    3a0b:	f21431        	l32r	a3, 25c (bad8 <g_p_dec_stream>)
    3a0e:	034f14        	ae_lbi	a4, 1
    3a11:	620b           	addi.n	a6, a2, -1
    3a13:	0358           	l32i.n	a5, a3, 0
    3a15:	0015f4        	ae_dbi	a5, 1
    3a18:	006352        	s32i	a5, a3, 0
    3a1b:	1b22a6        	blti	a2, 2, 3a3a <read_indice+0x32>
    3a1e:	01a022        	movi	a2, 1
    3a21:	158676        	loop	a6, 3a3a <read_indice+0x32>
    3a24:	035f14        	ae_lbi	a5, 1
    3a27:	0368           	l32i.n	a6, a3, 0
    3a29:	401200        	ssl	a2
    3a2c:	855d           	ae_sext16	a5, a5
    3a2e:	0016f4        	ae_dbi	a6, 1
    3a31:	a15500        	sll	a5, a5
    3a34:	221b           	addi.n	a2, a2, 1
    3a36:	445a           	add.n	a4, a4, a5
    3a38:	0369           	s32i.n	a6, a3, 0

00003a3a <read_indice+0x32>:
    3a3a:	842d           	ae_sext16	a2, a4
    3a3c:	f01d           	retw.n

00003a3e <read_indice+0x36>:
	...

00003a40 <Dec_LC3>:
    3a40:	02c136        	entry	a1, 0x160
    3a43:	2e6132        	s32i	a3, a1, 184
    3a46:	313040        	srai	a3, a4, 16
    3a49:	02dd           	mov.n	a13, a2
    3a4b:	396162        	s32i	a6, a1, 228
    3a4e:	092326        	beqi	a3, 2, 3a5b <Dec_LC3+0x1b>
    3a51:	1e1326        	beqi	a3, 1, 3a73 <Dec_LC3+0x33>
    3a54:	63ec           	bnez.n	a3, 3a7e <Dec_LC3+0x3e>
    3a56:	060c           	movi.n	a6, 0
    3a58:	000906        	j	3a80 <Dec_LC3+0x40>

00003a5b <Dec_LC3+0x1b>:
    3a5b:	0e1d82        	l16ui	a8, a13, 28
    3a5e:	130c           	movi.n	a3, 1
    3a60:	113300        	slli	a3, a3, 16
    3a63:	060c           	movi.n	a6, 0
    3a65:	1a6132        	s32i	a3, a1, 104
    3a68:	171866        	bnei	a8, 1, 3a83 <Dec_LC3+0x43>
    3a6b:	160c           	movi.n	a6, 1
    3a6d:	345162        	s16i	a6, a1, 104
    3a70:	0003c6        	j	3a83 <Dec_LC3+0x43>

00003a73 <Dec_LC3+0x33>:
    3a73:	f21231        	l32r	a3, 2bc (10001 <_end+0x4519>)
    3a76:	160c           	movi.n	a6, 1
    3a78:	1a6132        	s32i	a3, a1, 104
    3a7b:	000106        	j	3a83 <Dec_LC3+0x43>

00003a7e <Dec_LC3+0x3e>:
    3a7e:	160c           	movi.n	a6, 1
    3a80:	1a6162        	s32i	a6, a1, 104
    3a83:	0e9d82        	l16si	a8, a13, 28
    3a86:	94ad           	ae_zext16	a10, a4
    3a88:	030c           	movi.n	a3, 0
    3a8a:	d24a80        	quos	a4, a10, a8
    3a8d:	828480        	mull	a8, a4, a8
    3a90:	f1b7c1        	l32r	a12, 16c (ba2c <BitReverseTable256>)
    3a93:	c08a80        	sub	a8, a10, a8
    3a96:	628380        	saltu	a8, a3, a8
    3a99:	44cdb2        	addi	a11, a13, 68
    3a9c:	848a           	add.n	a8, a4, a8
    3a9e:	3561b2        	s32i	a11, a1, 212
    3aa1:	4161a2        	s32i	a10, a1, 0x104
    3aa4:	1d18a6        	blti	a8, 1, 3ac5 <Dec_LC3+0x85>
    3aa7:	2e2142        	l32i	a4, a1, 184
    3aaa:	a84a           	add.n	a10, a8, a4
    3aac:	44cd42        	addi	a4, a13, 68
    3aaf:	ba0b           	addi.n	a11, a10, -1
    3ab1:	108876        	loop	a8, 3ac5 <Dec_LC3+0x85>
    3ab4:	000ba2        	l8ui	a10, a11, 0
    3ab7:	0c88           	l32i.n	a8, a12, 0
    3ab9:	bb0b           	addi.n	a11, a11, -1
    3abb:	88aa           	add.n	a8, a8, a10
    3abd:	000882        	l8ui	a8, a8, 0
    3ac0:	004482        	s8i	a8, a4, 0
    3ac3:	441b           	addi.n	a4, a4, 1

00003ac5 <Dec_LC3+0x85>:
    3ac5:	f1e5b1        	l32r	a11, 25c (bad8 <g_p_dec_stream>)
    3ac8:	42cd42        	addi	a4, a13, 66
    3acb:	f1e5a1        	l32r	a10, 260 (bad4 <g_p_dec_based>)
    3ace:	0b49           	s32i.n	a4, a11, 0
    3ad0:	3c6142        	s32i	a4, a1, 240
    3ad3:	0b48           	l32i.n	a4, a11, 0
    3ad5:	352182        	l32i	a8, a1, 212
    3ad8:	f3f130        	wur.ae_bithead	a3
    3adb:	032634        	wur.ae_bitptr	a3
    3ade:	0a89           	s32i.n	a8, a10, 0
    3ae0:	0e1d32        	l16ui	a3, a13, 28
    3ae3:	0004f4        	ae_dbi	a4, 16
    3ae6:	0b49           	s32i.n	a4, a11, 0
    3ae8:	83fd           	ae_sext16	a15, a3
    3aea:	0004f4        	ae_dbi	a4, 16
    3aed:	0b49           	s32i.n	a4, a11, 0
    3aef:	021fe6        	bgei	a15, 1, 3af5 <Dec_LC3+0xb5>
    3af2:	01a7c6        	j	4195 <Dec_LC3+0x755>
    3af5:	3921a2        	l32i	a10, a1, 228
    3af8:	3461d2        	s32i	a13, a1, 208
    3afb:	592142        	l32i	a4, a1, 0x164
    3afe:	608070        	neg	a8, a7
    3b01:	3421d2        	l32i	a13, a1, 208
    3b04:	406142        	s32i	a4, a1, 0x100
    3b07:	68c122        	addi	a2, a1, 104
    3b0a:	f0ca42        	addi	a4, a10, -16
    3b0d:	4f0c           	movi.n	a15, 4
    3b0f:	2b0c           	movi.n	a11, 2
    3b11:	1c0c           	movi.n	a12, 1
    3b13:	f92c           	movi.n	a9, 47
    3b15:	34e080        	extui	a14, a8, 0, 4
    3b18:	93bf40        	movnez	a11, a15, a4
    3b1b:	2f6122        	s32i	a2, a1, 188
    3b1e:	27ea           	add.n	a2, a7, a14
    3b20:	6244c0        	saltu	a4, a4, a12
    3b23:	c0f9a0        	sub	a15, a9, a10
    3b26:	0ded           	mov.n	a14, a13
    3b28:	366152        	s32i	a5, a1, 216
    3b2b:	3d61b2        	s32i	a11, a1, 244
    3b2e:	3f6142        	s32i	a4, a1, 252
    3b31:	3e61f2        	s32i	a15, a1, 248
    3b34:	2d6122        	s32i	a2, a1, 180

00003b37 <Dec_LC3+0xf7>:
    3b37:	412142        	l32i	a4, a1, 0x104
    3b3a:	bc0b           	addi.n	a11, a12, -1
    3b3c:	3b61c2        	s32i	a12, a1, 236
    3b3f:	d25430        	quos	a5, a4, a3
    3b42:	823530        	mull	a3, a5, a3
    3b45:	436152        	s32i	a5, a1, 0x10c
    3b48:	c03430        	sub	a3, a4, a3
    3b4b:	623b30        	saltu	a3, a11, a3
    3b4e:	753a           	add.n	a7, a5, a3
    3b50:	426132        	s32i	a3, a1, 0x108
    3b53:	291626        	beqi	a6, 1, 3b80 <Dec_LC3+0x140>
    3b56:	0e38           	l32i.n	a3, a14, 0
    3b58:	87cd           	ae_sext16	a12, a7
    3b5a:	0dad           	mov.n	a10, a13
    3b5c:	219332        	l16si	a3, a3, 66
    3b5f:	0e5d           	mov.n	a5, a14
    3b61:	0d4d           	mov.n	a4, a13
    3b63:	191737        	beq	a7, a3, 3b80 <Dec_LC3+0x140>
    3b66:	f1d631        	l32r	a3, 2c0 (41bc <update_dec_bitrate>)
    3b69:	0003e0        	callx8	a3
    3b6c:	7a8c           	beqz.n	a10, 3b77 <Dec_LC3+0x137>
    3b6e:	e4a9           	s32i.n	a10, a4, 56
    3b70:	04dd           	mov.n	a13, a4
    3b72:	05ed           	mov.n	a14, a5
    3b74:	000206        	j	3b80 <Dec_LC3+0x140>

00003b77 <Dec_LC3+0x137>:
    3b77:	0538           	l32i.n	a3, a5, 0
    3b79:	05ed           	mov.n	a14, a5
    3b7b:	04dd           	mov.n	a13, a4
    3b7d:	215372        	s16i	a7, a3, 66
    3b80:	0d9d82        	l16si	a8, a13, 26
    3b83:	446172        	s32i	a7, a1, 0x110
    3b86:	141d42        	l16ui	a4, a13, 40
    3b89:	a07820        	addx4	a7, a8, a2
    3b8c:	296142        	s32i	a4, a1, 164
    3b8f:	904870        	addx2	a4, a8, a7
    3b92:	030c           	movi.n	a3, 0
    3b94:	40c452        	addi	a5, a4, 64
    3b97:	445132        	s16i	a3, a1, 136
    3b9a:	425132        	s16i	a3, a1, 132
    3b9d:	3a5132        	s16i	a3, a1, 116
    3ba0:	385132        	s16i	a3, a1, 112
    3ba3:	325132        	s16i	a3, a1, 100
    3ba6:	405132        	s16i	a3, a1, 128
    3ba9:	3e5132        	s16i	a3, a1, 124
    3bac:	365132        	s16i	a3, a1, 108
    3baf:	3c5132        	s16i	a3, a1, 120
    3bb2:	4a5132        	s16i	a3, a1, 148
    3bb5:	246132        	s32i	a3, a1, 144
    3bb8:	266132        	s32i	a3, a1, 152
    3bbb:	3a61e2        	s32i	a14, a1, 232
    3bbe:	0e38           	l32i.n	a3, a14, 0
    3bc0:	90e850        	addx2	a14, a8, a5
    3bc3:	20a1f2        	movi	a15, 0x120
    3bc6:	f1bf81        	l32r	a8, 2c4 (9b40 <memset>)
    3bc9:	2efa           	add.n	a2, a14, a15
    3bcb:	0b0c           	movi.n	a11, 0
    3bcd:	0c2c           	movi.n	a12, 32
    3bcf:	04ad           	mov.n	a10, a4
    3bd1:	2a6122        	s32i	a2, a1, 168
    3bd4:	305162        	s16i	a6, a1, 96
    3bd7:	2c61e2        	s32i	a14, a1, 176
    3bda:	0d2d           	mov.n	a2, a13
    3bdc:	0008e0        	callx8	a8
    3bdf:	180c           	movi.n	a8, 1
    3be1:	64c1f2        	addi	a15, a1, 100
    3be4:	286182        	s32i	a8, a1, 160
    3be7:	3861f2        	s32i	a15, a1, 224
    3bea:	021666        	bnei	a6, 1, 3bf0 <Dec_LC3+0x1b0>
    3bed:	008386        	j	3dff <Dec_LC3+0x3bf>
    3bf0:	01d182        	addmi	a8, a1, 0x100
    3bf3:	1b9262        	l16si	a6, a2, 54
    3bf6:	2b6162        	s32i	a6, a1, 172
    3bf9:	20c4a2        	addi	a10, a4, 32
    3bfc:	1092c2        	l16si	a12, a2, 32
    3bff:	90c882        	addi	a8, a8, -112
    3c02:	6cc162        	addi	a6, a1, 108
    3c05:	74c1b2        	addi	a11, a1, 116
    3c08:	336142        	s32i	a4, a1, 204
    3c0b:	1093d2        	l16si	a13, a3, 32
    3c0e:	1492e2        	l16si	a14, a2, 40
    3c11:	0c92f2        	l16si	a15, a2, 24
    3c14:	b1c9           	s32i.n	a12, a1, 44
    3c16:	a1a9           	s32i.n	a10, a1, 40
    3c18:	9189           	s32i.n	a8, a1, 36
    3c1a:	8169           	s32i.n	a6, a1, 32
    3c1c:	71b9           	s32i.n	a11, a1, 28
    3c1e:	01d142        	addmi	a4, a1, 0x100
    3c21:	01d162        	addmi	a6, a1, 0x100
    3c24:	01d1b2        	addmi	a11, a1, 0x100
    3c27:	3061a2        	s32i	a10, a1, 192
    3c2a:	70c1c2        	addi	a12, a1, 112
    3c2d:	059d           	mov.n	a9, a5
    3c2f:	98c452        	addi	a5, a4, -104
    3c32:	60c142        	addi	a4, a1, 96
    3c35:	8cc6a2        	addi	a10, a6, -116
    3c38:	7cc182        	addi	a8, a1, 124
    3c3b:	80cb62        	addi	a6, a11, -128
    3c3e:	61c9           	s32i.n	a12, a1, 24
    3c40:	01d1c2        	addmi	a12, a1, 0x100
    3c43:	5159           	s32i.n	a5, a1, 20
    3c45:	4149           	s32i.n	a4, a1, 16
    3c47:	3189           	s32i.n	a8, a1, 12
    3c49:	21a9           	s32i.n	a10, a1, 8
    3c4b:	1169           	s32i.n	a6, a1, 4
    3c4d:	01d182        	addmi	a8, a1, 0x100
    3c50:	2e21a2        	l32i	a10, a1, 184
    3c53:	f19d61        	l32r	a6, 2c8 (3770 <processDecoderEntropy_fx>)
    3c56:	3cccb2        	addi	a11, a12, 60
    3c59:	326152        	s32i	a5, a1, 200
    3c5c:	095d           	mov.n	a5, a9
    3c5e:	38c8c2        	addi	a12, a8, 56
    3c61:	2b2192        	l32i	a9, a1, 172
    3c64:	316142        	s32i	a4, a1, 196
    3c67:	0199           	s32i.n	a9, a1, 0
    3c69:	0006e0        	callx8	a6
    3c6c:	301162        	l16ui	a6, a1, 96
    3c6f:	361142        	l16ui	a4, a1, 108
    3c72:	1492e2        	l16si	a14, a2, 40
    3c75:	021666        	bnei	a6, 1, 3c7b <Dec_LC3+0x23b>
    3c78:	0060c6        	j	3dff <Dec_LC3+0x3bf>
    3c7b:	376142        	s32i	a4, a1, 220
    3c7e:	109342        	l16si	a4, a3, 32
    3c81:	0c92f2        	l16si	a15, a2, 24
    3c84:	109262        	l16si	a6, a2, 32
    3c87:	2a2122        	l32i	a2, a1, 168
    3c8a:	2b6142        	s32i	a4, a1, 172
    3c8d:	119342        	l16si	a4, a3, 34
    3c90:	f129           	s32i.n	a2, a1, 60
    3c92:	78c182        	addi	a8, a1, 120
    3c95:	01d122        	addmi	a2, a1, 0x100
    3c98:	e189           	s32i.n	a8, a1, 56
    3c9a:	84c282        	addi	a8, a2, -124
    3c9d:	332122        	l32i	a2, a1, 204
    3ca0:	d129           	s32i.n	a2, a1, 52
    3ca2:	01d122        	addmi	a2, a1, 0x100
    3ca5:	c179           	s32i.n	a7, a1, 48
    3ca7:	b189           	s32i.n	a8, a1, 44
    3ca9:	88c282        	addi	a8, a2, -120
    3cac:	3891b2        	l16si	a11, a1, 112
    3caf:	3a9192        	l16si	a9, a1, 116
    3cb2:	a159           	s32i.n	a5, a1, 40
    3cb4:	9189           	s32i.n	a8, a1, 36
    3cb6:	8169           	s32i.n	a6, a1, 32
    3cb8:	7199           	s32i.n	a9, a1, 28
    3cba:	61b9           	s32i.n	a11, a1, 24
    3cbc:	3221b2        	l32i	a11, a1, 200
    3cbf:	4091d2        	l16si	a13, a1, 128
    3cc2:	4691a2        	l16si	a10, a1, 140
    3cc5:	3e91c2        	l16si	a12, a1, 124
    3cc8:	312162        	l32i	a6, a1, 196
    3ccb:	51b9           	s32i.n	a11, a1, 20
    3ccd:	4169           	s32i.n	a6, a1, 16
    3ccf:	01d182        	addmi	a8, a1, 0x100
    3cd2:	31c9           	s32i.n	a12, a1, 12
    3cd4:	21a9           	s32i.n	a10, a1, 8
    3cd6:	11d9           	s32i.n	a13, a1, 4
    3cd8:	01d192        	addmi	a9, a1, 0x100
    3cdb:	2e21a2        	l32i	a10, a1, 184
    3cde:	2b21d2        	l32i	a13, a1, 172
    3ce1:	f17a21        	l32r	a2, 2cc (2194 <processAriDecoder_fx>)
    3ce4:	3cc8b2        	addi	a11, a8, 60
    3ce7:	38c9c2        	addi	a12, a9, 56
    3cea:	0149           	s32i.n	a4, a1, 0
    3cec:	0002e0        	callx8	a2
    3cef:	301162        	l16ui	a6, a1, 96
    3cf2:	342122        	l32i	a2, a1, 208
    3cf5:	2d21c2        	l32i	a12, a1, 180
    3cf8:	f6cc           	bnez.n	a6, 3d0b <Dec_LC3+0x2cb>
    3cfa:	64c1d2        	addi	a13, a1, 100
    3cfd:	1492b2        	l16si	a11, a2, 40
    3d00:	f17421        	l32r	a2, 2d0 (2838 <processAriDecoderScaling_fx>)
    3d03:	05ad           	mov.n	a10, a5
    3d05:	0002e0        	callx8	a2
    3d08:	301162        	l16ui	a6, a1, 96
    3d0b:	342122        	l32i	a2, a1, 208
    3d0e:	021666        	bnei	a6, 1, 3d14 <Dec_LC3+0x2d4>
    3d11:	003a86        	j	3dff <Dec_LC3+0x3bf>
    3d14:	3021a2        	l32i	a10, a1, 192
    3d17:	2c21b2        	l32i	a11, a1, 176
    3d1a:	2a21c2        	l32i	a12, a1, 168
    3d1d:	f16d51        	l32r	a5, 2d4 (2cb8 <processSnsQuantizeScfDecoder_fx>)
    3d20:	0005e0        	callx8	a5
    3d23:	301152        	l16ui	a5, a1, 96
    3d26:	2c2162        	l32i	a6, a1, 176
    3d29:	2d2142        	l32i	a4, a1, 180
    3d2c:	021566        	bnei	a5, 1, 3d32 <Dec_LC3+0x2f2>
    3d2f:	003306        	j	3dff <Dec_LC3+0x3bf>
    3d32:	a0a0f2        	movi	a15, 160
    3d35:	20c652        	addi	a5, a6, 32
    3d38:	286152        	s32i	a5, a1, 160
    3d3b:	56fa           	add.n	a5, a6, a15
    3d3d:	2b6152        	s32i	a5, a1, 172
    3d40:	3291b2        	l16si	a11, a1, 100
    3d43:	1492c2        	l16si	a12, a2, 40
    3d46:	4491e2        	l16si	a14, a1, 136
    3d49:	f16351        	l32r	a5, 2d8 (a5b4 <processResidualDecoding_fx>)
    3d4c:	04ad           	mov.n	a10, a4
    3d4e:	07dd           	mov.n	a13, a7
    3d50:	0005e0        	callx8	a5
    3d53:	3c1152        	l16ui	a5, a1, 120
    3d56:	2921e2        	l32i	a14, a1, 164
    3d59:	2a2162        	l32i	a6, a1, 168
    3d5c:	25ec           	bnez.n	a5, 3d82 <Dec_LC3+0x342>
    3d5e:	372182        	l32i	a8, a1, 220
    3d61:	1092f2        	l16si	a15, a2, 32
    3d64:	0f9352        	l16si	a5, a3, 30
    3d67:	2169           	s32i.n	a6, a1, 8
    3d69:	8e6d           	ae_sext16	a6, a14
    3d6b:	1169           	s32i.n	a6, a1, 4
    3d6d:	0159           	s32i.n	a5, a1, 0
    3d6f:	4291b2        	l16si	a11, a1, 132
    3d72:	3291c2        	l16si	a12, a1, 100
    3d75:	3891d2        	l16si	a13, a1, 112
    3d78:	f15951        	l32r	a5, 2dc (4970 <processNoiseFilling_fx>)
    3d7b:	88ed           	ae_sext16	a14, a8
    3d7d:	04ad           	mov.n	a10, a4
    3d7f:	0005e0        	callx8	a5
    3d82:	64c152        	addi	a5, a1, 100
    3d85:	1492c2        	l16si	a12, a2, 40
    3d88:	3a91d2        	l16si	a13, a1, 116
    3d8b:	1b93e2        	l16si	a14, a3, 54
    3d8e:	f15461        	l32r	a6, 2e0 (3498 <processApplyGlobalGain_fx>)
    3d91:	04ad           	mov.n	a10, a4
    3d93:	05bd           	mov.n	a11, a5
    3d95:	296152        	s32i	a5, a1, 164
    3d98:	0006e0        	callx8	a6
    3d9b:	01d1d2        	addmi	a13, a1, 0x100
    3d9e:	04bd           	mov.n	a11, a4
    3da0:	1492c2        	l16si	a12, a2, 40
    3da3:	3691f2        	l16si	a15, a1, 108
    3da6:	3321a2        	l32i	a10, a1, 204
    3da9:	f14e41        	l32r	a4, 2e4 (4ac8 <processTnsDecoder_fx>)
    3dac:	109292        	l16si	a9, a2, 32
    3daf:	2a2162        	l32i	a6, a1, 168
    3db2:	98cdd2        	addi	a13, a13, -104
    3db5:	05ed           	mov.n	a14, a5
    3db7:	1169           	s32i.n	a6, a1, 4
    3db9:	0199           	s32i.n	a9, a1, 0
    3dbb:	0004e0        	callx8	a4
    3dbe:	2b2162        	l32i	a6, a1, 172
    3dc1:	282152        	l32i	a5, a1, 160
    3dc4:	1892e2        	l16si	a14, a2, 48
    3dc7:	2c21a2        	l32i	a10, a1, 176
    3dca:	2a21f2        	l32i	a15, a1, 168
    3dcd:	f14641        	l32r	a4, 2e8 (1790 <processSnsInterpolateScf_fx>)
    3dd0:	0d0c           	movi.n	a13, 0
    3dd2:	06bd           	mov.n	a11, a6
    3dd4:	05cd           	mov.n	a12, a5
    3dd6:	0004e0        	callx8	a4
    3dd9:	1892b2        	l16si	a11, a2, 48
    3ddc:	2921c2        	l32i	a12, a1, 164
    3ddf:	f14341        	l32r	a4, 2ec (a530 <processScfScaling>)
    3de2:	05ad           	mov.n	a10, a5
    3de4:	0004e0        	callx8	a4
    3de7:	32d8           	l32i.n	a13, a2, 12
    3de9:	1892e2        	l16si	a14, a2, 48
    3dec:	2d21a2        	l32i	a10, a1, 180
    3def:	f14041        	l32r	a4, 2f0 (a4f0 <processMdctShaping_fx>)
    3df2:	06bd           	mov.n	a11, a6
    3df4:	05cd           	mov.n	a12, a5
    3df6:	0004e0        	callx8	a4
    3df9:	301142        	l16ui	a4, a1, 96
    3dfc:	286142        	s32i	a4, a1, 160
    3dff:	1c9382        	l16si	a8, a3, 56
    3e02:	3cc3f2        	addi	a15, a3, 60
    3e05:	4d6182        	s32i	a8, a1, 0x134
    3e08:	2cc382        	addi	a8, a3, 44
    3e0b:	3761f2        	s32i	a15, a1, 220
    3e0e:	3ec352        	addi	a5, a3, 62
    3e11:	0d9292        	l16si	a9, a2, 26
    3e14:	22b8           	l32i.n	a11, a2, 8
    3e16:	23c8           	l32i.n	a12, a3, 8
    3e18:	43d8           	l32i.n	a13, a3, 16
    3e1a:	14c3e2        	addi	a14, a3, 20
    3e1d:	1492f2        	l16si	a15, a2, 40
    3e20:	336182        	s32i	a8, a1, 204
    3e23:	080c           	movi.n	a8, 0
    3e25:	0f9242        	l16si	a4, a2, 30
    3e28:	296152        	s32i	a5, a1, 164
    3e2b:	4c6192        	s32i	a9, a1, 0x130
    3e2e:	1692a2        	l16si	a10, a2, 44
    3e31:	4961b2        	s32i	a11, a1, 0x124
    3e34:	4861c2        	s32i	a12, a1, 0x120
    3e37:	4761d2        	s32i	a13, a1, 0x11c
    3e3a:	4661e2        	s32i	a14, a1, 0x118
    3e3d:	4561f2        	s32i	a15, a1, 0x114
    3e40:	2ac352        	addi	a5, a3, 42
    3e43:	0c9292        	l16si	a9, a2, 24
    3e46:	32c8           	l32i.n	a12, a2, 12
    3e48:	1593b2        	l16si	a11, a3, 42
    3e4b:	1693e2        	l16si	a14, a3, 44
    3e4e:	33f8           	l32i.n	a15, a3, 12
    3e50:	1092d2        	l16si	a13, a2, 32
    3e53:	156182        	s32i	a8, a1, 84
    3e56:	146182        	s32i	a8, a1, 80
    3e59:	2a2182        	l32i	a8, a1, 168
    3e5c:	136182        	s32i	a8, a1, 76
    3e5f:	306142        	s32i	a4, a1, 192
    3e62:	4b61a2        	s32i	a10, a1, 0x12c
    3e65:	2b6152        	s32i	a5, a1, 172
    3e68:	18c342        	addi	a4, a3, 24
    3e6b:	40c3a2        	addi	a10, a3, 64
    3e6e:	16c352        	addi	a5, a3, 22
    3e71:	282182        	l32i	a8, a1, 160
    3e74:	1261d2        	s32i	a13, a1, 72
    3e77:	1161f2        	s32i	a15, a1, 68
    3e7a:	106152        	s32i	a5, a1, 64
    3e7d:	38c362        	addi	a6, a3, 56
    3e80:	f149           	s32i.n	a4, a1, 60
    3e82:	e1e9           	s32i.n	a14, a1, 56
    3e84:	d1b9           	s32i.n	a11, a1, 52
    3e86:	c1a9           	s32i.n	a10, a1, 48
    3e88:	b1c9           	s32i.n	a12, a1, 44
    3e8a:	4521b2        	l32i	a11, a1, 0x114
    3e8d:	3821c2        	l32i	a12, a1, 224
    3e90:	2d21d2        	l32i	a13, a1, 180
    3e93:	4621e2        	l32i	a14, a1, 0x118
    3e96:	4721f2        	l32i	a15, a1, 0x11c
    3e99:	a199           	s32i.n	a9, a1, 40
    3e9b:	91b9           	s32i.n	a11, a1, 36
    3e9d:	81c9           	s32i.n	a12, a1, 32
    3e9f:	71d9           	s32i.n	a13, a1, 28
    3ea1:	61e9           	s32i.n	a14, a1, 24
    3ea3:	326162        	s32i	a6, a1, 200
    3ea6:	24c362        	addi	a6, a3, 36
    3ea9:	51f9           	s32i.n	a15, a1, 20
    3eab:	316142        	s32i	a4, a1, 196
    3eae:	3021a2        	l32i	a10, a1, 192
    3eb1:	3721b2        	l32i	a11, a1, 220
    3eb4:	2921c2        	l32i	a12, a1, 164
    3eb7:	4d21e2        	l32i	a14, a1, 0x134
    3eba:	4c21f2        	l32i	a15, a1, 0x130
    3ebd:	f10d41        	l32r	a4, 2f4 (8e1c <processPLCmain_fx>)
    3ec0:	88dd           	ae_sext16	a13, a8
    3ec2:	4a6162        	s32i	a6, a1, 0x128
    3ec5:	4169           	s32i.n	a6, a1, 16
    3ec7:	482152        	l32i	a5, a1, 0x120
    3eca:	492162        	l32i	a6, a1, 0x124
    3ecd:	4b2192        	l32i	a9, a1, 0x12c
    3ed0:	3159           	s32i.n	a5, a1, 12
    3ed2:	2179           	s32i.n	a7, a1, 8
    3ed4:	1169           	s32i.n	a6, a1, 4
    3ed6:	0199           	s32i.n	a9, a1, 0
    3ed8:	0004e0        	callx8	a4
    3edb:	159242        	l16si	a4, a2, 42
    3ede:	402182        	l32i	a8, a1, 0x100
    3ee1:	286142        	s32i	a4, a1, 160
    3ee4:	22c8           	l32i.n	a12, a2, 8
    3ee6:	23d8           	l32i.n	a13, a3, 8
    3ee8:	0d9252        	l16si	a5, a2, 26
    3eeb:	179262        	l16si	a6, a2, 46
    3eee:	109292        	l16si	a9, a2, 32
    3ef1:	1e93a2        	l16si	a10, a3, 60
    3ef4:	3091b2        	l16si	a11, a1, 96
    3ef7:	1c93e2        	l16si	a14, a3, 56
    3efa:	1f93f2        	l16si	a15, a3, 62
    3efd:	3348           	l32i.n	a4, a3, 12
    3eff:	a189           	s32i.n	a8, a1, 40
    3f01:	2a2182        	l32i	a8, a1, 168
    3f04:	9189           	s32i.n	a8, a1, 36
    3f06:	8149           	s32i.n	a4, a1, 32
    3f08:	71f9           	s32i.n	a15, a1, 28
    3f0a:	61e9           	s32i.n	a14, a1, 24
    3f0c:	51b9           	s32i.n	a11, a1, 20
    3f0e:	41a9           	s32i.n	a10, a1, 16
    3f10:	2d21a2        	l32i	a10, a1, 180
    3f13:	3821b2        	l32i	a11, a1, 224
    3f16:	4a21e2        	l32i	a14, a1, 0x128
    3f19:	f0f741        	l32r	a4, 2f8 (34f8 <ProcessingIMDCT>)
    3f1c:	3199           	s32i.n	a9, a1, 12
    3f1e:	07fd           	mov.n	a15, a7
    3f20:	282192        	l32i	a9, a1, 160
    3f23:	2169           	s32i.n	a6, a1, 8
    3f25:	1159           	s32i.n	a5, a1, 4
    3f27:	0199           	s32i.n	a9, a1, 0
    3f29:	0004e0        	callx8	a4
    3f2c:	309142        	l16si	a4, a1, 96
    3f2f:	312162        	l32i	a6, a1, 196
    3f32:	2c21b2        	l32i	a11, a1, 176
    3f35:	33a8           	l32i.n	a10, a3, 12
    3f37:	3291c2        	l16si	a12, a1, 100
    3f3a:	1e93d2        	l16si	a13, a3, 60
    3f3d:	0d92e2        	l16si	a14, a2, 26
    3f40:	0c92f2        	l16si	a15, a2, 24
    3f43:	5169           	s32i.n	a6, a1, 20
    3f45:	41b9           	s32i.n	a11, a1, 16
    3f47:	3149           	s32i.n	a4, a1, 12
    3f49:	f0ec41        	l32r	a4, 2fc (4cc4 <processPLCupdate_fx>)
    3f4c:	322182        	l32i	a8, a1, 200
    3f4f:	07bd           	mov.n	a11, a7
    3f51:	3ac352        	addi	a5, a3, 58
    3f54:	292192        	l32i	a9, a1, 164
    3f57:	2189           	s32i.n	a8, a1, 8
    3f59:	1159           	s32i.n	a5, a1, 4
    3f5b:	0199           	s32i.n	a9, a1, 0
    3f5d:	0004e0        	callx8	a4
    3f60:	0d9242        	l16si	a4, a2, 26
    3f63:	199282        	l16si	a8, a2, 50
    3f66:	28c3b2        	addi	a11, a3, 40
    3f69:	03c8           	l32i.n	a12, a3, 0
    3f6b:	296142        	s32i	a4, a1, 164
    3f6e:	2c6182        	s32i	a8, a1, 176
    3f71:	0c9292        	l16si	a9, a2, 24
    3f74:	1a92a2        	l16si	a10, a2, 52
    3f77:	3161b2        	s32i	a11, a1, 196
    3f7a:	3061c2        	s32i	a12, a1, 192
    3f7d:	1358           	l32i.n	a5, a3, 4
    3f7f:	2ec342        	addi	a4, a3, 46
    3f82:	30c3b2        	addi	a11, a3, 48
    3f85:	1993c2        	l16si	a12, a3, 50
    3f88:	3091d2        	l16si	a13, a1, 96
    3f8b:	1e93e2        	l16si	a14, a3, 60
    3f8e:	2093f2        	l16si	a15, a3, 64
    3f91:	2a2182        	l32i	a8, a1, 168
    3f94:	34c332        	addi	a3, a3, 52
    3f97:	286192        	s32i	a9, a1, 160
    3f9a:	3261a2        	s32i	a10, a1, 200
    3f9d:	106182        	s32i	a8, a1, 64
    3fa0:	f139           	s32i.n	a3, a1, 60
    3fa2:	e1f9           	s32i.n	a15, a1, 56
    3fa4:	d1e9           	s32i.n	a14, a1, 52
    3fa6:	c1d9           	s32i.n	a13, a1, 48
    3fa8:	489162        	l16si	a6, a1, 144
    3fab:	499192        	l16si	a9, a1, 146
    3fae:	4a91a2        	l16si	a10, a1, 148
    3fb1:	3321d2        	l32i	a13, a1, 204
    3fb4:	2b21e2        	l32i	a14, a1, 172
    3fb7:	3021f2        	l32i	a15, a1, 192
    3fba:	b1c9           	s32i.n	a12, a1, 44
    3fbc:	a1b9           	s32i.n	a11, a1, 40
    3fbe:	9149           	s32i.n	a4, a1, 36
    3fc0:	81d9           	s32i.n	a13, a1, 32
    3fc2:	71e9           	s32i.n	a14, a1, 28
    3fc4:	61a9           	s32i.n	a10, a1, 24
    3fc6:	5199           	s32i.n	a9, a1, 20
    3fc8:	4169           	s32i.n	a6, a1, 16
    3fca:	3159           	s32i.n	a5, a1, 12
    3fcc:	2179           	s32i.n	a7, a1, 8
    3fce:	11f9           	s32i.n	a15, a1, 4
    3fd0:	3821a2        	l32i	a10, a1, 224
    3fd3:	2921b2        	l32i	a11, a1, 164
    3fd6:	2c21c2        	l32i	a12, a1, 176
    3fd9:	2821d2        	l32i	a13, a1, 160
    3fdc:	3221e2        	l32i	a14, a1, 200
    3fdf:	3121f2        	l32i	a15, a1, 196
    3fe2:	f0c731        	l32r	a3, 300 (4288 <process_ltpf_decoder_fx>)
    3fe5:	0179           	s32i.n	a7, a1, 0
    3fe7:	0003e0        	callx8	a3
    3fea:	321142        	l16ui	a4, a1, 100
    3fed:	3e21c2        	l32i	a12, a1, 248
    3ff0:	130c           	movi.n	a3, 1
    3ff2:	113310        	slli	a3, a3, 15
    3ff5:	01d1b2        	addmi	a11, a1, 0x100
    3ff8:	0e1292        	l16ui	a9, a2, 28
    3ffb:	276132        	s32i	a3, a1, 156
    3ffe:	9ccb32        	addi	a3, a11, -100
    4001:	c08c40        	sub	a8, a12, a4
    4004:	0d1c           	movi.n	a13, 16
    4006:	3f2152        	l32i	a5, a1, 252
    4009:	600304        	ae_lq32f.i	aeq0, a3, 0
    400c:	c03d80        	sub	a3, a13, a8
    400f:	833d           	ae_sext16	a3, a3
    4011:	0d9262        	l16si	a6, a2, 26
    4014:	3921f2        	l32i	a15, a1, 228
    4017:	603030        	neg	a3, a3
    401a:	4e0c           	movi.n	a14, 4
    401c:	990b           	addi.n	a9, a9, -1
    401e:	8a0c           	movi.n	a10, 8
    4020:	fc20be830f 	{ ae_slaasq56s	aeq0, aeq0, a3; ae_zerop48	aep0 }
    4025:	400500        	ssr	a5
    4028:	93ea90        	movnez	a14, a10, a9
    402b:	215160        	srai	a5, a6, 1
    402e:	fc00d3d22f 	{ or	a13, a2, a2; ae_satq48s	aeq0, aeq0 }
    4033:	9130e0        	srl	a3, a14
    4036:	37bf66        	bnei	a15, 16, 4071 <Dec_LC3+0x631>
    4039:	3621b2        	l32i	a11, a1, 216
    403c:	e20c           	movi.n	a2, 14
    403e:	fe0c           	movi.n	a14, 15
    4040:	c04e40        	sub	a4, a14, a4
    4043:	109320        	and	a9, a3, a2
    4046:	848d           	ae_sext16	a8, a4
    4048:	c04b90        	sub	a4, a11, a9
    404b:	f04891        	l32r	a9, 16c (ba2c <BitReverseTable256>)
    404e:	3b21c2        	l32i	a12, a1, 236
    4051:	3a21e2        	l32i	a14, a1, 232
    4054:	60a180        	abs	a10, a8
    4057:	9f1c           	movi.n	a15, 25
    4059:	02aaf7        	bge	a10, a15, 405f <Dec_LC3+0x61f>
    405c:	0038c6        	j	4143 <Dec_LC3+0x703>
    405f:	2f21a2        	l32i	a10, a1, 188
    4062:	5126a6        	blti	a6, 2, 40b7 <Dec_LC3+0x677>
    4065:	058576        	loop	a5, 406e <Dec_LC3+0x62e>
    4068:	438434        	ae_sp16f.l.xu	aep0, a4, a3
    406b:	438434        	ae_sp16f.l.xu	aep0, a4, a3

0000406e <Dec_LC3+0x62e>:
    406e:	001146        	j	40b7 <Dec_LC3+0x677>

00004071 <Dec_LC3+0x631>:
    4071:	3621b2        	l32i	a11, a1, 216
    4074:	f03e91        	l32r	a9, 16c (ba2c <BitReverseTable256>)
    4077:	3b21c2        	l32i	a12, a1, 236
    407a:	2f21a2        	l32i	a10, a1, 188
    407d:	3a21e2        	l32i	a14, a1, 232
    4080:	3326a6        	blti	a6, 2, 40b7 <Dec_LC3+0x677>
    4083:	c20c           	movi.n	a2, 12
    4085:	368404        	ae_trunca32q48	a4, aeq0
    4088:	606080        	neg	a6, a8
    408b:	10f320        	and	a15, a3, a2
    408e:	360434        	ae_cvtq48a32s	aeq0, a4
    4091:	448704        	ae_lp16x2f.iu	aep0, a7, 0
    4094:	c04bf0        	sub	a4, a11, a15
    4097:	866d           	ae_sext16	a6, a6
    4099:	1a8576        	loop	a5, 40b7 <Dec_LC3+0x677>
    409c:	0a4884        	ae_cvtq48p24s.h	aeq1, aep0
    409f:	065804        	ae_addsq56s	aeq1, aeq1, aeq0
    40a2:	fe0c3e964f 	{ ae_slaasq56s	aeq1, aeq1, a6; ae_cvtq48p24s.l	aeq2, aep0 }
    40a7:	fb7278943f 	{ ae_sq32f.xu	aeq1, a4, a3; ae_addsq56s	aeq3, aeq2, aeq0 }
    40ac:	fc24feb64f 	{ ae_slaasq56s	aeq1, aeq3, a6; nop }
    40b1:	62d434        	ae_sq32f.xu	aeq1, a4, a3
    40b4:	448714        	ae_lp16x2f.iu	aep0, a7, 4

000040b7 <Dec_LC3+0x677>:
    40b7:	0e48           	l32i.n	a4, a14, 0
    40b9:	0e1d32        	l16ui	a3, a13, 28
    40bc:	309152        	l16si	a5, a1, 96
    40bf:	139442        	l16si	a4, a4, 38
    40c2:	6a5d           	ae_s16i.n	a5, a10, 0
    40c4:	542366        	bnei	a3, 2, 411c <Dec_LC3+0x6dc>
    40c7:	442122        	l32i	a2, a1, 0x110
    40ca:	432132        	l32i	a3, a1, 0x10c
    40cd:	422152        	l32i	a5, a1, 0x108
    40d0:	2112a6        	blti	a2, 1, 40f5 <Dec_LC3+0x6b5>
    40d3:	2e21f2        	l32i	a15, a1, 184
    40d6:	334a           	add.n	a3, a3, a4
    40d8:	335a           	add.n	a3, a3, a5
    40da:	5f3a           	add.n	a5, a15, a3
    40dc:	352132        	l32i	a3, a1, 212
    40df:	550b           	addi.n	a5, a5, -1
    40e1:	108276        	loop	a2, 40f5 <Dec_LC3+0x6b5>
    40e4:	000572        	l8ui	a7, a5, 0
    40e7:	0968           	l32i.n	a6, a9, 0
    40e9:	550b           	addi.n	a5, a5, -1
    40eb:	667a           	add.n	a6, a6, a7
    40ed:	000662        	l8ui	a6, a6, 0
    40f0:	004362        	s8i	a6, a3, 0
    40f3:	331b           	addi.n	a3, a3, 1
    40f5:	f05961        	l32r	a6, 25c (bad8 <g_p_dec_stream>)
    40f8:	3c2182        	l32i	a8, a1, 240
    40fb:	f05951        	l32r	a5, 260 (bad4 <g_p_dec_based>)
    40fe:	0689           	s32i.n	a8, a6, 0
    4100:	06f8           	l32i.n	a15, a6, 0
    4102:	090c           	movi.n	a9, 0
    4104:	352132        	l32i	a3, a1, 212
    4107:	0539           	s32i.n	a3, a5, 0
    4109:	f3f190        	wur.ae_bithead	a9
    410c:	032694        	wur.ae_bitptr	a9
    410f:	000ff4        	ae_dbi	a15, 16
    4112:	06f9           	s32i.n	a15, a6, 0
    4114:	0e1d32        	l16ui	a3, a13, 28
    4117:	000ff4        	ae_dbi	a15, 16
    411a:	06f9           	s32i.n	a15, a6, 0

0000411c <Dec_LC3+0x6dc>:
    411c:	833d           	ae_sext16	a3, a3
    411e:	73ac37        	bge	a12, a3, 4195 <Dec_LC3+0x755>
    4121:	2e2152        	l32i	a5, a1, 184
    4124:	3d21f2        	l32i	a15, a1, 244
    4127:	5a6d           	ae_l16ui.n	a6, a10, 2
    4129:	2d2122        	l32i	a2, a1, 180
    412c:	554a           	add.n	a5, a5, a4
    412e:	9a2b           	addi.n	a9, a10, 2
    4130:	bbfa           	add.n	a11, a11, a15
    4132:	2e6152        	s32i	a5, a1, 184
    4135:	cc1b           	addi.n	a12, a12, 1
    4137:	ee4b           	addi.n	a14, a14, 4
    4139:	3661b2        	s32i	a11, a1, 216
    413c:	2f6192        	s32i	a9, a1, 188
    413f:	fe7d06        	j	3b37 <Dec_LC3+0xf7>

00004142 <Dec_LC3+0x702>:
	...

00004143 <Dec_LC3+0x703>:
    4143:	448704        	ae_lp16x2f.iu	aep0, a7, 0
    4146:	2418a6        	blti	a8, 1, 416e <Dec_LC3+0x72e>
    4149:	2f21a2        	l32i	a10, a1, 188
    414c:	031684        	wur.ae_sar	a8
    414f:	0226e6        	bgei	a6, 2, 4155 <Dec_LC3+0x715>
    4152:	ffd846        	j	40b7 <Dec_LC3+0x677>
    4155:	118576        	loop	a5, 416a <Dec_LC3+0x72a>
    4158:	0b0384        	ae_srasp24	aep0, aep0
    415b:	090184        	ae_roundsp16asym	aep0, aep0
    415e:	1a8094        	ae_selp24.lh	aep1, aep0, aep0
    4161:	439434        	ae_sp16f.l.xu	aep1, a4, a3
    4164:	438434        	ae_sp16f.l.xu	aep0, a4, a3
    4167:	448714        	ae_lp16x2f.iu	aep0, a7, 4

0000416a <Dec_LC3+0x72a>:
    416a:	ffd246        	j	40b7 <Dec_LC3+0x677>

0000416d <Dec_LC3+0x72d>:
	...

0000416e <Dec_LC3+0x72e>:
    416e:	2f21a2        	l32i	a10, a1, 188
    4171:	608080        	neg	a8, a8
    4174:	031684        	wur.ae_sar	a8
    4177:	0226e6        	bgei	a6, 2, 417d <Dec_LC3+0x73d>
    417a:	ffce46        	j	40b7 <Dec_LC3+0x677>
    417d:	118576        	loop	a5, 4192 <Dec_LC3+0x752>
    4180:	0b0084        	ae_sllssp24s	aep0, aep0
    4183:	090184        	ae_roundsp16asym	aep0, aep0
    4186:	1a8094        	ae_selp24.lh	aep1, aep0, aep0
    4189:	439434        	ae_sp16f.l.xu	aep1, a4, a3
    418c:	438434        	ae_sp16f.l.xu	aep0, a4, a3
    418f:	448714        	ae_lp16x2f.iu	aep0, a7, 4

00004192 <Dec_LC3+0x752>:
    4192:	ffc846        	j	40b7 <Dec_LC3+0x677>

00004195 <Dec_LC3+0x755>:
    4195:	ed48           	l32i.n	a4, a13, 56
    4197:	341132        	l16ui	a3, a1, 104
    419a:	94cc           	bnez.n	a4, 41a7 <Dec_LC3+0x767>
    419c:	33cc           	bnez.n	a3, 41a3 <Dec_LC3+0x763>
    419e:	351142        	l16ui	a4, a1, 106
    41a1:	f48c           	beqz.n	a4, 41b4 <Dec_LC3+0x774>
    41a3:	640c           	movi.n	a4, 6
    41a5:	ed49           	s32i.n	a4, a13, 56
    41a7:	351122        	l16ui	a2, a1, 106
    41aa:	203230        	or	a3, a2, a3
    41ad:	620c           	movi.n	a2, 6
    41af:	832330        	moveqz	a2, a3, a3
    41b2:	f01d           	retw.n

000041b4 <Dec_LC3+0x774>:
    41b4:	030c           	movi.n	a3, 0
    41b6:	fffb46        	j	41a7 <Dec_LC3+0x767>

000041b9 <Dec_LC3+0x779>:
    41b9:	000000                                        ...

000041bc <update_dec_bitrate>:
    41bc:	004136        	entry	a1, 32
    41bf:	ecc4f2        	addi	a15, a4, -20
    41c2:	7ca162        	movi	a6, 0x17c
    41c5:	9f7d           	ae_zext16	a7, a15
    41c7:	025d           	mov.n	a5, a2
    41c9:	e20c           	movi.n	a2, 14
    41cb:	02b677        	bgeu	a6, a7, 41d1 <update_dec_bitrate+0x15>
    41ce:	0028c6        	j	4275 <update_dec_bitrate+0xb9>
    41d1:	0c9582        	l16si	a8, a5, 24
    41d4:	a02350        	addx4	a2, a3, a5
    41d7:	1164d0        	slli	a6, a4, 3
    41da:	a08880        	addx4	a8, a8, a8
    41dd:	11b8f0        	slli	a11, a8, 1
    41e0:	0238           	l32i.n	a3, a2, 0
    41e2:	1015a2        	l16ui	a10, a5, 32
    41e5:	862d           	ae_sext16	a2, a6
    41e7:	5bab           	addi.n	a5, a11, 10
    41e9:	c73c           	movi.n	a7, 60
    41eb:	73a092        	movi	a9, 115
    41ee:	d25250        	quos	a5, a2, a5
    41f1:	727470        	salt	a7, a4, a7
    41f4:	435950        	min	a5, a9, a5
    41f7:	60c080        	neg	a12, a8
    41fa:	115372        	s16i	a7, a3, 34
    41fd:	c07c50        	sub	a7, a12, a5
    4200:	11e8c0        	slli	a14, a8, 4
    4203:	92c7f2        	addi	a15, a7, -110
    4206:	bd4c           	movi.n	a13, 75
    4208:	ae5d           	ae_clamps16	a5, a14
    420a:	105362        	s16i	a6, a3, 32
    420d:	135342        	s16i	a4, a3, 38
    4210:	1b53f2        	s16i	a15, a3, 54
    4213:	139ad7        	bne	a10, a13, 422a <update_dec_bitrate+0x6e>
    4216:	aba072        	movi	a7, 171
    4219:	2ad772        	addmi	a7, a7, 0x2a00
    421c:	d12270        	mul16s	a2, a2, a7
    421f:	d62c           	movi.n	a6, 45
    4221:	724460        	salt	a4, a4, a6
    4224:	212d20        	srai	a2, a2, 13
    4227:	115342        	s16i	a4, a3, 34

0000422a <update_dec_bitrate+0x6e>:
    422a:	c02250        	sub	a2, a2, a5
    422d:	c0ae42        	movi	a4, 0xfffffec0
    4230:	424a           	add.n	a4, a2, a4
    4232:	844d           	ae_sext16	a4, a4
    4234:	025496        	bltz	a4, 425d <update_dec_bitrate+0xa1>
    4237:	70ae42        	movi	a4, 0xfffffe70
    423a:	424a           	add.n	a4, a2, a4
    423c:	844d           	ae_sext16	a4, a4
    423e:	022496        	bltz	a4, 4264 <update_dec_bitrate+0xa8>
    4241:	20ae42        	movi	a4, 0xfffffe20
    4244:	424a           	add.n	a4, a2, a4
    4246:	844d           	ae_sext16	a4, a4
    4248:	01d496        	bltz	a4, 4269 <update_dec_bitrate+0xad>
    424b:	d0ad42        	movi	a4, 0xfffffdd0
    424e:	224a           	add.n	a2, a2, a4
    4250:	822d           	ae_sext16	a2, a2
    4252:	018296        	bltz	a2, 426e <update_dec_bitrate+0xb2>
    4255:	f27c           	movi.n	a2, -1
    4257:	f42020        	extui	a2, a2, 0, 16
    425a:	000486        	j	4270 <update_dec_bitrate+0xb4>

0000425d <update_dec_bitrate+0xa1>:
    425d:	020c           	movi.n	a2, 0
    425f:	195322        	s16i	a2, a3, 50
    4262:	f01d           	retw.n

00004264 <update_dec_bitrate+0xa8>:
    4264:	120c           	movi.n	a2, 1
    4266:	000186        	j	4270 <update_dec_bitrate+0xb4>

00004269 <update_dec_bitrate+0xad>:
    4269:	220c           	movi.n	a2, 2
    426b:	000046        	j	4270 <update_dec_bitrate+0xb4>

0000426e <update_dec_bitrate+0xb2>:
    426e:	320c           	movi.n	a2, 3
    4270:	195322        	s16i	a2, a3, 50
    4273:	020c           	movi.n	a2, 0
    4275:	f01d           	retw.n

00004277 <update_dec_bitrate+0xbb>:
	...

00004278 <get_decoder_min_max_bytes_2>:
    4278:	004136        	entry	a1, 32
    427b:	421c           	movi.n	a2, 20
    427d:	90a1f2        	movi	a15, 0x190
    4280:	0329           	s32i.n	a2, a3, 0
    4282:	020c           	movi.n	a2, 0
    4284:	04f9           	s32i.n	a15, a4, 0
    4286:	f01d           	retw.n

00004288 <process_ltpf_decoder_fx>:
    4288:	012136        	entry	a1, 144
    428b:	3321c2        	l32i	a12, a1, 204
    428e:	1061c2        	s32i	a12, a1, 64
    4291:	2721a2        	l32i	a10, a1, 156
    4294:	3021c2        	l32i	a12, a1, 192
    4297:	03dd           	mov.n	a13, a3
    4299:	2e21b2        	l32i	a11, a1, 184
    429c:	2d21e2        	l32i	a14, a1, 180
    429f:	91a9           	s32i.n	a10, a1, 36
    42a1:	2f2182        	l32i	a8, a1, 188
    42a4:	2621a2        	l32i	a10, a1, 152
    42a7:	252132        	l32i	a3, a1, 148
    42aa:	166172        	s32i	a7, a1, 88
    42ad:	047d           	mov.n	a7, a4
    42af:	05fd           	mov.n	a15, a5
    42b1:	1261e2        	s32i	a14, a1, 72
    42b4:	2c2142        	l32i	a4, a1, 176
    42b7:	2b2152        	l32i	a5, a1, 172
    42ba:	2421e2        	l32i	a14, a1, 144
    42bd:	146142        	s32i	a4, a1, 80
    42c0:	136152        	s32i	a5, a1, 76
    42c3:	61e9           	s32i.n	a14, a1, 24
    42c5:	51d9           	s32i.n	a13, a1, 20
    42c7:	b169           	s32i.n	a6, a1, 44
    42c9:	f1b9           	s32i.n	a11, a1, 60
    42cb:	c179           	s32i.n	a7, a1, 48
    42cd:	156122        	s32i	a2, a1, 84
    42d0:	116192        	s32i	a9, a1, 68
    42d3:	211c66        	bnei	a12, 1, 42f8 <process_ltpf_decoder_fx+0x70>
    42d6:	03cd           	mov.n	a12, a3
    42d8:	312132        	l32i	a3, a1, 196
    42db:	020c           	movi.n	a2, 0
    42dd:	060c           	movi.n	a6, 0
    42df:	4a13a6        	blti	a3, 1, 432d <process_ltpf_decoder_fx+0xa5>
    42e2:	322142        	l32i	a4, a1, 200
    42e5:	4b5d           	ae_l16ui.n	a5, a11, 0
    42e7:	0b88d6        	bgez	a8, 43a3 <process_ltpf_decoder_fx+0x11b>
    42ea:	0b3516        	beqz	a5, 43a1 <process_ltpf_decoder_fx+0x119>
    42ed:	102162        	l32i	a6, a1, 64
    42f0:	266d           	ae_l16si.n	a6, a6, 0
    42f2:	b38660        	movgez	a8, a6, a6
    42f5:	002a86        	j	43a3 <process_ltpf_decoder_fx+0x11b>

000042f8 <process_ltpf_decoder_fx+0x70>:
    42f8:	282122        	l32i	a2, a1, 160
    42fb:	2921e2        	l32i	a14, a1, 164
    42fe:	040c           	movi.n	a4, 0
    4300:	060c           	movi.n	a6, 0
    4302:	050c           	movi.n	a5, 0
    4304:	8149           	s32i.n	a4, a1, 32
    4306:	083216        	beqz	a2, 438d <process_ltpf_decoder_fx+0x105>
    4309:	2a2142        	l32i	a4, a1, 168
    430c:	112122        	l32i	a2, a1, 68
    430f:	84ae22        	movi	a2, 0xfffffe84
    4312:	242a           	add.n	a2, a4, a2
    4314:	822d           	ae_sext16	a2, a2
    4316:	01c296        	bltz	a2, 4336 <process_ltpf_decoder_fx+0xae>
    4319:	48ae22        	movi	a2, 0xfffffe48
    431c:	242a           	add.n	a2, a4, a2
    431e:	822d           	ae_sext16	a2, a2
    4320:	02e296        	bltz	a2, 4352 <process_ltpf_decoder_fx+0xca>
    4323:	e5ae22        	movi	a2, 0xfffffee5
    4326:	242a           	add.n	a2, a4, a2
    4328:	040c           	movi.n	a4, 0
    432a:	000dc6        	j	4365 <process_ltpf_decoder_fx+0xdd>

0000432d <process_ltpf_decoder_fx+0xa5>:
    432d:	050c           	movi.n	a5, 0
    432f:	0c3d           	mov.n	a3, a12
    4331:	8129           	s32i.n	a2, a1, 32
    4333:	002506        	j	43cb <process_ltpf_decoder_fx+0x143>

00004336 <process_ltpf_decoder_fx+0xae>:
    4336:	40c422        	addi	a2, a4, 64
    4339:	c57c           	movi.n	a5, -4
    433b:	105250        	and	a5, a2, a5
    433e:	822d           	ae_sext16	a2, a2
    4340:	07cd           	mov.n	a12, a7
    4342:	80a072        	movi	a7, 128
    4345:	c09450        	sub	a9, a4, a5
    4348:	497a           	add.n	a4, a9, a7
    434a:	212220        	srai	a2, a2, 2
    434d:	0c7d           	mov.n	a7, a12
    434f:	000486        	j	4365 <process_ltpf_decoder_fx+0xdd>

00004352 <process_ltpf_decoder_fx+0xca>:
    4352:	82c422        	addi	a2, a4, -126
    4355:	822d           	ae_sext16	a2, a2
    4357:	212120        	srai	a2, a2, 1
    435a:	1152e0        	slli	a5, a2, 2
    435d:	d09450        	subx2	a9, a4, a5
    4360:	04afc2        	movi	a12, -252
    4363:	49ca           	add.n	a4, a9, a12
    4365:	ef7351        	l32r	a5, 134 (b9d8 <pitch_scale>)
    4368:	a02240        	addx4	a2, a2, a4
    436b:	1122e0        	slli	a2, a2, 2
    436e:	0558           	l32i.n	a5, a5, 0
    4370:	822d           	ae_sext16	a2, a2
    4372:	904f50        	addx2	a4, a15, a5
    4375:	244d           	ae_l16si.n	a4, a4, 0
    4377:	d12420        	mul16s	a2, a4, a2
    437a:	40d222        	addmi	a2, a2, 0x4000
    437d:	212f20        	srai	a2, a2, 15
    4380:	a22d           	ae_clamps16	a2, a2
    4382:	119200        	slli	a9, a2, 16
    4385:	31c290        	srai	a12, a9, 18
    4388:	145020        	extui	a5, a2, 0, 2
    438b:	81c9           	s32i.n	a12, a1, 32
    438d:	a3e680        	movltz	a14, a6, a8
    4390:	7ebc           	beqz.n	a14, 43cb <process_ltpf_decoder_fx+0x143>
    4392:	ef6721        	l32r	a2, 130 (b9d4 <gain_scale_fac>)
    4395:	040c           	movi.n	a4, 0
    4397:	0228           	l32i.n	a2, a2, 0
    4399:	902820        	addx2	a2, a8, a2
    439c:	426d           	ae_l16ui.n	a6, a2, 0
    439e:	000c86        	j	43d4 <process_ltpf_decoder_fx+0x14c>

000043a1 <process_ltpf_decoder_fx+0x119>:
    43a1:	050c           	movi.n	a5, 0
    43a3:	132122        	l32i	a2, a1, 76
    43a6:	122162        	l32i	a6, a1, 72
    43a9:	142192        	l32i	a9, a1, 80
    43ac:	422d           	ae_l16ui.n	a2, a2, 0
    43ae:	8129           	s32i.n	a2, a1, 32
    43b0:	262d           	ae_l16si.n	a2, a6, 0
    43b2:	fec3e2        	addi	a14, a3, -2
    43b5:	93e5e0        	movnez	a14, a5, a14
    43b8:	d12240        	mul16s	a2, a2, a4
    43bb:	495d           	ae_l16ui.n	a5, a9, 0
    43bd:	40d222        	addmi	a2, a2, 0x4000
    43c0:	212f20        	srai	a2, a2, 15
    43c3:	040c           	movi.n	a4, 0
    43c5:	a26d           	ae_clamps16	a6, a2
    43c7:	0c3d           	mov.n	a3, a12
    43c9:	7ecc           	bnez.n	a14, 43d4 <process_ltpf_decoder_fx+0x14c>
    43cb:	4b2d           	ae_l16ui.n	a2, a11, 0
    43cd:	0e0c           	movi.n	a14, 0
    43cf:	140c           	movi.n	a4, 1
    43d1:	137216        	beqz	a2, 450c <process_ltpf_decoder_fx+0x284>
    43d4:	ef5921        	l32r	a2, 138 (b9dc <ltpf_overlap_len>)
    43d7:	1b6142        	s32i	a4, a1, 108
    43da:	904730        	addx2	a4, a7, a3
    43dd:	0228           	l32i.n	a2, a2, 0
    43df:	61b8           	l32i.n	a11, a1, 24
    43e1:	1861a2        	s32i	a10, a1, 96
    43e4:	902f20        	addx2	a2, a15, a2
    43e7:	222d           	ae_l16si.n	a2, a2, 0
    43e9:	d129           	s32i.n	a2, a1, 52
    43eb:	efa321        	l32r	a2, 278 (c14 <basop_memmove>)
    43ee:	11cdf0        	slli	a12, a13, 1
    43f1:	04ad           	mov.n	a10, a4
    43f3:	a159           	s32i.n	a5, a1, 40
    43f5:	075d           	mov.n	a5, a7
    43f7:	41e9           	s32i.n	a14, a1, 16
    43f9:	196162        	s32i	a6, a1, 100
    43fc:	7189           	s32i.n	a8, a1, 28
    43fe:	e1f9           	s32i.n	a15, a1, 56
    4400:	0d7d           	mov.n	a7, a13
    4402:	1761c2        	s32i	a12, a1, 92
    4405:	0002e0        	callx8	a2
    4408:	ef8d21        	l32r	a2, 23c (f0c <getScaleFactor16_0>)
    440b:	03ad           	mov.n	a10, a3
    440d:	05bd           	mov.n	a11, a5
    440f:	0002e0        	callx8	a2
    4412:	0a5d           	mov.n	a5, a10
    4414:	91a8           	l32i.n	a10, a1, 36
    4416:	b1b8           	l32i.n	a11, a1, 44
    4418:	0002e0        	callx8	a2
    441b:	162162        	l32i	a6, a1, 88
    441e:	4355a0        	min	a5, a5, a10
    4421:	550b           	addi.n	a5, a5, -1
    4423:	262d           	ae_l16si.n	a2, a6, 0
    4425:	04ad           	mov.n	a10, a4
    4427:	07bd           	mov.n	a11, a7
    4429:	c02250        	sub	a2, a2, a5
    442c:	662d           	ae_s16i.n	a2, a6, 0
    442e:	efb521        	l32r	a2, 304 (ef8 <getScaleFactor16>)
    4431:	0002e0        	callx8	a2
    4434:	1521d2        	l32i	a13, a1, 84
    4437:	9a0b           	addi.n	a9, a10, -1
    4439:	6149           	s32i.n	a4, a1, 24
    443b:	2d2d           	ae_l16si.n	a2, a13, 0
    443d:	1a6132        	s32i	a3, a1, 104
    4440:	51b8           	l32i.n	a11, a1, 20
    4442:	c02290        	sub	a2, a2, a9
    4445:	6d2d           	ae_s16i.n	a2, a13, 0
    4447:	267d           	ae_l16si.n	a7, a6, 0
    4449:	04ad           	mov.n	a10, a4
    444b:	89cd           	ae_sext16	a12, a9
    444d:	c02720        	sub	a2, a7, a2
    4450:	ef7d71        	l32r	a7, 244 (1218 <Scale_sig>)
    4453:	822d           	ae_sext16	a2, a2
    4455:	1212a6        	blti	a2, 1, 446b <process_ltpf_decoder_fx+0x1e3>
    4458:	c02920        	sub	a2, a9, a2
    445b:	51b8           	l32i.n	a11, a1, 20
    445d:	82cd           	ae_sext16	a12, a2
    445f:	04ad           	mov.n	a10, a4
    4461:	0d3d           	mov.n	a3, a13
    4463:	0007e0        	callx8	a7
    4466:	062d           	mov.n	a2, a6
    4468:	000286        	j	4476 <process_ltpf_decoder_fx+0x1ee>

0000446b <process_ltpf_decoder_fx+0x1e3>:
    446b:	0d4d           	mov.n	a4, a13
    446d:	0007e0        	callx8	a7
    4470:	525a           	add.n	a5, a2, a5
    4472:	042d           	mov.n	a2, a4
    4474:	063d           	mov.n	a3, a6
    4476:	855d           	ae_sext16	a5, a5
    4478:	1a21a2        	l32i	a10, a1, 104
    447b:	c1b8           	l32i.n	a11, a1, 48
    447d:	9148           	l32i.n	a4, a1, 36
    447f:	192162        	l32i	a6, a1, 100
    4482:	05cd           	mov.n	a12, a5
    4484:	0007e0        	callx8	a7
    4487:	b1b8           	l32i.n	a11, a1, 44
    4489:	04ad           	mov.n	a10, a4
    448b:	05cd           	mov.n	a12, a5
    448d:	0007e0        	callx8	a7
    4490:	f178           	l32i.n	a7, a1, 60
    4492:	222d           	ae_l16si.n	a2, a2, 0
    4494:	632d           	ae_s16i.n	a2, a3, 0
    4496:	475d           	ae_l16ui.n	a5, a7, 0
    4498:	102122        	l32i	a2, a1, 64
    449b:	0a1566        	bnei	a5, 1, 44a9 <process_ltpf_decoder_fx+0x221>
    449e:	150c           	movi.n	a5, 1
    44a0:	222d           	ae_l16si.n	a2, a2, 0
    44a2:	0032d6        	bgez	a2, 44a9 <process_ltpf_decoder_fx+0x221>
    44a5:	050c           	movi.n	a5, 0
    44a7:	675d           	ae_s16i.n	a5, a7, 0
    44a9:	b128           	l32i.n	a2, a1, 44
    44ab:	1b21f2        	l32i	a15, a1, 108
    44ae:	1a2132        	l32i	a3, a1, 104
    44b1:	1121c2        	l32i	a12, a1, 68
    44b4:	61b8           	l32i.n	a11, a1, 24
    44b6:	902240        	addx2	a2, a2, a4
    44b9:	bfac           	beqz.n	a15, 44e8 <process_ltpf_decoder_fx+0x260>
    44bb:	132152        	l32i	a5, a1, 76
    44be:	142192        	l32i	a9, a1, 80
    44c1:	1221a2        	l32i	a10, a1, 72
    44c4:	1021c2        	l32i	a12, a1, 64
    44c7:	f77c           	movi.n	a7, -1
    44c9:	e148           	l32i.n	a4, a1, 56
    44cb:	25dd           	ae_l16si.n	a13, a5, 0
    44cd:	2afd           	ae_l16si.n	a15, a10, 0
    44cf:	29ed           	ae_l16si.n	a14, a9, 0
    44d1:	2c5d           	ae_l16si.n	a5, a12, 0
    44d3:	2179           	s32i.n	a7, a1, 8
    44d5:	1149           	s32i.n	a4, a1, 4
    44d7:	d148           	l32i.n	a4, a1, 52
    44d9:	ef8b81        	l32r	a8, 308 (4788 <ltpf_synth_filter>)
    44dc:	02ad           	mov.n	a10, a2
    44de:	04cd           	mov.n	a12, a4
    44e0:	0159           	s32i.n	a5, a1, 0
    44e2:	0008e0        	callx8	a8
    44e5:	004846        	j	460a <process_ltpf_decoder_fx+0x382>

000044e8 <process_ltpf_decoder_fx+0x260>:
    44e8:	a1a8           	l32i.n	a10, a1, 40
    44ea:	082516        	beqz	a5, 4570 <process_ltpf_decoder_fx+0x2e8>
    44ed:	132152        	l32i	a5, a1, 76
    44f0:	142182        	l32i	a8, a1, 80
    44f3:	8148           	l32i.n	a4, a1, 32
    44f5:	457d           	ae_l16ui.n	a7, a5, 0
    44f7:	489d           	ae_l16ui.n	a9, a8, 0
    44f9:	94fd           	ae_zext16	a15, a4
    44fb:	021f77        	beq	a15, a7, 4501 <process_ltpf_decoder_fx+0x279>
    44fe:	002446        	j	4593 <process_ltpf_decoder_fx+0x30b>
    4501:	0219a7        	beq	a9, a10, 4507 <process_ltpf_decoder_fx+0x27f>
    4504:	0022c6        	j	4593 <process_ltpf_decoder_fx+0x30b>
    4507:	050c           	movi.n	a5, 0
    4509:	001946        	j	4572 <process_ltpf_decoder_fx+0x2ea>

0000450c <process_ltpf_decoder_fx+0x284>:
    450c:	ef5b41        	l32r	a4, 278 (c14 <basop_memmove>)
    450f:	61b8           	l32i.n	a11, a1, 24
    4511:	11cdf0        	slli	a12, a13, 1
    4514:	a159           	s32i.n	a5, a1, 40
    4516:	7189           	s32i.n	a8, a1, 28
    4518:	0d5d           	mov.n	a5, a13
    451a:	41c9           	s32i.n	a12, a1, 16
    451c:	0004e0        	callx8	a4
    451f:	162122        	l32i	a2, a1, 88
    4522:	152192        	l32i	a9, a1, 84
    4525:	087c           	movi.n	a8, -16
    4527:	222d           	ae_l16si.n	a2, a2, 0
    4529:	296d           	ae_l16si.n	a6, a9, 0
    452b:	41c8           	l32i.n	a12, a1, 16
    452d:	91f8           	l32i.n	a15, a1, 36
    452f:	c02260        	sub	a2, a2, a6
    4532:	827d           	ae_sext16	a7, a2
    4534:	0217e6        	bgei	a7, 1, 453a <process_ltpf_decoder_fx+0x2b2>
    4537:	0059c6        	j	46a2 <process_ltpf_decoder_fx+0x41a>
    453a:	b128           	l32i.n	a2, a1, 44
    453c:	9168           	l32i.n	a6, a1, 36
    453e:	c02250        	sub	a2, a2, a5
    4541:	90b560        	addx2	a11, a5, a6
    4544:	11c2f0        	slli	a12, a2, 1
    4547:	06ad           	mov.n	a10, a6
    4549:	0004e0        	callx8	a4
    454c:	02b7e6        	bgei	a7, 16, 4552 <process_ltpf_decoder_fx+0x2ca>
    454f:	005c06        	j	46c3 <process_ltpf_decoder_fx+0x43b>
    4552:	90a260        	addx2	a10, a2, a6
    4555:	ef4321        	l32r	a2, 264 (bf8 <basop_memset>)
    4558:	41c8           	l32i.n	a12, a1, 16
    455a:	0b0c           	movi.n	a11, 0
    455c:	060c           	movi.n	a6, 0
    455e:	0002e0        	callx8	a2
    4561:	c148           	l32i.n	a4, a1, 48
    4563:	0b0c           	movi.n	a11, 0
    4565:	03ad           	mov.n	a10, a3
    4567:	11c4f0        	slli	a12, a4, 1
    456a:	0002e0        	callx8	a2
    456d:	008246        	j	477a <process_ltpf_decoder_fx+0x4f2>

00004570 <process_ltpf_decoder_fx+0x2e8>:
    4570:	150c           	movi.n	a5, 1
    4572:	8148           	l32i.n	a4, a1, 32
    4574:	ef6571        	l32r	a7, 308 (4788 <ltpf_synth_filter>)
    4577:	8aed           	ae_sext16	a14, a10
    4579:	84dd           	ae_sext16	a13, a4
    457b:	d148           	l32i.n	a4, a1, 52
    457d:	86fd           	ae_sext16	a15, a6
    457f:	e188           	l32i.n	a8, a1, 56
    4581:	02ad           	mov.n	a10, a2
    4583:	04cd           	mov.n	a12, a4
    4585:	7198           	l32i.n	a9, a1, 28
    4587:	2159           	s32i.n	a5, a1, 8
    4589:	1189           	s32i.n	a8, a1, 4
    458b:	0199           	s32i.n	a9, a1, 0
    458d:	0007e0        	callx8	a7
    4590:	001d86        	j	460a <process_ltpf_decoder_fx+0x382>

00004593 <process_ltpf_decoder_fx+0x30b>:
    4593:	1021a2        	l32i	a10, a1, 64
    4596:	122182        	l32i	a8, a1, 72
    4599:	87dd           	ae_sext16	a13, a7
    459b:	d178           	l32i.n	a7, a1, 52
    459d:	2a5d           	ae_l16si.n	a5, a10, 0
    459f:	116152        	s32i	a5, a1, 68
    45a2:	28fd           	ae_l16si.n	a15, a8, 0
    45a4:	fc7c           	movi.n	a12, -1
    45a6:	89ed           	ae_sext16	a14, a9
    45a8:	ef5891        	l32r	a9, 308 (4788 <ltpf_synth_filter>)
    45ab:	21c9           	s32i.n	a12, a1, 8
    45ad:	e158           	l32i.n	a5, a1, 56
    45af:	342142        	l32i	a4, a1, 208
    45b2:	02ad           	mov.n	a10, a2
    45b4:	07cd           	mov.n	a12, a7
    45b6:	112182        	l32i	a8, a1, 68
    45b9:	1159           	s32i.n	a5, a1, 4
    45bb:	0189           	s32i.n	a8, a1, 0
    45bd:	0009e0        	callx8	a9
    45c0:	eedb81        	l32r	a8, 12c (b9d0 <tilt_filter_len>)
    45c3:	04ad           	mov.n	a10, a4
    45c5:	0888           	l32i.n	a8, a8, 0
    45c7:	908580        	addx2	a8, a5, a8
    45ca:	288d           	ae_l16si.n	a8, a8, 0
    45cc:	1198f0        	slli	a9, a8, 1
    45cf:	887a           	add.n	a8, a8, a7
    45d1:	11c8f0        	slli	a12, a8, 1
    45d4:	ef2981        	l32r	a8, 278 (c14 <basop_memmove>)
    45d7:	c0b290        	sub	a11, a2, a9
    45da:	0008e0        	callx8	a8
    45dd:	eed371        	l32r	a7, 12c (b9d0 <tilt_filter_len>)
    45e0:	81f8           	l32i.n	a15, a1, 32
    45e2:	a188           	l32i.n	a8, a1, 40
    45e4:	0778           	l32i.n	a7, a7, 0
    45e6:	1c0c           	movi.n	a12, 1
    45e8:	8fdd           	ae_sext16	a13, a15
    45ea:	907570        	addx2	a7, a5, a7
    45ed:	277d           	ae_l16si.n	a7, a7, 0
    45ef:	21c9           	s32i.n	a12, a1, 8
    45f1:	1159           	s32i.n	a5, a1, 4
    45f3:	90b740        	addx2	a11, a7, a4
    45f6:	d148           	l32i.n	a4, a1, 52
    45f8:	ef4451        	l32r	a5, 308 (4788 <ltpf_synth_filter>)
    45fb:	7198           	l32i.n	a9, a1, 28
    45fd:	88ed           	ae_sext16	a14, a8
    45ff:	86fd           	ae_sext16	a15, a6
    4601:	02ad           	mov.n	a10, a2
    4603:	04cd           	mov.n	a12, a4
    4605:	0199           	s32i.n	a9, a1, 0
    4607:	0005e0        	callx8	a5
    460a:	4178           	l32i.n	a7, a1, 16
    460c:	51f8           	l32i.n	a15, a1, 20
    460e:	049d           	mov.n	a9, a4
    4610:	877d           	ae_sext16	a7, a7
    4612:	c05f40        	sub	a5, a15, a4
    4615:	90a420        	addx2	a10, a4, a2
    4618:	2d17a6        	blti	a7, 1, 4649 <process_ltpf_decoder_fx+0x3c1>
    461b:	6148           	l32i.n	a4, a1, 24
    461d:	81f8           	l32i.n	a15, a1, 32
    461f:	a178           	l32i.n	a7, a1, 40
    4621:	90b940        	addx2	a11, a9, a4
    4624:	090c           	movi.n	a9, 0
    4626:	ef3841        	l32r	a4, 308 (4788 <ltpf_synth_filter>)
    4629:	8fdd           	ae_sext16	a13, a15
    462b:	2199           	s32i.n	a9, a1, 8
    462d:	e188           	l32i.n	a8, a1, 56
    462f:	85cd           	ae_sext16	a12, a5
    4631:	87ed           	ae_sext16	a14, a7
    4633:	86fd           	ae_sext16	a15, a6
    4635:	7198           	l32i.n	a9, a1, 28
    4637:	1189           	s32i.n	a8, a1, 4
    4639:	0199           	s32i.n	a9, a1, 0
    463b:	0004e0        	callx8	a4
    463e:	c148           	l32i.n	a4, a1, 48
    4640:	1821a2        	l32i	a10, a1, 96
    4643:	ef0d51        	l32r	a5, 278 (c14 <basop_memmove>)
    4646:	000506        	j	465e <process_ltpf_decoder_fx+0x3d6>

00004649 <process_ltpf_decoder_fx+0x3c1>:
    4649:	6148           	l32i.n	a4, a1, 24
    464b:	85fd           	ae_sext16	a15, a5
    464d:	ef0a51        	l32r	a5, 278 (c14 <basop_memmove>)
    4650:	90b940        	addx2	a11, a9, a4
    4653:	11cff0        	slli	a12, a15, 1
    4656:	0005e0        	callx8	a5
    4659:	c148           	l32i.n	a4, a1, 48
    465b:	1821a2        	l32i	a10, a1, 96
    465e:	1721c2        	l32i	a12, a1, 92
    4661:	02bd           	mov.n	a11, a2
    4663:	0005e0        	callx8	a5
    4666:	5128           	l32i.n	a2, a1, 20
    4668:	11c4f0        	slli	a12, a4, 1
    466b:	03ad           	mov.n	a10, a3
    466d:	90b230        	addx2	a11, a2, a3
    4670:	0005e0        	callx8	a5
    4673:	91a8           	l32i.n	a10, a1, 36
    4675:	b1f8           	l32i.n	a15, a1, 44
    4677:	90b2a0        	addx2	a11, a2, a10
    467a:	11cff0        	slli	a12, a15, 1
    467d:	0005e0        	callx8	a5
    4680:	7158           	l32i.n	a5, a1, 28
    4682:	f188           	l32i.n	a8, a1, 60
    4684:	a1a8           	l32i.n	a10, a1, 40
    4686:	41b8           	l32i.n	a11, a1, 16
    4688:	132122        	l32i	a2, a1, 76
    468b:	1421d2        	l32i	a13, a1, 80
    468e:	1221e2        	l32i	a14, a1, 72
    4691:	1021f2        	l32i	a15, a1, 64
    4694:	8138           	l32i.n	a3, a1, 32
    4696:	623d           	ae_s16i.n	a3, a2, 0
    4698:	6dad           	ae_s16i.n	a10, a13, 0
    469a:	6e6d           	ae_s16i.n	a6, a14, 0
    469c:	68bd           	ae_s16i.n	a11, a8, 0
    469e:	6f5d           	ae_s16i.n	a5, a15, 0
    46a0:	f01d           	retw.n

000046a2 <process_ltpf_decoder_fx+0x41a>:
    46a2:	712877        	blt	a8, a7, 4717 <process_ltpf_decoder_fx+0x48f>
    46a5:	5128           	l32i.n	a2, a1, 20
    46a7:	b158           	l32i.n	a5, a1, 44
    46a9:	91a8           	l32i.n	a10, a1, 36
    46ab:	0b0c           	movi.n	a11, 0
    46ad:	c06520        	sub	a6, a5, a2
    46b0:	eeed21        	l32r	a2, 264 (bf8 <basop_memset>)
    46b3:	11c6f0        	slli	a12, a6, 1
    46b6:	0002e0        	callx8	a2
    46b9:	c178           	l32i.n	a7, a1, 48
    46bb:	eeef41        	l32r	a4, 278 (c14 <basop_memmove>)
    46be:	41c8           	l32i.n	a12, a1, 16
    46c0:	002386        	j	4752 <process_ltpf_decoder_fx+0x4ca>

000046c3 <process_ltpf_decoder_fx+0x43b>:
    46c3:	059d           	mov.n	a9, a5
    46c5:	031674        	wur.ae_sar	a7
    46c8:	1e15a6        	blti	a5, 1, 46ea <process_ltpf_decoder_fx+0x462>
    46cb:	9158           	l32i.n	a5, a1, 36
    46cd:	b168           	l32i.n	a6, a1, 44
    46cf:	4148           	l32i.n	a4, a1, 16
    46d1:	6128           	l32i.n	a2, a1, 24
    46d3:	905650        	addx2	a5, a6, a5
    46d6:	c04540        	sub	a4, a5, a4
    46d9:	408204        	ae_lp16f.iu	aep0, a2, 0
    46dc:	fec442        	addi	a4, a4, -2
    46df:	078976        	loop	a9, 46ea <process_ltpf_decoder_fx+0x462>
    46e2:	f8a3ec821f 	{ ae_lp16f.iu	aep0, a2, 2; ae_srasp24	aep1, aep0 }
    46e7:	429414        	ae_sp16f.l.iu	aep1, a4, 2

000046ea <process_ltpf_decoder_fx+0x462>:
    46ea:	c148           	l32i.n	a4, a1, 48
    46ec:	7158           	l32i.n	a5, a1, 28
    46ee:	f188           	l32i.n	a8, a1, 60
    46f0:	a1a8           	l32i.n	a10, a1, 40
    46f2:	060c           	movi.n	a6, 0
    46f4:	0b0c           	movi.n	a11, 0
    46f6:	8e14a6        	blti	a4, 1, 4688 <process_ltpf_decoder_fx+0x400>
    46f9:	61f8           	l32i.n	a15, a1, 24
    46fb:	c02940        	sub	a2, a9, a4
    46fe:	400700        	ssr	a7
    4701:	9022f0        	addx2	a2, a2, a15
    4704:	0b0c           	movi.n	a11, 0
    4706:	0a8476        	loop	a4, 4714 <process_ltpf_decoder_fx+0x48c>
    4709:	224d           	ae_l16si.n	a4, a2, 0
    470b:	222b           	addi.n	a2, a2, 2
    470d:	b14040        	sra	a4, a4
    4710:	634d           	ae_s16i.n	a4, a3, 0
    4712:	332b           	addi.n	a3, a3, 2

00004714 <process_ltpf_decoder_fx+0x48c>:
    4714:	ffdc06        	j	4688 <process_ltpf_decoder_fx+0x400>

00004717 <process_ltpf_decoder_fx+0x48f>:
    4717:	5128           	l32i.n	a2, a1, 20
    4719:	b158           	l32i.n	a5, a1, 44
    471b:	41e2c0        	srli	a14, a12, 2
    471e:	607070        	neg	a7, a7
    4721:	c06520        	sub	a6, a5, a2
    4724:	a02ef0        	addx4	a2, a14, a15
    4727:	fccf82        	addi	a8, a15, -4
    472a:	448204        	ae_lp16x2f.iu	aep0, a2, 0
    472d:	031674        	wur.ae_sar	a7
    4730:	0d26a6        	blti	a6, 2, 4741 <process_ltpf_decoder_fx+0x4b9>
    4733:	217160        	srai	a7, a6, 1
    4736:	078776        	loop	a7, 4741 <process_ltpf_decoder_fx+0x4b9>
    4739:	f8a3ed821f 	{ ae_lp16x2f.iu	aep0, a2, 4; ae_srasp24	aep1, aep0 }
    473e:	469814        	ae_sp16x2f.iu	aep1, a8, 4

00004741 <process_ltpf_decoder_fx+0x4b9>:
    4741:	f8a3b0c17e 	{ l32i	a7, a1, 48; ae_srasp24	aep0, aep0 }
    4746:	eecc41        	l32r	a4, 278 (c14 <basop_memmove>)
    4749:	056607        	bbci	a6, 0, 4752 <process_ltpf_decoder_fx+0x4ca>
    474c:	1a8084        	ae_selp24.lh	aep0, aep0, aep0
    474f:	420824        	ae_sp16f.l.i	aep0, a8, 4

00004752 <process_ltpf_decoder_fx+0x4ca>:
    4752:	9128           	l32i.n	a2, a1, 36
    4754:	6158           	l32i.n	a5, a1, 24
    4756:	90a620        	addx2	a10, a6, a2
    4759:	05bd           	mov.n	a11, a5
    475b:	0004e0        	callx8	a4
    475e:	5128           	l32i.n	a2, a1, 20
    4760:	11c7f0        	slli	a12, a7, 1
    4763:	03ad           	mov.n	a10, a3
    4765:	c02270        	sub	a2, a2, a7
    4768:	90b250        	addx2	a11, a2, a5
    476b:	0004e0        	callx8	a4
    476e:	152122        	l32i	a2, a1, 84
    4771:	162132        	l32i	a3, a1, 88
    4774:	060c           	movi.n	a6, 0
    4776:	222d           	ae_l16si.n	a2, a2, 0
    4778:	632d           	ae_s16i.n	a2, a3, 0
    477a:	7158           	l32i.n	a5, a1, 28
    477c:	f188           	l32i.n	a8, a1, 60
    477e:	a1a8           	l32i.n	a10, a1, 40
    4780:	0b0c           	movi.n	a11, 0
    4782:	ffc086        	j	4688 <process_ltpf_decoder_fx+0x400>

00004785 <process_ltpf_decoder_fx+0x4fd>:
    4785:	000000                                        ...

00004788 <ltpf_synth_filter>:
    4788:	00c136        	entry	a1, 96
    478b:	ee6381        	l32r	a8, 118 (b9bc <inter_filter_shift>)
    478e:	1921f2        	l32i	a15, a1, 100
    4791:	0e0c           	movi.n	a14, 0
    4793:	08b8           	l32i.n	a11, a8, 0
    4795:	1a2182        	l32i	a8, a1, 104
    4798:	21f9           	s32i.n	a15, a1, 8
    479a:	90bfb0        	addx2	a11, a15, a11
    479d:	2b9d           	ae_l16si.n	a9, a11, 0
    479f:	9129           	s32i.n	a2, a1, 36
    47a1:	05c816        	beqz	a8, 4801 <ltpf_synth_filter+0x79>
    47a4:	ecc4b2        	addi	a11, a4, -20
    47a7:	d1b9           	s32i.n	a11, a1, 52
    47a9:	8179           	s32i.n	a7, a1, 32
    47ab:	d178           	l32i.n	a7, a1, 52
    47ad:	d8c4c2        	addi	a12, a4, -40
    47b0:	b1c9           	s32i.n	a12, a1, 44
    47b2:	66a6f2        	movi	a15, 0x666
    47b5:	0e0c           	movi.n	a14, 0
    47b7:	93fe70        	movnez	a15, a14, a7
    47ba:	b1e8           	l32i.n	a14, a1, 44
    47bc:	c4c4d2        	addi	a13, a4, -60
    47bf:	7169           	s32i.n	a6, a1, 28
    47c1:	33a362        	movi	a6, 0x333
    47c4:	a1d9           	s32i.n	a13, a1, 40
    47c6:	936fe0        	movnez	a6, a15, a14
    47c9:	a1e8           	l32i.n	a14, a1, 40
    47cb:	22a2c2        	movi	a12, 0x222
    47ce:	312f80        	srai	a2, a8, 31
    47d1:	e129           	s32i.n	a2, a1, 56
    47d3:	c199           	s32i.n	a9, a1, 48
    47d5:	93c6e0        	movnez	a12, a6, a14
    47d8:	b0c4b2        	addi	a11, a4, -80
    47db:	99a192        	movi	a9, 0x199
    47de:	88c4d2        	addi	a13, a4, -120
    47e1:	11a122        	movi	a2, 0x111
    47e4:	939cb0        	movnez	a9, a12, a11
    47e7:	e1f8           	l32i.n	a15, a1, 56
    47e9:	9329d0        	movnez	a2, a9, a13
    47ec:	8178           	l32i.n	a7, a1, 32
    47ee:	7168           	l32i.n	a6, a1, 28
    47f0:	c198           	l32i.n	a9, a1, 48
    47f2:	60e020        	neg	a14, a2
    47f5:	e4b0f0        	extui	a11, a15, 0, 15
    47f8:	b3e280        	movgez	a14, a2, a8
    47fb:	0a24e6        	bgei	a4, 2, 4809 <ltpf_synth_filter+0x81>
    47fe:	005a86        	j	496c <ltpf_synth_filter+0x1e4>

00004801 <ltpf_synth_filter+0x79>:
    4801:	0b0c           	movi.n	a11, 0
    4803:	0224e6        	bgei	a4, 2, 4809 <ltpf_synth_filter+0x81>
    4806:	005886        	j	496c <ltpf_synth_filter+0x1e4>
    4809:	21c8           	l32i.n	a12, a1, 8
    480b:	91a8           	l32i.n	a10, a1, 36
    480d:	3007e4        	ae_cvtp24a16x2.ll	aep0, a7, a14
    4810:	c09950        	sub	a9, a9, a5
    4813:	182122        	l32i	a2, a1, 96
    4816:	90d660        	addx2	a13, a6, a6
    4819:	216140        	srai	a6, a4, 1
    481c:	90ecc0        	addx2	a14, a12, a12
    481f:	ee42f1        	l32r	a15, 128 (b9cc <tilt_filter_ODD>)
    4822:	7129           	s32i.n	a2, a1, 28
    4824:	9029a0        	addx2	a2, a9, a10
    4827:	f169           	s32i.n	a6, a1, 60
    4829:	301bb4        	ae_cvtp24a16x2.ll	aep1, a11, a11
    482c:	ee3ab1        	l32r	a11, 114 (b9b8 <inter_filter>)
    482f:	feca62        	addi	a6, a10, -2
    4832:	11aeb0        	slli	a10, a14, 5
    4835:	ee3be1        	l32r	a14, 124 (b9c8 <tilt_filter_EVEN>)
    4838:	0bb8           	l32i.n	a11, a11, 0
    483a:	0ff8           	l32i.n	a15, a15, 0
    483c:	0e98           	l32i.n	a9, a14, 0
    483e:	ee3871        	l32r	a7, 120 (b9c4 <tilt_filter_len_EO>)
    4841:	bbaa           	add.n	a11, a11, a10
    4843:	e9aa           	add.n	a14, a9, a10
    4845:	ffaa           	add.n	a15, a15, a10
    4847:	ee35a1        	l32r	a10, 11c (b9c0 <inter_filter_len>)
    484a:	0778           	l32i.n	a7, a7, 0
    484c:	7198           	l32i.n	a9, a1, 28
    484e:	0aa8           	l32i.n	a10, a10, 0
    4850:	907c70        	addx2	a7, a12, a7
    4853:	904990        	addx2	a4, a9, a9
    4856:	90aca0        	addx2	a10, a12, a10
    4859:	277d           	ae_l16si.n	a7, a7, 0
    485b:	2a9d           	ae_l16si.n	a9, a10, 0
    485d:	1144d0        	slli	a4, a4, 3
    4860:	b0adb0        	addx8	a10, a13, a11
    4863:	bf4a           	add.n	a11, a15, a4
    4865:	ce4a           	add.n	a12, a14, a4
    4867:	214190        	srai	a4, a9, 1
    486a:	11e7e0        	slli	a14, a7, 2
    486d:	4f0c           	movi.n	a15, 4
    486f:	035d           	mov.n	a5, a3
    4871:	9179           	s32i.n	a7, a1, 36
    4873:	a077f0        	addx4	a7, a7, a15
    4876:	60f0e0        	neg	a15, a14
    4879:	11e4e0        	slli	a14, a4, 2
    487c:	2d0c           	movi.n	a13, 2
    487e:	8149           	s32i.n	a4, a1, 32
    4880:	a044d0        	addx4	a4, a4, a13
    4883:	560124        	ae_sp24x2s.i	aep0, a1, 16
    4886:	40b304        	ae_lp16f.iu	aep3, a3, 0
    4889:	44a504        	ae_lp16x2f.iu	aep2, a5, 0
    488c:	40e204        	ae_lp16f.iu	aep6, a2, 0
    488f:	fc24adfa0f 	{ ae_lp16x2f.iu	aep7, a10, 0; ae_zeroq56	aeq0 }
    4894:	fd046dcc0f 	{ ae_lp16x2f.iu	aep4, a12, 0; ae_movq56	aeq1, aeq0 }
    4899:	44db04        	ae_lp16x2f.iu	aep5, a11, 0
    489c:	7179           	s32i.n	a7, a1, 28
    489e:	60e0e0        	neg	a14, a14
    48a1:	0d0c           	movi.n	a13, 0
    48a3:	000bc6        	j	48d6 <ltpf_synth_filter+0x14e>

000048a6 <ltpf_synth_filter+0x11e>:
	...

000048a7 <ltpf_synth_filter+0x11f>:
    48a7:	561114        	ae_sp24x2s.i	aep1, a1, 8
    48aa:	541124        	ae_lp24x2.i	aep1, a1, 16
    48ad:	ea0630111f 	{ ae_lp24x2.i	aep1, a1, 8; ae_mulfs32p16s.hl	aeq0, aep1, aep0 }
    48b2:	1b8f04        	ae_roundsp16q48asym	aep0, aeq0
    48b5:	07b004        	ae_addsp24s	aep0, aep3, aep0
    48b8:	428614        	ae_sp16f.l.iu	aep0, a6, 2
    48bb:	40b314        	ae_lp16f.iu	aep3, a3, 2
    48be:	488c           	beqz.n	a8, 48c6 <ltpf_synth_filter+0x13e>
    48c0:	540124        	ae_lp24x2.i	aep0, a1, 16
    48c3:	079014        	ae_addsp24s	aep1, aep1, aep0
    48c6:	fc24b0f17e 	{ l32i	a7, a1, 60; ae_zeroq56	aeq0 }
    48cb:	fd04401dde 	{ addi	a13, a13, 1; ae_movq56	aeq1, aeq0 }
    48d0:	022d77        	blt	a13, a7, 48d6 <ltpf_synth_filter+0x14e>
    48d3:	002546        	j	496c <ltpf_synth_filter+0x1e4>
    48d6:	9178           	l32i.n	a7, a1, 36
    48d8:	1117a6        	blti	a7, 1, 48ed <ltpf_synth_filter+0x165>
    48db:	9178           	l32i.n	a7, a1, 36
    48dd:	0c8776        	loop	a7, 48ed <ltpf_synth_filter+0x165>
    48e0:	f28a6dcc1f 	{ ae_lp16x2f.iu	aep4, a12, 4; ae_mulssfp24s.hl.lh	aeq1, aep2, aep4 }
    48e5:	f2aa2da5ff 	{ ae_lp16x2f.iu	aep2, a5, -4; ae_mulssfp24s.hl.lh	aeq0, aep2, aep5 }
    48ea:	44db14        	ae_lp16x2f.iu	aep5, a11, 4

000048ed <ltpf_synth_filter+0x165>:
    48ed:	7178           	l32i.n	a7, a1, 28
    48ef:	563114        	ae_sp24x2s.i	aep3, a1, 8
    48f2:	45ccf4        	ae_lp16x2f.xu	aep4, a12, a15
    48f5:	45a574        	ae_lp16x2f.xu	aep2, a5, a7
    48f8:	45dbf4        	ae_lp16x2f.xu	aep5, a11, a15
    48fb:	1129a6        	blti	a9, 2, 4910 <ltpf_synth_filter+0x188>
    48fe:	8178           	l32i.n	a7, a1, 32
    4900:	0c8776        	loop	a7, 4910 <ltpf_synth_filter+0x188>
    4903:	e2faecb2ff 	{ ae_lp16f.iu	aep3, a2, -2; ae_mulafp24s.lh	aeq1, aep6, aep7 }
    4908:	e2efece2ff 	{ ae_lp16f.iu	aep6, a2, -2; ae_mulafp24s.ll	aeq1, aep3, aep7 }
    490d:	44fa14        	ae_lp16x2f.iu	aep7, a10, 4
    4910:	41e244        	ae_lp16f.xu	aep6, a2, a4
    4913:	45fae4        	ae_lp16x2f.xu	aep7, a10, a14
    4916:	1329a6        	blti	a9, 2, 492d <ltpf_synth_filter+0x1a5>
    4919:	8178           	l32i.n	a7, a1, 32
    491b:	f03d           	nop.n
    491d:	0c8776        	loop	a7, 492d <ltpf_synth_filter+0x1a5>
    4920:	e2faacb2ff 	{ ae_lp16f.iu	aep3, a2, -2; ae_mulafp24s.lh	aeq0, aep6, aep7 }
    4925:	e2eface2ff 	{ ae_lp16f.iu	aep6, a2, -2; ae_mulafp24s.ll	aeq0, aep3, aep7 }
    492a:	44fa14        	ae_lp16x2f.iu	aep7, a10, 4
    492d:	f96bf0012f 	{ ae_lp24x2.i	aep0, a1, 16; ae_roundsp16q48asym	aep3, aeq1 }
    4932:	ea625a624f 	{ ae_lp16f.xu	aep6, a2, a4; ae_mulfs32p16s.hl	aeq1, aep0, aep3 }
    4937:	f96bdbfaef 	{ ae_lp16x2f.xu	aep7, a10, a14; ae_roundsp16q48asym	aep3, aeq1 }
    493c:	488c           	beqz.n	a8, 4944 <ltpf_synth_filter+0x1bc>
    493e:	003974        	ae_mulfs32p16s.ll	aeq1, aep3, aep1
    4941:	1b9f34        	ae_roundsp16q48asym	aep3, aeq1

00004944 <ltpf_synth_filter+0x1bc>:
    4944:	540114        	ae_lp24x2.i	aep0, a1, 8
    4947:	078334        	ae_addsp24s	aep3, aep0, aep3
    494a:	f863b2b61f 	{ ae_sp16f.l.iu	aep3, a6, 2; ae_roundsp16q48asym	aep0, aeq0 }
    494f:	40b314        	ae_lp16f.iu	aep3, a3, 2
    4952:	f51816        	beqz	a8, 48a7 <ltpf_synth_filter+0x11f>
    4955:	563114        	ae_sp24x2s.i	aep3, a1, 8
    4958:	543124        	ae_lp24x2.i	aep3, a1, 16
    495b:	003054        	ae_mulfs32p16s.hl	aeq0, aep3, aep0
    495e:	d86570311f 	{ ae_lp24x2.i	aep3, a1, 8; ae_addsp24s	aep1, aep1, aep3 }
    4963:	1b8f04        	ae_roundsp16q48asym	aep0, aeq0
    4966:	000174        	ae_mulfs32p16s.ll	aeq0, aep0, aep1
    4969:	ffd146        	j	48b2 <ltpf_synth_filter+0x12a>

0000496c <ltpf_synth_filter+0x1e4>:
    496c:	f01d           	retw.n

0000496e <ltpf_synth_filter+0x1e6>:
	...

00004970 <processNoiseFilling_fx>:
    4970:	00a136        	entry	a1, 80
    4973:	4149           	s32i.n	a4, a1, 16
    4975:	edc441        	l32r	a4, 88 (b878 <BW_cutoff_bin_all>)
    4978:	b5c7b2        	addi	a11, a7, -75
    497b:	3d0c           	movi.n	a13, 3
    497d:	0478           	l32i.n	a7, a4, 0
    497f:	2c0c           	movi.n	a12, 2
    4981:	93cdb0        	movnez	a12, a13, a11
    4984:	6139           	s32i.n	a3, a1, 24
    4986:	907670        	addx2	a7, a6, a7
    4989:	113cf0        	slli	a3, a12, 1
    498c:	fe7c           	movi.n	a14, -1
    498e:	30a3e0        	xor	a10, a3, a14
    4991:	47ed           	ae_l16ui.n	a14, a7, 0
    4993:	8f1c           	movi.n	a15, 24
    4995:	2d1c           	movi.n	a13, 18
    4997:	93dfb0        	movnez	a13, a15, a11
    499a:	142192        	l32i	a9, a1, 80
    499d:	162162        	l32i	a6, a1, 88
    49a0:	152172        	l32i	a7, a1, 84
    49a3:	b199           	s32i.n	a9, a1, 44
    49a5:	118ce0        	slli	a8, a12, 2
    49a8:	a0fd20        	addx4	a15, a13, a2
    49ab:	8e9d           	ae_sext16	a9, a14
    49ad:	c08f80        	sub	a8, a15, a8
    49b0:	21f290        	srai	a15, a9, 2
    49b3:	0a9d           	mov.n	a9, a10
    49b5:	088376        	loop	a3, 49c1 <processNoiseFilling_fx+0x51>
    49b8:	0838           	l32i.n	a3, a8, 0
    49ba:	991b           	addi.n	a9, a9, 1
    49bc:	884b           	addi.n	a8, a8, 4
    49be:	939a30        	movnez	a9, a10, a3

000049c1 <processNoiseFilling_fx+0x51>:
    49c1:	fc24913fff 	{ addx2	a3, a15, a15; ae_zeroq56	aeq0 }
    49c6:	933eb0        	movnez	a3, a14, a11
    49c9:	83ed           	ae_sext16	a14, a3
    49cb:	c0bec0        	sub	a11, a14, a12
    49ce:	fec6f2        	addi	a15, a6, -2
    49d1:	32adb7        	bge	a13, a11, 4a07 <processNoiseFilling_fx+0x97>
    49d4:	3dca           	add.n	a3, a13, a12
    49d6:	a04c20        	addx4	a4, a12, a2
    49d9:	c033e0        	sub	a3, a3, a14
    49dc:	a0cd40        	addx4	a12, a13, a4
    49df:	180c           	movi.n	a8, 1
    49e1:	603030        	neg	a3, a3
    49e4:	300dd4        	ae_cvtp24a16x2.ll	aep0, a13, a13
    49e7:	301884        	ae_cvtp24a16x2.ll	aep1, a8, a8
    49ea:	605c04        	ae_lq32f.iu	aeq1, a12, 0
    49ed:	168376        	loop	a3, 4a07 <processNoiseFilling_fx+0x97>
    49f0:	d44400193e 	{ addi	a3, a9, 1; ae_eqq56	b0, aeq1, aeq0 }
    49f5:	0a4d           	mov.n	a4, a10
    49f7:	d34300        	movt	a4, a3, b0
    49fa:	849d           	ae_sext16	a9, a4
    49fc:	002996        	bltz	a9, 4a02 <processNoiseFilling_fx+0x92>
    49ff:	428f14        	ae_sp16f.l.iu	aep0, a15, 2

00004a02 <processNoiseFilling_fx+0x92>:
    4a02:	d8213d3c1f 	{ ae_lq32f.iu	aeq1, a12, 4; ae_addsp24s	aep0, aep0, aep1 }

00004a07 <processNoiseFilling_fx+0x97>:
    4a07:	c03f60        	sub	a3, a15, a6
    4a0a:	413130        	srli	a3, a3, 1
    4a0d:	c04eb0        	sub	a4, a14, a11
    4a10:	a31b           	addi.n	a10, a3, 1
    4a12:	138476        	loop	a4, 4a29 <processNoiseFilling_fx+0xb9>
    4a15:	391b           	addi.n	a3, a9, 1
    4a17:	839d           	ae_sext16	a9, a3
    4a19:	00a996        	bltz	a9, 4a27 <processNoiseFilling_fx+0xb7>
    4a1c:	8a4d           	ae_sext16	a4, a10
    4a1e:	3a1b           	addi.n	a3, a10, 1
    4a20:	904460        	addx2	a4, a4, a6
    4a23:	03ad           	mov.n	a10, a3
    4a25:	64bd           	ae_s16i.n	a11, a4, 0

00004a27 <processNoiseFilling_fx+0xb7>:
    4a27:	bb1b           	addi.n	a11, a11, 1

00004a29 <processNoiseFilling_fx+0xb9>:
    4a29:	8a9d           	ae_sext16	a9, a10
    4a2b:	0219e6        	bgei	a9, 1, 4a31 <processNoiseFilling_fx+0xc1>
    4a2e:	002506        	j	4ac6 <processNoiseFilling_fx+0x156>
    4a31:	41e8           	l32i.n	a14, a1, 16
    4a33:	140c           	movi.n	a4, 1
    4a35:	113550        	slli	a3, a5, 11
    4a38:	114420        	slli	a4, a4, 14
    4a3b:	fd208f0e5e 	{ addi	a5, a14, -16; ae_zerop48	aep2 }
    4a40:	c03430        	sub	a3, a4, a3
    4a43:	b188           	l32i.n	a8, a1, 44
    4a45:	855d           	ae_sext16	a5, a5
    4a47:	833d           	ae_sext16	a3, a3
    4a49:	9189           	s32i.n	a8, a1, 36
    4a4b:	28c1f2        	addi	a15, a1, 40
    4a4e:	a139           	s32i.n	a3, a1, 40
    4a50:	600ff4        	ae_lq32f.i	aeq0, a15, -4
    4a53:	605050        	neg	a5, a5
    4a56:	fc24fe850f 	{ ae_slaasq56s	aeq0, aeq0, a5; nop }
    4a5b:	fc00fd2f0f 	{ ae_lq32f.i	aeq1, a15, 0; ae_satq48s	aeq0, aeq0 }
    4a60:	fc24fe954f 	{ ae_slaasq56s	aeq1, aeq1, a5; nop }
    4a65:	fc04ff0eef 	{ ae_trunca32q48	a14, aeq0; ae_satq48s	aeq0, aeq1 }
    4a6a:	368f04        	ae_trunca32q48	a15, aeq0
    4a6d:	61a8           	l32i.n	a10, a1, 24
    4a6f:	368e34        	ae_cvtq48a32s	aeq2, a14
    4a72:	dc4c           	movi.n	a12, 77
    4a74:	32a0d2        	movi	a13, 50
    4a77:	ff90988aaf 	{ ae_cvtp24a16x2.ll	aep0, a10, a10; ae_negq56	aeq3, aeq2 }
    4a7c:	7cdc42        	addmi	a4, a12, 0x7c00
    4a7f:	360f34        	ae_cvtq48a32s	aeq0, a15
    4a82:	6cdda2        	addmi	a10, a13, 0x6c00
    4a85:	fd10ba312f 	{ ae_sq56s.i	aeq3, a1, 16; ae_negq56	aeq1, aeq0 }
    4a8a:	301444        	ae_cvtp24a16x2.ll	aep1, a4, a4
    4a8d:	36ca34        	ae_cvtq48a32s	aeq3, a10
    4a90:	fe1c7a213f 	{ ae_sq56s.i	aeq2, a1, 24; ae_movq56	aeq2, aeq3 }
    4a95:	2d8976        	loop	a9, 4ac6 <processNoiseFilling_fx+0x156>
    4a98:	e72120064e 	{ l16si	a4, a6, 0; ae_mulafs32p16s.ll	aeq2, aep0, aep1 }
    4a9d:	35a3d4        	ae_slliq56	aeq2, aeq2, 15
    4aa0:	f8d23f01bf 	{ ae_movq56	aeq2, aeq0; ae_truncp24q48x2	aep0, aeq2, aeq2 }
    4aa5:	19a014        	ae_lep24s	b0:b1, aep2, aep0
    4aa8:	1134e0        	slli	a3, a4, 2
    4aab:	080176        	bf	b1, 4ab7 <processNoiseFilling_fx+0x147>
    4aae:	0d2477        	blt	a4, a7, 4abf <processNoiseFilling_fx+0x14f>
    4ab1:	618134        	ae_lq56.i	aeq2, a1, 24
    4ab4:	0001c6        	j	4abf <processNoiseFilling_fx+0x14f>

00004ab7 <processNoiseFilling_fx+0x147>:
    4ab7:	fe0c50447e 	{ blt	a4, a7, 4abf <processNoiseFilling_fx+0x14f>; ae_movq56	aeq2, aeq1 }
    4abc:	618124        	ae_lq56.i	aeq2, a1, 16
    4abf:	662b           	addi.n	a6, a6, 2
    4ac1:	fe1c78623f 	{ ae_sq32f.x	aeq2, a2, a3; ae_movq56	aeq2, aeq3 }

00004ac6 <processNoiseFilling_fx+0x156>:
    4ac6:	f01d           	retw.n

00004ac8 <processTnsDecoder_fx>:
    4ac8:	00c136        	entry	a1, 96
    4acb:	ed6ff1        	l32r	a15, 88 (b878 <BW_cutoff_bin_all>)
    4ace:	8139           	s32i.n	a3, a1, 32
    4ad0:	182132        	l32i	a3, a1, 96
    4ad3:	0f88           	l32i.n	a8, a15, 0
    4ad5:	64a0b2        	movi	a11, 100
    4ad8:	04ad           	mov.n	a10, a4
    4ada:	908780        	addx2	a8, a7, a8
    4add:	488d           	ae_l16ui.n	a8, a8, 0
    4adf:	024d           	mov.n	a4, a2
    4ae1:	1113b7        	beq	a3, a11, 4af6 <processTnsDecoder_fx+0x2e>
    4ae4:	b24c           	movi.n	a2, 75
    4ae6:	119327        	bne	a3, a2, 4afb <processTnsDecoder_fx+0x33>
    4ae9:	882d           	ae_sext16	a2, a8
    4aeb:	9c0c           	movi.n	a12, 9
    4aed:	212220        	srai	a2, a2, 2
    4af0:	908220        	addx2	a8, a2, a2
    4af3:	000046        	j	4af8 <processTnsDecoder_fx+0x30>

00004af6 <processTnsDecoder_fx+0x2e>:
    4af6:	cc0c           	movi.n	a12, 12
    4af8:	0851c2        	s16i	a12, a1, 16
    4afb:	fdc722        	addi	a2, a7, -3
    4afe:	82bd           	ae_sext16	a11, a2
    4b00:	120c           	movi.n	a2, 1
    4b02:	010b96        	bltz	a11, 4b16 <processTnsDecoder_fx+0x4e>
    4b05:	2b3c           	movi.n	a11, 50
    4b07:	0b23b7        	blt	a3, a11, 4b16 <processTnsDecoder_fx+0x4e>
    4b0a:	883d           	ae_sext16	a3, a8
    4b0c:	213130        	srai	a3, a3, 1
    4b0f:	220c           	movi.n	a2, 2
    4b11:	9139           	s32i.n	a3, a1, 36
    4b13:	095132        	s16i	a3, a1, 18
    4b16:	253d           	ae_l16si.n	a3, a5, 0
    4b18:	9178           	l32i.n	a7, a1, 36
    4b1a:	fec292        	addi	a9, a2, -2
    4b1d:	0213e6        	bgei	a3, 1, 4b23 <processTnsDecoder_fx+0x5b>
    4b20:	002246        	j	4bad <processTnsDecoder_fx+0xe5>
    4b23:	1f0c           	movi.n	a15, 1
    4b25:	6239f0        	saltu	a3, a9, a15
    4b28:	7169           	s32i.n	a6, a1, 28
    4b2a:	61a9           	s32i.n	a10, a1, 24
    4b2c:	b189           	s32i.n	a8, a1, 44
    4b2e:	1921f2        	l32i	a15, a1, 100
    4b31:	8168           	l32i.n	a6, a1, 32
    4b33:	a139           	s32i.n	a3, a1, 40
    4b35:	20cf32        	addi	a3, a15, 32
    4b38:	f139           	s32i.n	a3, a1, 60
    4b3a:	8c7d           	ae_sext16	a7, a12
    4b3c:	eddd31        	l32r	a3, 2b0 (fd0 <getScaleFactor32_0>)
    4b3f:	06ad           	mov.n	a10, a6
    4b41:	07bd           	mov.n	a11, a7
    4b43:	c1c9           	s32i.n	a12, a1, 48
    4b45:	d1f9           	s32i.n	a15, a1, 52
    4b47:	0003e0        	callx8	a3
    4b4a:	6138           	l32i.n	a3, a1, 24
    4b4c:	c1f8           	l32i.n	a15, a1, 48
    4b4e:	e1a9           	s32i.n	a10, a1, 56
    4b50:	a0a760        	addx4	a10, a7, a6
    4b53:	c033f0        	sub	a3, a3, a15
    4b56:	83bd           	ae_sext16	a11, a3
    4b58:	eded31        	l32r	a3, 30c (f88 <getScaleFactor32_Q>)
    4b5b:	0003e0        	callx8	a3
    4b5e:	71b8           	l32i.n	a11, a1, 28
    4b60:	e188           	l32i.n	a8, a1, 56
    4b62:	d1c8           	l32i.n	a12, a1, 52
    4b64:	2b3d           	ae_l16si.n	a3, a11, 0
    4b66:	fc248f9a6e 	{ addi	a6, a10, -7; ae_zeroq56	aeq0 }
    4b6b:	438860        	min	a8, a8, a6
    4b6e:	fccc72        	addi	a7, a12, -4
    4b71:	c03380        	sub	a3, a3, a8
    4b74:	08a092        	movi	a9, 8
    4b77:	6b3d           	ae_s16i.n	a3, a11, 0
    4b79:	116800        	slli	a6, a8, 16
    4b7c:	883d           	ae_sext16	a3, a8
    4b7e:	076172        	s32i	a7, a1, 28
    4b81:	028976        	loop	a9, 4b87 <processTnsDecoder_fx+0xbf>
    4b84:	624714        	ae_sq32f.iu	aeq0, a7, 4

00004b87 <processTnsDecoder_fx+0xbf>:
    4b87:	8178           	l32i.n	a7, a1, 32
    4b89:	b188           	l32i.n	a8, a1, 44
    4b8b:	609030        	neg	a9, a3
    4b8e:	5c8704        	ae_lp24x2f.iu	aep0, a7, 0
    4b91:	3616a6        	blti	a6, 1, 4bcb <processTnsDecoder_fx+0x103>
    4b94:	031634        	wur.ae_sar	a3
    4b97:	6138           	l32i.n	a3, a1, 24
    4b99:	4423a6        	blti	a3, 2, 4be1 <processTnsDecoder_fx+0x119>
    4b9c:	213130        	srai	a3, a3, 1
    4b9f:	078376        	loop	a3, 4baa <processTnsDecoder_fx+0xe2>
    4ba2:	f823ef871f 	{ ae_lp24x2f.iu	aep0, a7, 8; ae_sllssp24s	aep1, aep0 }
    4ba7:	5e17f4        	ae_sp24x2f.i	aep1, a7, -8
    4baa:	000cc6        	j	4be1 <processTnsDecoder_fx+0x119>

00004bad <processTnsDecoder_fx+0xe5>:
    4bad:	022226        	beqi	a2, 2, 4bb3 <processTnsDecoder_fx+0xeb>
    4bb0:	003306        	j	4c80 <processTnsDecoder_fx+0x1b8>
    4bb3:	352d           	ae_l16si.n	a2, a5, 2
    4bb5:	83c730        	moveqz	a12, a7, a3
    4bb8:	130c           	movi.n	a3, 1
    4bba:	0212e6        	bgei	a2, 1, 4bc0 <processTnsDecoder_fx+0xf8>
    4bbd:	002fc6        	j	4c80 <processTnsDecoder_fx+0x1b8>
    4bc0:	7169           	s32i.n	a6, a1, 28
    4bc2:	61a9           	s32i.n	a10, a1, 24
    4bc4:	b189           	s32i.n	a8, a1, 44
    4bc6:	220c           	movi.n	a2, 2
    4bc8:	ffd886        	j	4b2e <processTnsDecoder_fx+0x66>

00004bcb <processTnsDecoder_fx+0x103>:
    4bcb:	031694        	wur.ae_sar	a9
    4bce:	6138           	l32i.n	a3, a1, 24
    4bd0:	0d23a6        	blti	a3, 2, 4be1 <processTnsDecoder_fx+0x119>
    4bd3:	213130        	srai	a3, a3, 1
    4bd6:	078376        	loop	a3, 4be1 <processTnsDecoder_fx+0x119>
    4bd9:	f8a3ef871f 	{ ae_lp24x2f.iu	aep0, a7, 8; ae_srasp24	aep1, aep0 }
    4bde:	5e17f4        	ae_sp24x2f.i	aep1, a7, -8

00004be1 <processTnsDecoder_fx+0x119>:
    4be1:	a138           	l32i.n	a3, a1, 40
    4be3:	338c           	beqz.n	a3, 4bea <processTnsDecoder_fx+0x122>
    4be5:	0b5182        	s16i	a8, a1, 22
    4be8:	9188           	l32i.n	a8, a1, 36

00004bea <processTnsDecoder_fx+0x122>:
    4bea:	ed3231        	l32r	a3, b4 (b8f4 <tnsQuantPts>)
    4bed:	1ecc62        	addi	a6, a12, 30
    4bf0:	0a5182        	s16i	a8, a1, 20
    4bf3:	03a8           	l32i.n	a10, a3, 0
    4bf5:	6169           	s32i.n	a6, a1, 24
    4bf7:	14c192        	addi	a9, a1, 20
    4bfa:	10c1b2        	addi	a11, a1, 16
    4bfd:	25cd           	ae_l16si.n	a12, a5, 0
    4bff:	f168           	l32i.n	a6, a1, 60
    4c01:	043d           	mov.n	a3, a4
    4c03:	6b1ca6        	blti	a12, 1, 4c72 <processTnsDecoder_fx+0x1aa>
    4c06:	0c8c76        	loop	a12, 4c16 <processTnsDecoder_fx+0x14e>
    4c09:	237d           	ae_l16si.n	a7, a3, 0
    4c0b:	332b           	addi.n	a3, a3, 2
    4c0d:	9077a0        	addx2	a7, a7, a10
    4c10:	277d           	ae_l16si.n	a7, a7, 0
    4c12:	667d           	ae_s16i.n	a7, a6, 0
    4c14:	662b           	addi.n	a6, a6, 2

00004c16 <processTnsDecoder_fx+0x14e>:
    4c16:	2b3d           	ae_l16si.n	a3, a11, 0
    4c18:	296d           	ae_l16si.n	a6, a9, 0
    4c1a:	81e8           	l32i.n	a14, a1, 32
    4c1c:	7178           	l32i.n	a7, a1, 28
    4c1e:	c0d630        	sub	a13, a6, a3
    4c21:	4d1da6        	blti	a13, 1, 4c72 <processTnsDecoder_fx+0x1aa>
    4c24:	062182        	l32i	a8, a1, 24
    4c27:	a0e3e0        	addx4	a14, a3, a14
    4c2a:	a0fc70        	addx4	a15, a12, a7
    4c2d:	907c80        	addx2	a7, a12, a8
    4c30:	113ce0        	slli	a3, a12, 2
    4c33:	116cf0        	slli	a6, a12, 1
    4c36:	ffcc82        	addi	a8, a12, -1
    4c39:	601e04        	ae_lq32f.iu	aeq0, a14, 0
    4c3c:	609f04        	ae_lq32f.iu	aeq2, a15, 0
    4c3f:	408704        	ae_lp16f.iu	aep0, a7, 0

00004c42 <processTnsDecoder_fx+0x17a>:
    4c42:	fa80bd3fff 	{ ae_lq32f.iu	aeq1, a15, -4; ae_mulsfq32sp16s.l	aeq0, aeq2, aep0 }
    4c47:	4087f4        	ae_lp16f.iu	aep0, a7, -2
    4c4a:	102ca6        	blti	a12, 2, 4c5e <processTnsDecoder_fx+0x196>
    4c4d:	0d8876        	loop	a8, 4c5e <processTnsDecoder_fx+0x196>
    4c50:	030454        	ae_mulsfq32sp16s.l	aeq0, aeq1, aep0
    4c53:	f482ec87ff 	{ ae_lp16f.iu	aep0, a7, -2; ae_mulafq32sp16s.l	aeq1, aeq0, aep0 }
    4c58:	621f14        	ae_sq32f.i	aeq1, a15, 4
    4c5b:	605ff4        	ae_lq32f.iu	aeq1, a15, -4

00004c5e <processTnsDecoder_fx+0x196>:
    4c5e:	620f14        	ae_sq32f.i	aeq0, a15, 4
    4c61:	624e04        	ae_sq32f.iu	aeq0, a14, 0
    4c64:	dd0b           	addi.n	a13, a13, -1
    4c66:	601e14        	ae_lq32f.iu	aeq0, a14, 4
    4c69:	60bf34        	ae_lq32f.xu	aeq2, a15, a3
    4c6c:	418764        	ae_lp16f.xu	aep0, a7, a6
    4c6f:	fcfd56        	bnez	a13, 4c42 <processTnsDecoder_fx+0x17a>

00004c72 <processTnsDecoder_fx+0x1aa>:
    4c72:	220b           	addi.n	a2, a2, -1
    4c74:	992b           	addi.n	a9, a9, 2
    4c76:	bb2b           	addi.n	a11, a11, 2
    4c78:	552b           	addi.n	a5, a5, 2
    4c7a:	10c442        	addi	a4, a4, 16
    4c7d:	f7c256        	bnez	a2, 4bfd <processTnsDecoder_fx+0x135>
    4c80:	f01d           	retw.n

00004c82 <processTnsDecoder_fx+0x1ba>:
    4c82:	00000000                                 ......

00004c88 <getScaleFactor32_plc>:
    4c88:	004136        	entry	a1, 32
    4c8b:	2d13a6        	blti	a3, 1, 4cbc <getScaleFactor32_plc+0x34>
    4c8e:	050c           	movi.n	a5, 0
    4c90:	040c           	movi.n	a4, 0
    4c92:	0f8376        	loop	a3, 4ca5 <getScaleFactor32_plc+0x1d>
    4c95:	0238           	l32i.n	a3, a2, 0
    4c97:	224b           	addi.n	a2, a2, 4
    4c99:	436430        	min	a6, a4, a3
    4c9c:	537530        	max	a7, a5, a3
    4c9f:	b35730        	movgez	a5, a7, a3
    4ca2:	a34630        	movltz	a4, a6, a3

00004ca5 <getScaleFactor32_plc+0x1d>:
    4ca5:	40e520        	nsa	a2, a5
    4ca8:	40e430        	nsa	a3, a4
    4cab:	062c           	movi.n	a6, 32
    4cad:	822d           	ae_sext16	a2, a2
    4caf:	833d           	ae_sext16	a3, a3
    4cb1:	832650        	moveqz	a2, a6, a5
    4cb4:	833640        	moveqz	a3, a6, a4
    4cb7:	432230        	min	a2, a2, a3
    4cba:	f01d           	retw.n

00004cbc <getScaleFactor32_plc+0x34>:
    4cbc:	040c           	movi.n	a4, 0
    4cbe:	050c           	movi.n	a5, 0
    4cc0:	fff846        	j	4ca5 <getScaleFactor32_plc+0x1d>

00004cc3 <getScaleFactor32_plc+0x3b>:
	...

00004cc4 <processPLCupdate_fx>:
    4cc4:	00c136        	entry	a1, 96
    4cc7:	07ed           	mov.n	a14, a7
    4cc9:	06dd           	mov.n	a13, a6
    4ccb:	1d21c2        	l32i	a12, a1, 116
    4cce:	1c21b2        	l32i	a11, a1, 112
    4cd1:	1b21a2        	l32i	a10, a1, 108
    4cd4:	1a2172        	l32i	a7, a1, 104
    4cd7:	192162        	l32i	a6, a1, 100
    4cda:	1821f2        	l32i	a15, a1, 96
    4cdd:	22bc           	beqz.n	a2, 4d13 <processPLCupdate_fx+0x4f>
    4cdf:	ed8c81        	l32r	a8, 310 (95e4 <tplc_buf_update_fx>)
    4ce2:	c1a9           	s32i.n	a10, a1, 48
    4ce4:	b1b9           	s32i.n	a11, a1, 44
    4ce6:	a1c9           	s32i.n	a12, a1, 40
    4ce8:	02ad           	mov.n	a10, a2
    4cea:	03bd           	mov.n	a11, a3
    4cec:	04cd           	mov.n	a12, a4
    4cee:	d179           	s32i.n	a7, a1, 52
    4cf0:	f149           	s32i.n	a4, a1, 60
    4cf2:	054d           	mov.n	a4, a5
    4cf4:	e169           	s32i.n	a6, a1, 56
    4cf6:	0d7d           	mov.n	a7, a13
    4cf8:	0e5d           	mov.n	a5, a14
    4cfa:	0f6d           	mov.n	a6, a15
    4cfc:	0008e0        	callx8	a8
    4cff:	07dd           	mov.n	a13, a7
    4d01:	06fd           	mov.n	a15, a6
    4d03:	05ed           	mov.n	a14, a5
    4d05:	045d           	mov.n	a5, a4
    4d07:	a1c8           	l32i.n	a12, a1, 40
    4d09:	b1b8           	l32i.n	a11, a1, 44
    4d0b:	c1a8           	l32i.n	a10, a1, 48
    4d0d:	d178           	l32i.n	a7, a1, 52
    4d0f:	e168           	l32i.n	a6, a1, 56
    4d11:	f148           	l32i.n	a4, a1, 60

00004d13 <processPLCupdate_fx+0x4f>:
    4d13:	5129           	s32i.n	a2, a1, 20
    4d15:	ed7f21        	l32r	a2, 314 (a63c <processPLCUpdateAfterIMDCT_fx>)
    4d18:	41c9           	s32i.n	a12, a1, 16
    4d1a:	31b9           	s32i.n	a11, a1, 12
    4d1c:	21a9           	s32i.n	a10, a1, 8
    4d1e:	03ad           	mov.n	a10, a3
    4d20:	04bd           	mov.n	a11, a4
    4d22:	05cd           	mov.n	a12, a5
    4d24:	1179           	s32i.n	a7, a1, 4
    4d26:	0169           	s32i.n	a6, a1, 0
    4d28:	0002e0        	callx8	a2
    4d2b:	f01d           	retw.n

00004d2d <processPLCupdate_fx+0x69>:
    4d2d:	000000                                        ...

00004d30 <processPLCupdateSpec_fx>:
    4d30:	004136        	entry	a1, 32
    4d33:	ed7971        	l32r	a7, 318 (4c88 <getScaleFactor32_plc>)
    4d36:	04ad           	mov.n	a10, a4
    4d38:	06bd           	mov.n	a11, a6
    4d3a:	0007e0        	callx8	a7
    4d3d:	255d           	ae_l16si.n	a5, a5, 0
    4d3f:	9a7d           	ae_zext16	a7, a10
    4d41:	031674        	wur.ae_sar	a7
    4d44:	c055a0        	sub	a5, a5, a10
    4d47:	635d           	ae_s16i.n	a5, a3, 0
    4d49:	1626a6        	blti	a6, 2, 4d63 <processPLCupdateSpec_fx+0x33>
    4d4c:	213160        	srai	a3, a6, 1
    4d4f:	5c8404        	ae_lp24x2f.iu	aep0, a4, 0
    4d52:	fcc222        	addi	a2, a2, -4
    4d55:	0a8376        	loop	a3, 4d63 <processPLCupdateSpec_fx+0x33>
    4d58:	f823ef841f 	{ ae_lp24x2f.iu	aep0, a4, 8; ae_sllssp24s	aep1, aep0 }
    4d5d:	091194        	ae_roundsp16asym	aep1, aep1
    4d60:	469214        	ae_sp16x2f.iu	aep1, a2, 4

00004d63 <processPLCupdateSpec_fx+0x33>:
    4d63:	f01d           	retw.n

00004d65 <processPLCupdateSpec_fx+0x35>:
    4d65:	000000                                        ...

00004d68 <processAdjustGlobalGain_fx>:
    4d68:	006136        	entry	a1, 48
    4d6b:	ecfff1        	l32r	a15, 168 (ba28 <adjust_global_gain_tables>)
    4d6e:	06cd           	mov.n	a12, a6
    4d70:	e1a8           	l32i.n	a10, a1, 56
    4d72:	0f68           	l32i.n	a6, a15, 0
    4d74:	c188           	l32i.n	a8, a1, 48
    4d76:	90aa60        	addx2	a10, a10, a6
    4d79:	2abd           	ae_l16si.n	a11, a10, 0
    4d7b:	d168           	l32i.n	a6, a1, 52
    4d7d:	30c8d2        	addi	a13, a8, 48
    4d80:	c098b0        	sub	a9, a8, a11
    4d83:	899d           	ae_sext16	a9, a9
    4d85:	021996        	bltz	a9, 4daa <processAdjustGlobalGain_fx+0x42>
    4d88:	059a92        	l16si	a9, a10, 10
    4d8b:	aba2b2        	movi	a11, 0x2ab
    4d8e:	aba2d2        	movi	a13, 0x2ab
    4d91:	c09890        	sub	a9, a8, a9
    4d94:	899d           	ae_sext16	a9, a9
    4d96:	018996        	bltz	a9, 4db2 <processAdjustGlobalGain_fx+0x4a>
    4d99:	0a9a92        	l16si	a9, a10, 20
    4d9c:	c0a890        	sub	a10, a8, a9
    4d9f:	8aad           	ae_sext16	a10, a10
    4da1:	01da96        	bltz	a10, 4dc2 <processAdjustGlobalGain_fx+0x5a>
    4da4:	d199b0        	mul16s	a9, a9, a11
    4da7:	000686        	j	4dc5 <processAdjustGlobalGain_fx+0x5d>

00004daa <processAdjustGlobalGain_fx+0x42>:
    4daa:	8d9d           	ae_sext16	a9, a13
    4dac:	119950        	slli	a9, a9, 11
    4daf:	000486        	j	4dc5 <processAdjustGlobalGain_fx+0x5d>

00004db2 <processAdjustGlobalGain_fx+0x4a>:
    4db2:	149a92        	l16si	a9, a10, 40
    4db5:	0f9af2        	l16si	a15, a10, 30
    4db8:	998a           	add.n	a9, a9, a8
    4dba:	899d           	ae_sext16	a9, a9
    4dbc:	d19f90        	mul16s	a9, a15, a9
    4dbf:	000086        	j	4dc5 <processAdjustGlobalGain_fx+0x5d>

00004dc2 <processAdjustGlobalGain_fx+0x5a>:
    4dc2:	d198d0        	mul16s	a9, a8, a13
    4dc5:	0a0c           	movi.n	a10, 0
    4dc7:	66ad           	ae_s16i.n	a10, a6, 0
    4dc9:	c08870        	sub	a8, a8, a7
    4dcc:	40d992        	addmi	a9, a9, 0x4000
    4dcf:	427d           	ae_l16ui.n	a7, a2, 0
    4dd1:	219f90        	srai	a9, a9, 15
    4dd4:	a99d           	ae_clamps16	a9, a9
    4dd6:	ffa0b2        	movi	a11, 255
    4dd9:	888d           	ae_sext16	a8, a8
    4ddb:	a92b           	addi.n	a10, a9, 2
    4ddd:	0b97b7        	bne	a7, a11, 4dec <processAdjustGlobalGain_fx+0x84>
    4de0:	ffa072        	movi	a7, 255
    4de3:	3318a6        	blti	a8, 1, 4e1a <processAdjustGlobalGain_fx+0xb2>
    4de6:	170c           	movi.n	a7, 1
    4de8:	667d           	ae_s16i.n	a7, a6, 0
    4dea:	427d           	ae_l16ui.n	a7, a2, 0
    4dec:	2518a6        	blti	a8, 1, 4e15 <processAdjustGlobalGain_fx+0xad>
    4def:	01afb2        	movi	a11, -255
    4df2:	b7ba           	add.n	a11, a7, a11
    4df4:	8bbd           	ae_sext16	a11, a11
    4df6:	01bbd6        	bgez	a11, 4e15 <processAdjustGlobalGain_fx+0xad>
    4df9:	a8aa           	add.n	a10, a8, a10
    4dfb:	8aad           	ae_sext16	a10, a10
    4dfd:	022a96        	bltz	a10, 4e23 <processAdjustGlobalGain_fx+0xbb>
    4e00:	fea0a2        	movi	a10, 254
    4e03:	2117a7        	beq	a7, a10, 4e28 <processAdjustGlobalGain_fx+0xc0>
    4e06:	c08890        	sub	a8, a8, a9
    4e09:	888d           	ae_sext16	a8, a8
    4e0b:	07ad           	mov.n	a10, a7
    4e0d:	017896        	bltz	a8, 4e28 <processAdjustGlobalGain_fx+0xc0>
    4e10:	772b           	addi.n	a7, a7, 2
    4e12:	000506        	j	4e2a <processAdjustGlobalGain_fx+0xc2>

00004e15 <processAdjustGlobalGain_fx+0xad>:
    4e15:	879d           	ae_sext16	a9, a7
    4e17:	0619a6        	blti	a9, 1, 4e21 <processAdjustGlobalGain_fx+0xb9>
    4e1a:	88aa           	add.n	a8, a8, a10
    4e1c:	888d           	ae_sext16	a8, a8
    4e1e:	001896        	bltz	a8, 4e23 <processAdjustGlobalGain_fx+0xbb>
    4e21:	f01d           	retw.n

00004e23 <processAdjustGlobalGain_fx+0xbb>:
    4e23:	770b           	addi.n	a7, a7, -1
    4e25:	000046        	j	4e2a <processAdjustGlobalGain_fx+0xc2>

00004e28 <processAdjustGlobalGain_fx+0xc0>:
    4e28:	7a1b           	addi.n	a7, a10, 1
    4e2a:	c03340        	sub	a3, a3, a4
    4e2d:	877d           	ae_sext16	a7, a7
    4e2f:	833d           	ae_sext16	a3, a3
    4e31:	533730        	max	a3, a7, a3
    4e34:	d34a           	add.n	a13, a3, a4
    4e36:	114d90        	slli	a4, a13, 7
    4e39:	7da0b2        	movi	a11, 125
    4e3c:	79db72        	addmi	a7, a11, 0x7900
    4e3f:	844d           	ae_sext16	a4, a4
    4e41:	d14470        	mul16s	a4, a4, a7
    4e44:	fe7c           	movi.n	a14, -1
    4e46:	31f940        	srai	a15, a4, 25
    4e49:	623d           	ae_s16i.n	a3, a2, 0
    4e4b:	2f1b           	addi.n	a2, a15, 1
    4e4d:	017e70        	slli	a7, a14, 25
    4e50:	6c2d           	ae_s16i.n	a2, a12, 0
    4e52:	ed1621        	l32r	a2, 2ac (cdc <BASOP_Util_InvLog2>)
    4e55:	20a470        	or	a10, a4, a7
    4e58:	0002e0        	callx8	a2
    4e5b:	360a34        	ae_cvtq48a32s	aeq0, a10
    4e5e:	f86380013f 	{ movi	a3, 1; ae_roundsp16q48asym	aep0, aeq0 }
    4e63:	420164        	ae_sp16f.l.i	aep0, a1, 12
    4e66:	069122        	l16si	a2, a1, 12
    4e69:	652d           	ae_s16i.n	a2, a5, 0
    4e6b:	663d           	ae_s16i.n	a3, a6, 0
    4e6d:	f01d           	retw.n

00004e6f <processAdjustGlobalGain_fx+0x107>:
	...

00004e70 <attack_detector_fx>:
    4e70:	006136        	entry	a1, 48
    4e73:	1a1372        	l16ui	a7, a3, 52
    4e76:	04ad           	mov.n	a10, a4
    4e78:	2b1716        	beqz	a7, 512d <attack_detector_fx+0x2bd>
    4e7b:	219272        	l16si	a7, a2, 66
    4e7e:	0f92b2        	l16si	a11, a2, 30
    4e81:	a07770        	addx4	a7, a7, a7
    4e84:	1177d0        	slli	a7, a7, 3
    4e87:	3179           	s32i.n	a7, a1, 12
    4e89:	ed1e71        	l32r	a7, 304 (ef8 <getScaleFactor16>)
    4e8c:	0007e0        	callx8	a7
    4e8f:	38c392        	addi	a9, a3, 56
    4e92:	ecea81        	l32r	a8, 23c (f0c <getScaleFactor16_0>)
    4e95:	7a5a           	add.n	a7, a10, a5
    4e97:	2b0c           	movi.n	a11, 2
    4e99:	09ad           	mov.n	a10, a9
    4e9b:	1159           	s32i.n	a5, a1, 4
    4e9d:	2199           	s32i.n	a9, a1, 8
    4e9f:	0008e0        	callx8	a8
    4ea2:	229382        	l16si	a8, a3, 68
    4ea5:	3cc392        	addi	a9, a3, 60
    4ea8:	1b0c           	movi.n	a11, 1
    4eaa:	58aa           	add.n	a5, a8, a10
    4eac:	ed0181        	l32r	a8, 2b0 (fd0 <getScaleFactor32_0>)
    4eaf:	09ad           	mov.n	a10, a9
    4eb1:	0008e0        	callx8	a8
    4eb4:	229382        	l16si	a8, a3, 68
    4eb7:	855d           	ae_sext16	a5, a5
    4eb9:	877d           	ae_sext16	a7, a7
    4ebb:	9098a0        	addx2	a9, a8, a10
    4ebe:	991b           	addi.n	a9, a9, 1
    4ec0:	899d           	ae_sext16	a9, a9
    4ec2:	435570        	min	a5, a5, a7
    4ec5:	219190        	srai	a9, a9, 1
    4ec8:	435950        	min	a5, a9, a5
    4ecb:	ff7c           	movi.n	a15, -1
    4ecd:	fec592        	addi	a9, a5, -2
    4ed0:	c08980        	sub	a8, a9, a8
    4ed3:	f470f0        	extui	a7, a15, 0, 16
    4ed6:	5b0787        	bnone	a7, a8, 4f35 <attack_detector_fx+0xc5>
    4ed9:	21d8           	l32i.n	a13, a1, 8
    4edb:	885d           	ae_sext16	a5, a8
    4edd:	177c           	movi.n	a7, -15
    4edf:	535570        	max	a5, a5, a7
    4ee2:	ff0c           	movi.n	a15, 15
    4ee4:	2dad           	ae_l16si.n	a10, a13, 0
    4ee6:	4385f0        	min	a8, a5, a15
    4ee9:	013896        	bltz	a8, 4f00 <attack_detector_fx+0x90>
    4eec:	1d9352        	l16si	a5, a3, 58
    4eef:	401800        	ssl	a8
    4ef2:	3ac3b2        	addi	a11, a3, 58
    4ef5:	a15500        	sll	a5, a5
    4ef8:	a1aa00        	sll	a10, a10
    4efb:	85cd           	ae_sext16	a12, a5
    4efd:	000446        	j	4f12 <attack_detector_fx+0xa2>

00004f00 <attack_detector_fx+0x90>:
    4f00:	1d9372        	l16si	a7, a3, 58
    4f03:	605080        	neg	a5, a8
    4f06:	400500        	ssr	a5
    4f09:	3ac3b2        	addi	a11, a3, 58
    4f0c:	b1a0a0        	sra	a10, a10
    4f0f:	b1c070        	sra	a12, a7
    4f12:	0178f0        	slli	a7, a8, 17
    4f15:	317070        	srai	a7, a7, 16
    4f18:	f358           	l32i.n	a5, a3, 60
    4f1a:	60f070        	neg	a15, a7
    4f1d:	400f00        	ssr	a15
    4f20:	6dad           	ae_s16i.n	a10, a13, 0
    4f22:	b1a050        	sra	a10, a5
    4f25:	401700        	ssl	a7
    4f28:	04ee80        	extui	a14, a8, 14, 1
    4f2b:	a15500        	sll	a5, a5
    4f2e:	935ae0        	movnez	a5, a10, a14
    4f31:	6bcd           	ae_s16i.n	a12, a11, 0
    4f33:	f359           	s32i.n	a5, a3, 60
    4f35:	3188           	l32i.n	a8, a1, 12
    4f37:	42a8           	l32i.n	a10, a2, 16
    4f39:	77a152        	movi	a5, 0x177
    4f3c:	115590        	slli	a5, a5, 7
    4f3f:	14c672        	addi	a7, a6, 20
    4f42:	a88d           	ae_clamps16	a8, a8
    4f44:	225392        	s16i	a9, a3, 68
    4f47:	4b1a57        	beq	a10, a5, 4f96 <attack_detector_fx+0x126>
    4f4a:	7da052        	movi	a5, 125
    4f4d:	115580        	slli	a5, a5, 8
    4f50:	021a57        	beq	a10, a5, 4f56 <attack_detector_fx+0xe6>
    4f53:	0039c6        	j	503e <attack_detector_fx+0x1ce>
    4f56:	1158           	l32i.n	a5, a1, 4
    4f58:	88ad           	ae_sext16	a10, a8
    4f5a:	448404        	ae_lp16x2f.iu	aep0, a4, 0
    4f5d:	c09590        	sub	a9, a5, a9
    4f60:	991b           	addi.n	a9, a9, 1
    4f62:	89bd           	ae_sext16	a11, a9
    4f64:	10c652        	addi	a5, a6, 16
    4f67:	2191a0        	srai	a9, a10, 1
    4f6a:	761ba6        	blti	a11, 1, 4fe4 <attack_detector_fx+0x174>
    4f6d:	0316b4        	wur.ae_sar	a11
    4f70:	022ae6        	bgei	a10, 2, 4f76 <attack_detector_fx+0x106>
    4f73:	0031c6        	j	503e <attack_detector_fx+0x1ce>
    4f76:	198976        	loop	a9, 4f93 <attack_detector_fx+0x123>
    4f79:	f8a3ad941f 	{ ae_lp16x2f.iu	aep1, a4, 4; ae_srasp24	aep0, aep0 }
    4f7e:	f8a7fe00af 	{ ae_selp24.lh	aep2, aep0, aep0; ae_srasp24	aep1, aep1 }
    4f83:	d8413e19ef 	{ ae_selp24.lh	aep7, aep1, aep1; ae_addsp24s	aep0, aep0, aep2 }
    4f88:	079714        	ae_addsp24s	aep1, aep1, aep7
    4f8b:	dc20ed841f 	{ ae_lp16x2f.iu	aep0, a4, 4; ae_selp24.hl	aep1, aep0, aep1 }
    4f90:	469514        	ae_sp16x2f.iu	aep1, a5, 4

00004f93 <attack_detector_fx+0x123>:
    4f93:	0029c6        	j	503e <attack_detector_fx+0x1ce>

00004f96 <attack_detector_fx+0x126>:
    4f96:	1158           	l32i.n	a5, a1, 4
    4f98:	88ad           	ae_sext16	a10, a8
    4f9a:	448404        	ae_lp16x2f.iu	aep0, a4, 0
    4f9d:	c09590        	sub	a9, a5, a9
    4fa0:	992b           	addi.n	a9, a9, 2
    4fa2:	89bd           	ae_sext16	a11, a9
    4fa4:	10c652        	addi	a5, a6, 16
    4fa7:	2191a0        	srai	a9, a10, 1
    4faa:	5f1ba6        	blti	a11, 1, 500d <attack_detector_fx+0x19d>
    4fad:	0316b4        	wur.ae_sar	a11
    4fb0:	022ae6        	bgei	a10, 2, 4fb6 <attack_detector_fx+0x146>
    4fb3:	0021c6        	j	503e <attack_detector_fx+0x1ce>
    4fb6:	248976        	loop	a9, 4fde <attack_detector_fx+0x16e>
    4fb9:	f8a3ad941f 	{ ae_lp16x2f.iu	aep1, a4, 4; ae_srasp24	aep0, aep0 }
    4fbe:	f8a7eda41f 	{ ae_lp16x2f.iu	aep2, a4, 4; ae_srasp24	aep1, aep1 }
    4fc3:	0b23a4        	ae_srasp24	aep2, aep2
    4fc6:	d9217e002f 	{ ae_selp24.lh	aep0, aep0, aep0; ae_addsp24s	aep3, aep0, aep1 }
    4fcb:	d8297e22af 	{ ae_selp24.lh	aep2, aep2, aep2; ae_addsp24s	aep1, aep2, aep1 }
    4fd0:	07b004        	ae_addsp24s	aep0, aep3, aep0
    4fd3:	079214        	ae_addsp24s	aep1, aep1, aep2
    4fd6:	dc20ed841f 	{ ae_lp16x2f.iu	aep0, a4, 4; ae_selp24.hl	aep1, aep0, aep1 }
    4fdb:	469514        	ae_sp16x2f.iu	aep1, a5, 4

00004fde <attack_detector_fx+0x16e>:
    4fde:	001706        	j	503e <attack_detector_fx+0x1ce>

00004fe1 <attack_detector_fx+0x171>:
    4fe1:	000000                                        ...

00004fe4 <attack_detector_fx+0x174>:
    4fe4:	60b0b0        	neg	a11, a11
    4fe7:	0316b4        	wur.ae_sar	a11
    4fea:	502aa6        	blti	a10, 2, 503e <attack_detector_fx+0x1ce>
    4fed:	198976        	loop	a9, 500a <attack_detector_fx+0x19a>
    4ff0:	f823ad941f 	{ ae_lp16x2f.iu	aep1, a4, 4; ae_sllssp24s	aep0, aep0 }
    4ff5:	f827fe00af 	{ ae_selp24.lh	aep2, aep0, aep0; ae_sllssp24s	aep1, aep1 }
    4ffa:	d8413e19ef 	{ ae_selp24.lh	aep7, aep1, aep1; ae_addsp24s	aep0, aep0, aep2 }
    4fff:	079714        	ae_addsp24s	aep1, aep1, aep7
    5002:	dc20ed841f 	{ ae_lp16x2f.iu	aep0, a4, 4; ae_selp24.hl	aep1, aep0, aep1 }
    5007:	469514        	ae_sp16x2f.iu	aep1, a5, 4

0000500a <attack_detector_fx+0x19a>:
    500a:	000c06        	j	503e <attack_detector_fx+0x1ce>

0000500d <attack_detector_fx+0x19d>:
    500d:	60b0b0        	neg	a11, a11
    5010:	0316b4        	wur.ae_sar	a11
    5013:	272aa6        	blti	a10, 2, 503e <attack_detector_fx+0x1ce>
    5016:	248976        	loop	a9, 503e <attack_detector_fx+0x1ce>
    5019:	f823ad941f 	{ ae_lp16x2f.iu	aep1, a4, 4; ae_sllssp24s	aep0, aep0 }
    501e:	f827eda41f 	{ ae_lp16x2f.iu	aep2, a4, 4; ae_sllssp24s	aep1, aep1 }
    5023:	0b20a4        	ae_sllssp24s	aep2, aep2
    5026:	d9217e002f 	{ ae_selp24.lh	aep0, aep0, aep0; ae_addsp24s	aep3, aep0, aep1 }
    502b:	d8297e22af 	{ ae_selp24.lh	aep2, aep2, aep2; ae_addsp24s	aep1, aep2, aep1 }
    5030:	07b004        	ae_addsp24s	aep0, aep3, aep0
    5033:	079214        	ae_addsp24s	aep1, aep1, aep2
    5036:	dc20ed841f 	{ ae_lp16x2f.iu	aep0, a4, 4; ae_selp24.hl	aep1, aep0, aep1 }
    503b:	469514        	ae_sp16x2f.iu	aep1, a5, 4

0000503e <attack_detector_fx+0x1ce>:
    503e:	1c9352        	l16si	a5, a3, 56
    5041:	114800        	slli	a4, a8, 16
    5044:	085652        	s16i	a5, a6, 16
    5047:	21df40        	srai	a13, a4, 15
    504a:	1d93e2        	l16si	a14, a3, 58
    504d:	5d7a           	add.n	a5, a13, a7
    504f:	0956e2        	s16i	a14, a6, 18
    5052:	fcc552        	addi	a5, a5, -4
    5055:	258d           	ae_l16si.n	a8, a5, 0
    5057:	1c5382        	s16i	a8, a3, 56
    505a:	1f0c           	movi.n	a15, 1
    505c:	355d           	ae_l16si.n	a5, a5, 2
    505e:	018ff0        	slli	a8, a15, 17
    5061:	1d5352        	s16i	a5, a3, 58
    5064:	422487        	blt	a4, a8, 50aa <attack_detector_fx+0x23a>
    5067:	f87c           	movi.n	a8, -1
    5069:	315140        	srai	a5, a4, 17
    506c:	3e0c           	movi.n	a14, 3
    506e:	190c           	movi.n	a9, 1
    5070:	114e40        	slli	a4, a14, 12
    5073:	118820        	slli	a8, a8, 14
    5076:	0a0c           	movi.n	a10, 0
    5078:	a0f570        	addx4	a15, a5, a7
    507b:	119940        	slli	a9, a9, 12
    507e:	300844        	ae_cvtp24a16x2.ll	aep0, a8, a4
    5081:	3014a4        	ae_cvtp24a16x2.ll	aep1, a4, a10
    5084:	fccf42        	addi	a4, a15, -4
    5087:	302a94        	ae_cvtp24a16x2.ll	aep2, a10, a9
    508a:	303984        	ae_cvtp24a16x2.ll	aep3, a9, a8
    508d:	44c404        	ae_lp16x2f.iu	aep4, a4, 0
    5090:	168576        	loop	a5, 50aa <attack_detector_fx+0x23a>
    5093:	f012ad54ff 	{ ae_lp16x2f.i	aep5, a4, -4; ae_mulzaafp24s.hh.ll	aeq0, aep4, aep0 }
    5098:	044904        	ae_mulzaafp24s.hh.ll	aeq1, aep4, aep1
    509b:	055204        	ae_mulaafp24s.hh.ll	aeq0, aep5, aep2
    509e:	055b04        	ae_mulaafp24s.hh.ll	aeq1, aep5, aep3
    50a1:	099c74        	ae_truncp24q48x2	aep7, aeq1, aeq0
    50a4:	467404        	ae_sp16x2f.i	aep7, a4, 0
    50a7:	44c4f4        	ae_lp16x2f.iu	aep4, a4, -4
    50aa:	ec6e51        	l32r	a5, 264 (bf8 <basop_memset>)
    50ad:	0b0c           	movi.n	a11, 0
    50af:	0c1c           	movi.n	a12, 16
    50b1:	06ad           	mov.n	a10, a6
    50b3:	040c           	movi.n	a4, 0
    50b5:	0005e0        	callx8	a5
    50b8:	fc24a2129e 	{ l16si	a9, a2, 66; ae_zeroq56	aeq0 }
    50bd:	fcc652        	addi	a5, a6, -4
    50c0:	481c           	movi.n	a8, 20
    50c2:	1719a6        	blti	a9, 1, 50dd <attack_detector_fx+0x26d>
    50c5:	448704        	ae_lp16x2f.iu	aep0, a7, 0
    50c8:	048876        	loop	a8, 50d0 <attack_detector_fx+0x260>
    50cb:	e2002d871f 	{ ae_lp16x2f.iu	aep0, a7, 4; ae_mulaafp24s.hh.ll	aeq0, aep0, aep0 }

000050d0 <attack_detector_fx+0x260>:
    50d0:	fc24b9c51f 	{ ae_sq32f.iu	aeq0, a5, 4; ae_zeroq56	aeq0 }
    50d5:	219292        	l16si	a9, a2, 66
    50d8:	441b           	addi.n	a4, a4, 1
    50da:	ea2497        	blt	a4, a9, 50c8 <attack_detector_fx+0x258>

000050dd <attack_detector_fx+0x26d>:
    50dd:	219342        	l16si	a4, a3, 66
    50e0:	239222        	l16si	a2, a2, 70
    50e3:	f388           	l32i.n	a8, a3, 60
    50e5:	78a072        	movi	a7, 120
    50e8:	724420        	salt	a4, a4, a2
    50eb:	120c           	movi.n	a2, 1
    50ed:	304420        	xor	a4, a4, a2
    50f0:	205342        	s16i	a4, a3, 64
    50f3:	3819a6        	blti	a9, 1, 512f <attack_detector_fx+0x2bf>
    50f6:	f47c           	movi.n	a4, -1
    50f8:	050c           	movi.n	a5, 0
    50fa:	78d772        	addmi	a7, a7, 0x7800
    50fd:	298976        	loop	a9, 512a <attack_detector_fx+0x2ba>
    5100:	0698           	l32i.n	a9, a6, 0
    5102:	e4a190        	extui	a10, a9, 1, 15
    5105:	31b090        	srai	a11, a9, 16
    5108:	d1aa70        	mul16s	a10, a10, a7
    510b:	d1bb70        	mul16s	a11, a11, a7
    510e:	41afa0        	srli	a10, a10, 15
    5111:	aaba           	add.n	a10, a10, a11
    5113:	21a2a0        	srai	a10, a10, 2
    5116:	04a8a7        	bge	a8, a10, 511e <attack_detector_fx+0x2ae>
    5119:	054d           	mov.n	a4, a5
    511b:	205322        	s16i	a2, a3, 64
    511e:	218280        	srai	a8, a8, 2
    5121:	538890        	max	a8, a8, a9
    5124:	551b           	addi.n	a5, a5, 1
    5126:	664b           	addi.n	a6, a6, 4
    5128:	f389           	s32i.n	a8, a3, 60

0000512a <attack_detector_fx+0x2ba>:
    512a:	215342        	s16i	a4, a3, 66

0000512d <attack_detector_fx+0x2bd>:
    512d:	f01d           	retw.n

0000512f <attack_detector_fx+0x2bf>:
    512f:	f47c           	movi.n	a4, -1
    5131:	fffd46        	j	512a <attack_detector_fx+0x2ba>

00005134 <attack_detector_fx+0x2c4>:
    5134:	00000000                                ....

00005138 <processDetectCutoffWarped_fx>:
    5138:	00a136        	entry	a1, 80
    513b:	bf4c           	movi.n	a15, 75
    513d:	2139           	s32i.n	a3, a1, 8
    513f:	5129           	s32i.n	a2, a1, 20
    5141:	0f96f7        	bne	a6, a15, 5154 <processDetectCutoffWarped_fx+0x1c>
    5144:	ebcf31        	l32r	a3, 80 (b870 <BW_warp_idx_start_all_7_5ms>)
    5147:	ebcf61        	l32r	a6, 84 (b874 <BW_warp_idx_stop_all_7_5ms>)
    514a:	250b           	addi.n	a2, a5, -1
    514c:	0378           	l32i.n	a7, a3, 0
    514e:	ebcb31        	l32r	a3, 7c (b84c <BW_brickwall_dist_7_5ms>)
    5151:	000306        	j	5161 <processDetectCutoffWarped_fx+0x29>

00005154 <processDetectCutoffWarped_fx+0x1c>:
    5154:	ebc831        	l32r	a3, 74 (b844 <BW_warp_idx_start_all>)
    5157:	ebc861        	l32r	a6, 78 (b848 <BW_warp_idx_stop_all>)
    515a:	250b           	addi.n	a2, a5, -1
    515c:	0378           	l32i.n	a7, a3, 0
    515e:	ebc431        	l32r	a3, 70 (b820 <BW_brickwall_dist>)
    5161:	06b8           	l32i.n	a11, a6, 0
    5163:	21d8           	l32i.n	a13, a1, 8
    5165:	a08270        	addx4	a8, a2, a7
    5168:	a0f2b0        	addx4	a15, a2, a11
    516b:	08c8           	l32i.n	a12, a8, 0
    516d:	0338           	l32i.n	a3, a3, 0
    516f:	ed4b           	addi.n	a14, a13, 4
    5171:	0f28           	l32i.n	a2, a15, 0
    5173:	614b           	addi.n	a6, a1, 4
    5175:	31c9           	s32i.n	a12, a1, 12
    5177:	4139           	s32i.n	a3, a1, 16
    5179:	71e9           	s32i.n	a14, a1, 28
    517b:	8129           	s32i.n	a2, a1, 32
    517d:	6159           	s32i.n	a5, a1, 24
    517f:	057d           	mov.n	a7, a5
    5181:	0215e6        	bgei	a5, 1, 5187 <processDetectCutoffWarped_fx+0x4f>
    5184:	0022c6        	j	5213 <processDetectCutoffWarped_fx+0xdb>
    5187:	3128           	l32i.n	a2, a1, 12
    5189:	81d8           	l32i.n	a13, a1, 32
    518b:	370b           	addi.n	a3, a7, -1
    518d:	905320        	addx2	a5, a3, a2
    5190:	a139           	s32i.n	a3, a1, 40
    5192:	9023d0        	addx2	a2, a3, a13
    5195:	253d           	ae_l16si.n	a3, a5, 0
    5197:	21e8           	l32i.n	a14, a1, 8
    5199:	025142        	s16i	a4, a1, 4
    519c:	228d           	ae_l16si.n	a8, a2, 0
    519e:	a0f3e0        	addx4	a15, a3, a14
    51a1:	9159           	s32i.n	a5, a1, 36
    51a3:	0fc8           	l32i.n	a12, a15, 0
    51a5:	ec5d51        	l32r	a5, 31c (12f8 <BASOP_Util_Add_Mant32Exp>)
    51a8:	049d           	mov.n	a9, a4
    51aa:	b179           	s32i.n	a7, a1, 44
    51ac:	21a387        	bge	a3, a8, 51d1 <processDetectCutoffWarped_fx+0x99>
    51af:	7178           	l32i.n	a7, a1, 28
    51b1:	049d           	mov.n	a9, a4
    51b3:	a07370        	addx4	a7, a3, a7
    51b6:	07a8           	l32i.n	a10, a7, 0
    51b8:	89dd           	ae_sext16	a13, a9
    51ba:	04bd           	mov.n	a11, a4
    51bc:	06ed           	mov.n	a14, a6
    51be:	331b           	addi.n	a3, a3, 1
    51c0:	0005e0        	callx8	a5
    51c3:	428d           	ae_l16ui.n	a8, a2, 0
    51c5:	021192        	l16ui	a9, a1, 4
    51c8:	0acd           	mov.n	a12, a10
    51ca:	88fd           	ae_sext16	a15, a8
    51cc:	774b           	addi.n	a7, a7, 4
    51ce:	e423f7        	blt	a3, a15, 51b6 <processDetectCutoffWarped_fx+0x7e>
    51d1:	9128           	l32i.n	a2, a1, 36
    51d3:	ebf631        	l32r	a3, 1ac (ba6c <InvIntTable>)
    51d6:	eb9b51        	l32r	a5, 44 (b7cc <BW_thresh_quiet_exp>)
    51d9:	222d           	ae_l16si.n	a2, a2, 0
    51db:	0338           	l32i.n	a3, a3, 0
    51dd:	eba2f1        	l32r	a15, 68 (b818 <BW_thresh_quiet>)
    51e0:	c02820        	sub	a2, a8, a2
    51e3:	221b           	addi.n	a2, a2, 1
    51e5:	822d           	ae_sext16	a2, a2
    51e7:	902230        	addx2	a2, a2, a3
    51ea:	222d           	ae_l16si.n	a2, a2, 0
    51ec:	25bd           	ae_l16si.n	a11, a5, 0
    51ee:	0f38           	l32i.n	a3, a15, 0
    51f0:	a158           	l32i.n	a5, a1, 40
    51f2:	8272c0        	mull	a7, a2, a12
    51f5:	b222c0        	mulsh	a2, a2, a12
    51f8:	41cf70        	srli	a12, a7, 15
    51fb:	a03530        	addx4	a3, a5, a3
    51fe:	1be2c0        	depbits	a12, a2, 17, 15
    5201:	03a8           	l32i.n	a10, a3, 0
    5203:	ec4721        	l32r	a2, 320 (1364 <BASOP_Util_Cmp_Mant32Exp>)
    5206:	89dd           	ae_sext16	a13, a9
    5208:	0002e0        	callx8	a2
    520b:	b178           	l32i.n	a7, a1, 44
    520d:	021aa6        	blti	a10, 1, 5213 <processDetectCutoffWarped_fx+0xdb>
    5210:	ffdac6        	j	517f <processDetectCutoffWarped_fx+0x47>
    5213:	6188           	l32i.n	a8, a1, 24
    5215:	5198           	l32i.n	a9, a1, 20
    5217:	3148           	l32i.n	a4, a1, 12
    5219:	c02870        	sub	a2, a8, a7
    521c:	822d           	ae_sext16	a2, a2
    521e:	697d           	ae_s16i.n	a7, a9, 0
    5220:	5012a6        	blti	a2, 1, 5274 <processDetectCutoffWarped_fx+0x13c>
    5223:	4138           	l32i.n	a3, a1, 16
    5225:	902740        	addx2	a2, a7, a4
    5228:	222d           	ae_l16si.n	a2, a2, 0
    522a:	903730        	addx2	a3, a7, a3
    522d:	235d           	ae_l16si.n	a5, a3, 0
    522f:	221b           	addi.n	a2, a2, 1
    5231:	823d           	ae_sext16	a3, a2
    5233:	c02250        	sub	a2, a2, a5
    5236:	824d           	ae_sext16	a4, a2
    5238:	362347        	blt	a3, a4, 5272 <processDetectCutoffWarped_fx+0x13a>
    523b:	eb8c61        	l32r	a6, 6c (b81c <BW_thresh_brickwall>)
    523e:	2128           	l32i.n	a2, a1, 8
    5240:	c04340        	sub	a4, a3, a4
    5243:	0668           	l32i.n	a6, a6, 0
    5245:	1155e0        	slli	a5, a5, 2
    5248:	f41b           	addi.n	a15, a4, 1
    524a:	90e760        	addx2	a14, a7, a6
    524d:	4e6d           	ae_l16ui.n	a6, a14, 0
    524f:	a02320        	addx4	a2, a3, a2
    5252:	603050        	neg	a3, a5
    5255:	864d           	ae_sext16	a4, a6
    5257:	178f76        	loop	a15, 5272 <processDetectCutoffWarped_fx+0x13a>
    525a:	523a           	add.n	a5, a2, a3
    525c:	0558           	l32i.n	a5, a5, 0
    525e:	0268           	l32i.n	a6, a2, 0
    5260:	fcc222        	addi	a2, a2, -4
    5263:	827450        	mull	a7, a4, a5
    5266:	b25450        	mulsh	a5, a4, a5
    5269:	417f70        	srli	a7, a7, 15
    526c:	1be570        	depbits	a7, a5, 17, 15
    526f:	012677        	blt	a6, a7, 5274 <processDetectCutoffWarped_fx+0x13c>

00005272 <processDetectCutoffWarped_fx+0x13a>:
    5272:	698d           	ae_s16i.n	a8, a9, 0

00005274 <processDetectCutoffWarped_fx+0x13c>:
    5274:	f01d           	retw.n

00005276 <processDetectCutoffWarped_fx+0x13e>:
	...

00005278 <processEstimateGlobalGain_fx>:
    5278:	00e136        	entry	a1, 112
    527b:	2021d2        	l32i	a13, a1, 128
    527e:	106162        	s32i	a6, a1, 64
    5281:	1f2162        	l32i	a6, a1, 124
    5284:	2dcd           	ae_l16si.n	a12, a13, 0
    5286:	66a0b2        	movi	a11, 102
    5289:	212182        	l32i	a8, a1, 132
    528c:	03fc96        	bltz	a12, 52cf <processEstimateGlobalGain_fx+0x57>
    528f:	06a8           	l32i.n	a10, a6, 0
    5291:	66dbb2        	addmi	a11, a11, 0x6600
    5294:	c0cc80        	sub	a12, a12, a8
    5297:	82eab0        	mull	a14, a10, a11
    529a:	b2bab0        	mulsh	a11, a10, a11
    529d:	418fe0        	srli	a8, a14, 15
    52a0:	11cc00        	slli	a12, a12, 16
    52a3:	bf7c           	movi.n	a15, -5
    52a5:	1beb80        	depbits	a8, a11, 17, 15
    52a8:	01bfd0        	slli	a11, a15, 19
    52ab:	caca           	add.n	a12, a10, a12
    52ad:	5e0c           	movi.n	a14, 5
    52af:	01aed0        	slli	a10, a14, 19
    52b2:	53cbc0        	max	a12, a11, a12
    52b5:	9aa0f2        	movi	a15, 154
    52b8:	19dfb2        	addmi	a11, a15, 0x1900
    52bb:	43cac0        	min	a12, a10, a12
    52be:	82acb0        	mull	a10, a12, a11
    52c1:	b2bcb0        	mulsh	a11, a12, a11
    52c4:	41afa0        	srli	a10, a10, 15
    52c7:	1beba0        	depbits	a10, a11, 17, 15
    52ca:	8a8a           	add.n	a8, a10, a8
    52cc:	000046        	j	52d1 <processEstimateGlobalGain_fx+0x59>

000052cf <processEstimateGlobalGain_fx+0x57>:
    52cf:	080c           	movi.n	a8, 0
    52d1:	360834        	ae_cvtq48a32s	aeq0, a8
    52d4:	f863b1e1be 	{ l32i	a11, a1, 120; ae_roundsp16q48asym	aep0, aeq0 }
    52d9:	1d21e2        	l32i	a14, a1, 116
    52dc:	1c21c2        	l32i	a12, a1, 112
    52df:	0689           	s32i.n	a8, a6, 0
    52e1:	6d5d           	ae_s16i.n	a5, a13, 0
    52e3:	420164        	ae_sp16f.l.i	aep0, a1, 12
    52e6:	61cb           	addi.n	a6, a1, 12
    52e8:	0244e6        	bgei	a4, 4, 52ee <processEstimateGlobalGain_fx+0x76>
    52eb:	009986        	j	5555 <processEstimateGlobalGain_fx+0x2dd>
    52ee:	c1d9           	s32i.n	a13, a1, 48
    52f0:	eba4d1        	l32r	a13, 180 (ba40 <ldCoeff>)
    52f3:	e1b9           	s32i.n	a11, a1, 56
    52f5:	f179           	s32i.n	a7, a1, 60
    52f7:	069172        	l16si	a7, a1, 12
    52fa:	7ea7b2        	movi	a11, 0x77e
    52fd:	21f240        	srai	a15, a4, 2
    5300:	b1e9           	s32i.n	a14, a1, 44
    5302:	d1c9           	s32i.n	a12, a1, 52
    5304:	2221e2        	l32i	a14, a1, 136
    5307:	b04bb0        	addx8	a4, a11, a11
    530a:	fc7c           	movi.n	a12, -1
    530c:	ec0691        	l32r	a9, 324 (9cccd <_end+0x911e5>)
    530f:	180c           	movi.n	a8, 1
    5311:	41b1c0        	srli	a11, a12, 1
    5314:	aaa0a2        	movi	a10, 170
    5317:	300444        	ae_cvtp24a16x2.ll	aep0, a4, a4
    531a:	f47c           	movi.n	a4, -1
    531c:	0dd8           	l32i.n	a13, a13, 0
    531e:	38dac2        	addmi	a12, a10, 0x3800
    5321:	360834        	ae_cvtq48a32s	aeq0, a8
    5324:	364934        	ae_cvtq48a32s	aeq1, a9
    5327:	019410        	slli	a9, a4, 31
    532a:	368b34        	ae_cvtq48a32s	aeq2, a11
    532d:	f42c           	movi.n	a4, 47
    532f:	775a           	add.n	a7, a7, a5
    5331:	301cc4        	ae_cvtp24a16x2.ll	aep1, a12, a12
    5334:	1361e2        	s32i	a14, a1, 76
    5337:	60d204        	ae_lq32f.iu	aeq3, a2, 0
    533a:	630124        	ae_sq56s.i	aeq0, a1, 16
    533d:	0a0c           	movi.n	a10, 0
    533f:	1da082        	movi	a8, 29
    5342:	631144        	ae_sq56s.i	aeq1, a1, 32
    5345:	fe84ba213f 	{ ae_sq56s.i	aeq2, a1, 24; ae_absq56	aeq2, aeq3 }
    534a:	11b400        	slli	a11, a4, 16
    534d:	1aa0c2        	movi	a12, 26
    5350:	fccee2        	addi	a14, a14, -4
    5353:	126172        	s32i	a7, a1, 72
    5356:	1161f2        	s32i	a15, a1, 68
    5359:	f48f76        	loop	a15, 5451 <processEstimateGlobalGain_fx+0x1d9>
    535c:	601214        	ae_lq32f.iu	aeq0, a2, 4
    535f:	fc00bd721f 	{ ae_lq32f.iu	aeq3, a2, 4; ae_absq56	aeq0, aeq0 }
    5364:	f8e33d521f 	{ ae_lq32f.iu	aeq2, a2, 4; ae_maxq56s	aeq0, aeq2, aeq0 }
    5369:	065b64        	ae_absq56	aeq1, aeq3
    536c:	0110c4        	ae_maxq56s	aeq0, aeq0, aeq1
    536f:	065a64        	ae_absq56	aeq1, aeq2
    5372:	f86b3d32df 	{ ae_lq32f.iu	aeq1, a2, -12; ae_maxq56s	aeq0, aeq0, aeq1 }
    5377:	364404        	ae_nsaq56s	a4, aeq0
    537a:	368f04        	ae_trunca32q48	a15, aeq0
    537d:	601214        	ae_lq32f.iu	aeq0, a2, 4
    5380:	f6c442        	addi	a4, a4, -10
    5383:	114400        	slli	a4, a4, 16
    5386:	315040        	srai	a5, a4, 16
    5389:	8358f0        	moveqz	a5, a8, a15
    538c:	fc24fe954f 	{ ae_slaasq56s	aeq1, aeq1, a5; nop }
    5391:	fc24fe850f 	{ ae_slaasq56s	aeq0, aeq0, a5; nop }
    5396:	f94a7eb5cf 	{ ae_slaasq56s	aeq3, aeq3, a5; ae_truncp24q48x2	aep3, aeq1, aeq0 }
    539b:	fc24fea58f 	{ ae_slaasq56s	aeq2, aeq2, a5; nop }
    53a0:	f9da3d812f 	{ ae_lq56.i	aeq0, a1, 16; ae_truncp24q48x2	aep2, aeq3, aeq2 }
    53a5:	052204        	ae_mulaafp24s.hh.ll	aeq0, aep2, aep2
    53a8:	e26c3da13f 	{ ae_lq56.i	aeq1, a1, 24; ae_mulaafp24s.hh.ll	aeq0, aep3, aep3 }
    53ad:	364704        	ae_nsaq56s	a7, aeq0
    53b0:	f8c742        	addi	a4, a7, -8
    53b3:	117400        	slli	a7, a4, 16
    53b6:	094d           	mov.n	a4, a9
    53b8:	5217b7        	beq	a7, a11, 540e <processEstimateGlobalGain_fx+0x196>
    53bb:	314070        	srai	a4, a7, 16
    53be:	fc24fe840f 	{ ae_slaasq56s	aeq0, aeq0, a4; nop }
    53c3:	f82ad34ddf 	{ or	a4, a13, a13; ae_subq56	aeq0, aeq1, aeq0 }
    53c8:	f9422db40f 	{ ae_lp16x2f.iu	aep3, a4, 0; ae_truncp24q48x2	aep2, aeq0, aeq0 }
    53cd:	ea4b2dd41f 	{ ae_lp16x2f.iu	aep5, a4, 4; ae_mulfs32p16s.ll	aeq0, aep2, aep2 }
    53d2:	e968ade41f 	{ ae_lp16x2f.iu	aep6, a4, 4; ae_mulfp24s.hh	aeq2, aep2, aep3 }
    53d7:	d4ea6df41f 	{ ae_lp16x2f.iu	aep7, a4, 4; ae_mulfq32sp16s.l	aeq1, aeq0, aep2 }
    53dc:	03b014        	ae_mulafq32sp16s.l	aeq2, aeq0, aep3
    53df:	03aa54        	ae_mulfq32sp16s.l	aeq3, aeq1, aep2
    53e2:	03d044        	ae_mulafq32sp16s.h	aeq2, aeq1, aep5
    53e5:	032ad4        	ae_mulfq32sp16s.l	aeq1, aeq3, aep2
    53e8:	03d0d4        	ae_mulafq32sp16s.l	aeq2, aeq3, aep5
    53eb:	03aa54        	ae_mulfq32sp16s.l	aeq3, aeq1, aep2
    53ee:	03e044        	ae_mulafq32sp16s.h	aeq2, aeq1, aep6
    53f1:	0322d4        	ae_mulfq32sp16s.l	aeq0, aeq3, aep2
    53f4:	03e0d4        	ae_mulafq32sp16s.l	aeq2, aeq3, aep6
    53f7:	03f004        	ae_mulafq32sp16s.h	aeq2, aeq0, aep7
    53fa:	117770        	slli	a7, a7, 9
    53fd:	f9d23b201f 	{ ae_sraiq56	aeq0, aeq2, 1; ae_truncp24q48x2	aep2, aeq2, aeq2 }
    5402:	022104        	ae_mulap24s.hh	aeq0, aep2, aep1
    5405:	368404        	ae_trunca32q48	a4, aeq0
    5408:	214540        	srai	a4, a4, 5
    540b:	c04470        	sub	a4, a4, a7
    540e:	c05350        	sub	a5, a3, a5
    5411:	3159           	s32i.n	a5, a1, 12
    5413:	600604        	ae_lq32f.i	aeq0, a6, 0
    5416:	fc24fe8c0f 	{ ae_slaasq56s	aeq0, aeq0, a12; nop }
    541b:	fc00d4314f 	{ s32i.n	a4, a1, 12; ae_satq48s	aeq0, aeq0 }
    5420:	368704        	ae_trunca32q48	a7, aeq0
    5423:	28c152        	addi	a5, a1, 40
    5426:	a179           	s32i.n	a7, a1, 40
    5428:	608604        	ae_lq32f.i	aeq2, a6, 0
    542b:	604504        	ae_lq32f.i	aeq1, a5, 0
    542e:	f8767de14f 	{ ae_lq56.i	aeq3, a1, 32; ae_addsq56s	aeq0, aeq2, aeq1 }
    5433:	060844        	ae_satq48s	aeq0, aeq0
    5436:	368704        	ae_trunca32q48	a7, aeq0
    5439:	360734        	ae_cvtq48a32s	aeq0, a7
    543c:	030214        	ae_mulfq32sp16s.l	aeq0, aeq0, aep0
    543f:	53aaf0        	max	a10, a10, a15
    5442:	3501b4        	ae_sraiq56	aeq0, aeq0, 6
    5445:	010bc4        	ae_addq56	aeq0, aeq0, aeq3
    5448:	624e14        	ae_sq32f.iu	aeq0, a14, 4
    544b:	60d234        	ae_lq32f.iu	aeq3, a2, 12
    544e:	069b64        	ae_absq56	aeq2, aeq3

00005451 <processEstimateGlobalGain_fx+0x1d9>:
    5451:	f178           	l32i.n	a7, a1, 60
    5453:	c1d8           	l32i.n	a13, a1, 48
    5455:	e1b8           	l32i.n	a11, a1, 56
    5457:	d1c8           	l32i.n	a12, a1, 52
    5459:	b1e8           	l32i.n	a14, a1, 44
    545b:	0f6a16        	beqz	a10, 5555 <processEstimateGlobalGain_fx+0x2dd>
    545e:	ebb221        	l32r	a2, 328 (c30 <BASOP_Util_Log2>)
    5461:	0b4d           	mov.n	a4, a11
    5463:	0002e0        	callx8	a2
    5466:	122152        	l32i	a5, a1, 72
    5469:	012370        	slli	a2, a3, 25
    546c:	ebb031        	l32r	a3, 32c (436e439a <_end+0x436d88b2>)
    546f:	ebb2d1        	l32r	a13, 338 (fffe0a3c <_end+0xfffd4f54>)
    5472:	85bd           	ae_sext16	a11, a5
    5474:	aa2a           	add.n	a10, a10, a2
    5476:	82bbd0        	mull	a11, a11, a13
    5479:	b2da30        	mulsh	a13, a10, a3
    547c:	823a30        	mull	a3, a10, a3
    547f:	ebace1        	l32r	a14, 330 (f0523471 <_end+0xf0517989>)
    5482:	1121f2        	l32i	a15, a1, 68
    5485:	132182        	l32i	a8, a1, 76
    5488:	053f30        	extui	a3, a3, 31, 1
    548b:	ebaac1        	l32r	a12, 334 (3c7ae <_end+0x30cc6>)
    548e:	ffa072        	movi	a7, 255
    5491:	903d30        	addx2	a3, a13, a3
    5494:	360c34        	ae_cvtq48a32s	aeq0, a12
    5497:	fc7c           	movi.n	a12, -1
    5499:	33ea           	add.n	a3, a3, a14
    549b:	a0ff80        	addx4	a15, a15, a8
    549e:	f420c0        	extui	a2, a12, 0, 16
    54a1:	3c2c           	movi.n	a12, 35
    54a3:	ddafa2        	movi	a10, -35
    54a6:	747a           	add.n	a7, a4, a7
    54a8:	190c           	movi.n	a9, 1
    54aa:	01dcf0        	slli	a13, a12, 17
    54ad:	04cd           	mov.n	a12, a4
    54af:	01eaf0        	slli	a14, a10, 17
    54b2:	fccfa2        	addi	a10, a15, -4
    54b5:	874d           	ae_sext16	a4, a7
    54b7:	313530        	srai	a3, a3, 21
    54ba:	b1f8           	l32i.n	a15, a1, 44
    54bc:	434430        	min	a4, a4, a3
    54bf:	015980        	slli	a5, a9, 24
    54c2:	eb9e91        	l32r	a9, 33c (9cccc <_end+0x911e4>)
    54c5:	534c40        	max	a4, a12, a4
    54c8:	fd2480088f 	{ movi	a8, 8; ae_zeroq56	aeq1 }
    54cd:	113700        	slli	a3, a7, 16
    54d0:	4149           	s32i.n	a4, a1, 16
    54d2:	6f4d           	ae_s16i.n	a4, a15, 0

000054d4 <processEstimateGlobalGain_fx+0x25c>:
    54d4:	1121c2        	l32i	a12, a1, 68
    54d7:	215150        	srai	a5, a5, 1
    54da:	20faa0        	or	a15, a10, a10
    54dd:	c07350        	sub	a7, a3, a5
    54e0:	01a042        	movi	a4, 1
    54e3:	60df04        	ae_lq32f.iu	aeq3, a15, 0
    54e6:	368734        	ae_cvtq48a32s	aeq2, a7
    54e9:	268c76        	loop	a12, 5513 <processEstimateGlobalGain_fx+0x29b>
    54ec:	01fec4        	ae_subq56	aeq3, aeq3, aeq2
    54ef:	36bc04        	ae_trunca32q48	a12, aeq3
    54f2:	0a29c7        	blt	a9, a12, 5500 <processEstimateGlobalGain_fx+0x288>
    54f5:	178247        	bany	a2, a4, 5510 <processEstimateGlobalGain_fx+0x298>
    54f8:	f96a00004f 	{ movi	a4, 0; ae_addq56	aeq1, aeq1, aeq0 }
    54fd:	0003c6        	j	5510 <processEstimateGlobalGain_fx+0x298>

00005500 <processEstimateGlobalGain_fx+0x288>:
    5500:	f9ee00004f 	{ movi	a4, 0; ae_addq56	aeq1, aeq1, aeq3 }
    5505:	072cd7        	blt	a12, a13, 5510 <processEstimateGlobalGain_fx+0x298>
    5508:	ccea           	add.n	a12, a12, a14
    550a:	36cc34        	ae_cvtq48a32s	aeq3, a12
    550d:	015bc4        	ae_addq56	aeq1, aeq1, aeq3
    5510:	60dff4        	ae_lq32f.iu	aeq3, a15, -4

00005513 <processEstimateGlobalGain_fx+0x29b>:
    5513:	fd24bf1cef 	{ ae_trunca32q48	a12, aeq1; ae_zeroq56	aeq1 }
    5518:	0f0c           	movi.n	a15, 0
    551a:	933740        	movnez	a3, a7, a4
    551d:	ccba           	add.n	a12, a12, a11
    551f:	724fc0        	salt	a4, a15, a12
    5522:	880b           	addi.n	a8, a8, -1
    5524:	833740        	moveqz	a3, a7, a4
    5527:	fa9856        	bnez	a8, 54d4 <processEstimateGlobalGain_fx+0x25c>
    552a:	4188           	l32i.n	a8, a1, 16
    552c:	f54030        	extui	a4, a3, 16, 16
    552f:	f178           	l32i.n	a7, a1, 60
    5531:	c04480        	sub	a4, a4, a8
    5534:	d158           	l32i.n	a5, a1, 52
    5536:	844d           	ae_sext16	a4, a4
    5538:	0074d6        	bgez	a4, 5543 <processEstimateGlobalGain_fx+0x2cb>
    553b:	c148           	l32i.n	a4, a1, 48
    553d:	b1f8           	l32i.n	a15, a1, 44
    553f:	642d           	ae_s16i.n	a2, a4, 0
    5541:	4f8d           	ae_l16ui.n	a8, a15, 0

00005543 <processEstimateGlobalGain_fx+0x2cb>:
    5543:	e1b8           	l32i.n	a11, a1, 56
    5545:	882d           	ae_sext16	a2, a8
    5547:	313030        	srai	a3, a3, 16
    554a:	532230        	max	a2, a2, a3
    554d:	c022b0        	sub	a2, a2, a11
    5550:	652d           	ae_s16i.n	a2, a5, 0
    5552:	000386        	j	5564 <processEstimateGlobalGain_fx+0x2ec>

00005555 <processEstimateGlobalGain_fx+0x2dd>:
    5555:	f37c           	movi.n	a3, -1
    5557:	020c           	movi.n	a2, 0
    5559:	f43030        	extui	a3, a3, 0, 16
    555c:	6ebd           	ae_s16i.n	a11, a14, 0
    555e:	6c2d           	ae_s16i.n	a2, a12, 0
    5560:	6d3d           	ae_s16i.n	a3, a13, 0
    5562:	4c2d           	ae_l16ui.n	a2, a12, 0
    5564:	eb5131        	l32r	a3, 2a8 (3cbe80 <_end+0x3c0398>)
    5567:	22ba           	add.n	a2, a2, a11
    5569:	822d           	ae_sext16	a2, a2
    556b:	822230        	mull	a2, a2, a3
    556e:	ff7c           	movi.n	a15, -1
    5570:	013f70        	slli	a3, a15, 25
    5573:	20a230        	or	a10, a2, a3
    5576:	312920        	srai	a2, a2, 25
    5579:	221b           	addi.n	a2, a2, 1
    557b:	672d           	ae_s16i.n	a2, a7, 0
    557d:	eb4b21        	l32r	a2, 2ac (cdc <BASOP_Util_InvLog2>)
    5580:	102142        	l32i	a4, a1, 64
    5583:	0002e0        	callx8	a2
    5586:	360a34        	ae_cvtq48a32s	aeq0, a10
    5589:	1b8f04        	ae_roundsp16q48asym	aep0, aeq0
    558c:	420604        	ae_sp16f.l.i	aep0, a6, 0
    558f:	069122        	l16si	a2, a1, 12
    5592:	642d           	ae_s16i.n	a2, a4, 0
    5594:	f01d           	retw.n

00005596 <processEstimateGlobalGain_fx+0x31e>:
	...

00005598 <processLevinson_fx>:
    5598:	00a136        	entry	a1, 80
    559b:	1e0c           	movi.n	a14, 1
    559d:	5179           	s32i.n	a7, a1, 20
    559f:	017e50        	slli	a7, a14, 27
    55a2:	0398           	l32i.n	a9, a3, 0
    55a4:	0279           	s32i.n	a7, a2, 0
    55a6:	03c8           	l32i.n	a12, a3, 0
    55a8:	eb6671        	l32r	a7, 340 (3fff0000 <_end+0x3ffe4518>)
    55ab:	ff7c           	movi.n	a15, -1
    55ad:	3129           	s32i.n	a2, a1, 12
    55af:	112f00        	slli	a2, a15, 16
    55b2:	6169           	s32i.n	a6, a1, 24
    55b4:	fc8c           	beqz.n	a12, 55c7 <processLevinson_fx+0x2f>
    55b6:	102c20        	and	a2, a12, a2
    55b9:	119277        	bne	a2, a7, 55ce <processLevinson_fx+0x36>
    55bc:	ffa062        	movi	a6, 255
    55bf:	7fd662        	addmi	a6, a6, 0x7f00
    55c2:	070c           	movi.n	a7, 0
    55c4:	000506        	j	55dc <processLevinson_fx+0x44>

000055c7 <processLevinson_fx+0x2f>:
    55c7:	1328           	l32i.n	a2, a3, 4
    55c9:	060c           	movi.n	a6, 0
    55cb:	0016c6        	j	562a <processLevinson_fx+0x92>

000055ce <processLevinson_fx+0x36>:
    55ce:	eb5d21        	l32r	a2, 344 (1fff8000 <_end+0x1ffec518>)
    55d1:	3160c0        	srai	a6, a12, 16
    55d4:	d22260        	quos	a2, a2, a6
    55d7:	826d           	ae_sext16	a6, a2
    55d9:	317f60        	srai	a7, a6, 31
    55dc:	318fc0        	srai	a8, a12, 31
    55df:	a2a6c0        	muluh	a10, a6, a12
    55e2:	82b7c0        	mull	a11, a7, a12
    55e5:	82f6c0        	mull	a15, a6, a12
    55e8:	828680        	mull	a8, a6, a8
    55eb:	aaba           	add.n	a10, a10, a11
    55ed:	41cff0        	srli	a12, a15, 15
    55f0:	88aa           	add.n	a8, a8, a10
    55f2:	fd7c           	movi.n	a13, -1
    55f4:	1be8c0        	depbits	a12, a8, 17, 15
    55f7:	4181d0        	srli	a8, a13, 1
    55fa:	c0c8c0        	sub	a12, a8, a12
    55fd:	318fc0        	srai	a8, a12, 31
    5600:	a2e6c0        	muluh	a14, a6, a12
    5603:	82f7c0        	mull	a15, a7, a12
    5606:	1328           	l32i.n	a2, a3, 4
    5608:	82c6c0        	mull	a12, a6, a12
    560b:	82d680        	mull	a13, a6, a8
    560e:	7efa           	add.n	a7, a14, a15
    5610:	41efc0        	srli	a14, a12, 15
    5613:	6d7a           	add.n	a6, a13, a7
    5615:	60b120        	abs	a11, a2
    5618:	1be6e0        	depbits	a14, a6, 17, 15
    561b:	826be0        	mull	a6, a11, a14
    561e:	b2fbe0        	mulsh	a15, a11, a14
    5621:	056f60        	extui	a6, a6, 31, 1
    5624:	1166e0        	slli	a6, a6, 2
    5627:	b06f60        	addx8	a6, a15, a6
    562a:	0c0c           	movi.n	a12, 0
    562c:	607060        	neg	a7, a6
    562f:	722c20        	salt	a2, a12, a2
    5632:	837620        	moveqz	a7, a6, a2
    5635:	c58c           	beqz.n	a5, 5645 <processLevinson_fx+0xad>
    5637:	360734        	ae_cvtq48a32s	aeq0, a7
    563a:	1b8f04        	ae_roundsp16q48asym	aep0, aeq0
    563d:	420144        	ae_sp16f.l.i	aep0, a1, 8
    5640:	049122        	l16si	a2, a1, 8
    5643:	652d           	ae_s16i.n	a2, a5, 0
    5645:	31f8           	l32i.n	a15, a1, 12
    5647:	212470        	srai	a2, a7, 4
    564a:	4159           	s32i.n	a5, a1, 16
    564c:	1f29           	s32i.n	a2, a15, 4
    564e:	3924e6        	bgei	a4, 2, 568b <processLevinson_fx+0xf3>
    5651:	6148           	l32i.n	a4, a1, 24
    5653:	82e770        	mull	a14, a7, a7
    5656:	6020c0        	neg	a2, a12
    5659:	c4ac           	beqz.n	a4, 5689 <processLevinson_fx+0xf1>
    565b:	b23770        	mulsh	a3, a7, a7
    565e:	401200        	ssl	a2
    5661:	052fe0        	extui	a2, a14, 31, 1
    5664:	ff7c           	movi.n	a15, -1
    5666:	902320        	addx2	a2, a3, a2
    5669:	4131f0        	srli	a3, a15, 1
    566c:	c02320        	sub	a2, a3, a2
    566f:	823920        	mull	a3, a9, a2
    5672:	b22920        	mulsh	a2, a9, a2
    5675:	053f30        	extui	a3, a3, 31, 1
    5678:	902230        	addx2	a2, a2, a3
    567b:	a13200        	sll	a3, a2
    567e:	400c00        	ssr	a12
    5681:	b12020        	sra	a2, a2
    5684:	a323c0        	movltz	a2, a3, a12
    5687:	0429           	s32i.n	a2, a4, 0
    5689:	f01d           	retw.n

0000568b <processLevinson_fx+0xf3>:
    568b:	234b           	addi.n	a2, a3, 4
    568d:	a129           	s32i.n	a2, a1, 40
    568f:	3128           	l32i.n	a2, a1, 12
    5691:	51e8           	l32i.n	a14, a1, 20
    5693:	41f8           	l32i.n	a15, a1, 16
    5695:	944d           	ae_zext16	a4, a4
    5697:	524b           	addi.n	a5, a2, 4
    5699:	8149           	s32i.n	a4, a1, 32
    569b:	4e4b           	addi.n	a4, a14, 4
    569d:	9159           	s32i.n	a5, a1, 36
    569f:	7149           	s32i.n	a4, a1, 28
    56a1:	338b           	addi.n	a3, a3, 8
    56a3:	af2b           	addi.n	a10, a15, 2
    56a5:	160c           	movi.n	a6, 1
    56a7:	4b0c           	movi.n	a11, 4
    56a9:	0c0c           	movi.n	a12, 0
    56ab:	001486        	j	5701 <processLevinson_fx+0x169>

000056ae <processLevinson_fx+0x116>:
	...

000056b0 <processLevinson_fx+0x118>:
    56b0:	360734        	ae_cvtq48a32s	aeq0, a7
    56b3:	91e8           	l32i.n	a14, a1, 36
    56b5:	51f8           	l32i.n	a15, a1, 20
    56b7:	4142b0        	srli	a4, a11, 2
    56ba:	605e04        	ae_lq32f.iu	aeq1, a14, 0
    56bd:	178676        	loop	a6, 56d8 <processLevinson_fx+0x140>
    56c0:	038224        	ae_mulfq32sp16u.h	aeq2, aeq0, aep0
    56c3:	038a14        	ae_mulfq32sp16s.l	aeq3, aeq0, aep0
    56c6:	35a434        	ae_sraiq56	aeq2, aeq2, 16
    56c9:	01bac4        	ae_addq56	aeq2, aeq3, aeq2
    56cc:	015ac4        	ae_addq56	aeq1, aeq1, aeq2
    56cf:	625f14        	ae_sq32f.iu	aeq1, a15, 4
    56d2:	605e14        	ae_lq32f.iu	aeq1, a14, 4
    56d5:	4488f4        	ae_lp16x2f.iu	aep0, a8, -4

000056d8 <processLevinson_fx+0x140>:
    56d8:	072162        	l32i	a6, a1, 28
    56db:	032182        	l32i	a8, a1, 12
    56de:	448604        	ae_lp16x2f.iu	aep0, a6, 0
    56e1:	058476        	loop	a4, 56ea <processLevinson_fx+0x152>
    56e4:	468814        	ae_sp16x2f.iu	aep0, a8, 4
    56e7:	448614        	ae_lp16x2f.iu	aep0, a6, 4
    56ea:	214470        	srai	a4, a7, 4
    56ed:	81f8           	l32i.n	a15, a1, 32
    56ef:	2249           	s32i.n	a4, a2, 8
    56f1:	b128           	l32i.n	a2, a1, 44
    56f3:	bb4b           	addi.n	a11, a11, 4
    56f5:	334b           	addi.n	a3, a3, 4
    56f7:	aa2b           	addi.n	a10, a10, 2
    56f9:	0d6d           	mov.n	a6, a13
    56fb:	029fd7        	bne	a15, a13, 5701 <processLevinson_fx+0x169>
    56fe:	ffd3c6        	j	5651 <processLevinson_fx+0xb9>

00005701 <processLevinson_fx+0x169>:
    5701:	828770        	mull	a8, a7, a7
    5704:	b24770        	mulsh	a4, a7, a7
    5707:	f57c           	movi.n	a5, -1
    5709:	057f80        	extui	a7, a8, 31, 1
    570c:	904470        	addx2	a4, a4, a7
    570f:	415150        	srli	a5, a5, 1
    5712:	c04540        	sub	a4, a5, a4
    5715:	82d940        	mull	a13, a9, a4
    5718:	b24940        	mulsh	a4, a9, a4
    571b:	057fd0        	extui	a7, a13, 31, 1
    571e:	904470        	addx2	a4, a4, a7
    5721:	40e470        	nsa	a7, a4
    5724:	837440        	moveqz	a7, a4, a4
    5727:	878d           	ae_sext16	a8, a7
    5729:	60f080        	neg	a15, a8
    572c:	400f00        	ssr	a15
    572f:	b1d040        	sra	a13, a4
    5732:	401800        	ssl	a8
    5735:	a19400        	sll	a9, a4
    5738:	a148           	l32i.n	a4, a1, 40
    573a:	e24b           	addi.n	a14, a2, 4
    573c:	a39d80        	movltz	a9, a13, a8
    573f:	0e8d           	mov.n	a8, a14
    5741:	601404        	ae_lq32f.iu	aeq0, a4, 0
    5744:	448804        	ae_lp16x2f.iu	aep0, a8, 0
    5747:	d462c016de 	{ addi	a13, a6, 1; ae_mulfq32sp16u.h	aeq1, aeq0, aep0 }
    574c:	d4e214b1ef 	{ s32i.n	a14, a1, 44; ae_mulfq32sp16s.l	aeq0, aeq0, aep0 }
    5751:	355434        	ae_sraiq56	aeq1, aeq1, 16
    5754:	f866107c7f 	{ add	a7, a12, a7; ae_addq56	aeq0, aeq0, aeq1 }
    5759:	1f3db6        	bltui	a13, 3, 577c <processLevinson_fx+0x1e4>
    575c:	08cd           	mov.n	a12, a8
    575e:	e60b           	addi.n	a14, a6, -1
    5760:	605414        	ae_lq32f.iu	aeq1, a4, 4
    5763:	449cf4        	ae_lp16x2f.iu	aep1, a12, -4
    5766:	128e76        	loop	a14, 577c <processLevinson_fx+0x1e4>
    5769:	039264        	ae_mulfq32sp16u.h	aeq2, aeq1, aep1
    576c:	d5e77d341f 	{ ae_lq32f.iu	aeq1, a4, 4; ae_mulfq32sp16s.l	aeq3, aeq1, aep1 }
    5771:	35a434        	ae_sraiq56	aeq2, aeq2, 16
    5774:	fafa2d9cff 	{ ae_lp16x2f.iu	aep1, a12, -4; ae_addq56	aeq2, aeq3, aeq2 }
    5779:	010ac4        	ae_addq56	aeq0, aeq0, aeq2

0000577c <processLevinson_fx+0x1e4>:
    577c:	368404        	ae_trunca32q48	a4, aeq0
    577f:	03e8           	l32i.n	a14, a3, 0
    5781:	87cd           	ae_sext16	a12, a7
    5783:	1144c0        	slli	a4, a4, 4
    5786:	7e4a           	add.n	a7, a14, a4
    5788:	053916        	beqz	a9, 57df <processLevinson_fx+0x247>
    578b:	f47c           	movi.n	a4, -1
    578d:	eaec51        	l32r	a5, 340 (3fff0000 <_end+0x3ffe4518>)
    5790:	114400        	slli	a4, a4, 16
    5793:	10e940        	and	a14, a9, a4
    5796:	ffa0f2        	movi	a15, 255
    5799:	7fdf42        	addmi	a4, a15, 0x7f00
    579c:	081e57        	beq	a14, a5, 57a8 <processLevinson_fx+0x210>
    579f:	eae951        	l32r	a5, 344 (1fff8000 <_end+0x1ffec518>)
    57a2:	314090        	srai	a4, a9, 16
    57a5:	d24540        	quos	a4, a5, a4

000057a8 <processLevinson_fx+0x210>:
    57a8:	844d           	ae_sext16	a4, a4
    57aa:	82f490        	mull	a15, a4, a9
    57ad:	b25490        	mulsh	a5, a4, a9
    57b0:	41fff0        	srli	a15, a15, 15
    57b3:	1be5f0        	depbits	a15, a5, 17, 15
    57b6:	f57c           	movi.n	a5, -1
    57b8:	415150        	srli	a5, a5, 1
    57bb:	c055f0        	sub	a5, a5, a15
    57be:	82f540        	mull	a15, a5, a4
    57c1:	b24540        	mulsh	a4, a5, a4
    57c4:	41fff0        	srli	a15, a15, 15
    57c7:	60e170        	abs	a14, a7
    57ca:	1be4f0        	depbits	a15, a4, 17, 15
    57cd:	824ef0        	mull	a4, a14, a15
    57d0:	b25ef0        	mulsh	a5, a14, a15
    57d3:	054f40        	extui	a4, a4, 31, 1
    57d6:	1144e0        	slli	a4, a4, 2
    57d9:	b04540        	addx8	a4, a5, a4
    57dc:	000046        	j	57e1 <processLevinson_fx+0x249>

000057df <processLevinson_fx+0x247>:
    57df:	040c           	movi.n	a4, 0
    57e1:	0e0c           	movi.n	a14, 0
    57e3:	727e70        	salt	a7, a14, a7
    57e6:	605040        	neg	a5, a4
    57e9:	60e0c0        	neg	a14, a12
    57ec:	835470        	moveqz	a5, a4, a7
    57ef:	400e00        	ssr	a14
    57f2:	41f8           	l32i.n	a15, a1, 16
    57f4:	b14050        	sra	a4, a5
    57f7:	401c00        	ssl	a12
    57fa:	a17500        	sll	a7, a5
    57fd:	a374c0        	movltz	a7, a4, a12
    5800:	eacf16        	beqz	a15, 56b0 <processLevinson_fx+0x118>
    5803:	360734        	ae_cvtq48a32s	aeq0, a7
    5806:	1b8f14        	ae_roundsp16q48asym	aep1, aeq0
    5809:	421124        	ae_sp16f.l.i	aep1, a1, 4
    580c:	029142        	l16si	a4, a1, 4
    580f:	6a4d           	ae_s16i.n	a4, a10, 0
    5811:	ffa786        	j	56b3 <processLevinson_fx+0x11b>

00005814 <lpc2rc>:
    5814:	010136        	entry	a1, 128
    5817:	f18b           	addi.n	a15, a1, 8
    5819:	4139           	s32i.n	a3, a1, 16
    581b:	3129           	s32i.n	a2, a1, 12
    581d:	51f9           	s32i.n	a15, a1, 20
    581f:	0224e6        	bgei	a4, 2, 5825 <lpc2rc+0x11>
    5822:	003b06        	j	5912 <lpc2rc+0xfe>
    5825:	3158           	l32i.n	a5, a1, 12
    5827:	948d           	ae_zext16	a8, a4
    5829:	41f8           	l32i.n	a15, a1, 16
    582b:	280b           	addi.n	a2, a8, -1
    582d:	eac441        	l32r	a4, 340 (3fff0000 <_end+0x3ffe4518>)
    5830:	f37c           	movi.n	a3, -1
    5832:	ffa062        	movi	a6, 255
    5835:	e54b           	addi.n	a14, a5, 4
    5837:	34c1d2        	addi	a13, a1, 52
    583a:	11b2e0        	slli	a11, a2, 2
    583d:	413130        	srli	a3, a3, 1
    5840:	7fd662        	addmi	a6, a6, 0x7f00
    5843:	a0c250        	addx4	a12, a2, a5
    5846:	9072f0        	addx2	a7, a2, a15
    5849:	61b9           	s32i.n	a11, a1, 24
    584b:	71e9           	s32i.n	a14, a1, 28
    584d:	81d9           	s32i.n	a13, a1, 32

0000584f <lpc2rc+0x3b>:
    584f:	1ca8           	l32i.n	a10, a12, 4
    5851:	082d           	mov.n	a2, a8
    5853:	51b8           	l32i.n	a11, a1, 20
    5855:	118ac0        	slli	a8, a10, 4
    5858:	82a880        	mull	a10, a8, a8
    585b:	b29880        	mulsh	a9, a8, a8
    585e:	360834        	ae_cvtq48a32s	aeq0, a8
    5861:	05afa0        	extui	a10, a10, 31, 1
    5864:	f8639199af 	{ addx2	a9, a9, a10; ae_roundsp16q48asym	aep0, aeq0 }
    5869:	60a190        	abs	a10, a9
    586c:	520b           	addi.n	a5, a2, -1
    586e:	420b04        	ae_sp16f.l.i	aep0, a11, 0
    5871:	ff7c           	movi.n	a15, -1
    5873:	b159           	s32i.n	a5, a1, 44
    5875:	0491b2        	l16si	a11, a1, 8
    5878:	220b           	addi.n	a2, a2, -1
    587a:	c0a3a0        	sub	a10, a3, a10
    587d:	115f00        	slli	a5, a15, 16
    5880:	67bd           	ae_s16i.n	a11, a7, 0
    5882:	0e9d           	mov.n	a9, a14
    5884:	9179           	s32i.n	a7, a1, 36
    5886:	a1c9           	s32i.n	a12, a1, 40
    5888:	20bcc0        	or	a11, a12, a12
    588b:	10ca50        	and	a12, a10, a5
    588e:	31e0a0        	srai	a14, a10, 16
    5891:	528276        	loop	a2, 58e7 <lpc2rc+0xd3>
    5894:	0b28           	l32i.n	a2, a11, 0
    5896:	09f8           	l32i.n	a15, a9, 0
    5898:	eaab71        	l32r	a7, 344 (1fff8000 <_end+0x1ffec518>)
    589b:	825280        	mull	a5, a2, a8
    589e:	b22280        	mulsh	a2, a2, a8
    58a1:	055f50        	extui	a5, a5, 31, 1
    58a4:	905250        	addx2	a5, a2, a5
    58a7:	062d           	mov.n	a2, a6
    58a9:	c0ff50        	sub	a15, a15, a5
    58ac:	021c47        	beq	a12, a4, 58b2 <lpc2rc+0x9e>
    58af:	d227e0        	quos	a2, a7, a14
    58b2:	822d           	ae_sext16	a2, a2
    58b4:	8252a0        	mull	a5, a2, a10
    58b7:	b272a0        	mulsh	a7, a2, a10
    58ba:	415f50        	srli	a5, a5, 15
    58bd:	1be750        	depbits	a5, a7, 17, 15
    58c0:	c05350        	sub	a5, a3, a5
    58c3:	827520        	mull	a7, a5, a2
    58c6:	b22520        	mulsh	a2, a5, a2
    58c9:	417f70        	srli	a7, a7, 15
    58cc:	1be270        	depbits	a7, a2, 17, 15
    58cf:	822f70        	mull	a2, a15, a7
    58d2:	b25f70        	mulsh	a5, a15, a7
    58d5:	052f20        	extui	a2, a2, 31, 1
    58d8:	1122e0        	slli	a2, a2, 2
    58db:	b02520        	addx8	a2, a5, a2
    58de:	0d29           	s32i.n	a2, a13, 0
    58e0:	fccbb2        	addi	a11, a11, -4
    58e3:	994b           	addi.n	a9, a9, 4
    58e5:	dd4b           	addi.n	a13, a13, 4

000058e7 <lpc2rc+0xd3>:
    58e7:	8128           	l32i.n	a2, a1, 32
    58e9:	6178           	l32i.n	a7, a1, 24
    58eb:	71a8           	l32i.n	a10, a1, 28
    58ed:	ea6251        	l32r	a5, 278 (c14 <basop_memmove>)
    58f0:	02bd           	mov.n	a11, a2
    58f2:	07cd           	mov.n	a12, a7
    58f4:	0005e0        	callx8	a5
    58f7:	a1c8           	l32i.n	a12, a1, 40
    58f9:	91f8           	l32i.n	a15, a1, 36
    58fb:	b188           	l32i.n	a8, a1, 44
    58fd:	71e8           	l32i.n	a14, a1, 28
    58ff:	fcc772        	addi	a7, a7, -4
    5902:	6179           	s32i.n	a7, a1, 24
    5904:	02dd           	mov.n	a13, a2
    5906:	fcccc2        	addi	a12, a12, -4
    5909:	fecf72        	addi	a7, a15, -2
    590c:	0228a6        	blti	a8, 2, 5912 <lpc2rc+0xfe>
    590f:	ffcf06        	j	584f <lpc2rc+0x3b>

00005912 <lpc2rc+0xfe>:
    5912:	3128           	l32i.n	a2, a1, 12
    5914:	51f8           	l32i.n	a15, a1, 20
    5916:	4138           	l32i.n	a3, a1, 16
    5918:	1228           	l32i.n	a2, a2, 4
    591a:	1122c0        	slli	a2, a2, 4
    591d:	360234        	ae_cvtq48a32s	aeq0, a2
    5920:	1b8f04        	ae_roundsp16q48asym	aep0, aeq0
    5923:	420f04        	ae_sp16f.l.i	aep0, a15, 0
    5926:	049122        	l16si	a2, a1, 8
    5929:	632d           	ae_s16i.n	a2, a3, 0
    592b:	f01d           	retw.n

0000592d <lpc2rc+0x119>:
    592d:	000000                                        ...

00005930 <process_ltpf_coder_fx>:
    5930:	00e136        	entry	a1, 112
    5933:	1e21d2        	l32i	a13, a1, 120
    5936:	116142        	s32i	a4, a1, 68
    5939:	126132        	s32i	a3, a1, 72
    593c:	136122        	s32i	a2, a1, 76
    593f:	904760        	addx2	a4, a7, a6
    5942:	3d1b           	addi.n	a3, a13, 1
    5944:	1d21b2        	l32i	a11, a1, 116
    5947:	ea4c21        	l32r	a2, 278 (c14 <basop_memmove>)
    594a:	2121e2        	l32i	a14, a1, 132
    594d:	2421f2        	l32i	a15, a1, 144
    5950:	11c3f0        	slli	a12, a3, 1
    5953:	04ad           	mov.n	a10, a4
    5955:	81e9           	s32i.n	a14, a1, 32
    5957:	c1f9           	s32i.n	a15, a1, 48
    5959:	9199           	s32i.n	a9, a1, 36
    595b:	71d9           	s32i.n	a13, a1, 28
    595d:	0002e0        	callx8	a2
    5960:	ea3721        	l32r	a2, 23c (f0c <getScaleFactor16_0>)
    5963:	06ad           	mov.n	a10, a6
    5965:	07bd           	mov.n	a11, a7
    5967:	d169           	s32i.n	a6, a1, 52
    5969:	a179           	s32i.n	a7, a1, 40
    596b:	0002e0        	callx8	a2
    596e:	257d           	ae_l16si.n	a7, a5, 0
    5970:	026d           	mov.n	a6, a2
    5972:	fdca22        	addi	a2, a10, -3
    5975:	c07720        	sub	a7, a7, a2
    5978:	657d           	ae_s16i.n	a7, a5, 0
    597a:	837d           	ae_sext16	a7, a3
    597c:	04ad           	mov.n	a10, a4
    597e:	07bd           	mov.n	a11, a7
    5980:	0006e0        	callx8	a6
    5983:	c138           	l32i.n	a3, a1, 48
    5985:	256d           	ae_l16si.n	a6, a5, 0
    5987:	fdca92        	addi	a9, a10, -3
    598a:	c08390        	sub	a8, a3, a9
    598d:	c03680        	sub	a3, a6, a8
    5990:	836d           	ae_sext16	a6, a3
    5992:	b149           	s32i.n	a4, a1, 44
    5994:	1e16a6        	blti	a6, 1, 59b6 <process_ltpf_coder_fx+0x86>
    5997:	c03960        	sub	a3, a9, a6
    599a:	83cd           	ae_sext16	a12, a3
    599c:	ea2a31        	l32r	a3, 244 (1218 <Scale_sig>)
    599f:	04ad           	mov.n	a10, a4
    59a1:	07bd           	mov.n	a11, a7
    59a3:	0003e0        	callx8	a3
    59a6:	d178           	l32i.n	a7, a1, 52
    59a8:	a168           	l32i.n	a6, a1, 40
    59aa:	82cd           	ae_sext16	a12, a2
    59ac:	07ad           	mov.n	a10, a7
    59ae:	06bd           	mov.n	a11, a6
    59b0:	0003e0        	callx8	a3
    59b3:	000806        	j	59d7 <process_ltpf_coder_fx+0xa7>

000059b6 <process_ltpf_coder_fx+0x86>:
    59b6:	083d           	mov.n	a3, a8
    59b8:	ea2381        	l32r	a8, 244 (1218 <Scale_sig>)
    59bb:	04ad           	mov.n	a10, a4
    59bd:	89cd           	ae_sext16	a12, a9
    59bf:	07bd           	mov.n	a11, a7
    59c1:	084d           	mov.n	a4, a8
    59c3:	0008e0        	callx8	a8
    59c6:	262a           	add.n	a2, a6, a2
    59c8:	d178           	l32i.n	a7, a1, 52
    59ca:	a168           	l32i.n	a6, a1, 40
    59cc:	82cd           	ae_sext16	a12, a2
    59ce:	07ad           	mov.n	a10, a7
    59d0:	06bd           	mov.n	a11, a6
    59d2:	0004e0        	callx8	a4
    59d5:	653d           	ae_s16i.n	a3, a5, 0
    59d7:	81f8           	l32i.n	a15, a1, 32
    59d9:	423c           	movi.n	a2, 52
    59db:	b3d222        	addmi	a2, a2, 0xffffb300
    59de:	2f2a           	add.n	a2, a15, a2
    59e0:	9138           	l32i.n	a3, a1, 36
    59e2:	2321a2        	l32i	a10, a1, 140
    59e5:	2221b2        	l32i	a11, a1, 136
    59e8:	2021d2        	l32i	a13, a1, 128
    59eb:	1f21c2        	l32i	a12, a1, 124
    59ee:	1c21e2        	l32i	a14, a1, 112
    59f1:	822d           	ae_sext16	a2, a2
    59f3:	0212e6        	bgei	a2, 1, 59f9 <process_ltpf_coder_fx+0xc9>
    59f6:	003b06        	j	5ae6 <process_ltpf_coder_fx+0x1b6>
    59f9:	122132        	l32i	a3, a1, 72
    59fc:	e1e9           	s32i.n	a14, a1, 56
    59fe:	71e8           	l32i.n	a14, a1, 28
    5a00:	262182        	l32i	a8, a1, 152
    5a03:	fcc322        	addi	a2, a3, -4
    5a06:	434b           	addi.n	a4, a3, 4
    5a08:	f1d9           	s32i.n	a13, a1, 60
    5a0a:	1061c2        	s32i	a12, a1, 64
    5a0d:	0c2c           	movi.n	a12, 32
    5a0f:	822d           	ae_sext16	a2, a2
    5a11:	e4a0d2        	movi	a13, 228
    5a14:	84fd           	ae_sext16	a15, a4
    5a16:	5e6a           	add.n	a5, a14, a6
    5a18:	5332c0        	max	a3, a2, a12
    5a1b:	81b9           	s32i.n	a11, a1, 32
    5a1d:	c1a9           	s32i.n	a10, a1, 48
    5a1f:	439fd0        	min	a9, a15, a13
    5a22:	42c822        	addi	a2, a8, 66
    5a25:	1115a6        	blti	a5, 1, 5a3a <process_ltpf_coder_fx+0x10a>
    5a28:	02c742        	addi	a4, a7, 2
    5a2b:	206220        	or	a6, a2, a2
    5a2e:	408404        	ae_lp16f.iu	aep0, a4, 0
    5a31:	058576        	loop	a5, 5a3a <process_ltpf_coder_fx+0x10a>
    5a34:	428614        	ae_sp16f.l.iu	aep0, a6, 2
    5a37:	408414        	ae_lp16f.iu	aep0, a4, 2

00005a3a <process_ltpf_coder_fx+0x10a>:
    5a3a:	fc248fff5f 	{ movi	a5, -1; ae_zeroq56	aeq0 }
    5a3f:	fd0440016f 	{ movi	a6, 1; ae_movq56	aeq1, aeq0 }
    5a44:	114300        	slli	a4, a3, 16
    5a47:	0155e0        	slli	a5, a5, 18
    5a4a:	0166e0        	slli	a6, a6, 18
    5a4d:	11f900        	slli	a15, a9, 16
    5a50:	445a           	add.n	a4, a4, a5
    5a52:	5f6a           	add.n	a5, a15, a6
    5a54:	317040        	srai	a7, a4, 16
    5a57:	31a050        	srai	a10, a5, 16
    5a5a:	022a77        	blt	a10, a7, 5a60 <process_ltpf_coder_fx+0x130>
    5a5d:	002486        	j	5af3 <process_ltpf_coder_fx+0x1c3>

00005a60 <process_ltpf_coder_fx+0x130>:
    5a60:	2c2a77        	blt	a10, a7, 5a90 <process_ltpf_coder_fx+0x160>
    5a63:	365504        	ae_nsaq56s	a5, aeq1
    5a66:	369604        	ae_trunca32q48	a6, aeq1
    5a69:	c0aa70        	sub	a10, a10, a7
    5a6c:	38c552        	addi	a5, a5, 56
    5a6f:	115500        	slli	a5, a5, 16
    5a72:	204880        	or	a4, a8, a8
    5a75:	315050        	srai	a5, a5, 16
    5a78:	01caa2        	addi	a10, a10, 1
    5a7b:	605404        	ae_lq32f.iu	aeq1, a4, 0
    5a7e:	835660        	moveqz	a5, a6, a6
    5a81:	0b8a76        	loop	a10, 5a90 <process_ltpf_coder_fx+0x160>
    5a84:	345594        	ae_sllaq56	aeq1, aeq1, a5
    5a87:	1b9f04        	ae_roundsp16q48asym	aep0, aeq1
    5a8a:	428214        	ae_sp16f.l.iu	aep0, a2, 2
    5a8d:	605414        	ae_lq32f.iu	aeq1, a4, 4

00005a90 <process_ltpf_coder_fx+0x160>:
    5a90:	44c8a2        	addi	a10, a8, 68
    5a93:	032d           	mov.n	a2, a3
    5a95:	37a397        	bge	a3, a9, 5ad0 <process_ltpf_coder_fx+0x1a0>
    5a98:	c02370        	sub	a2, a3, a7
    5a9b:	1167f0        	slli	a6, a7, 1
    5a9e:	9022a0        	addx2	a2, a2, a10
    5aa1:	d0f360        	subx2	a15, a3, a6
    5aa4:	426d           	ae_l16ui.n	a6, a2, 0
    5aa6:	c0b930        	sub	a11, a9, a3
    5aa9:	9f8a           	add.n	a9, a15, a8
    5aab:	431b           	addi.n	a4, a3, 1
    5aad:	050c           	movi.n	a5, 0
    5aaf:	202330        	or	a2, a3, a3
    5ab2:	46c992        	addi	a9, a9, 70
    5ab5:	178b76        	loop	a11, 5ad0 <process_ltpf_coder_fx+0x1a0>
    5ab8:	29bd           	ae_l16si.n	a11, a9, 0
    5aba:	866d           	ae_sext16	a6, a6
    5abc:	992b           	addi.n	a9, a9, 2
    5abe:	c0cb60        	sub	a12, a11, a6
    5ac1:	acfd           	ae_clamps16	a15, a12
    5ac3:	5366b0        	max	a6, a6, a11
    5ac6:	8fbd           	ae_sext16	a11, a15
    5ac8:	72b5b0        	salt	a11, a5, a11
    5acb:	9324b0        	movnez	a2, a4, a11
    5ace:	441b           	addi.n	a4, a4, 1
    5ad0:	63af42        	movi	a4, -157
    5ad3:	424a           	add.n	a4, a2, a4
    5ad5:	844d           	ae_sext16	a4, a4
    5ad7:	090496        	bltz	a4, 5b6b <process_ltpf_coder_fx+0x23b>
    5ada:	b1c8           	l32i.n	a12, a1, 44
    5adc:	1ba132        	movi	a3, 0x11b
    5adf:	090c           	movi.n	a9, 0
    5ae1:	323a           	add.n	a3, a2, a3
    5ae3:	005ac6        	j	5c52 <process_ltpf_coder_fx+0x322>

00005ae6 <process_ltpf_coder_fx+0x1b6>:
    5ae6:	180c           	movi.n	a8, 1
    5ae8:	090c           	movi.n	a9, 0
    5aea:	040c           	movi.n	a4, 0
    5aec:	030c           	movi.n	a3, 0
    5aee:	070c           	movi.n	a7, 0
    5af0:	00e046        	j	5e75 <process_ltpf_coder_fx+0x545>

00005af3 <process_ltpf_coder_fx+0x1c3>:
    5af3:	7148           	l32i.n	a4, a1, 28
    5af5:	a168           	l32i.n	a6, a1, 40
    5af7:	11e7f0        	slli	a14, a7, 1
    5afa:	d1f8           	l32i.n	a15, a1, 52
    5afc:	21c140        	srai	a12, a4, 1
    5aff:	d046e0        	subx2	a4, a6, a14
    5b02:	fe2495567f 	{ sub	a5, a6, a7; ae_zeroq56	aeq2 }
    5b07:	448a           	add.n	a4, a4, a8
    5b09:	90e5f0        	addx2	a14, a5, a15
    5b0c:	fcc8b2        	addi	a11, a8, -4
    5b0f:	da1b           	addi.n	a13, a10, 1
    5b11:	07fd           	mov.n	a15, a7
    5b13:	42c452        	addi	a5, a4, 66
    5b16:	34ef07        	bbsi	a15, 0, 5b4e <process_ltpf_coder_fx+0x21e>
    5b19:	7148           	l32i.n	a4, a1, 28
    5b1b:	0e6d           	mov.n	a6, a14
    5b1d:	1224a6        	blti	a4, 2, 5b33 <process_ltpf_coder_fx+0x203>
    5b20:	b148           	l32i.n	a4, a1, 44
    5b22:	449604        	ae_lp16x2f.iu	aep1, a6, 0
    5b25:	448404        	ae_lp16x2f.iu	aep0, a4, 0
    5b28:	078c76        	loop	a12, 5b33 <process_ltpf_coder_fx+0x203>
    5b2b:	e320ad841f 	{ ae_lp16x2f.iu	aep0, a4, 4; ae_mulaap24s.hh.ll	aeq2, aep0, aep1 }
    5b30:	449614        	ae_lp16x2f.iu	aep1, a6, 4

00005b33 <process_ltpf_coder_fx+0x203>:
    5b33:	ff80801ffe 	{ addi	a15, a15, 1; ae_absq56	aeq3, aeq2 }
    5b38:	f97f39eb1f 	{ ae_sq32f.iu	aeq2, a11, 4; ae_maxq56s	aeq1, aeq1, aeq3 }
    5b3d:	fe248fe55e 	{ addi	a5, a5, -2; ae_zeroq56	aeq2 }
    5b42:	fecee2        	addi	a14, a14, -2
    5b45:	cd9df7        	bne	a13, a15, 5b16 <process_ltpf_coder_fx+0x1e6>
    5b48:	ffc506        	j	5a60 <process_ltpf_coder_fx+0x130>

00005b4b <process_ltpf_coder_fx+0x21b>:
    5b4b:	000000                                        ...

00005b4e <process_ltpf_coder_fx+0x21e>:
    5b4e:	7148           	l32i.n	a4, a1, 28
    5b50:	056d           	mov.n	a6, a5
    5b52:	dd24a6        	blti	a4, 2, 5b33 <process_ltpf_coder_fx+0x203>
    5b55:	b148           	l32i.n	a4, a1, 44
    5b57:	449604        	ae_lp16x2f.iu	aep1, a6, 0
    5b5a:	448404        	ae_lp16x2f.iu	aep0, a4, 0
    5b5d:	078c76        	loop	a12, 5b68 <process_ltpf_coder_fx+0x238>
    5b60:	e320ad841f 	{ ae_lp16x2f.iu	aep0, a4, 4; ae_mulaap24s.hh.ll	aeq2, aep0, aep1 }
    5b65:	449614        	ae_lp16x2f.iu	aep1, a6, 4

00005b68 <process_ltpf_coder_fx+0x238>:
    5b68:	fff1c6        	j	5b33 <process_ltpf_coder_fx+0x203>

00005b6b <process_ltpf_coder_fx+0x23b>:
    5b6b:	825d           	ae_sext16	a5, a2
    5b6d:	7ea042        	movi	a4, 126
    5b70:	7fa092        	movi	a9, 127
    5b73:	72c450        	salt	a12, a4, a5
    5b76:	933d           	ae_zext16	a3, a3
    5b78:	926d           	ae_zext16	a6, a2
    5b7a:	eb7c           	movi.n	a11, -2
    5b7c:	724590        	salt	a4, a5, a9
    5b7f:	c03630        	sub	a3, a6, a3
    5b82:	c09b40        	sub	a9, a11, a4
    5b85:	4f0c           	movi.n	a15, 4
    5b87:	933930        	movnez	a3, a9, a3
    5b8a:	400c00        	ssr	a12
    5b8d:	c06f30        	sub	a6, a15, a3
    5b90:	b1c060        	sra	a12, a6
    5b93:	021ce6        	bgei	a12, 1, 5b99 <process_ltpf_coder_fx+0x269>
    5b96:	002686        	j	5c34 <process_ltpf_coder_fx+0x304>
    5b99:	e95db1        	l32r	a11, 110 (b9b4 <ltpf_ac_interp_filt>)
    5b9c:	11f7f0        	slli	a15, a7, 1
    5b9f:	9055a0        	addx2	a5, a5, a10
    5ba2:	c0e5f0        	sub	a14, a5, a15
    5ba5:	0bf8           	l32i.n	a15, a11, 0
    5ba7:	260c           	movi.n	a6, 2
    5ba9:	471c           	movi.n	a7, 20
    5bab:	fd7c           	movi.n	a13, -1
    5bad:	937640        	movnez	a7, a6, a4
    5bb0:	c09640        	sub	a9, a6, a4
    5bb3:	014d10        	slli	a4, a13, 31
    5bb6:	b0d330        	addx8	a13, a3, a3
    5bb9:	364434        	ae_cvtq48a32s	aeq1, a4
    5bbc:	904df0        	addx2	a4, a13, a15
    5bbf:	f8cea2        	addi	a10, a14, -8
    5bc2:	36c4b2        	addi	a11, a4, 54
    5bc5:	050c           	movi.n	a5, 0
    5bc7:	408a04        	ae_lp16f.iu	aep0, a10, 0
    5bca:	409b04        	ae_lp16f.iu	aep1, a11, 0
    5bcd:	528c76        	loop	a12, 5c23 <process_ltpf_coder_fx+0x2f3>
    5bd0:	eb23acaa1f 	{ ae_lp16f.iu	aep2, a10, 2; ae_mulp24s.ll	aeq2, aep0, aep1 }
    5bd5:	40cb14        	ae_lp16f.iu	aep4, a11, 2
    5bd8:	e78b2cda1f 	{ ae_lp16f.iu	aep5, a10, 2; ae_mulap24s.ll	aeq2, aep2, aep4 }
    5bdd:	40eb14        	ae_lp16f.iu	aep6, a11, 2
    5be0:	e7d72cfa1f 	{ ae_lp16f.iu	aep7, a10, 2; ae_mulap24s.ll	aeq2, aep5, aep6 }
    5be5:	409b14        	ae_lp16f.iu	aep1, a11, 2
    5be8:	e73f2cba1f 	{ ae_lp16f.iu	aep3, a10, 2; ae_mulap24s.ll	aeq2, aep7, aep1 }
    5bed:	40cb14        	ae_lp16f.iu	aep4, a11, 2
    5bf0:	e78f2cda1f 	{ ae_lp16f.iu	aep5, a10, 2; ae_mulap24s.ll	aeq2, aep3, aep4 }
    5bf5:	40eb14        	ae_lp16f.iu	aep6, a11, 2
    5bf8:	e7d72cfa1f 	{ ae_lp16f.iu	aep7, a10, 2; ae_mulap24s.ll	aeq2, aep5, aep6 }
    5bfd:	40bb14        	ae_lp16f.iu	aep3, a11, 2
    5c00:	e77f2cca1f 	{ ae_lp16f.iu	aep4, a10, 2; ae_mulap24s.ll	aeq2, aep7, aep3 }
    5c05:	40db14        	ae_lp16f.iu	aep5, a11, 2
    5c08:	e7b32cea1f 	{ ae_lp16f.iu	aep6, a10, 2; ae_mulap24s.ll	aeq2, aep4, aep5 }
    5c0d:	40fb14        	ae_lp16f.iu	aep7, a11, 2
    5c10:	e7fb2c8a8f 	{ ae_lp16f.iu	aep0, a10, -16; ae_mulap24s.ll	aeq2, aep6, aep7 }
    5c15:	d6541a1b7f 	{ ae_lp16f.xu	aep1, a11, a7; ae_ltq56s	b0, aeq1, aeq2 }
    5c1a:	f97716530f 	{ movt	a5, a3, b0; ae_maxq56s	aeq1, aeq1, aeq2 }
    5c1f:	339a           	add.n	a3, a3, a9
    5c21:	855d           	ae_sext16	a5, a5

00005c23 <process_ltpf_coder_fx+0x2f3>:
    5c23:	954b           	addi.n	a9, a5, 4
    5c25:	213f50        	srai	a3, a5, 15
    5c28:	232a           	add.n	a2, a3, a2
    5c2a:	b39550        	movgez	a9, a5, a5
    5c2d:	000146        	j	5c36 <process_ltpf_coder_fx+0x306>

00005c30 <process_ltpf_coder_fx+0x300>:
    5c30:	00000000                                ....

00005c34 <process_ltpf_coder_fx+0x304>:
    5c34:	090c           	movi.n	a9, 0
    5c36:	81c232        	addi	a3, a2, -127
    5c39:	b1c8           	l32i.n	a12, a1, 44
    5c3b:	833d           	ae_sext16	a3, a3
    5c3d:	00b396        	bltz	a3, 5c4c <process_ltpf_coder_fx+0x31c>
    5c40:	213190        	srai	a3, a9, 1
    5c43:	903230        	addx2	a3, a2, a3
    5c46:	7ec332        	addi	a3, a3, 126
    5c49:	000146        	j	5c52 <process_ltpf_coder_fx+0x322>

00005c4c <process_ltpf_coder_fx+0x31c>:
    5c4c:	a03290        	addx4	a3, a2, a9
    5c4f:	80c332        	addi	a3, a3, -128
    5c52:	e93041        	l32r	a4, 114 (b9b8 <inter_filter>)
    5c55:	71f8           	l32i.n	a15, a1, 28
    5c57:	82bd           	ae_sext16	a11, a2
    5c59:	0458           	l32i.n	a5, a4, 0
    5c5b:	2e1fa6        	blti	a15, 1, 5c8d <process_ltpf_coder_fx+0x35d>
    5c5e:	71f8           	l32i.n	a15, a1, 28
    5c60:	4c2b           	addi.n	a4, a12, 2
    5c62:	0215e2        	l16ui	a14, a5, 4
    5c65:	456d           	ae_l16ui.n	a6, a5, 0
    5c67:	557d           	ae_l16ui.n	a7, a5, 2
    5c69:	300674        	ae_cvtp24a16x2.ll	aep0, a6, a7
    5c6c:	fec862        	addi	a6, a8, -2
    5c6f:	40a404        	ae_lp16f.iu	aep2, a4, 0
    5c72:	301ee4        	ae_cvtp24a16x2.ll	aep1, a14, a14
    5c75:	148f76        	loop	a15, 5c8d <process_ltpf_coder_fx+0x35d>
    5c78:	e809ece4ff 	{ ae_lp16f.iu	aep6, a4, -2; ae_mulfp24s.lh	aeq1, aep2, aep0 }
    5c7d:	e21becf4ff 	{ ae_lp16f.iu	aep7, a4, -2; ae_mulafp24s.ll	aeq1, aep6, aep0 }
    5c82:	e23eeca43f 	{ ae_lp16f.iu	aep2, a4, 6; ae_mulafp24s.lh	aeq1, aep7, aep1 }
    5c87:	1b9f34        	ae_roundsp16q48asym	aep3, aeq1
    5c8a:	42b614        	ae_sp16f.l.iu	aep3, a6, 2

00005c8d <process_ltpf_coder_fx+0x35d>:
    5c8d:	9148           	l32i.n	a4, a1, 36
    5c8f:	a07290        	addx4	a7, a2, a9
    5c92:	909990        	addx2	a9, a9, a9
    5c95:	11fbf0        	slli	a15, a11, 1
    5c98:	252142        	l32i	a4, a1, 148
    5c9b:	b05950        	addx8	a5, a9, a5
    5c9e:	9149           	s32i.n	a4, a1, 36
    5ca0:	c0ecf0        	sub	a14, a12, a15
    5ca3:	454d           	ae_l16ui.n	a4, a5, 0
    5ca5:	556d           	ae_l16ui.n	a6, a5, 2
    5ca7:	300464        	ae_cvtp24a16x2.ll	aep0, a4, a6
    5caa:	02ce42        	addi	a4, a14, 2
    5cad:	fea0b2        	movi	a11, 254
    5cb0:	0215f2        	l16ui	a15, a5, 4
    5cb3:	031552        	l16ui	a5, a5, 6
    5cb6:	80a0d2        	movi	a13, 128
    5cb9:	01d8a2        	addmi	a10, a8, 0x100
    5cbc:	8028b0        	add	a2, a8, a11
    5cbf:	40a404        	ae_lp16f.iu	aep2, a4, 0
    5cc2:	301f54        	ae_cvtp24a16x2.ll	aep1, a15, a5
    5cc5:	198d76        	loop	a13, 5ce2 <process_ltpf_coder_fx+0x3b2>
    5cc8:	e809ecd4ff 	{ ae_lp16f.iu	aep5, a4, -2; ae_mulfp24s.lh	aeq1, aep2, aep0 }
    5ccd:	e217ece4ff 	{ ae_lp16f.iu	aep6, a4, -2; ae_mulafp24s.ll	aeq1, aep5, aep0 }
    5cd2:	e23aecf4ff 	{ ae_lp16f.iu	aep7, a4, -2; ae_mulafp24s.lh	aeq1, aep6, aep1 }
    5cd7:	e23feca44f 	{ ae_lp16f.iu	aep2, a4, 8; ae_mulafp24s.ll	aeq1, aep7, aep1 }
    5cdc:	1b9f34        	ae_roundsp16q48asym	aep3, aeq1
    5cdf:	42b214        	ae_sp16f.l.iu	aep3, a2, 2

00005ce2 <process_ltpf_coder_fx+0x3b2>:
    5ce2:	fd24b0712e 	{ l32i	a2, a1, 28; ae_zeroq56	aeq1 }
    5ce7:	fe24b0714e 	{ l32i	a4, a1, 28; ae_zeroq56	aeq2 }
    5cec:	1512a6        	blti	a2, 1, 5d05 <process_ltpf_coder_fx+0x3d5>
    5cef:	408804        	ae_lp16f.iu	aep0, a8, 0
    5cf2:	409a04        	ae_lp16f.iu	aep1, a10, 0
    5cf5:	0c8476        	loop	a4, 5d05 <process_ltpf_coder_fx+0x3d5>
    5cf8:	028134        	ae_mulap24s.ll	aeq2, aep0, aep1
    5cfb:	e6276c9a1f 	{ ae_lp16f.iu	aep1, a10, 2; ae_mulap24s.ll	aeq1, aep1, aep1 }
    5d00:	e6032c881f 	{ ae_lp16f.iu	aep0, a8, 2; ae_mulap24s.ll	aeq0, aep0, aep0 }

00005d05 <process_ltpf_coder_fx+0x3d5>:
    5d05:	369504        	ae_trunca32q48	a5, aeq1
    5d08:	368404        	ae_trunca32q48	a4, aeq0
    5d0b:	e63c           	movi.n	a6, 62
    5d0d:	40e580        	nsa	a8, a5
    5d10:	838550        	moveqz	a8, a5, a5
    5d13:	40e4e0        	nsa	a14, a4
    5d16:	889d           	ae_sext16	a9, a8
    5d18:	83e440        	moveqz	a14, a4, a4
    5d1b:	60a090        	neg	a10, a9
    5d1e:	400a00        	ssr	a10
    5d21:	8efd           	ae_sext16	a15, a14
    5d23:	b1a050        	sra	a10, a5
    5d26:	401900        	ssl	a9
    5d29:	60b0f0        	neg	a11, a15
    5d2c:	a15500        	sll	a5, a5
    5d2f:	400b00        	ssr	a11
    5d32:	a35a90        	movltz	a5, a10, a9
    5d35:	b19040        	sra	a9, a4
    5d38:	401f00        	ssl	a15
    5d3b:	a14400        	sll	a4, a4
    5d3e:	a349f0        	movltz	a4, a9, a15
    5d41:	829540        	mull	a9, a5, a4
    5d44:	b24540        	mulsh	a4, a5, a4
    5d47:	05cf90        	extui	a12, a9, 31, 1
    5d4a:	9044c0        	addx2	a4, a4, a12
    5d4d:	40e450        	nsa	a5, a4
    5d50:	835440        	moveqz	a5, a4, a4
    5d53:	85dd           	ae_sext16	a13, a5
    5d55:	8e8a           	add.n	a8, a14, a8
    5d57:	60e0d0        	neg	a14, a13
    5d5a:	400e00        	ssr	a14
    5d5d:	b1f040        	sra	a15, a4
    5d60:	401d00        	ssl	a13
    5d63:	a1a400        	sll	a10, a4
    5d66:	585a           	add.n	a5, a8, a5
    5d68:	e97841        	l32r	a4, 348 (1434 <Isqrt>)
    5d6b:	c05650        	sub	a5, a6, a5
    5d6e:	a3afd0        	movltz	a10, a15, a13
    5d71:	10c1b2        	addi	a11, a1, 16
    5d74:	36a204        	ae_trunca32q48	a2, aeq2
    5d77:	085152        	s16i	a5, a1, 16
    5d7a:	0004e0        	callx8	a4
    5d7d:	40e240        	nsa	a4, a2
    5d80:	834220        	moveqz	a4, a2, a2
    5d83:	846d           	ae_sext16	a6, a4
    5d85:	089152        	l16si	a5, a1, 16
    5d88:	60e060        	neg	a14, a6
    5d8b:	400e00        	ssr	a14
    5d8e:	c04540        	sub	a4, a5, a4
    5d91:	b15020        	sra	a5, a2
    5d94:	401600        	ssl	a6
    5d97:	a1f200        	sll	a15, a2
    5d9a:	a3f560        	movltz	a15, a5, a6
    5d9d:	825fa0        	mull	a5, a15, a10
    5da0:	b22fa0        	mulsh	a2, a15, a10
    5da3:	055f50        	extui	a5, a5, 31, 1
    5da6:	1fc442        	addi	a4, a4, 31
    5da9:	902250        	addx2	a2, a2, a5
    5dac:	085142        	s16i	a4, a1, 16
    5daf:	928c           	beqz.n	a2, 5dbc <process_ltpf_coder_fx+0x48c>
    5db1:	40e250        	nsa	a5, a2
    5db4:	c05540        	sub	a5, a5, a4
    5db7:	855d           	ae_sext16	a5, a5
    5db9:	027596        	bltz	a5, 5de4 <process_ltpf_coder_fx+0x4b4>

00005dbc <process_ltpf_coder_fx+0x48c>:
    5dbc:	6129           	s32i.n	a2, a1, 24
    5dbe:	844d           	ae_sext16	a4, a4
    5dc0:	600164        	ae_lq32f.i	aeq0, a1, 24
    5dc3:	fc24fe840f 	{ ae_slaasq56s	aeq0, aeq0, a4; nop }
    5dc8:	fc00c141ee 	{ addi	a14, a1, 20; ae_satq48s	aeq0, aeq0 }
    5dcd:	368d04        	ae_trunca32q48	a13, aeq0
    5dd0:	360d34        	ae_cvtq48a32s	aeq0, a13
    5dd3:	f8638000ff 	{ movi	a15, 0; ae_roundsp16q48asym	aep0, aeq0 }
    5dd8:	420e04        	ae_sp16f.l.i	aep0, a14, 0
    5ddb:	0a9122        	l16si	a2, a1, 20
    5dde:	53f2f0        	max	a15, a2, a15
    5de1:	000146        	j	5dea <process_ltpf_coder_fx+0x4ba>

00005de4 <process_ltpf_coder_fx+0x4b4>:
    5de4:	ffa0f2        	movi	a15, 255
    5de7:	7fdff2        	addmi	a15, a15, 0x7f00
    5dea:	112122        	l32i	a2, a1, 68
    5ded:	a168           	l32i.n	a6, a1, 40
    5def:	c1a8           	l32i.n	a10, a1, 48
    5df1:	81b8           	l32i.n	a11, a1, 32
    5df3:	1021c2        	l32i	a12, a1, 64
    5df6:	f1d8           	l32i.n	a13, a1, 60
    5df8:	e1e8           	l32i.n	a14, a1, 56
    5dfa:	b80c           	movi.n	a8, 11
    5dfc:	040c           	movi.n	a4, 0
    5dfe:	190c           	movi.n	a9, 1
    5e00:	711266        	bnei	a2, 1, 5e75 <process_ltpf_coder_fx+0x545>
    5e03:	4b2d           	ae_l16ui.n	a2, a11, 0
    5e05:	355c           	movi.n	a5, 83
    5e07:	2f1226        	beqi	a2, 1, 5e3a <process_ltpf_coder_fx+0x50a>
    5e0a:	067256        	bnez	a2, 5e75 <process_ltpf_coder_fx+0x545>
    5e0d:	78d522        	addmi	a2, a5, 0x7800
    5e10:	9f5d           	ae_zext16	a5, a15
    5e12:	5f3527        	bltu	a5, a2, 5e75 <process_ltpf_coder_fx+0x545>
    5e15:	2c5d           	ae_l16si.n	a5, a12, 0
    5e17:	aea022        	movi	a2, 174
    5e1a:	87d222        	addmi	a2, a2, 0xffff8700
    5e1d:	552a           	add.n	a5, a5, a2
    5e1f:	855d           	ae_sext16	a5, a5
    5e21:	5015a6        	blti	a5, 1, 5e75 <process_ltpf_coder_fx+0x545>
    5e24:	9128           	l32i.n	a2, a1, 36
    5e26:	64a052        	movi	a5, 100
    5e29:	441257        	beq	a2, a5, 5e71 <process_ltpf_coder_fx+0x541>
    5e2c:	2d5d           	ae_l16si.n	a5, a13, 0
    5e2e:	aea022        	movi	a2, 174
    5e31:	87d222        	addmi	a2, a2, 0xffff8700
    5e34:	252a           	add.n	a2, a5, a2
    5e36:	000c86        	j	5e6c <process_ltpf_coder_fx+0x53c>

00005e39 <process_ltpf_coder_fx+0x509>:
	...

00005e3a <process_ltpf_coder_fx+0x50a>:
    5e3a:	353c           	movi.n	a5, 51
    5e3c:	9f2d           	ae_zext16	a2, a15
    5e3e:	73d552        	addmi	a5, a5, 0x7300
    5e41:	2c3527        	bltu	a5, a2, 5e71 <process_ltpf_coder_fx+0x541>
    5e44:	2a5d           	ae_l16si.n	a5, a10, 0
    5e46:	c05750        	sub	a5, a7, a5
    5e49:	855d           	ae_sext16	a5, a5
    5e4b:	605150        	abs	a5, a5
    5e4e:	f8c552        	addi	a5, a5, -8
    5e51:	855d           	ae_sext16	a5, a5
    5e53:	01e5d6        	bgez	a5, 5e75 <process_ltpf_coder_fx+0x545>
    5e56:	86a052        	movi	a5, 134
    5e59:	6bd552        	addmi	a5, a5, 0x6b00
    5e5c:	153257        	bltu	a2, a5, 5e75 <process_ltpf_coder_fx+0x545>
    5e5f:	2c2d           	ae_l16si.n	a2, a12, 0
    5e61:	cda052        	movi	a5, 205
    5e64:	0cd552        	addmi	a5, a5, 0xc00
    5e67:	c02f20        	sub	a2, a15, a2
    5e6a:	225a           	add.n	a2, a2, a5
    5e6c:	822d           	ae_sext16	a2, a2
    5e6e:	0312a6        	blti	a2, 1, 5e75 <process_ltpf_coder_fx+0x545>
    5e71:	190c           	movi.n	a9, 1
    5e73:	140c           	movi.n	a4, 1
    5e75:	132122        	l32i	a2, a1, 76
    5e78:	6e9d           	ae_s16i.n	a9, a14, 0
    5e7a:	7e4d           	ae_s16i.n	a4, a14, 2
    5e7c:	025e32        	s16i	a3, a14, 4
    5e7f:	628d           	ae_s16i.n	a8, a2, 0
    5e81:	1516a6        	blti	a6, 1, 5e9a <process_ltpf_coder_fx+0x56a>
    5e84:	d138           	l32i.n	a3, a1, 52
    5e86:	7158           	l32i.n	a5, a1, 28
    5e88:	fec322        	addi	a2, a3, -2
    5e8b:	903530        	addx2	a3, a5, a3
    5e8e:	fec332        	addi	a3, a3, -2
    5e91:	058676        	loop	a6, 5e9a <process_ltpf_coder_fx+0x56a>
    5e94:	408314        	ae_lp16f.iu	aep0, a3, 2
    5e97:	428214        	ae_sp16f.l.iu	aep0, a2, 2

00005e9a <process_ltpf_coder_fx+0x56a>:
    5e9a:	2c2d           	ae_l16si.n	a2, a12, 0
    5e9c:	6d2d           	ae_s16i.n	a2, a13, 0
    5e9e:	6cfd           	ae_s16i.n	a15, a12, 0
    5ea0:	6b4d           	ae_s16i.n	a4, a11, 0
    5ea2:	6a7d           	ae_s16i.n	a7, a10, 0
    5ea4:	f01d           	retw.n

00005ea6 <process_ltpf_coder_fx+0x576>:
	...

00005ea8 <processMdct_fx>:
    5ea8:	008136        	entry	a1, 64
    5eab:	1321b2        	l32i	a11, a1, 76
    5eae:	1021a2        	l32i	a10, a1, 64
    5eb1:	fc7c           	movi.n	a12, -1
    5eb3:	60f0b0        	neg	a15, a11
    5eb6:	5159           	s32i.n	a5, a1, 20
    5eb8:	2450f0        	extui	a5, a15, 0, 3
    5ebb:	078d           	mov.n	a8, a7
    5ebd:	61b9           	s32i.n	a11, a1, 24
    5ebf:	bb5a           	add.n	a11, a11, a5
    5ec1:	41c2c0        	srli	a12, a12, 2
    5ec4:	41d1a0        	srli	a13, a10, 1
    5ec7:	7139           	s32i.n	a3, a1, 28
    5ec9:	448804        	ae_lp16x2f.iu	aep0, a8, 0
    5ecc:	103dc0        	and	a3, a13, a12
    5ecf:	fccb52        	addi	a5, a11, -4
    5ed2:	080cd7        	bnone	a12, a13, 5ede <processMdct_fx+0x36>
    5ed5:	058376        	loop	a3, 5ede <processMdct_fx+0x36>
    5ed8:	468514        	ae_sp16x2f.iu	aep0, a5, 4
    5edb:	448814        	ae_lp16x2f.iu	aep0, a8, 4

00005ede <processMdct_fx+0x36>:
    5ede:	076a07        	bbci	a10, 0, 5ee9 <processMdct_fx+0x41>
    5ee1:	dc0180255e 	{ addi	a5, a5, 2; ae_selp24.lh	aep0, aep0, aep0 }
    5ee6:	428514        	ae_sp16f.l.iu	aep0, a5, 2

00005ee9 <processMdct_fx+0x41>:
    5ee9:	905ab0        	addx2	a5, a10, a11
    5eec:	c0d4a0        	sub	a13, a4, a10
    5eef:	fcc5e2        	addi	a14, a5, -4
    5ef2:	205220        	or	a5, a2, a2
    5ef5:	4181d0        	srli	a8, a13, 1
    5ef8:	448504        	ae_lp16x2f.iu	aep0, a5, 0
    5efb:	0b0c87        	bnone	a12, a8, 5f0a <processMdct_fx+0x62>
    5efe:	1088c0        	and	a8, a8, a12
    5f01:	058876        	loop	a8, 5f0a <processMdct_fx+0x62>
    5f04:	468e14        	ae_sp16x2f.iu	aep0, a14, 4
    5f07:	448514        	ae_lp16x2f.iu	aep0, a5, 4

00005f0a <processMdct_fx+0x62>:
    5f0a:	076d07        	bbci	a13, 0, 5f15 <processMdct_fx+0x6d>
    5f0d:	dc01802e5e 	{ addi	a5, a14, 2; ae_selp24.lh	aep0, aep0, aep0 }
    5f12:	428514        	ae_sp16f.l.iu	aep0, a5, 2

00005f15 <processMdct_fx+0x6d>:
    5f15:	905d20        	addx2	a5, a13, a2
    5f18:	04c0a0        	extui	a12, a10, 0, 1
    5f1b:	fcc772        	addi	a7, a7, -4
    5f1e:	448504        	ae_lp16x2f.iu	aep0, a5, 0
    5f21:	938c           	beqz.n	a3, 5f2e <processMdct_fx+0x86>
    5f23:	f03d           	nop.n
    5f25:	058376        	loop	a3, 5f2e <processMdct_fx+0x86>
    5f28:	468714        	ae_sp16x2f.iu	aep0, a7, 4
    5f2b:	448514        	ae_lp16x2f.iu	aep0, a5, 4

00005f2e <processMdct_fx+0x86>:
    5f2e:	dc01b1113e 	{ l32i	a3, a1, 68; ae_selp24.lh	aep0, aep0, aep0 }
    5f33:	d05460        	subx2	a5, a4, a6
    5f36:	216140        	srai	a6, a4, 1
    5f39:	3c8c           	beqz.n	a12, 5f40 <processMdct_fx+0x98>
    5f3b:	772b           	addi.n	a7, a7, 2
    5f3d:	428714        	ae_sp16f.l.iu	aep0, a7, 2

00005f40 <processMdct_fx+0x98>:
    5f40:	51e8           	l32i.n	a14, a1, 20
    5f42:	a0d630        	addx4	a13, a6, a3
    5f45:	fccdf2        	addi	a15, a13, -4
    5f48:	85cd           	ae_sext16	a12, a5
    5f4a:	4139           	s32i.n	a3, a1, 16
    5f4c:	1176f0        	slli	a7, a6, 1
    5f4f:	a0e6e0        	addx4	a14, a6, a14
    5f52:	31f9           	s32i.n	a15, a1, 12
    5f54:	4044a6        	blti	a4, 4, 5f98 <processMdct_fx+0xf0>
    5f57:	052152        	l32i	a5, a1, 20
    5f5a:	a086b0        	addx4	a8, a6, a11
    5f5d:	0321d2        	l32i	a13, a1, 12
    5f60:	fecef2        	addi	a15, a14, -2
    5f63:	fec882        	addi	a8, a8, -2
    5f66:	213160        	srai	a3, a6, 1
    5f69:	448b04        	ae_lp16x2f.iu	aep0, a11, 0
    5f6c:	449504        	ae_lp16x2f.iu	aep1, a5, 0
    5f6f:	40bf04        	ae_lp16f.iu	aep3, a15, 0
    5f72:	40a804        	ae_lp16f.iu	aep2, a8, 0
    5f75:	1f8376        	loop	a3, 5f98 <processMdct_fx+0xf0>
    5f78:	e822ace8ff 	{ ae_lp16f.iu	aep6, a8, -2; ae_mulp24s.hh	aeq0, aep0, aep1 }
    5f7d:	f2692cffff 	{ ae_lp16f.iu	aep7, a15, -2; ae_mulsp24s.ll	aeq0, aep2, aep3 }
    5f82:	eb23ed8b1f 	{ ae_lp16x2f.iu	aep0, a11, 4; ae_mulp24s.ll	aeq3, aep0, aep1 }
    5f87:	f3f979cd1f 	{ ae_sq32f.iu	aeq0, a13, 4; ae_mulsp24s.ll	aeq3, aep6, aep7 }
    5f8c:	449514        	ae_lp16x2f.iu	aep1, a5, 4
    5f8f:	40a8f4        	ae_lp16f.iu	aep2, a8, -2
    5f92:	40bff4        	ae_lp16f.iu	aep3, a15, -2
    5f95:	627d14        	ae_sq32f.iu	aeq3, a13, 4

00005f98 <processMdct_fx+0xf0>:
    5f98:	903720        	addx2	a3, a7, a2
    5f9b:	115af0        	slli	a5, a10, 1
    5f9e:	c0b350        	sub	a11, a3, a5
    5fa1:	242ca6        	blti	a12, 2, 5fc9 <processMdct_fx+0x121>
    5fa4:	3178           	l32i.n	a7, a1, 12
    5fa6:	0b5d           	mov.n	a5, a11
    5fa8:	0e8d           	mov.n	a8, a14
    5faa:	2131c0        	srai	a3, a12, 1
    5fad:	774b           	addi.n	a7, a7, 4
    5faf:	448504        	ae_lp16x2f.iu	aep0, a5, 0
    5fb2:	449804        	ae_lp16x2f.iu	aep1, a8, 0
    5fb5:	108376        	loop	a3, 5fc9 <processMdct_fx+0x121>
    5fb8:	020144        	ae_mulp24s.hh	aeq0, aep0, aep1
    5fbb:	eb23ed851f 	{ ae_lp16x2f.iu	aep0, a5, 4; ae_mulp24s.ll	aeq3, aep0, aep1 }
    5fc0:	6247f4        	ae_sq32f.iu	aeq0, a7, -4
    5fc3:	449814        	ae_lp16x2f.iu	aep1, a8, 4
    5fc6:	6277f4        	ae_sq32f.iu	aeq3, a7, -4
    5fc9:	122172        	l32i	a7, a1, 72
    5fcc:	53ac67        	bge	a12, a6, 6023 <processMdct_fx+0x17b>
    5fcf:	51f8           	l32i.n	a15, a1, 20
    5fd1:	6030a0        	neg	a3, a10
    5fd4:	90acb0        	addx2	a10, a12, a11
    5fd7:	b08620        	addx8	a8, a6, a2
    5fda:	b0b6f0        	addx8	a11, a6, a15
    5fdd:	0321f2        	l32i	a15, a1, 12
    5fe0:	115cf0        	slli	a5, a12, 1
    5fe3:	903380        	addx2	a3, a3, a8
    5fe6:	902ce0        	addx2	a2, a12, a14
    5fe9:	c0d6c0        	sub	a13, a6, a12
    5fec:	60c0c0        	neg	a12, a12
    5fef:	c03350        	sub	a3, a3, a5
    5ff2:	c0eb50        	sub	a14, a11, a5
    5ff5:	a06cf0        	addx4	a6, a12, a15
    5ff8:	fece52        	addi	a5, a14, -2
    5ffb:	fec382        	addi	a8, a3, -2
    5ffe:	408a04        	ae_lp16f.iu	aep0, a10, 0
    6001:	409204        	ae_lp16f.iu	aep1, a2, 0
    6004:	04c662        	addi	a6, a6, 4
    6007:	40b504        	ae_lp16f.iu	aep3, a5, 0
    600a:	40a804        	ae_lp16f.iu	aep2, a8, 0
    600d:	128d76        	loop	a13, 6023 <processMdct_fx+0x17b>
    6010:	ea23ac8a1f 	{ ae_lp16f.iu	aep0, a10, 2; ae_mulp24s.ll	aeq0, aep0, aep1 }
    6015:	e66b2c921f 	{ ae_lp16f.iu	aep1, a2, 2; ae_mulap24s.ll	aeq0, aep2, aep3 }
    601a:	40a8f4        	ae_lp16f.iu	aep2, a8, -2
    601d:	40b5f4        	ae_lp16f.iu	aep3, a5, -2
    6020:	6246f4        	ae_sq32f.iu	aeq0, a6, -4
    6023:	6128           	l32i.n	a2, a1, 24
    6025:	41a8           	l32i.n	a10, a1, 16
    6027:	142162        	l32i	a6, a1, 80
    602a:	524b           	addi.n	a5, a2, 4
    602c:	e8a121        	l32r	a2, 2b0 (fd0 <getScaleFactor32_0>)
    602f:	04bd           	mov.n	a11, a4
    6031:	0002e0        	callx8	a2
    6034:	7188           	l32i.n	a8, a1, 28
    6036:	020c           	movi.n	a2, 0
    6038:	5322a0        	max	a2, a2, a10
    603b:	ecc432        	addi	a3, a4, -20
    603e:	c08820        	sub	a8, a8, a2
    6041:	fec882        	addi	a8, a8, -2
    6044:	833d           	ae_sext16	a3, a3
    6046:	678d           	ae_s16i.n	a8, a7, 0
    6048:	0e13a6        	blti	a3, 1, 605a <processMdct_fx+0x1b2>
    604b:	88c432        	addi	a3, a4, -120
    604e:	41a8           	l32i.n	a10, a1, 16
    6050:	833d           	ae_sext16	a3, a3
    6052:	0c13e6        	bgei	a3, 1, 6062 <processMdct_fx+0x1ba>
    6055:	190c           	movi.n	a9, 1
    6057:	0000c6        	j	605e <processMdct_fx+0x1b6>

0000605a <processMdct_fx+0x1b2>:
    605a:	41a8           	l32i.n	a10, a1, 16
    605c:	290c           	movi.n	a9, 2
    605e:	389a           	add.n	a3, a8, a9
    6060:	673d           	ae_s16i.n	a3, a7, 0
    6062:	82cd           	ae_sext16	a12, a2
    6064:	e89421        	l32r	a2, 2b4 (15f0 <dct_IV_XT>)
    6067:	07bd           	mov.n	a11, a7
    6069:	04dd           	mov.n	a13, a4
    606b:	05ed           	mov.n	a14, a5
    606d:	06fd           	mov.n	a15, a6
    606f:	0002e0        	callx8	a2
    6072:	f01d           	retw.n

00006074 <processNearNyquistdetector_fx>:
    6074:	008136        	entry	a1, 64
    6077:	fcc332        	addi	a3, a3, -4
    607a:	0c0c           	movi.n	a12, 0
    607c:	833d           	ae_sext16	a3, a3
    607e:	4149           	s32i.n	a4, a1, 16
    6080:	62cd           	ae_s16i.n	a12, a2, 0
    6082:	001396        	bltz	a3, 6087 <processNearNyquistdetector_fx+0x13>

00006085 <processNearNyquistdetector_fx+0x11>:
    6085:	f01d           	retw.n

00006087 <processNearNyquistdetector_fx+0x13>:
    6087:	41e8           	l32i.n	a14, a1, 16
    6089:	e8a4f1        	l32r	a15, 31c (12f8 <BASOP_Util_Add_Mant32Exp>)
    608c:	028d           	mov.n	a8, a2
    608e:	6129           	s32i.n	a2, a1, 24
    6090:	0451c2        	s16i	a12, a1, 8
    6093:	030c           	movi.n	a3, 0
    6095:	074d           	mov.n	a4, a7
    6097:	3e1ea6        	blti	a14, 1, 60d9 <processNearNyquistdetector_fx+0x65>
    609a:	06a8           	l32i.n	a10, a6, 0
    609c:	e18b           	addi.n	a14, a1, 8
    609e:	0c0c           	movi.n	a12, 0
    60a0:	0d0c           	movi.n	a13, 0
    60a2:	04bd           	mov.n	a11, a4
    60a4:	5159           	s32i.n	a5, a1, 20
    60a6:	0f2d           	mov.n	a2, a15
    60a8:	000fe0        	callx8	a15
    60ab:	4138           	l32i.n	a3, a1, 16
    60ad:	0acd           	mov.n	a12, a10
    60af:	4158           	l32i.n	a5, a1, 16
    60b1:	1d1326        	beqi	a3, 1, 60d2 <processNearNyquistdetector_fx+0x5e>
    60b4:	170c           	movi.n	a7, 1
    60b6:	955d           	ae_zext16	a5, a5
    60b8:	318b           	addi.n	a3, a1, 8
    60ba:	978d           	ae_zext16	a8, a7
    60bc:	a08860        	addx4	a8, a8, a6
    60bf:	0491d2        	l16si	a13, a1, 8
    60c2:	08a8           	l32i.n	a10, a8, 0
    60c4:	04bd           	mov.n	a11, a4
    60c6:	03ed           	mov.n	a14, a3
    60c8:	0002e0        	callx8	a2
    60cb:	771b           	addi.n	a7, a7, 1
    60cd:	0acd           	mov.n	a12, a10
    60cf:	e79577        	bne	a5, a7, 60ba <processNearNyquistdetector_fx+0x46>
    60d2:	5158           	l32i.n	a5, a1, 20
    60d4:	313fc0        	srai	a3, a12, 31
    60d7:	02fd           	mov.n	a15, a2
    60d9:	4128           	l32i.n	a2, a1, 16
    60db:	090c           	movi.n	a9, 0
    60dd:	7139           	s32i.n	a3, a1, 28
    60df:	030c           	movi.n	a3, 0
    60e1:	51c9           	s32i.n	a12, a1, 20
    60e3:	065192        	s16i	a9, a1, 12
    60e6:	34a257        	bge	a2, a5, 611e <processNearNyquistdetector_fx+0xaa>
    60e9:	4138           	l32i.n	a3, a1, 16
    60eb:	090c           	movi.n	a9, 0
    60ed:	c07530        	sub	a7, a5, a3
    60f0:	112300        	slli	a2, a3, 16
    60f3:	51cb           	addi.n	a5, a1, 12
    60f5:	030c           	movi.n	a3, 0
    60f7:	218e20        	srai	a8, a2, 14
    60fa:	868a           	add.n	a8, a6, a8
    60fc:	08a8           	l32i.n	a10, a8, 0
    60fe:	03cd           	mov.n	a12, a3
    6100:	89dd           	ae_sext16	a13, a9
    6102:	04bd           	mov.n	a11, a4
    6104:	05ed           	mov.n	a14, a5
    6106:	0f3d           	mov.n	a3, a15
    6108:	000fe0        	callx8	a15
    610b:	180c           	movi.n	a8, 1
    610d:	061192        	l16ui	a9, a1, 12
    6110:	118800        	slli	a8, a8, 16
    6113:	770b           	addi.n	a7, a7, -1
    6115:	03fd           	mov.n	a15, a3
    6117:	0a3d           	mov.n	a3, a10
    6119:	228a           	add.n	a2, a2, a8
    611b:	fd8756        	bnez	a7, 60f7 <processNearNyquistdetector_fx+0x83>
    611e:	e7c741        	l32r	a4, 3c (b7c8 <NN_thresh>)
    6121:	e7c761        	l32r	a6, 40 (b7ca <NN_thresh_exp>)
    6124:	5128           	l32i.n	a2, a1, 20
    6126:	244d           	ae_l16si.n	a4, a4, 0
    6128:	71f8           	l32i.n	a15, a1, 28
    612a:	049152        	l16si	a5, a1, 8
    612d:	266d           	ae_l16si.n	a6, a6, 0
    612f:	317f40        	srai	a7, a4, 31
    6132:	a2a240        	muluh	a10, a2, a4
    6135:	828f40        	mull	a8, a15, a4
    6138:	824240        	mull	a4, a2, a4
    613b:	822270        	mull	a2, a2, a7
    613e:	556a           	add.n	a5, a5, a6
    6140:	6a8a           	add.n	a6, a10, a8
    6142:	41cf40        	srli	a12, a4, 15
    6145:	226a           	add.n	a2, a2, a6
    6147:	55fb           	addi.n	a5, a5, 15
    6149:	1be2c0        	depbits	a12, a2, 17, 15
    614c:	e87521        	l32r	a2, 320 (1364 <BASOP_Util_Cmp_Mant32Exp>)
    614f:	85dd           	ae_sext16	a13, a5
    6151:	89bd           	ae_sext16	a11, a9
    6153:	03ad           	mov.n	a10, a3
    6155:	0002e0        	callx8	a2
    6158:	021a26        	beqi	a10, 1, 615e <processNearNyquistdetector_fx+0xea>
    615b:	ffc986        	j	6085 <processNearNyquistdetector_fx+0x11>
    615e:	6138           	l32i.n	a3, a1, 24
    6160:	120c           	movi.n	a2, 1
    6162:	632d           	ae_s16i.n	a2, a3, 0
    6164:	f01d           	retw.n

00006166 <processNearNyquistdetector_fx+0xf2>:
	...

00006168 <processNoiseFactor_fx>:
    6168:	008136        	entry	a1, 64
    616b:	e7c781        	l32r	a8, 88 (b878 <BW_cutoff_bin_all>)
    616e:	1021a2        	l32i	a10, a1, 64
    6171:	64a0f2        	movi	a15, 100
    6174:	08b8           	l32i.n	a11, a8, 0
    6176:	112182        	l32i	a8, a1, 68
    6179:	6139           	s32i.n	a3, a1, 24
    617b:	90aab0        	addx2	a10, a10, a11
    617e:	4aed           	ae_l16ui.n	a14, a10, 0
    6180:	023d           	mov.n	a3, a2
    6182:	7179           	s32i.n	a7, a1, 28
    6184:	1318f7        	beq	a8, a15, 619b <processNoiseFactor_fx+0x33>
    6187:	ba4c           	movi.n	a10, 75
    6189:	3398a7        	bne	a8, a10, 61c0 <processNoiseFactor_fx+0x58>
    618c:	8e2d           	ae_sext16	a2, a14
    618e:	212220        	srai	a2, a2, 2
    6191:	2b1c           	movi.n	a11, 18
    6193:	2f0c           	movi.n	a15, 2
    6195:	90e220        	addx2	a14, a2, a2
    6198:	0000c6        	j	619f <processNoiseFactor_fx+0x37>

0000619b <processNoiseFactor_fx+0x33>:
    619b:	8b1c           	movi.n	a11, 24
    619d:	3f0c           	movi.n	a15, 3
    619f:	11cff0        	slli	a12, a15, 1
    61a2:	f87c           	movi.n	a8, -1
    61a4:	90ab50        	addx2	a10, a11, a5
    61a7:	30dc80        	xor	a13, a12, a8
    61aa:	c08ac0        	sub	a8, a10, a12
    61ad:	070c           	movi.n	a7, 0
    61af:	0dad           	mov.n	a10, a13
    61b1:	088c76        	loop	a12, 61bd <processNoiseFactor_fx+0x55>
    61b4:	482d           	ae_l16ui.n	a2, a8, 0
    61b6:	aa1b           	addi.n	a10, a10, 1
    61b8:	882b           	addi.n	a8, a8, 2
    61ba:	93ad20        	movnez	a10, a13, a2

000061bd <processNoiseFactor_fx+0x55>:
    61bd:	000306        	j	61cd <processNoiseFactor_fx+0x65>

000061c0 <processNoiseFactor_fx+0x58>:
    61c0:	fd7c           	movi.n	a13, -1
    61c2:	f4d0d0        	extui	a13, a13, 0, 16
    61c5:	0b0c           	movi.n	a11, 0
    61c7:	170c           	movi.n	a7, 1
    61c9:	0f0c           	movi.n	a15, 0
    61cb:	0dad           	mov.n	a10, a13
    61cd:	1221c2        	l32i	a12, a1, 72
    61d0:	8eed           	ae_sext16	a14, a14
    61d2:	c09ef0        	sub	a9, a14, a15
    61d5:	0c8d           	mov.n	a8, a12
    61d7:	25ab97        	bge	a11, a9, 6200 <processNoiseFactor_fx+0x98>
    61da:	c08ef0        	sub	a8, a14, a15
    61dd:	fbfa           	add.n	a15, a11, a15
    61df:	c028b0        	sub	a2, a8, a11
    61e2:	905f50        	addx2	a5, a15, a5
    61e5:	0c8d           	mov.n	a8, a12
    61e7:	158276        	loop	a2, 6200 <processNoiseFactor_fx+0x98>
    61ea:	452d           	ae_l16ui.n	a2, a5, 0
    61ec:	aa1b           	addi.n	a10, a10, 1
    61ee:	f82b           	addi.n	a15, a8, 2
    61f0:	93ad20        	movnez	a10, a13, a2
    61f3:	8aad           	ae_sext16	a10, a10
    61f5:	003a96        	bltz	a10, 61fc <processNoiseFactor_fx+0x94>
    61f8:	68bd           	ae_s16i.n	a11, a8, 0
    61fa:	0f8d           	mov.n	a8, a15
    61fc:	bb1b           	addi.n	a11, a11, 1
    61fe:	552b           	addi.n	a5, a5, 2

00006200 <processNoiseFactor_fx+0x98>:
    6200:	c028c0        	sub	a2, a8, a12
    6203:	415120        	srli	a5, a2, 1
    6206:	87dc           	bnez.n	a7, 6222 <processNoiseFactor_fx+0xba>
    6208:	c02e90        	sub	a2, a14, a9
    620b:	138276        	loop	a2, 6222 <processNoiseFactor_fx+0xba>
    620e:	2a1b           	addi.n	a2, a10, 1
    6210:	82ad           	ae_sext16	a10, a2
    6212:	00aa96        	bltz	a10, 6220 <processNoiseFactor_fx+0xb8>
    6215:	85fd           	ae_sext16	a15, a5
    6217:	251b           	addi.n	a2, a5, 1
    6219:	907fc0        	addx2	a7, a15, a12
    621c:	025d           	mov.n	a5, a2
    621e:	679d           	ae_s16i.n	a9, a7, 0

00006220 <processNoiseFactor_fx+0xb8>:
    6220:	991b           	addi.n	a9, a9, 1

00006222 <processNoiseFactor_fx+0xba>:
    6222:	f27c           	movi.n	a2, -1
    6224:	f42020        	extui	a2, a2, 0, 16
    6227:	680257        	bnone	a2, a5, 6293 <processNoiseFactor_fx+0x12b>
    622a:	2c2d           	ae_l16si.n	a2, a12, 0
    622c:	85bd           	ae_sext16	a11, a5
    622e:	037d           	mov.n	a7, a3
    6230:	a02240        	addx4	a2, a2, a4
    6233:	0228           	l32i.n	a2, a2, 0
    6235:	5b0b           	addi.n	a5, a11, -1
    6237:	60a120        	abs	a10, a2
    623a:	122ba6        	blti	a11, 2, 6250 <processNoiseFactor_fx+0xe8>
    623d:	2c2b           	addi.n	a2, a12, 2
    623f:	0d8576        	loop	a5, 6250 <processNoiseFactor_fx+0xe8>
    6242:	225d           	ae_l16si.n	a5, a2, 0
    6244:	222b           	addi.n	a2, a2, 2
    6246:	a05540        	addx4	a5, a5, a4
    6249:	0558           	l32i.n	a5, a5, 0
    624b:	605150        	abs	a5, a5
    624e:	a5aa           	add.n	a10, a5, a10
    6250:	e83f21        	l32r	a2, 34c (1028 <BASOP_Util_Divide3216_Scale>)
    6253:	10c1c2        	addi	a12, a1, 16
    6256:	0002e0        	callx8	a2
    6259:	e83d21        	l32r	a2, 350 (10c4 <BASOP_Util_Divide1616_Scale>)
    625c:	c1cb           	addi.n	a12, a1, 12
    625e:	06bd           	mov.n	a11, a6
    6260:	0002e0        	callx8	a2
    6263:	7138           	l32i.n	a3, a1, 28
    6265:	6158           	l32i.n	a5, a1, 24
    6267:	089122        	l16si	a2, a1, 16
    626a:	069142        	l16si	a4, a1, 12
    626d:	c03350        	sub	a3, a3, a5
    6270:	c02320        	sub	a2, a3, a2
    6273:	40ead0        	nsa	a13, a10
    6276:	f0cde2        	addi	a14, a13, -16
    6279:	c02240        	sub	a2, a2, a4
    627c:	83eaa0        	moveqz	a14, a10, a10
    627f:	22fb           	addi.n	a2, a2, 15
    6281:	f2ea           	add.n	a15, a2, a14
    6283:	8f4d           	ae_sext16	a4, a15
    6285:	0651e2        	s16i	a14, a1, 12
    6288:	0114d6        	bgez	a4, 629d <processNoiseFactor_fx+0x135>
    628b:	ea8c           	beqz.n	a10, 629d <processNoiseFactor_fx+0x135>
    628d:	e83121        	l32r	a2, 354 (fff80020 <_end+0xfff74538>)
    6290:	0011c6        	j	62db <processNoiseFactor_fx+0x173>

00006293 <processNoiseFactor_fx+0x12b>:
    6293:	120c           	movi.n	a2, 1
    6295:	0122d0        	slli	a2, a2, 19
    6298:	037d           	mov.n	a7, a3
    629a:	000f46        	j	62db <processNoiseFactor_fx+0x173>

0000629d <processNoiseFactor_fx+0x135>:
    629d:	822d           	ae_sext16	a2, a2
    629f:	f30c           	movi.n	a3, 15
    62a1:	147c           	movi.n	a4, -15
    62a3:	432230        	min	a2, a2, a3
    62a6:	532240        	max	a2, a2, a4
    62a9:	050c           	movi.n	a5, 0
    62ab:	400200        	ssr	a2
    62ae:	60c020        	neg	a12, a2
    62b1:	724520        	salt	a4, a5, a2
    62b4:	b1d0a0        	sra	a13, a10
    62b7:	401c00        	ssl	a12
    62ba:	220b           	addi.n	a2, a2, -1
    62bc:	a13a00        	sll	a3, a10
    62bf:	400200        	ssr	a2
    62c2:	91f0a0        	srl	a15, a10
    62c5:	933d40        	movnez	a3, a13, a4
    62c8:	0440f0        	extui	a4, a15, 0, 1
    62cb:	334a           	add.n	a3, a3, a4
    62cd:	113300        	slli	a3, a3, 16
    62d0:	1e0c           	movi.n	a14, 1
    62d2:	012ed0        	slli	a2, a14, 19
    62d5:	213b30        	srai	a3, a3, 11
    62d8:	c02230        	sub	a2, a2, a3
    62db:	360234        	ae_cvtq48a32s	aeq0, a2
    62de:	f8638141ee 	{ addi	a14, a1, 20; ae_roundsp16q48asym	aep0, aeq0 }
    62e3:	420e04        	ae_sp16f.l.i	aep0, a14, 0
    62e6:	0a9122        	l16si	a2, a1, 20
    62e9:	730c           	movi.n	a3, 7
    62eb:	0f0c           	movi.n	a15, 0
    62ed:	432230        	min	a2, a2, a3
    62f0:	5322f0        	max	a2, a2, a15
    62f3:	672d           	ae_s16i.n	a2, a7, 0
    62f5:	f01d           	retw.n

000062f7 <processNoiseFactor_fx+0x18f>:
	...

000062f8 <process_olpa_fx>:
    62f8:	00a136        	entry	a1, 80
    62fb:	47a582        	movi	a8, 0x547
    62fe:	09ad           	mov.n	a10, a9
    6300:	f1a092        	movi	a9, 241
    6303:	fcc3c2        	addi	a12, a3, -4
    6306:	6129           	s32i.n	a2, a1, 24
    6308:	1129b0        	slli	a2, a9, 5
    630b:	908880        	addx2	a8, a8, a8
    630e:	7b1c           	movi.n	a11, 23
    6310:	44ac14        	ae_lp16x2f.iu	aep2, a12, 4
    6313:	9159           	s32i.n	a5, a1, 36
    6315:	24db52        	addmi	a5, a11, 0x2400
    6318:	300824        	ae_cvtp24a16x2.ll	aep0, a8, a2
    631b:	f00a98952f 	{ ae_cvtp24a16x2.ll	aep1, a5, a2; ae_mulzaafp24s.hh.ll	aeq0, aep2, aep0 }
    6320:	fcc622        	addi	a2, a6, -4
    6323:	44ec14        	ae_lp16x2f.iu	aep6, a12, 4
    6326:	e23a2db21f 	{ ae_lp16x2f.iu	aep3, a2, 4; ae_mulafp24s.hh	aeq0, aep6, aep1 }
    632b:	e20d00e25f 	{ movi	a5, 226; ae_mulaafp24s.hl.lh	aeq0, aep3, aep0 }
    6330:	e918d0845f 	{ add	a8, a4, a5; ae_mulfp24s.hh	aeq3, aep6, aep0 }
    6335:	fa63b161de 	{ l32i	a13, a1, 88; ae_roundsp16q48asym	aep4, aeq0 }
    633a:	e32d72c81f 	{ ae_sp16f.l.iu	aep4, a8, 2; ae_mulaafp24s.hl.lh	aeq3, aep3, aep1 }
    633f:	44f214        	ae_lp16x2f.iu	aep7, a2, 4
    6342:	e31d40e4ef 	{ movi	a14, 228; ae_mulaafp24s.hl.lh	aeq3, aep7, aep0 }
    6347:	21f170        	srai	a15, a7, 1
    634a:	f97b94714f 	{ s32i.n	a4, a1, 28; ae_roundsp16q48asym	aep2, aeq3 }
    634f:	81d9           	s32i.n	a13, a1, 32
    6351:	a1f9           	s32i.n	a15, a1, 40
    6353:	8044e0        	add	a4, a4, a14
    6356:	42a814        	ae_sp16f.l.iu	aep2, a8, 2
    6359:	2167a6        	blti	a7, 6, 637e <process_olpa_fx+0x86>
    635c:	fcc752        	addi	a5, a7, -4
    635f:	215150        	srai	a5, a5, 1
    6362:	44a2f4        	ae_lp16x2f.iu	aep2, a2, -4
    6365:	158576        	loop	a5, 637e <process_olpa_fx+0x86>
    6368:	e809ade21f 	{ ae_lp16x2f.iu	aep6, a2, 4; ae_mulfp24s.lh	aeq0, aep2, aep0 }
    636d:	e2392df21f 	{ ae_lp16x2f.iu	aep7, a2, 4; ae_mulaafp24s.hl.lh	aeq0, aep6, aep1 }
    6372:	057014        	ae_mulaafp24s.hl.lh	aeq0, aep7, aep0
    6375:	1b8f24        	ae_roundsp16q48asym	aep2, aeq0
    6378:	42a814        	ae_sp16f.l.iu	aep2, a8, 2
    637b:	44a2f4        	ae_lp16x2f.iu	aep2, a2, -4

0000637e <process_olpa_fx+0x86>:
    637e:	905760        	addx2	a5, a7, a6
    6381:	fac552        	addi	a5, a5, -6
    6384:	25fd           	ae_l16si.n	a15, a5, 0
    6386:	63fd           	ae_s16i.n	a15, a3, 0
    6388:	356d           	ae_l16si.n	a6, a5, 2
    638a:	736d           	ae_s16i.n	a6, a3, 2
    638c:	029552        	l16si	a5, a5, 4
    638f:	51a9           	s32i.n	a10, a1, 20
    6391:	025352        	s16i	a5, a3, 4
    6394:	e7aa31        	l32r	a3, 23c (f0c <getScaleFactor16_0>)
    6397:	71a8           	l32i.n	a10, a1, 28
    6399:	182122        	l32i	a2, a1, 96
    639c:	72a0b2        	movi	a11, 114
    639f:	0003e0        	callx8	a3
    63a2:	6158           	l32i.n	a5, a1, 24
    63a4:	fdca82        	addi	a8, a10, -3
    63a7:	04ad           	mov.n	a10, a4
    63a9:	256d           	ae_l16si.n	a6, a5, 0
    63ab:	b189           	s32i.n	a8, a1, 44
    63ad:	c06680        	sub	a6, a6, a8
    63b0:	656d           	ae_s16i.n	a6, a5, 0
    63b2:	a168           	l32i.n	a6, a1, 40
    63b4:	06bd           	mov.n	a11, a6
    63b6:	0003e0        	callx8	a3
    63b9:	81f8           	l32i.n	a15, a1, 32
    63bb:	253d           	ae_l16si.n	a3, a5, 0
    63bd:	fdca92        	addi	a9, a10, -3
    63c0:	c05f90        	sub	a5, a15, a9
    63c3:	c03350        	sub	a3, a3, a5
    63c6:	e79fd1        	l32r	a13, 244 (1218 <Scale_sig>)
    63c9:	833d           	ae_sext16	a3, a3
    63cb:	1013a6        	blti	a3, 1, 63df <process_olpa_fx+0xe7>
    63ce:	c03930        	sub	a3, a9, a3
    63d1:	83cd           	ae_sext16	a12, a3
    63d3:	04ad           	mov.n	a10, a4
    63d5:	06bd           	mov.n	a11, a6
    63d7:	000de0        	callx8	a13
    63da:	b138           	l32i.n	a3, a1, 44
    63dc:	000546        	j	63f5 <process_olpa_fx+0xfd>

000063df <process_olpa_fx+0xe7>:
    63df:	e79981        	l32r	a8, 244 (1218 <Scale_sig>)
    63e2:	89cd           	ae_sext16	a12, a9
    63e4:	04ad           	mov.n	a10, a4
    63e6:	06bd           	mov.n	a11, a6
    63e8:	0008e0        	callx8	a8
    63eb:	b188           	l32i.n	a8, a1, 44
    63ed:	61f8           	l32i.n	a15, a1, 24
    63ef:	838a           	add.n	a8, a3, a8
    63f1:	083d           	mov.n	a3, a8
    63f3:	6f5d           	ae_s16i.n	a5, a15, 0
    63f5:	71a8           	l32i.n	a10, a1, 28
    63f7:	e79351        	l32r	a5, 244 (1218 <Scale_sig>)
    63fa:	83cd           	ae_sext16	a12, a3
    63fc:	72a0b2        	movi	a11, 114
    63ff:	72a032        	movi	a3, 114
    6402:	0005e0        	callx8	a5
    6405:	905620        	addx2	a5, a6, a2
    6408:	080c           	movi.n	a8, 0
    640a:	758d           	ae_s16i.n	a8, a5, 2
    640c:	06ed           	mov.n	a14, a6
    640e:	628d           	ae_s16i.n	a8, a2, 0
    6410:	0e27a6        	blti	a7, 2, 6422 <process_olpa_fx+0x12a>
    6413:	522b           	addi.n	a5, a2, 2
    6415:	046d           	mov.n	a6, a4
    6417:	078e76        	loop	a14, 6422 <process_olpa_fx+0x12a>
    641a:	268d           	ae_l16si.n	a8, a6, 0
    641c:	658d           	ae_s16i.n	a8, a5, 0
    641e:	662b           	addi.n	a6, a6, 2
    6420:	552b           	addi.n	a5, a5, 2

00006422 <process_olpa_fx+0x12a>:
    6422:	f96c           	movi.n	a9, -17
    6424:	fa7c           	movi.n	a10, -1
    6426:	5168           	l32i.n	a6, a1, 20
    6428:	fc24b1515e 	{ l32i	a5, a1, 84; ae_zeroq56	aeq0 }
    642d:	1421b2        	l32i	a11, a1, 80
    6430:	84a0c2        	movi	a12, 132
    6433:	80a0d2        	movi	a13, 128
    6436:	51b9           	s32i.n	a11, a1, 20
    6438:	6159           	s32i.n	a5, a1, 24
    643a:	fd2490f2cf 	{ add	a15, a2, a12; ae_zeroq56	aeq1 }
    643f:	2161e0        	srai	a6, a14, 1
    6442:	fe0c40118f 	{ movi	a8, 17; ae_movq56	aeq2, aeq1 }
    6447:	119900        	slli	a9, a9, 16
    644a:	01aaf0        	slli	a10, a10, 17
    644d:	b2da           	add.n	a11, a2, a13

0000644f <process_olpa_fx+0x157>:
    644f:	315190        	srai	a5, a9, 17
    6452:	02cd           	mov.n	a12, a2
    6454:	a0d540        	addx4	a13, a5, a4
    6457:	449c04        	ae_lp16x2f.iu	aep1, a12, 0
    645a:	448d04        	ae_lp16x2f.iu	aep0, a13, 0
    645d:	e204d3544f 	{ or	a5, a4, a4; ae_mulaap24s.hh.ll	aeq1, aep1, aep0 }
    6462:	1247a6        	blti	a7, 4, 6478 <process_olpa_fx+0x180>
    6465:	449504        	ae_lp16x2f.iu	aep1, a5, 0
    6468:	0c8676        	loop	a6, 6478 <process_olpa_fx+0x180>
    646b:	e304adac1f 	{ ae_lp16x2f.iu	aep2, a12, 4; ae_mulaap24s.hh.ll	aeq2, aep1, aep0 }
    6470:	448d14        	ae_lp16x2f.iu	aep0, a13, 4
    6473:	e208ed951f 	{ ae_lp16x2f.iu	aep1, a5, 4; ae_mulaap24s.hh.ll	aeq1, aep2, aep0 }

00006478 <process_olpa_fx+0x180>:
    6478:	fd24b9db1f 	{ ae_sq32f.iu	aeq1, a11, 4; ae_zeroq56	aeq1 }
    647d:	882b           	addi.n	a8, a8, 2
    647f:	99aa           	add.n	a9, a9, a10
    6481:	fe0c79eb1f 	{ ae_sq32f.iu	aeq2, a11, 4; ae_movq56	aeq2, aeq1 }
    6486:	c53837        	bltu	a8, a3, 644f <process_olpa_fx+0x157>
    6489:	e72031        	l32r	a3, 10c (b9b0 <olpa_ac_weighting>)
    648c:	0f6d           	mov.n	a6, a15
    648e:	605604        	ae_lq32f.iu	aeq1, a6, 0
    6491:	0338           	l32i.n	a3, a3, 0
    6493:	91a8           	l32i.n	a10, a1, 36
    6495:	f87c           	movi.n	a8, -1
    6497:	408304        	ae_lp16f.iu	aep0, a3, 0
    649a:	d4e340615f 	{ movi	a5, 97; ae_mulfq32sp16s.l	aeq1, aeq1, aep0 }
    649f:	f48080        	extui	a8, a8, 0, 16
    64a2:	fd6c7d761f 	{ ae_lq32f.iu	aeq3, a6, 4; ae_truncq32	aeq1, aeq1 }
    64a7:	408314        	ae_lp16f.iu	aep0, a3, 2
    64aa:	d7e300009f 	{ movi	a9, 0; ae_mulfq32sp16s.l	aeq2, aeq3, aep0 }
    64af:	6a8d           	ae_s16i.n	a8, a10, 0
    64b1:	198576        	loop	a5, 64ce <process_olpa_fx+0x1d6>
    64b4:	01edc4        	ae_subq56	aeq3, aeq2, aeq1
    64b7:	09b004        	ae_ltq56s	b0, aeq0, aeq3
    64ba:	030076        	bf	b0, 64c1 <process_olpa_fx+0x1c9>
    64bd:	098d           	mov.n	a8, a9
    64bf:	6a9d           	ae_s16i.n	a9, a10, 0

000064c1 <process_olpa_fx+0x1c9>:
    64c1:	f9eb3d761f 	{ ae_lq32f.iu	aeq3, a6, 4; ae_maxq56s	aeq1, aeq2, aeq1 }
    64c6:	408314        	ae_lp16f.iu	aep0, a3, 2
    64c9:	d7e300199e 	{ addi	a9, a9, 1; ae_mulfq32sp16s.l	aeq2, aeq3, aep0 }

000064ce <process_olpa_fx+0x1d6>:
    64ce:	150c           	movi.n	a5, 1
    64d0:	12c832        	addi	a3, a8, 18
    64d3:	364534        	ae_cvtq48a32s	aeq1, a5
    64d6:	fe0c5481ff 	{ s32i.n	a15, a1, 32; ae_movq56	aeq2, aeq1 }
    64db:	6a3d           	ae_s16i.n	a3, a10, 0
    64dd:	2127a6        	blti	a7, 2, 6502 <process_olpa_fx+0x20a>
    64e0:	835d           	ae_sext16	a5, a3
    64e2:	1155f0        	slli	a5, a5, 1
    64e5:	043d           	mov.n	a3, a4
    64e7:	fe0c55545f 	{ sub	a5, a4, a5; ae_movq56	aeq2, aeq1 }
    64ec:	408304        	ae_lp16f.iu	aep0, a3, 0
    64ef:	409504        	ae_lp16f.iu	aep1, a5, 0
    64f2:	0c8e76        	loop	a14, 6502 <process_olpa_fx+0x20a>
    64f5:	020104        	ae_mulap24s.hh	aeq0, aep0, aep1
    64f8:	e4266c951f 	{ ae_lp16f.iu	aep1, a5, 2; ae_mulap24s.hh	aeq1, aep1, aep1 }
    64fd:	e5022c831f 	{ ae_lp16f.iu	aep0, a3, 2; ae_mulap24s.hh	aeq2, aep0, aep0 }

00006502 <process_olpa_fx+0x20a>:
    6502:	369804        	ae_trunca32q48	a8, aeq1
    6505:	36a604        	ae_trunca32q48	a6, aeq2
    6508:	e53c           	movi.n	a5, 62
    650a:	40e890        	nsa	a9, a8
    650d:	839880        	moveqz	a9, a8, a8
    6510:	40e6d0        	nsa	a13, a6
    6513:	89ad           	ae_sext16	a10, a9
    6515:	83d660        	moveqz	a13, a6, a6
    6518:	60b0a0        	neg	a11, a10
    651b:	400b00        	ssr	a11
    651e:	8ded           	ae_sext16	a14, a13
    6520:	b1b080        	sra	a11, a8
    6523:	401a00        	ssl	a10
    6526:	60f0e0        	neg	a15, a14
    6529:	a18800        	sll	a8, a8
    652c:	400f00        	ssr	a15
    652f:	a38ba0        	movltz	a8, a11, a10
    6532:	b1a060        	sra	a10, a6
    6535:	401e00        	ssl	a14
    6538:	a16600        	sll	a6, a6
    653b:	a36ae0        	movltz	a6, a10, a14
    653e:	82a860        	mull	a10, a8, a6
    6541:	b26860        	mulsh	a6, a8, a6
    6544:	05cfa0        	extui	a12, a10, 31, 1
    6547:	9066c0        	addx2	a6, a6, a12
    654a:	40e680        	nsa	a8, a6
    654d:	838660        	moveqz	a8, a6, a6
    6550:	99da           	add.n	a9, a9, a13
    6552:	88dd           	ae_sext16	a13, a8
    6554:	60e0d0        	neg	a14, a13
    6557:	898a           	add.n	a8, a9, a8
    6559:	400e00        	ssr	a14
    655c:	c05580        	sub	a5, a5, a8
    655f:	b1f060        	sra	a15, a6
    6562:	401d00        	ssl	a13
    6565:	a1a600        	sll	a10, a6
    6568:	045152        	s16i	a5, a1, 8
    656b:	e77751        	l32r	a5, 348 (1434 <Isqrt>)
    656e:	a3afd0        	movltz	a10, a15, a13
    6571:	b18b           	addi.n	a11, a1, 8
    6573:	368304        	ae_trunca32q48	a3, aeq0
    6576:	0005e0        	callx8	a5
    6579:	40e350        	nsa	a5, a3
    657c:	835330        	moveqz	a5, a3, a3
    657f:	856d           	ae_sext16	a6, a5
    6581:	609060        	neg	a9, a6
    6584:	400900        	ssr	a9
    6587:	b19030        	sra	a9, a3
    658a:	401600        	ssl	a6
    658d:	a1b300        	sll	a11, a3
    6590:	a3b960        	movltz	a11, a9, a6
    6593:	049182        	l16si	a8, a1, 8
    6596:	82eba0        	mull	a14, a11, a10
    6599:	b2fba0        	mulsh	a15, a11, a10
    659c:	c0d850        	sub	a13, a8, a5
    659f:	055fe0        	extui	a5, a14, 31, 1
    65a2:	1fcd32        	addi	a3, a13, 31
    65a5:	905f50        	addx2	a5, a15, a5
    65a8:	61cb           	addi.n	a6, a1, 12
    65aa:	045132        	s16i	a3, a1, 8
    65ad:	958c           	beqz.n	a5, 65ba <process_olpa_fx+0x2c2>
    65af:	40e580        	nsa	a8, a5
    65b2:	c08830        	sub	a8, a8, a3
    65b5:	888d           	ae_sext16	a8, a8
    65b7:	025896        	bltz	a8, 65e0 <process_olpa_fx+0x2e8>

000065ba <process_olpa_fx+0x2c2>:
    65ba:	3159           	s32i.n	a5, a1, 12
    65bc:	833d           	ae_sext16	a3, a3
    65be:	600604        	ae_lq32f.i	aeq0, a6, 0
    65c1:	fc24fe830f 	{ ae_slaasq56s	aeq0, aeq0, a3; nop }
    65c6:	fc00c000ff 	{ movi	a15, 0; ae_satq48s	aeq0, aeq0 }
    65cb:	368d04        	ae_trunca32q48	a13, aeq0
    65ce:	360d34        	ae_cvtq48a32s	aeq0, a13
    65d1:	1b8f04        	ae_roundsp16q48asym	aep0, aeq0
    65d4:	420604        	ae_sp16f.l.i	aep0, a6, 0
    65d7:	0691e2        	l16si	a14, a1, 12
    65da:	533fe0        	max	a3, a15, a14
    65dd:	000146        	j	65e6 <process_olpa_fx+0x2ee>

000065e0 <process_olpa_fx+0x2e8>:
    65e0:	ffa032        	movi	a3, 255
    65e3:	7fd332        	addmi	a3, a3, 0x7f00
    65e6:	5158           	l32i.n	a5, a1, 20
    65e8:	61d8           	l32i.n	a13, a1, 24
    65ea:	8198           	l32i.n	a9, a1, 32
    65ec:	653d           	ae_s16i.n	a3, a5, 0
    65ee:	2d5d           	ae_l16si.n	a5, a13, 0
    65f0:	1e1c           	movi.n	a14, 17
    65f2:	72a0f2        	movi	a15, 114
    65f5:	fcc582        	addi	a8, a5, -4
    65f8:	554b           	addi.n	a5, a5, 4
    65fa:	855d           	ae_sext16	a5, a5
    65fc:	888d           	ae_sext16	a8, a8
    65fe:	a1d8           	l32i.n	a13, a1, 40
    6600:	533e80        	max	a3, a14, a8
    6603:	435f50        	min	a5, a15, a5
    6606:	3ca357        	bge	a3, a5, 6646 <process_olpa_fx+0x34e>
    6609:	a0a390        	addx4	a10, a3, a9
    660c:	bccaa2        	addi	a10, a10, -68
    660f:	0aa8           	l32i.n	a10, a10, 0
    6611:	a0b320        	addx4	a11, a3, a2
    6614:	c05530        	sub	a5, a5, a3
    6617:	231b           	addi.n	a2, a3, 1
    6619:	10c182        	addi	a8, a1, 16
    661c:	090c           	movi.n	a9, 0
    661e:	44cbb2        	addi	a11, a11, 68
    6621:	218576        	loop	a5, 6646 <process_olpa_fx+0x34e>
    6624:	0b58           	l32i.n	a5, a11, 0
    6626:	41a9           	s32i.n	a10, a1, 16
    6628:	3159           	s32i.n	a5, a1, 12
    662a:	600804        	ae_lq32f.i	aeq0, a8, 0
    662d:	604604        	ae_lq32f.i	aeq1, a6, 0
    6630:	f84a804bbe 	{ addi	a11, a11, 4; ae_subsq56s	aeq0, aeq1, aeq0 }
    6635:	060844        	ae_satq48s	aeq0, aeq0
    6638:	368c04        	ae_trunca32q48	a12, aeq0
    663b:	53a5a0        	max	a10, a5, a10
    663e:	72f9c0        	salt	a15, a9, a12
    6641:	9332f0        	movnez	a3, a2, a15
    6644:	221b           	addi.n	a2, a2, 1

00006646 <process_olpa_fx+0x34e>:
    6646:	9188           	l32i.n	a8, a1, 36
    6648:	935d           	ae_zext16	a5, a3
    664a:	71a8           	l32i.n	a10, a1, 28
    664c:	482d           	ae_l16ui.n	a2, a8, 0
    664e:	839d           	ae_sext16	a9, a3
    6650:	11b9f0        	slli	a11, a9, 1
    6653:	029257        	bne	a2, a5, 6659 <process_olpa_fx+0x361>
    6656:	005106        	j	679e <process_olpa_fx+0x4a6>
    6659:	c044b0        	sub	a4, a4, a11
    665c:	729a22        	l16si	a2, a10, 228
    665f:	244d           	ae_l16si.n	a4, a4, 0
    6661:	71c8           	l32i.n	a12, a1, 28
    6663:	d1f220        	mul16s	a15, a2, a2
    6666:	d18440        	mul16s	a8, a4, a4
    6669:	d12420        	mul16s	a2, a4, a2
    666c:	4f1b           	addi.n	a4, a15, 1
    666e:	881b           	addi.n	a8, a8, 1
    6670:	2947a6        	blti	a7, 4, 669d <process_olpa_fx+0x3a5>
    6673:	73a052        	movi	a5, 115
    6676:	e6a072        	movi	a7, 230
    6679:	c05590        	sub	a5, a5, a9
    667c:	ad0b           	addi.n	a10, a13, -1
    667e:	7c7a           	add.n	a7, a12, a7
    6680:	9095c0        	addx2	a9, a5, a12
    6683:	168a76        	loop	a10, 669d <process_olpa_fx+0x3a5>
    6686:	275d           	ae_l16si.n	a5, a7, 0
    6688:	29ad           	ae_l16si.n	a10, a9, 0
    668a:	772b           	addi.n	a7, a7, 2
    668c:	992b           	addi.n	a9, a9, 2
    668e:	d1ba50        	mul16s	a11, a10, a5
    6691:	d1aaa0        	mul16s	a10, a10, a10
    6694:	d15550        	mul16s	a5, a5, a5
    6697:	2b2a           	add.n	a2, a11, a2
    6699:	8a8a           	add.n	a8, a10, a8
    669b:	454a           	add.n	a4, a5, a4
    669d:	40e870        	nsa	a7, a8
    66a0:	837880        	moveqz	a7, a8, a8
    66a3:	40e450        	nsa	a5, a4
    66a6:	879d           	ae_sext16	a9, a7
    66a8:	60a090        	neg	a10, a9
    66ab:	835440        	moveqz	a5, a4, a4
    66ae:	400a00        	ssr	a10
    66b1:	85fd           	ae_sext16	a15, a5
    66b3:	91a080        	srl	a10, a8
    66b6:	401900        	ssl	a9
    66b9:	60b0f0        	neg	a11, a15
    66bc:	a1e800        	sll	a14, a8
    66bf:	400b00        	ssr	a11
    66c2:	557a           	add.n	a5, a5, a7
    66c4:	917040        	srl	a7, a4
    66c7:	401f00        	ssl	a15
    66ca:	a1c400        	sll	a12, a4
    66cd:	a3ea90        	movltz	a14, a10, a9
    66d0:	a3c7f0        	movltz	a12, a7, a15
    66d3:	827ec0        	mull	a7, a14, a12
    66d6:	b24ec0        	mulsh	a4, a14, a12
    66d9:	057f70        	extui	a7, a7, 31, 1
    66dc:	904470        	addx2	a4, a4, a7
    66df:	40e470        	nsa	a7, a4
    66e2:	837440        	moveqz	a7, a4, a4
    66e5:	87dd           	ae_sext16	a13, a7
    66e7:	60e0d0        	neg	a14, a13
    66ea:	400e00        	ssr	a14
    66ed:	b1f040        	sra	a15, a4
    66f0:	401d00        	ssl	a13
    66f3:	a1a400        	sll	a10, a4
    66f6:	e93c           	movi.n	a9, 62
    66f8:	557a           	add.n	a5, a5, a7
    66fa:	e71341        	l32r	a4, 348 (1434 <Isqrt>)
    66fd:	c05950        	sub	a5, a9, a5
    6700:	a3afd0        	movltz	a10, a15, a13
    6703:	b18b           	addi.n	a11, a1, 8
    6705:	045152        	s16i	a5, a1, 8
    6708:	0004e0        	callx8	a4
    670b:	40e240        	nsa	a4, a2
    670e:	834220        	moveqz	a4, a2, a2
    6711:	847d           	ae_sext16	a7, a4
    6713:	049152        	l16si	a5, a1, 8
    6716:	60e070        	neg	a14, a7
    6719:	400e00        	ssr	a14
    671c:	c04540        	sub	a4, a5, a4
    671f:	b15020        	sra	a5, a2
    6722:	401700        	ssl	a7
    6725:	a1f200        	sll	a15, a2
    6728:	a3f570        	movltz	a15, a5, a7
    672b:	825fa0        	mull	a5, a15, a10
    672e:	b22fa0        	mulsh	a2, a15, a10
    6731:	055f50        	extui	a5, a5, 31, 1
    6734:	1fc442        	addi	a4, a4, 31
    6737:	902250        	addx2	a2, a2, a5
    673a:	045142        	s16i	a4, a1, 8
    673d:	928c           	beqz.n	a2, 674a <process_olpa_fx+0x452>
    673f:	40e250        	nsa	a5, a2
    6742:	c05540        	sub	a5, a5, a4
    6745:	855d           	ae_sext16	a5, a5
    6747:	026596        	bltz	a5, 6771 <process_olpa_fx+0x479>

0000674a <process_olpa_fx+0x452>:
    674a:	3129           	s32i.n	a2, a1, 12
    674c:	84cd           	ae_sext16	a12, a4
    674e:	600604        	ae_lq32f.i	aeq0, a6, 0
    6751:	fc24fe8c0f 	{ ae_slaasq56s	aeq0, aeq0, a12; nop }
    6756:	fc00c000ff 	{ movi	a15, 0; ae_satq48s	aeq0, aeq0 }
    675b:	368d04        	ae_trunca32q48	a13, aeq0
    675e:	360d34        	ae_cvtq48a32s	aeq0, a13
    6761:	1b8f04        	ae_roundsp16q48asym	aep0, aeq0
    6764:	420604        	ae_sp16f.l.i	aep0, a6, 0
    6767:	0691e2        	l16si	a14, a1, 12
    676a:	532fe0        	max	a2, a15, a14
    676d:	000186        	j	6777 <process_olpa_fx+0x47f>

00006770 <process_olpa_fx+0x478>:
	...

00006771 <process_olpa_fx+0x479>:
    6771:	ffa022        	movi	a2, 255
    6774:	7fd222        	addmi	a2, a2, 0x7f00
    6777:	5148           	l32i.n	a4, a1, 20
    6779:	cda052        	movi	a5, 205
    677c:	6cd552        	addmi	a5, a5, 0x6c00
    677f:	244d           	ae_l16si.n	a4, a4, 0
    6781:	9188           	l32i.n	a8, a1, 36
    6783:	a1d8           	l32i.n	a13, a1, 40
    6785:	d14450        	mul16s	a4, a4, a5
    6788:	51f8           	l32i.n	a15, a1, 20
    678a:	40d442        	addmi	a4, a4, 0x4000
    678d:	214f40        	srai	a4, a4, 15
    6790:	a44d           	ae_clamps16	a4, a4
    6792:	c04240        	sub	a4, a2, a4
    6795:	844d           	ae_sext16	a4, a4
    6797:	0314a6        	blti	a4, 1, 679e <process_olpa_fx+0x4a6>
    679a:	683d           	ae_s16i.n	a3, a8, 0
    679c:	6f2d           	ae_s16i.n	a2, a15, 0
    679e:	7158           	l32i.n	a5, a1, 28
    67a0:	6148           	l32i.n	a4, a1, 24
    67a2:	283d           	ae_l16si.n	a3, a8, 0
    67a4:	902d50        	addx2	a2, a13, a5
    67a7:	643d           	ae_s16i.n	a3, a4, 0
    67a9:	9f3c           	movi.n	a15, 57
    67ab:	fcc532        	addi	a3, a5, -4
    67ae:	448204        	ae_lp16x2f.iu	aep0, a2, 0
    67b1:	058f76        	loop	a15, 67ba <process_olpa_fx+0x4c2>
    67b4:	468314        	ae_sp16x2f.iu	aep0, a3, 4
    67b7:	448214        	ae_lp16x2f.iu	aep0, a2, 4

000067ba <process_olpa_fx+0x4c2>:
    67ba:	282d           	ae_l16si.n	a2, a8, 0
    67bc:	1122f0        	slli	a2, a2, 1
    67bf:	682d           	ae_s16i.n	a2, a8, 0
    67c1:	f01d           	retw.n

000067c3 <process_olpa_fx+0x4cb>:
    67c3:	00000000                                 .....

000067c8 <processPerBandEnergy_fx>:
    67c8:	00a136        	entry	a1, 80
    67cb:	1721b2        	l32i	a11, a1, 92
    67ce:	1621a2        	l32i	a10, a1, 88
    67d1:	bf4c           	movi.n	a15, 75
    67d3:	6080b0        	neg	a8, a11
    67d6:	248080        	extui	a8, a8, 0, 3
    67d9:	6149           	s32i.n	a4, a1, 24
    67db:	b139           	s32i.n	a3, a1, 44
    67dd:	a159           	s32i.n	a5, a1, 40
    67df:	8169           	s32i.n	a6, a1, 32
    67e1:	0f9af7        	bne	a10, a15, 67f4 <processPerBandEnergy_fx+0x2c>
    67e4:	e64231        	l32r	a3, ec (b97c <bands_offset_with_one_max_7_5ms>)
    67e7:	2ca142        	movi	a4, 0x12c
    67ea:	7149           	s32i.n	a4, a1, 28
    67ec:	0338           	l32i.n	a3, a3, 0
    67ee:	e64041        	l32r	a4, f0 (b980 <bands_offset_with_two_max_7_5ms>)
    67f1:	000306        	j	6801 <processPerBandEnergy_fx+0x39>

000067f4 <processPerBandEnergy_fx+0x2c>:
    67f4:	e63c31        	l32r	a3, e4 (b974 <bands_offset_with_one_max>)
    67f7:	90a142        	movi	a4, 0x190
    67fa:	7149           	s32i.n	a4, a1, 28
    67fc:	0338           	l32i.n	a3, a3, 0
    67fe:	e63a41        	l32r	a4, e8 (b978 <bands_offset_with_two_max>)
    6801:	0448           	l32i.n	a4, a4, 0
    6803:	903730        	addx2	a3, a7, a3
    6806:	23ad           	ae_l16si.n	a10, a3, 0
    6808:	90f740        	addx2	a15, a7, a4
    680b:	2fdd           	ae_l16si.n	a13, a15, 0
    680d:	cb8a           	add.n	a12, a11, a8
    680f:	51b9           	s32i.n	a11, a1, 20
    6811:	4189           	s32i.n	a8, a1, 16
    6813:	91c9           	s32i.n	a12, a1, 36
    6815:	4c1aa6        	blti	a10, 1, 6865 <processPerBandEnergy_fx+0x9d>
    6818:	6168           	l32i.n	a6, a1, 24
    681a:	130c           	movi.n	a3, 1
    681c:	f50c           	movi.n	a5, 15
    681e:	20b220        	or	a11, a2, a2
    6821:	3c8a76        	loop	a10, 6861 <processPerBandEnergy_fx+0x99>
    6824:	0688           	l32i.n	a8, a6, 0
    6826:	f40c           	movi.n	a4, 15
    6828:	b89c           	beqz.n	a8, 6847 <processPerBandEnergy_fx+0x7f>
    682a:	40e840        	nsa	a4, a8
    682d:	844d           	ae_sext16	a4, a4
    682f:	434540        	min	a4, a5, a4
    6832:	60e040        	neg	a14, a4
    6835:	400e00        	ssr	a14
    6838:	b1e080        	sra	a14, a8
    683b:	401400        	ssl	a4
    683e:	a18800        	sll	a8, a8
    6841:	a38e40        	movltz	a8, a14, a4
    6844:	000046        	j	6849 <processPerBandEnergy_fx+0x81>

00006847 <processPerBandEnergy_fx+0x7f>:
    6847:	080c           	movi.n	a8, 0
    6849:	318080        	srai	a8, a8, 16
    684c:	1144f0        	slli	a4, a4, 1
    684f:	d18880        	mul16s	a8, a8, a8
    6852:	c04340        	sub	a4, a3, a4
    6855:	6c4d           	ae_s16i.n	a4, a12, 0
    6857:	0b89           	s32i.n	a8, a11, 0
    6859:	664b           	addi.n	a6, a6, 4
    685b:	cc2b           	addi.n	a12, a12, 2
    685d:	0a4d           	mov.n	a4, a10
    685f:	bb4b           	addi.n	a11, a11, 4

00006861 <processPerBandEnergy_fx+0x99>:
    6861:	000086        	j	6867 <processPerBandEnergy_fx+0x9f>

00006864 <processPerBandEnergy_fx+0x9c>:
	...

00006865 <processPerBandEnergy_fx+0x9d>:
    6865:	040c           	movi.n	a4, 0
    6867:	142132        	l32i	a3, a1, 80
    686a:	3139           	s32i.n	a3, a1, 12
    686c:	0224d7        	blt	a4, a13, 6872 <processPerBandEnergy_fx+0xaa>
    686f:	003b46        	j	6960 <processPerBandEnergy_fx+0x198>
    6872:	4138           	l32i.n	a3, a1, 16
    6874:	6158           	l32i.n	a5, a1, 24
    6876:	71b8           	l32i.n	a11, a1, 28
    6878:	51e8           	l32i.n	a14, a1, 20
    687a:	160c           	movi.n	a6, 1
    687c:	903430        	addx2	a3, a4, a3
    687f:	c08d40        	sub	a8, a13, a4
    6882:	c096b0        	sub	a9, a6, a11
    6885:	a0f420        	addx4	a15, a4, a2
    6888:	a0c450        	addx4	a12, a4, a5
    688b:	be3a           	add.n	a11, a14, a3
    688d:	cf8876        	loop	a8, 6960 <processPerBandEnergy_fx+0x198>
    6890:	39aa           	add.n	a3, a9, a10
    6892:	833d           	ae_sext16	a3, a3
    6894:	013396        	bltz	a3, 68ab <processPerBandEnergy_fx+0xe3>
    6897:	7138           	l32i.n	a3, a1, 28
    6899:	f50c           	movi.n	a5, 15
    689b:	346c           	movi.n	a4, -29
    689d:	c03a30        	sub	a3, a10, a3
    68a0:	079396        	bltz	a3, 691d <processPerBandEnergy_fx+0x155>
    68a3:	030c           	movi.n	a3, 0
    68a5:	f44040        	extui	a4, a4, 0, 16
    68a8:	001b06        	j	6918 <processPerBandEnergy_fx+0x150>

000068ab <processPerBandEnergy_fx+0xe3>:
    68ab:	6138           	l32i.n	a3, a1, 24
    68ad:	170c           	movi.n	a7, 1
    68af:	a04a30        	addx4	a4, a10, a3
    68b2:	0438           	l32i.n	a3, a4, 0
    68b4:	1488           	l32i.n	a8, a4, 4
    68b6:	40e360        	nsa	a6, a3
    68b9:	864d           	ae_sext16	a4, a6
    68bb:	834330        	moveqz	a4, a3, a3
    68be:	f60c           	movi.n	a6, 15
    68c0:	40e850        	nsa	a5, a8
    68c3:	434640        	min	a4, a6, a4
    68c6:	855d           	ae_sext16	a5, a5
    68c8:	834630        	moveqz	a4, a6, a3
    68cb:	835880        	moveqz	a5, a8, a8
    68ce:	84ed           	ae_sext16	a14, a4
    68d0:	435e50        	min	a5, a14, a5
    68d3:	835480        	moveqz	a5, a4, a8
    68d6:	85ed           	ae_sext16	a14, a5
    68d8:	1145f0        	slli	a4, a5, 1
    68db:	6050e0        	neg	a5, a14
    68de:	400500        	ssr	a5
    68e1:	c04740        	sub	a4, a7, a4
    68e4:	b17030        	sra	a7, a3
    68e7:	401e00        	ssl	a14
    68ea:	a13300        	sll	a3, a3
    68ed:	400500        	ssr	a5
    68f0:	b15080        	sra	a5, a8
    68f3:	401e00        	ssl	a14
    68f6:	a337e0        	movltz	a3, a7, a14
    68f9:	a18800        	sll	a8, a8
    68fc:	a385e0        	movltz	a8, a5, a14
    68ff:	313030        	srai	a3, a3, 16
    6902:	315080        	srai	a5, a8, 16
    6905:	fe7c           	movi.n	a14, -1
    6907:	d13330        	mul16s	a3, a3, a3
    690a:	4162e0        	srli	a6, a14, 2
    690d:	d15550        	mul16s	a5, a5, a5
    6910:	433360        	min	a3, a3, a6
    6913:	335a           	add.n	a3, a3, a5
    6915:	213130        	srai	a3, a3, 1
    6918:	0f39           	s32i.n	a3, a15, 0
    691a:	000d06        	j	6952 <processPerBandEnergy_fx+0x18a>

0000691d <processPerBandEnergy_fx+0x155>:
    691d:	0c48           	l32i.n	a4, a12, 0
    691f:	f30c           	movi.n	a3, 15
    6921:	b49c           	beqz.n	a4, 6940 <processPerBandEnergy_fx+0x178>
    6923:	40e430        	nsa	a3, a4
    6926:	833d           	ae_sext16	a3, a3
    6928:	433530        	min	a3, a5, a3
    692b:	608030        	neg	a8, a3
    692e:	400800        	ssr	a8
    6931:	b18040        	sra	a8, a4
    6934:	401300        	ssl	a3
    6937:	a14400        	sll	a4, a4
    693a:	a34830        	movltz	a4, a8, a3
    693d:	000046        	j	6942 <processPerBandEnergy_fx+0x17a>

00006940 <processPerBandEnergy_fx+0x178>:
    6940:	040c           	movi.n	a4, 0
    6942:	314040        	srai	a4, a4, 16
    6945:	d18440        	mul16s	a8, a4, a4
    6948:	1133f0        	slli	a3, a3, 1
    694b:	1e0c           	movi.n	a14, 1
    694d:	c04e30        	sub	a4, a14, a3
    6950:	0f89           	s32i.n	a8, a15, 0
    6952:	3a2b           	addi.n	a3, a10, 2
    6954:	6b4d           	ae_s16i.n	a4, a11, 0
    6956:	bb2b           	addi.n	a11, a11, 2
    6958:	ff4b           	addi.n	a15, a15, 4
    695a:	cc4b           	addi.n	a12, a12, 4
    695c:	0d4d           	mov.n	a4, a13
    695e:	83ad           	ae_sext16	a10, a3

00006960 <processPerBandEnergy_fx+0x198>:
    6960:	fc24b0313e 	{ l32i	a3, a1, 12; ae_zeroq56	aeq0 }
    6965:	e5e481        	l32r	a8, f8 (b988 <bands_nrg_scale>)
    6968:	4168           	l32i.n	a6, a1, 16
    696a:	022437        	blt	a4, a3, 6970 <processPerBandEnergy_fx+0x1a8>
    696d:	003206        	j	6a39 <processPerBandEnergy_fx+0x271>
    6970:	8178           	l32i.n	a7, a1, 32
    6972:	e60e91        	l32r	a9, 1ac (ba6c <InvIntTable>)
    6975:	08d8           	l32i.n	a13, a8, 0
    6977:	3158           	l32i.n	a5, a1, 12
    6979:	51c8           	l32i.n	a12, a1, 20
    697b:	51d9           	s32i.n	a13, a1, 20
    697d:	90b460        	addx2	a11, a4, a6
    6980:	903470        	addx2	a3, a4, a7
    6983:	5178           	l32i.n	a7, a1, 20
    6985:	09e8           	l32i.n	a14, a9, 0
    6987:	a06420        	addx4	a6, a4, a2
    698a:	c05540        	sub	a5, a5, a4
    698d:	0f0c           	movi.n	a15, 0
    698f:	ccba           	add.n	a12, a12, a11
    6991:	fcc692        	addi	a9, a6, -4
    6994:	41e9           	s32i.n	a14, a1, 16

00006996 <processPerBandEnergy_fx+0x1ce>:
    6996:	33bd           	ae_l16si.n	a11, a3, 2
    6998:	6148           	l32i.n	a4, a1, 24
    699a:	71d8           	l32i.n	a13, a1, 28
    699c:	781c           	movi.n	a8, 23
    699e:	a0ea40        	addx4	a14, a10, a4
    69a1:	434bd0        	min	a4, a11, a13
    69a4:	605e04        	ae_lq32f.iu	aeq1, a14, 0
    69a7:	9b6d           	ae_zext16	a6, a11
    69a9:	18aa47        	bge	a10, a4, 69c5 <processPerBandEnergy_fx+0x1fd>
    69ac:	fe0c55f4af 	{ sub	a15, a4, a10; ae_movq56	aeq2, aeq1 }
    69b1:	781c           	movi.n	a8, 23
    69b3:	0edd           	mov.n	a13, a14
    69b5:	0a8f76        	loop	a15, 69c3 <processPerBandEnergy_fx+0x1fb>
    69b8:	366f04        	ae_nsaq56s	a15, aeq2
    69bb:	609d14        	ae_lq32f.iu	aeq2, a13, 4
    69be:	8ffd           	ae_sext16	a15, a15
    69c0:	4388f0        	min	a8, a8, a15

000069c3 <processPerBandEnergy_fx+0x1fb>:
    69c3:	0f0c           	movi.n	a15, 0

000069c5 <processPerBandEnergy_fx+0x1fd>:
    69c5:	23dd           	ae_l16si.n	a13, a3, 0
    69c7:	fe045566df 	{ sub	a6, a6, a13; ae_movq56	aeq2, aeq0 }
    69cc:	866d           	ae_sext16	a6, a6
    69ce:	536f60        	max	a6, a15, a6
    69d1:	fd1c           	movi.n	a13, 31
    69d3:	4366d0        	min	a6, a6, a13
    69d6:	11d600        	slli	a13, a6, 16
    69d9:	21dfd0        	srai	a13, a13, 15
    69dc:	d7da           	add.n	a13, a7, a13
    69de:	2ddd           	ae_l16si.n	a13, a13, 0
    69e0:	c088d0        	sub	a8, a8, a13
    69e3:	f8c882        	addi	a8, a8, -8
    69e6:	14aa47        	bge	a10, a4, 69fe <processPerBandEnergy_fx+0x236>
    69e9:	c0a4a0        	sub	a10, a4, a10
    69ec:	884d           	ae_sext16	a4, a8
    69ee:	0c8a76        	loop	a10, 69fe <processPerBandEnergy_fx+0x236>
    69f1:	fc24fe94cf 	{ ae_slaasq56s	aeq3, aeq1, a4; nop }
    69f6:	f8de3d3e1f 	{ ae_lq32f.iu	aeq1, a14, 4; ae_truncp24q48x2	aep0, aeq3, aeq3 }
    69fb:	028034        	ae_mulap24s.ll	aeq2, aep0, aep0

000069fe <processPerBandEnergy_fx+0x236>:
    69fe:	4148           	l32i.n	a4, a1, 16
    6a00:	8a7c           	movi.n	a10, -8
    6a02:	550b           	addi.n	a5, a5, -1
    6a04:	904640        	addx2	a4, a6, a4
    6a07:	444d           	ae_l16ui.n	a4, a4, 0
    6a09:	300444        	ae_cvtp24a16x2.ll	aep0, a4, a4
    6a0c:	d6e240233e 	{ addi	a3, a3, 2; ae_mulfq32sp16s.l	aeq1, aeq2, aep0 }
    6a11:	f460a0        	extui	a6, a10, 0, 16
    6a14:	d4443f1eaf 	{ ae_nsaq56s	a14, aeq1; ae_eqq56	b0, aeq1, aeq0 }
    6a19:	0bad           	mov.n	a10, a11
    6a1b:	4e6a           	add.n	a4, a14, a6
    6a1d:	d34f00        	movt	a4, a15, b0
    6a20:	84dd           	ae_sext16	a13, a4
    6a22:	904840        	addx2	a4, a8, a4
    6a25:	1e0c           	movi.n	a14, 1
    6a27:	fc24fe9d4f 	{ ae_slaasq56s	aeq1, aeq1, a13; nop }
    6a2c:	c04e40        	sub	a4, a14, a4
    6a2f:	6c4d           	ae_s16i.n	a4, a12, 0
    6a31:	625914        	ae_sq32f.iu	aeq1, a9, 4
    6a34:	cc2b           	addi.n	a12, a12, 2
    6a36:	f5c556        	bnez	a5, 6996 <processPerBandEnergy_fx+0x1ce>

00006a39 <processPerBandEnergy_fx+0x271>:
    6a39:	9178           	l32i.n	a7, a1, 36
    6a3b:	31f8           	l32i.n	a15, a1, 12
    6a3d:	136c           	movi.n	a3, -31
    6a3f:	448704        	ae_lp16x2f.iu	aep0, a7, 0
    6a42:	f96298933f 	{ ae_cvtp24a16x2.ll	aep1, a3, a3; ae_movp48	aep2, aep0 }
    6a47:	2141f0        	srai	a4, a15, 1
    6a4a:	092fa6        	blti	a15, 2, 6a57 <processPerBandEnergy_fx+0x28f>
    6a4d:	073d           	mov.n	a3, a7
    6a4f:	048476        	loop	a4, 6a57 <processPerBandEnergy_fx+0x28f>
    6a52:	d8466da31f 	{ ae_lp16x2f.iu	aep2, a3, 4; ae_maxp24s	aep1, aep1, aep2 }

00006a57 <processPerBandEnergy_fx+0x28f>:
    6a57:	dd25b0315e 	{ l32i	a5, a1, 12; ae_selp24.lh	aep2, aep1, aep1 }
    6a5c:	d84670b16e 	{ l32i	a6, a1, 44; ae_maxp24s	aep1, aep1, aep2 }
    6a61:	361324        	ae_trunca16p24s.l	a3, aep1
    6a64:	a188           	l32i.n	a8, a1, 40
    6a66:	3825a6        	blti	a5, 2, 6aa2 <processPerBandEnergy_fx+0x2da>
    6a69:	f51c           	movi.n	a5, 31
    6a6b:	601204        	ae_lq32f.iu	aeq0, a2, 0
    6a6e:	302554        	ae_cvtp24a16x2.ll	aep2, a5, a5
    6a71:	f03d           	nop.n
    6a73:	f03d           	nop.n
    6a75:	298476        	loop	a4, 6aa2 <processPerBandEnergy_fx+0x2da>
    6a78:	dd06ed871f 	{ ae_lp16x2f.iu	aep0, a7, 4; ae_subsp24s	aep3, aep1, aep0 }
    6a7d:	073ab4        	ae_minp24s	aep3, aep3, aep2
    6a80:	36b424        	ae_trunca16p24s.h	a4, aep3
    6a83:	363524        	ae_trunca16p24s.l	a5, aep3
    6a86:	604040        	neg	a4, a4
    6a89:	fc24fe840f 	{ ae_slaasq56s	aeq0, aeq0, a4; nop }
    6a8e:	624204        	ae_sq32f.iu	aeq0, a2, 0
    6a91:	60f050        	neg	a15, a5
    6a94:	601214        	ae_lq32f.iu	aeq0, a2, 4
    6a97:	fc24fe8f0f 	{ ae_slaasq56s	aeq0, aeq0, a15; nop }
    6a9c:	624204        	ae_sq32f.iu	aeq0, a2, 0
    6a9f:	601214        	ae_lq32f.iu	aeq0, a2, 4
    6aa2:	902830        	addx2	a2, a8, a3
    6aa5:	0f6c           	movi.n	a15, -32
    6aa7:	822d           	ae_sext16	a2, a2
    6aa9:	5322f0        	max	a2, a2, a15
    6aac:	662d           	ae_s16i.n	a2, a6, 0
    6aae:	f01d           	retw.n

00006ab0 <processQuantizeSpec_fx>:
    6ab0:	00e136        	entry	a1, 112
    6ab3:	025152        	s16i	a5, a1, 4
    6ab6:	e62851        	l32r	a5, 358 (e88 <Inv16>)
    6ab9:	6169           	s32i.n	a6, a1, 24
    6abb:	202182        	l32i	a8, a1, 128
    6abe:	1d21f2        	l32i	a15, a1, 116
    6ac1:	242162        	l32i	a6, a1, 144
    6ac4:	b14b           	addi.n	a11, a1, 4
    6ac6:	04ad           	mov.n	a10, a4
    6ac8:	2189           	s32i.n	a8, a1, 8
    6aca:	d199           	s32i.n	a9, a1, 52
    6acc:	81f9           	s32i.n	a15, a1, 32
    6ace:	0005e0        	callx8	a5
    6ad1:	4d17a6        	blti	a7, 1, 6b22 <processQuantizeSpec_fx+0x72>
    6ad4:	fd24a021ee 	{ l16si	a14, a1, 4; ae_zeroq56	aeq1 }
    6ad9:	61d8           	l32i.n	a13, a1, 24
    6adb:	f57c           	movi.n	a5, -1
    6add:	33ea           	add.n	a3, a3, a14
    6adf:	f1c332        	addi	a3, a3, -15
    6ae2:	9a8d           	ae_zext16	a8, a10
    6ae4:	240c           	movi.n	a4, 2
    6ae6:	115540        	slli	a5, a5, 12
    6ae9:	0fa0f2        	movi	a15, 15
    6aec:	833d           	ae_sext16	a3, a3
    6aee:	300544        	ae_cvtp24a16x2.ll	aep0, a5, a4
    6af1:	601204        	ae_lq32f.iu	aeq0, a2, 0
    6af4:	fe008fed4e 	{ addi	a4, a13, -2; ae_absq56	aeq2, aeq0 }
    6af9:	d64818988f 	{ ae_cvtp24a16x2.ll	aep1, a8, a8; ae_ltq56s	b0, aeq0, aeq1 }
    6afe:	4333f0        	min	a3, a3, a15
    6b01:	1d8776        	loop	a7, 6b22 <processQuantizeSpec_fx+0x72>
    6b04:	039294        	ae_mulfq32sp16s.l	aeq2, aeq2, aep1
    6b07:	fc24fea38f 	{ ae_slaasq56s	aeq2, aeq2, a3; nop }
    6b0c:	028014        	ae_mulap24s.hl	aeq2, aep0, aep0
    6b0f:	020076        	bf	b0, 6b15 <processQuantizeSpec_fx+0x65>
    6b12:	068a24        	ae_negq56	aeq2, aeq2

00006b15 <processQuantizeSpec_fx+0x65>:
    6b15:	f973bd121f 	{ ae_lq32f.iu	aeq0, a2, 4; ae_roundsp16q48asym	aep2, aeq2 }
    6b1a:	fe00b2a41f 	{ ae_sp16f.l.iu	aep2, a4, 2; ae_absq56	aeq2, aeq0 }
    6b1f:	099004        	ae_ltq56s	b0, aeq0, aeq1

00006b22 <processQuantizeSpec_fx+0x72>:
    6b22:	2128           	l32i.n	a2, a1, 8
    6b24:	8158           	l32i.n	a5, a1, 32
    6b26:	60af42        	movi	a4, -160
    6b29:	a03220        	addx4	a3, a2, a2
    6b2c:	1133b0        	slli	a3, a3, 5
    6b2f:	a33d           	ae_clamps16	a3, a3
    6b31:	c03530        	sub	a3, a5, a3
    6b34:	20aef2        	movi	a15, 0xfffffe20
    6b37:	434a           	add.n	a4, a3, a4
    6b39:	33fa           	add.n	a3, a3, a15
    6b3b:	d1a8           	l32i.n	a10, a1, 52
    6b3d:	1c21b2        	l32i	a11, a1, 112
    6b40:	180c           	movi.n	a8, 1
    6b42:	835d           	ae_sext16	a5, a3
    6b44:	a38650        	movltz	a8, a6, a5
    6b47:	fc2080002f 	{ movi	a2, 0; ae_zerop48	aep0 }
    6b4c:	844d           	ae_sext16	a4, a4
    6b4e:	723240        	salt	a3, a2, a4
    6b51:	938660        	movnez	a8, a6, a6
    6b54:	3447a6        	blti	a7, 4, 6b8c <processQuantizeSpec_fx+0xdc>
    6b57:	fec762        	addi	a6, a7, -2
    6b5a:	0621f2        	l32i	a15, a1, 24
    6b5d:	11d6f0        	slli	a13, a6, 1
    6b60:	41e2d0        	srli	a14, a13, 2
    6b63:	ffaf52        	movi	a5, -1
    6b66:	419160        	srli	a9, a6, 1
    6b69:	a06ef0        	addx4	a6, a14, a15
    6b6c:	114700        	slli	a4, a7, 16
    6b6f:	0155f0        	slli	a5, a5, 17
    6b72:	449604        	ae_lp16x2f.iu	aep1, a6, 0
    6b75:	138976        	loop	a9, 6b8c <processQuantizeSpec_fx+0xdc>
    6b78:	199804        	ae_eqp24	b0:b1, aep1, aep0
    6b7b:	021176        	bt	b1, 6b81 <processQuantizeSpec_fx+0xd1>
    6b7e:	00f686        	j	6f5c <processQuantizeSpec_fx+0x4ac>
    6b81:	021076        	bt	b0, 6b87 <processQuantizeSpec_fx+0xd7>
    6b84:	00f506        	j	6f5c <processQuantizeSpec_fx+0x4ac>
    6b87:	4496f4        	ae_lp16x2f.iu	aep1, a6, -4
    6b8a:	445a           	add.n	a4, a4, a5
    6b8c:	2f0c           	movi.n	a15, 2
    6b8e:	5362f0        	max	a6, a2, a15
    6b91:	2221a2        	l32i	a10, a1, 136
    6b94:	114b50        	slli	a4, a11, 11
    6b97:	113370        	slli	a3, a3, 9
    6b9a:	a3f680        	movltz	a15, a6, a8
    6b9d:	112600        	slli	a2, a6, 16
    6ba0:	60c040        	neg	a12, a4
    6ba3:	8139           	s32i.n	a3, a1, 32
    6ba5:	b1b9           	s32i.n	a11, a1, 44
    6ba7:	71f9           	s32i.n	a15, a1, 28
    6ba9:	116182        	s32i	a8, a1, 68
    6bac:	f129           	s32i.n	a2, a1, 60
    6bae:	a169           	s32i.n	a6, a1, 40
    6bb0:	106142        	s32i	a4, a1, 64
    6bb3:	1fa896        	bltz	a8, 6db1 <processQuantizeSpec_fx+0x301>
    6bb6:	3a8816        	beqz	a8, 6f62 <processQuantizeSpec_fx+0x4b2>
    6bb9:	0212e6        	bgei	a2, 1, 6bbf <processQuantizeSpec_fx+0x10f>
    6bbc:	0148c6        	j	70e3 <processQuantizeSpec_fx+0x633>
    6bbf:	e53b41        	l32r	a4, ac (b8ec <ari_spec_bits>)
    6bc2:	e53751        	l32r	a5, a0 (b8e0 <ari_spec_lookup>)
    6bc5:	271b           	addi.n	a2, a7, 1
    6bc7:	861b           	addi.n	a8, a6, 1
    6bc9:	b32770        	movgez	a2, a7, a7
    6bcc:	04b8           	l32i.n	a11, a4, 0
    6bce:	6148           	l32i.n	a4, a1, 24
    6bd0:	030c           	movi.n	a3, 0
    6bd2:	212120        	srai	a2, a2, 1
    6bd5:	05f8           	l32i.n	a15, a5, 0
    6bd7:	418180        	srli	a8, a8, 1
    6bda:	3139           	s32i.n	a3, a1, 12
    6bdc:	136122        	s32i	a2, a1, 76
    6bdf:	060c           	movi.n	a6, 0
    6be1:	030c           	movi.n	a3, 0
    6be3:	020c           	movi.n	a2, 0
    6be5:	51f9           	s32i.n	a15, a1, 20
    6be7:	e1b9           	s32i.n	a11, a1, 56
    6be9:	178876        	loop	a8, 6c04 <processQuantizeSpec_fx+0x154>
    6bec:	030180        	rsr.lend	a8
    6bef:	130080        	wsr.lbeg	a8
    6bf2:	e5db81        	l32r	a8, 360 (6d7b <processQuantizeSpec_fx+0x2cb>)
    6bf5:	0020f0        	nop
    6bf8:	130180        	wsr.lend	a8
    6bfb:	002000        	isync
    6bfe:	030280        	rsr.lcount	a8
    6c01:	01c882        	addi	a8, a8, 1
    6c04:	81b8           	l32i.n	a11, a1, 32
    6c06:	1321d2        	l32i	a13, a1, 76
    6c09:	9129           	s32i.n	a2, a1, 36
    6c0b:	2b3a           	add.n	a2, a11, a3
    6c0d:	725d60        	salt	a5, a13, a6
    6c10:	01d282        	addmi	a8, a2, 0x100
    6c13:	838250        	moveqz	a8, a2, a5
    6c16:	6a8d           	ae_s16i.n	a8, a10, 0
    6c18:	34dd           	ae_l16si.n	a13, a4, 2
    6c1a:	24bd           	ae_l16si.n	a11, a4, 0
    6c1c:	2139           	s32i.n	a3, a1, 8
    6c1e:	60e1d0        	abs	a14, a13
    6c21:	60f1b0        	abs	a15, a11
    6c24:	8e5d           	ae_sext16	a5, a14
    6c26:	8ffd           	ae_sext16	a15, a15
    6c28:	532f50        	max	a2, a15, a5
    6c2b:	e5cc31        	l32r	a3, 35c (b630 <overflow_warning_enable+0xc>)
    6c2e:	4129           	s32i.n	a2, a1, 16
    6c30:	40e220        	nsa	a2, a2
    6c33:	f0c292        	addi	a9, a2, -16
    6c36:	902930        	addx2	a2, a9, a3
    6c39:	222d           	ae_l16si.n	a2, a2, 0
    6c3b:	de0c           	movi.n	a14, 13
    6c3d:	08dc72        	addmi	a7, a12, 0x800
    6c40:	7a2d           	ae_s16i.n	a2, a10, 2
    6c42:	0239e7        	bltu	a9, a14, 6c48 <processQuantizeSpec_fx+0x198>
    6c45:	002fc6        	j	6d08 <processQuantizeSpec_fx+0x258>
    6c48:	ef0b           	addi.n	a14, a15, -1
    6c4a:	c1e9           	s32i.n	a14, a1, 48
    6c4c:	88ed           	ae_sext16	a14, a8
    6c4e:	5188           	l32i.n	a8, a1, 20
    6c50:	1b0c           	movi.n	a11, 1
    6c52:	72dbf0        	salt	a13, a11, a15
    6c55:	93c7d0        	movnez	a12, a7, a13
    6c58:	78ea           	add.n	a7, a8, a14
    6c5a:	000772        	l8ui	a7, a7, 0
    6c5d:	923d           	ae_zext16	a3, a2
    6c5f:	126132        	s32i	a3, a1, 72
    6c62:	723b50        	salt	a3, a11, a5
    6c65:	08dcd2        	addmi	a13, a12, 0x800
    6c68:	237700        	sext	a7, a7, 7
    6c6b:	83dc30        	moveqz	a13, a12, a3
    6c6e:	11c7b0        	slli	a12, a7, 5
    6c71:	9077c0        	addx2	a7, a7, a12
    6c74:	e1c8           	l32i.n	a12, a1, 56
    6c76:	c188           	l32i.n	a8, a1, 48
    6c78:	350b           	addi.n	a3, a5, -1
    6c7a:	7c7a           	add.n	a7, a12, a7
    6c7c:	101772        	l16ui	a7, a7, 32
    6c7f:	6233b0        	saltu	a3, a3, a11
    6c82:	6288b0        	saltu	a8, a8, a11
    6c85:	0cbd           	mov.n	a11, a12
    6c87:	cd7a           	add.n	a12, a13, a7
    6c89:	c139           	s32i.n	a3, a1, 48
    6c8b:	50a926        	beqi	a9, 12, 6cdf <processQuantizeSpec_fx+0x22f>
    6c8e:	5138           	l32i.n	a3, a1, 20
    6c90:	de3a           	add.n	a13, a14, a3
    6c92:	04dd32        	addmi	a3, a13, 0x400
    6c95:	000332        	l8ui	a3, a3, 0
    6c98:	233300        	sext	a3, a3, 7
    6c9b:	1173b0        	slli	a7, a3, 5
    6c9e:	903370        	addx2	a3, a3, a7
    6ca1:	3b3a           	add.n	a3, a11, a3
    6ca3:	101332        	l16ui	a3, a3, 32
    6ca6:	a70c           	movi.n	a7, 10
    6ca8:	cc3a           	add.n	a12, a12, a3
    6caa:	313797        	bltu	a7, a9, 6cdf <processQuantizeSpec_fx+0x22f>
    6cad:	0cdd72        	addmi	a7, a13, 0xc00
    6cb0:	08dd32        	addmi	a3, a13, 0x800
    6cb3:	000772        	l8ui	a7, a7, 0
    6cb6:	000332        	l8ui	a3, a3, 0
    6cb9:	237700        	sext	a7, a7, 7
    6cbc:	11d7b0        	slli	a13, a7, 5
    6cbf:	233300        	sext	a3, a3, 7
    6cc2:	9077d0        	addx2	a7, a7, a13
    6cc5:	1193b0        	slli	a9, a3, 5
    6cc8:	903390        	addx2	a3, a3, a9
    6ccb:	7b7a           	add.n	a7, a11, a7
    6ccd:	3b3a           	add.n	a3, a11, a3
    6ccf:	101772        	l16ui	a7, a7, 32
    6cd2:	101332        	l16ui	a3, a3, 32
    6cd5:	fdc2d2        	addi	a13, a2, -3
    6cd8:	827d70        	mull	a7, a13, a7
    6cdb:	3c3a           	add.n	a3, a12, a3
    6cdd:	c37a           	add.n	a12, a3, a7

00006cdf <processQuantizeSpec_fx+0x22f>:
    6cdf:	3178           	l32i.n	a7, a1, 12
    6ce1:	330c           	movi.n	a3, 3
    6ce3:	400200        	ssr	a2
    6ce6:	439230        	min	a9, a2, a3
    6ce9:	278a           	add.n	a2, a7, a8
    6ceb:	122182        	l32i	a8, a1, 72
    6cee:	c178           	l32i.n	a7, a1, 48
    6cf0:	b1f0f0        	sra	a15, a15
    6cf3:	380b           	addi.n	a3, a8, -1
    6cf5:	227a           	add.n	a2, a2, a7
    6cf7:	833d           	ae_sext16	a3, a3
    6cf9:	222b           	addi.n	a2, a2, 2
    6cfb:	11d340        	slli	a13, a3, 12
    6cfe:	3129           	s32i.n	a2, a1, 12
    6d00:	b15050        	sra	a5, a5
    6d03:	2cda           	add.n	a2, a12, a13
    6d05:	000386        	j	6d17 <processQuantizeSpec_fx+0x267>

00006d08 <processQuantizeSpec_fx+0x258>:
    6d08:	93c7b0        	movnez	a12, a7, a11
    6d0b:	e1b8           	l32i.n	a11, a1, 56
    6d0d:	08dc22        	addmi	a2, a12, 0x800
    6d10:	88ed           	ae_sext16	a14, a8
    6d12:	090c           	movi.n	a9, 0
    6d14:	832cd0        	moveqz	a2, a12, a13
    6d17:	5188           	l32i.n	a8, a1, 20
    6d19:	117960        	slli	a7, a9, 10
    6d1c:	77ea           	add.n	a7, a7, a14
    6d1e:	a035f0        	addx4	a3, a5, a15
    6d21:	025a32        	s16i	a3, a10, 4
    6d24:	787a           	add.n	a7, a8, a7
    6d26:	000772        	l8ui	a7, a7, 0
    6d29:	41c8           	l32i.n	a12, a1, 16
    6d2b:	0d0c           	movi.n	a13, 0
    6d2d:	237700        	sext	a7, a7, 7
    6d30:	11e7b0        	slli	a14, a7, 5
    6d33:	9077e0        	addx2	a7, a7, a14
    6d36:	7b7a           	add.n	a7, a11, a7
    6d38:	903370        	addx2	a3, a3, a7
    6d3b:	433d           	ae_l16ui.n	a3, a3, 0
    6d3d:	627dc0        	saltu	a7, a13, a12
    6d40:	1e0c           	movi.n	a14, 1
    6d42:	c23a           	add.n	a12, a2, a3
    6d44:	722ce0        	salt	a2, a12, a14
    6d47:	102720        	and	a2, a7, a2
    6d4a:	228c           	beqz.n	a2, 6d50 <processQuantizeSpec_fx+0x2a0>
    6d4c:	362b           	addi.n	a3, a6, 2
    6d4e:	7139           	s32i.n	a3, a1, 28
    6d50:	0ced           	mov.n	a14, a12
    6d52:	02cc           	bnez.n	a2, 6d56 <processQuantizeSpec_fx+0x2a6>
    6d54:	91e8           	l32i.n	a14, a1, 36
    6d56:	0b29e6        	bgei	a9, 2, 6d65 <processQuantizeSpec_fx+0x2b5>
    6d59:	2f5a           	add.n	a2, a15, a5
    6d5b:	391b           	addi.n	a3, a9, 1
    6d5d:	822320        	mull	a2, a3, a2
    6d60:	221b           	addi.n	a2, a2, 1
    6d62:	000046        	j	6d67 <processQuantizeSpec_fx+0x2b7>

00006d65 <processQuantizeSpec_fx+0x2b5>:
    6d65:	29cb           	addi.n	a2, a9, 12
    6d67:	2138           	l32i.n	a3, a1, 8
    6d69:	822d           	ae_sext16	a2, a2
    6d6b:	662b           	addi.n	a6, a6, 2
    6d6d:	343030        	extui	a3, a3, 0, 4
    6d70:	1133c0        	slli	a3, a3, 4
    6d73:	332a           	add.n	a3, a3, a2
    6d75:	444b           	addi.n	a4, a4, 4
    6d77:	aa6b           	addi.n	a10, a10, 6
    6d79:	0e2d           	mov.n	a2, a14

00006d7b <processQuantizeSpec_fx+0x2cb>:
    6d7b:	102132        	l32i	a3, a1, 64
    6d7e:	f27c           	movi.n	a2, -1
    6d80:	412520        	srli	a2, a2, 5
    6d83:	332a           	add.n	a3, a3, a2
    6d85:	112162        	l32i	a6, a1, 68
    6d88:	23ca           	add.n	a2, a3, a12
    6d8a:	d178           	l32i.n	a7, a1, 52
    6d8c:	1f2152        	l32i	a5, a1, 124
    6d8f:	1e2142        	l32i	a4, a1, 120
    6d92:	412b20        	srli	a2, a2, 11
    6d95:	221b           	addi.n	a2, a2, 1
    6d97:	178696        	bltz	a6, 6f13 <processQuantizeSpec_fx+0x463>
    6d9a:	33ea           	add.n	a3, a3, a14
    6d9c:	413b30        	srli	a3, a3, 11
    6d9f:	331b           	addi.n	a3, a3, 1
    6da1:	653d           	ae_s16i.n	a3, a5, 0
    6da3:	341616        	beqz	a6, 70e8 <processQuantizeSpec_fx+0x638>
    6da6:	3188           	l32i.n	a8, a1, 12
    6da8:	628a           	add.n	a6, a2, a8
    6daa:	238a           	add.n	a2, a3, a8
    6dac:	130c           	movi.n	a3, 1
    6dae:	005946        	j	6f17 <processQuantizeSpec_fx+0x467>

00006db1 <processQuantizeSpec_fx+0x301>:
    6db1:	0212e6        	bgei	a2, 1, 6db7 <processQuantizeSpec_fx+0x307>
    6db4:	00cac6        	j	70e3 <processQuantizeSpec_fx+0x633>
    6db7:	e4bd41        	l32r	a4, ac (b8ec <ari_spec_bits>)
    6dba:	e4b951        	l32r	a5, a0 (b8e0 <ari_spec_lookup>)
    6dbd:	371b           	addi.n	a3, a7, 1
    6dbf:	661b           	addi.n	a6, a6, 1
    6dc1:	b33770        	movgez	a3, a7, a7
    6dc4:	e566d1        	l32r	a13, 35c (b630 <overflow_warning_enable+0xc>)
    6dc7:	6198           	l32i.n	a9, a1, 24
    6dc9:	0448           	l32i.n	a4, a4, 0
    6dcb:	05f8           	l32i.n	a15, a5, 0
    6dcd:	213130        	srai	a3, a3, 1
    6dd0:	416160        	srli	a6, a6, 1
    6dd3:	020c           	movi.n	a2, 0
    6dd5:	0e0c           	movi.n	a14, 0
    6dd7:	2149           	s32i.n	a4, a1, 8
    6dd9:	41f9           	s32i.n	a15, a1, 16
    6ddb:	5139           	s32i.n	a3, a1, 20
    6ddd:	178676        	loop	a6, 6df8 <processQuantizeSpec_fx+0x348>
    6de0:	030160        	rsr.lend	a6
    6de3:	130060        	wsr.lbeg	a6
    6de6:	e55f61        	l32r	a6, 364 (6f10 <processQuantizeSpec_fx+0x460>)
    6de9:	0020f0        	nop
    6dec:	130160        	wsr.lend	a6
    6def:	002000        	isync
    6df2:	030260        	rsr.lcount	a6
    6df5:	01c662        	addi	a6, a6, 1
    6df8:	8138           	l32i.n	a3, a1, 32
    6dfa:	5148           	l32i.n	a4, a1, 20
    6dfc:	08dc62        	addmi	a6, a12, 0x800
    6dff:	33ea           	add.n	a3, a3, a14
    6e01:	724420        	salt	a4, a4, a2
    6e04:	01d3b2        	addmi	a11, a3, 0x100
    6e07:	83b340        	moveqz	a11, a3, a4
    6e0a:	6abd           	ae_s16i.n	a11, a10, 0
    6e0c:	498d           	ae_l16ui.n	a8, a9, 0
    6e0e:	594d           	ae_l16ui.n	a4, a9, 2
    6e10:	8bfd           	ae_sext16	a15, a11
    6e12:	88bd           	ae_sext16	a11, a8
    6e14:	847d           	ae_sext16	a7, a4
    6e16:	836c80        	moveqz	a6, a12, a8
    6e19:	60b1b0        	abs	a11, a11
    6e1c:	608170        	abs	a8, a7
    6e1f:	8bbd           	ae_sext16	a11, a11
    6e21:	88cd           	ae_sext16	a12, a8
    6e23:	08d632        	addmi	a3, a6, 0x800
    6e26:	537bc0        	max	a7, a11, a12
    6e29:	833640        	moveqz	a3, a6, a4
    6e2c:	40e740        	nsa	a4, a7
    6e2f:	f0c442        	addi	a4, a4, -16
    6e32:	9084d0        	addx2	a8, a4, a13
    6e35:	286d           	ae_l16si.n	a6, a8, 0
    6e37:	c70c           	movi.n	a7, 12
    6e39:	050c           	movi.n	a5, 0
    6e3b:	7a6d           	ae_s16i.n	a6, a10, 2
    6e3d:	02b747        	bgeu	a7, a4, 6e43 <processQuantizeSpec_fx+0x393>
    6e40:	002146        	j	6ec9 <processQuantizeSpec_fx+0x419>
    6e43:	4158           	l32i.n	a5, a1, 16
    6e45:	0d7d           	mov.n	a7, a13
    6e47:	55fa           	add.n	a5, a5, a15
    6e49:	000552        	l8ui	a5, a5, 0
    6e4c:	235500        	sext	a5, a5, 7
    6e4f:	1185b0        	slli	a8, a5, 5
    6e52:	905580        	addx2	a5, a5, a8
    6e55:	2188           	l32i.n	a8, a1, 8
    6e57:	41d8           	l32i.n	a13, a1, 16
    6e59:	585a           	add.n	a5, a8, a5
    6e5b:	101552        	l16ui	a5, a5, 32
    6e5e:	335a           	add.n	a3, a3, a5
    6e60:	50a426        	beqi	a4, 12, 6eb4 <processQuantizeSpec_fx+0x404>
    6e63:	5fda           	add.n	a5, a15, a13
    6e65:	04d5d2        	addmi	a13, a5, 0x400
    6e68:	000dd2        	l8ui	a13, a13, 0
    6e6b:	23dd00        	sext	a13, a13, 7
    6e6e:	118db0        	slli	a8, a13, 5
    6e71:	908d80        	addx2	a8, a13, a8
    6e74:	21d8           	l32i.n	a13, a1, 8
    6e76:	8d8a           	add.n	a8, a13, a8
    6e78:	101882        	l16ui	a8, a8, 32
    6e7b:	338a           	add.n	a3, a3, a8
    6e7d:	a80c           	movi.n	a8, 10
    6e7f:	313847        	bltu	a8, a4, 6eb4 <processQuantizeSpec_fx+0x404>
    6e82:	08d542        	addmi	a4, a5, 0x800
    6e85:	0cd582        	addmi	a8, a5, 0xc00
    6e88:	000442        	l8ui	a4, a4, 0
    6e8b:	000852        	l8ui	a5, a8, 0
    6e8e:	234400        	sext	a4, a4, 7
    6e91:	1184b0        	slli	a8, a4, 5
    6e94:	235500        	sext	a5, a5, 7
    6e97:	904480        	addx2	a4, a4, a8
    6e9a:	1185b0        	slli	a8, a5, 5
    6e9d:	905580        	addx2	a5, a5, a8
    6ea0:	5d5a           	add.n	a5, a13, a5
    6ea2:	4d4a           	add.n	a4, a13, a4
    6ea4:	101552        	l16ui	a5, a5, 32
    6ea7:	101442        	l16ui	a4, a4, 32
    6eaa:	fdc682        	addi	a8, a6, -3
    6ead:	825850        	mull	a5, a8, a5
    6eb0:	334a           	add.n	a3, a3, a4
    6eb2:	335a           	add.n	a3, a3, a5
    6eb4:	400600        	ssr	a6
    6eb7:	340c           	movi.n	a4, 3
    6eb9:	11d640        	slli	a13, a6, 12
    6ebc:	33da           	add.n	a3, a3, a13
    6ebe:	435640        	min	a5, a6, a4
    6ec1:	b1b0b0        	sra	a11, a11
    6ec4:	b1c0c0        	sra	a12, a12
    6ec7:	07dd           	mov.n	a13, a7
    6ec9:	4178           	l32i.n	a7, a1, 16
    6ecb:	116560        	slli	a6, a5, 10
    6ece:	66fa           	add.n	a6, a6, a15
    6ed0:	a04cb0        	addx4	a4, a12, a11
    6ed3:	025a42        	s16i	a4, a10, 4
    6ed6:	676a           	add.n	a6, a7, a6
    6ed8:	000662        	l8ui	a6, a6, 0
    6edb:	21f8           	l32i.n	a15, a1, 8
    6edd:	7bca           	add.n	a7, a11, a12
    6edf:	236600        	sext	a6, a6, 7
    6ee2:	1186b0        	slli	a8, a6, 5
    6ee5:	906680        	addx2	a6, a6, a8
    6ee8:	6f6a           	add.n	a6, a15, a6
    6eea:	904460        	addx2	a4, a4, a6
    6eed:	444d           	ae_l16ui.n	a4, a4, 0
    6eef:	0925e6        	bgei	a5, 2, 6efc <processQuantizeSpec_fx+0x44c>
    6ef2:	551b           	addi.n	a5, a5, 1
    6ef4:	825570        	mull	a5, a5, a7
    6ef7:	551b           	addi.n	a5, a5, 1
    6ef9:	000046        	j	6efe <processQuantizeSpec_fx+0x44e>

00006efc <processQuantizeSpec_fx+0x44c>:
    6efc:	55cb           	addi.n	a5, a5, 12
    6efe:	34e0e0        	extui	a14, a14, 0, 4
    6f01:	c34a           	add.n	a12, a3, a4
    6f03:	85fd           	ae_sext16	a15, a5
    6f05:	113ec0        	slli	a3, a14, 4
    6f08:	222b           	addi.n	a2, a2, 2
    6f0a:	994b           	addi.n	a9, a9, 4
    6f0c:	aa6b           	addi.n	a10, a10, 6
    6f0e:	e3fa           	add.n	a14, a3, a15

00006f10 <processQuantizeSpec_fx+0x460>:
    6f10:	0073c6        	j	70e3 <processQuantizeSpec_fx+0x633>

00006f13 <processQuantizeSpec_fx+0x463>:
    6f13:	030c           	movi.n	a3, 0
    6f15:	026d           	mov.n	a6, a2
    6f17:	b198           	l32i.n	a9, a1, 44
    6f19:	71a8           	l32i.n	a10, a1, 28
    6f1b:	a188           	l32i.n	a8, a1, 40
    6f1d:	652d           	ae_s16i.n	a2, a5, 0
    6f1f:	062d           	mov.n	a2, a6
    6f21:	048c           	beqz.n	a4, 6f25 <processQuantizeSpec_fx+0x475>
    6f23:	642d           	ae_s16i.n	a2, a4, 0
    6f25:	232152        	l32i	a5, a1, 140
    6f28:	212142        	l32i	a4, a1, 132
    6f2b:	8a6d           	ae_sext16	a6, a10
    6f2d:	1da687        	bge	a6, a8, 6f4e <processQuantizeSpec_fx+0x49e>
    6f30:	6178           	l32i.n	a7, a1, 24
    6f32:	f1f8           	l32i.n	a15, a1, 60
    6f34:	11e6f0        	slli	a14, a6, 1
    6f37:	90a670        	addx2	a10, a6, a7
    6f3a:	217ff0        	srai	a7, a15, 15
    6f3d:	e4e161        	l32r	a6, 2c4 (9b40 <memset>)
    6f40:	c0c7e0        	sub	a12, a7, a14
    6f43:	0b0c           	movi.n	a11, 0
    6f45:	097d           	mov.n	a7, a9
    6f47:	0006e0        	callx8	a6
    6f4a:	71a8           	l32i.n	a10, a1, 28
    6f4c:	079d           	mov.n	a9, a7
    6f4e:	822d           	ae_sext16	a2, a2
    6f50:	722920        	salt	a2, a9, a2
    6f53:	102320        	and	a2, a3, a2
    6f56:	652d           	ae_s16i.n	a2, a5, 0
    6f58:	64ad           	ae_s16i.n	a10, a4, 0
    6f5a:	f01d           	retw.n

00006f5c <processQuantizeSpec_fx+0x4ac>:
    6f5c:	312040        	srai	a2, a4, 16
    6f5f:	ff0a46        	j	6b8c <processQuantizeSpec_fx+0xdc>

00006f62 <processQuantizeSpec_fx+0x4b2>:
    6f62:	0212e6        	bgei	a2, 1, 6f68 <processQuantizeSpec_fx+0x4b8>
    6f65:	005e86        	j	70e3 <processQuantizeSpec_fx+0x633>
    6f68:	e45131        	l32r	a3, ac (b8ec <ari_spec_bits>)
    6f6b:	e44d41        	l32r	a4, a0 (b8e0 <ari_spec_lookup>)
    6f6e:	271b           	addi.n	a2, a7, 1
    6f70:	861b           	addi.n	a8, a6, 1
    6f72:	b32770        	movgez	a2, a7, a7
    6f75:	03d8           	l32i.n	a13, a3, 0
    6f77:	0458           	l32i.n	a5, a4, 0
    6f79:	6138           	l32i.n	a3, a1, 24
    6f7b:	212120        	srai	a2, a2, 1
    6f7e:	418180        	srli	a8, a8, 1
    6f81:	090c           	movi.n	a9, 0
    6f83:	060c           	movi.n	a6, 0
    6f85:	0b0c           	movi.n	a11, 0
    6f87:	5129           	s32i.n	a2, a1, 20
    6f89:	21d9           	s32i.n	a13, a1, 8
    6f8b:	9159           	s32i.n	a5, a1, 36
    6f8d:	178876        	loop	a8, 6fa8 <processQuantizeSpec_fx+0x4f8>
    6f90:	030180        	rsr.lend	a8
    6f93:	130080        	wsr.lbeg	a8
    6f96:	e4f481        	l32r	a8, 368 (70dc <processQuantizeSpec_fx+0x62c>)
    6f99:	0020f0        	nop
    6f9c:	130180        	wsr.lend	a8
    6f9f:	002000        	isync
    6fa2:	030280        	rsr.lcount	a8
    6fa5:	01c882        	addi	a8, a8, 1
    6fa8:	8128           	l32i.n	a2, a1, 32
    6faa:	5148           	l32i.n	a4, a1, 20
    6fac:	08dcd2        	addmi	a13, a12, 0x800
    6faf:	226a           	add.n	a2, a2, a6
    6fb1:	728490        	salt	a8, a4, a9
    6fb4:	01d2e2        	addmi	a14, a2, 0x100
    6fb7:	83e280        	moveqz	a14, a2, a8
    6fba:	6aed           	ae_s16i.n	a14, a10, 0
    6fbc:	43fd           	ae_l16ui.n	a15, a3, 0
    6fbe:	538d           	ae_l16ui.n	a8, a3, 2
    6fc0:	41b9           	s32i.n	a11, a1, 16
    6fc2:	8f7d           	ae_sext16	a7, a15
    6fc4:	83dcf0        	moveqz	a13, a12, a15
    6fc7:	88cd           	ae_sext16	a12, a8
    6fc9:	60b170        	abs	a11, a7
    6fcc:	6021c0        	abs	a2, a12
    6fcf:	8bbd           	ae_sext16	a11, a11
    6fd1:	822d           	ae_sext16	a2, a2
    6fd3:	08ddf2        	addmi	a15, a13, 0x800
    6fd6:	53cb20        	max	a12, a11, a2
    6fd9:	e4e071        	l32r	a7, 35c (b630 <overflow_warning_enable+0xc>)
    6fdc:	83fd80        	moveqz	a15, a13, a8
    6fdf:	40ecd0        	nsa	a13, a12
    6fe2:	f0cdd2        	addi	a13, a13, -16
    6fe5:	908d70        	addx2	a8, a13, a7
    6fe8:	288d           	ae_l16si.n	a8, a8, 0
    6fea:	c70c           	movi.n	a7, 12
    6fec:	040c           	movi.n	a4, 0
    6fee:	8eed           	ae_sext16	a14, a14
    6ff0:	7a8d           	ae_s16i.n	a8, a10, 2
    6ff2:	02b7d7        	bgeu	a7, a13, 6ff8 <processQuantizeSpec_fx+0x548>
    6ff5:	0020c6        	j	707c <processQuantizeSpec_fx+0x5cc>
    6ff8:	45ea           	add.n	a4, a5, a14
    6ffa:	000442        	l8ui	a4, a4, 0
    6ffd:	2158           	l32i.n	a5, a1, 8
    6fff:	234400        	sext	a4, a4, 7
    7002:	1174b0        	slli	a7, a4, 5
    7005:	904470        	addx2	a4, a4, a7
    7008:	454a           	add.n	a4, a5, a4
    700a:	101442        	l16ui	a4, a4, 32
    700d:	9178           	l32i.n	a7, a1, 36
    700f:	ff4a           	add.n	a15, a15, a4
    7011:	52ad26        	beqi	a13, 12, 7067 <processQuantizeSpec_fx+0x5b7>
    7014:	4e7a           	add.n	a4, a14, a7
    7016:	04d472        	addmi	a7, a4, 0x400
    7019:	000772        	l8ui	a7, a7, 0
    701c:	3149           	s32i.n	a4, a1, 12
    701e:	237700        	sext	a7, a7, 7
    7021:	1147b0        	slli	a4, a7, 5
    7024:	904740        	addx2	a4, a7, a4
    7027:	454a           	add.n	a4, a5, a4
    7029:	101442        	l16ui	a4, a4, 32
    702c:	a70c           	movi.n	a7, 10
    702e:	ff4a           	add.n	a15, a15, a4
    7030:	3337d7        	bltu	a7, a13, 7067 <processQuantizeSpec_fx+0x5b7>
    7033:	3178           	l32i.n	a7, a1, 12
    7035:	08d742        	addmi	a4, a7, 0x800
    7038:	0cd772        	addmi	a7, a7, 0xc00
    703b:	000442        	l8ui	a4, a4, 0
    703e:	000772        	l8ui	a7, a7, 0
    7041:	234400        	sext	a4, a4, 7
    7044:	11d4b0        	slli	a13, a4, 5
    7047:	237700        	sext	a7, a7, 7
    704a:	9044d0        	addx2	a4, a4, a13
    704d:	11d7b0        	slli	a13, a7, 5
    7050:	9077d0        	addx2	a7, a7, a13
    7053:	757a           	add.n	a7, a5, a7
    7055:	454a           	add.n	a4, a5, a4
    7057:	101772        	l16ui	a7, a7, 32
    705a:	101442        	l16ui	a4, a4, 32
    705d:	fdc8d2        	addi	a13, a8, -3
    7060:	827d70        	mull	a7, a13, a7
    7063:	4f4a           	add.n	a4, a15, a4
    7065:	f47a           	add.n	a15, a4, a7
    7067:	9158           	l32i.n	a5, a1, 36
    7069:	340c           	movi.n	a4, 3
    706b:	400800        	ssr	a8
    706e:	117840        	slli	a7, a8, 12
    7071:	434840        	min	a4, a8, a4
    7074:	b1b0b0        	sra	a11, a11
    7077:	b12020        	sra	a2, a2
    707a:	ff7a           	add.n	a15, a15, a7
    707c:	118460        	slli	a8, a4, 10
    707f:	88ea           	add.n	a8, a8, a14
    7081:	a072b0        	addx4	a7, a2, a11
    7084:	025a72        	s16i	a7, a10, 4
    7087:	858a           	add.n	a8, a5, a8
    7089:	000882        	l8ui	a8, a8, 0
    708c:	21e8           	l32i.n	a14, a1, 8
    708e:	238800        	sext	a8, a8, 7
    7091:	11d8b0        	slli	a13, a8, 5
    7094:	9088d0        	addx2	a8, a8, a13
    7097:	8e8a           	add.n	a8, a14, a8
    7099:	907780        	addx2	a7, a7, a8
    709c:	477d           	ae_l16ui.n	a7, a7, 0
    709e:	0e0c           	movi.n	a14, 0
    70a0:	628ec0        	saltu	a8, a14, a12
    70a3:	cf7a           	add.n	a12, a15, a7
    70a5:	1f0c           	movi.n	a15, 1
    70a7:	727cf0        	salt	a7, a12, a15
    70aa:	108870        	and	a8, a8, a7
    70ad:	288c           	beqz.n	a8, 70b3 <processQuantizeSpec_fx+0x603>
    70af:	792b           	addi.n	a7, a9, 2
    70b1:	7179           	s32i.n	a7, a1, 28
    70b3:	0ced           	mov.n	a14, a12
    70b5:	08cc           	bnez.n	a8, 70b9 <processQuantizeSpec_fx+0x609>
    70b7:	41e8           	l32i.n	a14, a1, 16
    70b9:	0b24e6        	bgei	a4, 2, 70c8 <processQuantizeSpec_fx+0x618>
    70bc:	2b2a           	add.n	a2, a11, a2
    70be:	441b           	addi.n	a4, a4, 1
    70c0:	822420        	mull	a2, a4, a2
    70c3:	221b           	addi.n	a2, a2, 1
    70c5:	000046        	j	70ca <processQuantizeSpec_fx+0x61a>

000070c8 <processQuantizeSpec_fx+0x618>:
    70c8:	24cb           	addi.n	a2, a4, 12
    70ca:	344060        	extui	a4, a6, 0, 4
    70cd:	822d           	ae_sext16	a2, a2
    70cf:	1144c0        	slli	a4, a4, 4
    70d2:	992b           	addi.n	a9, a9, 2
    70d4:	334b           	addi.n	a3, a3, 4
    70d6:	aa6b           	addi.n	a10, a10, 6
    70d8:	642a           	add.n	a6, a4, a2
    70da:	0ebd           	mov.n	a11, a14

000070dc <processQuantizeSpec_fx+0x62c>:
    70dc:	020c           	movi.n	a2, 0
    70de:	3129           	s32i.n	a2, a1, 12
    70e0:	ff25c6        	j	6d7b <processQuantizeSpec_fx+0x2cb>

000070e3 <processQuantizeSpec_fx+0x633>:
    70e3:	0e0c           	movi.n	a14, 0
    70e5:	fffcc6        	j	70dc <processQuantizeSpec_fx+0x62c>

000070e8 <processQuantizeSpec_fx+0x638>:
    70e8:	b198           	l32i.n	a9, a1, 44
    70ea:	71a8           	l32i.n	a10, a1, 28
    70ec:	a188           	l32i.n	a8, a1, 40
    70ee:	030c           	movi.n	a3, 0
    70f0:	e2f456        	bnez	a4, 6f23 <processQuantizeSpec_fx+0x473>
    70f3:	ff8b86        	j	6f25 <processQuantizeSpec_fx+0x475>

000070f6 <processQuantizeSpec_fx+0x646>:
	...

000070f8 <process_resamp12k8_fx>:
    70f8:	00a136        	entry	a1, 80
    70fb:	e40081        	l32r	a8, fc (b9a0 <resamp_filts>)
    70fe:	e400d1        	l32r	a13, 100 (b9a4 <resamp_params>)
    7101:	1821e2        	l32i	a14, a1, 96
    7104:	e49ab1        	l32r	a11, 36c (51eb851f <_end+0x51eaca37>)
    7107:	8179           	s32i.n	a7, a1, 32
    7109:	1721f2        	l32i	a15, a1, 92
    710c:	0d78           	l32i.n	a7, a13, 0
    710e:	0888           	l32i.n	a8, a8, 0
    7110:	3149           	s32i.n	a4, a1, 12
    7112:	04ad           	mov.n	a10, a4
    7114:	b24eb0        	mulsh	a4, a14, a11
    7117:	b169           	s32i.n	a6, a1, 44
    7119:	b06f70        	addx8	a6, a15, a7
    711c:	a0bf80        	addx4	a11, a15, a8
    711f:	1621c2        	l32i	a12, a1, 88
    7122:	05ff40        	extui	a15, a4, 31, 1
    7125:	414340        	srli	a4, a4, 3
    7128:	74fa           	add.n	a7, a4, a15
    712a:	46dd           	ae_l16ui.n	a13, a6, 0
    712c:	36ed           	ae_l16si.n	a14, a6, 2
    712e:	0216f2        	l16ui	a15, a6, 4
    7131:	031682        	l16ui	a8, a6, 6
    7134:	0b68           	l32i.n	a6, a11, 0
    7136:	1921b2        	l32i	a11, a1, 100
    7139:	1177b0        	slli	a7, a7, 5
    713c:	6c7d           	ae_s16i.n	a7, a12, 0
    713e:	51c9           	s32i.n	a12, a1, 20
    7140:	fc7c           	movi.n	a12, -1
    7142:	7199           	s32i.n	a9, a1, 28
    7144:	4142c0        	srli	a4, a12, 2
    7147:	41c150        	srli	a12, a5, 1
    714a:	fccb92        	addi	a9, a11, -4
    714d:	9169           	s32i.n	a6, a1, 36
    714f:	41b9           	s32i.n	a11, a1, 16
    7151:	448a04        	ae_lp16x2f.iu	aep0, a10, 0
    7154:	106c40        	and	a6, a12, a4
    7157:	09bd           	mov.n	a11, a9
    7159:	0a04c7        	bnone	a4, a12, 7167 <process_resamp12k8_fx+0x6f>
    715c:	09bd           	mov.n	a11, a9
    715e:	058676        	loop	a6, 7167 <process_resamp12k8_fx+0x6f>
    7161:	468b14        	ae_sp16x2f.iu	aep0, a11, 4
    7164:	448a14        	ae_lp16x2f.iu	aep0, a10, 4

00007167 <process_resamp12k8_fx+0x6f>:
    7167:	076507        	bbci	a5, 0, 7172 <process_resamp12k8_fx+0x7a>
    716a:	dc01802bae 	{ addi	a10, a11, 2; ae_selp24.lh	aep0, aep0, aep0 }
    716f:	428a14        	ae_sp16f.l.iu	aep0, a10, 2

00007172 <process_resamp12k8_fx+0x7a>:
    7172:	4148           	l32i.n	a4, a1, 16
    7174:	fc7c           	movi.n	a12, -1
    7176:	41b130        	srli	a11, a3, 1
    7179:	90a540        	addx2	a10, a5, a4
    717c:	41c2c0        	srli	a12, a12, 2
    717f:	448204        	ae_lp16x2f.iu	aep0, a2, 0
    7182:	fccaa2        	addi	a10, a10, -4
    7185:	110cb7        	bnone	a12, a11, 719a <process_resamp12k8_fx+0xa2>
    7188:	ffafc2        	movi	a12, -1
    718b:	41c2c0        	srli	a12, a12, 2
    718e:	10bbc0        	and	a11, a11, a12
    7191:	058b76        	loop	a11, 719a <process_resamp12k8_fx+0xa2>
    7194:	468a14        	ae_sp16x2f.iu	aep0, a10, 4
    7197:	448214        	ae_lp16x2f.iu	aep0, a2, 4

0000719a <process_resamp12k8_fx+0xa2>:
    719a:	076307        	bbci	a3, 0, 71a5 <process_resamp12k8_fx+0xad>
    719d:	dc01802a2e 	{ addi	a2, a10, 2; ae_selp24.lh	aep0, aep0, aep0 }
    71a2:	428214        	ae_sp16f.l.iu	aep0, a2, 2

000071a5 <process_resamp12k8_fx+0xad>:
    71a5:	4128           	l32i.n	a2, a1, 16
    71a7:	31c8           	l32i.n	a12, a1, 12
    71a9:	045050        	extui	a5, a5, 0, 1
    71ac:	903320        	addx2	a3, a3, a2
    71af:	fccc22        	addi	a2, a12, -4
    71b2:	448304        	ae_lp16x2f.iu	aep0, a3, 0
    71b5:	768c           	beqz.n	a6, 71c0 <process_resamp12k8_fx+0xc8>
    71b7:	058676        	loop	a6, 71c0 <process_resamp12k8_fx+0xc8>
    71ba:	468214        	ae_sp16x2f.iu	aep0, a2, 4
    71bd:	448314        	ae_lp16x2f.iu	aep0, a3, 4

000071c0 <process_resamp12k8_fx+0xc8>:
    71c0:	873d           	ae_sext16	a3, a7
    71c2:	658c           	beqz.n	a5, 71cc <process_resamp12k8_fx+0xd4>
    71c4:	dc0180222e 	{ addi	a2, a2, 2; ae_selp24.lh	aep0, aep0, aep0 }
    71c9:	428214        	ae_sp16f.l.iu	aep0, a2, 2

000071cc <process_resamp12k8_fx+0xd4>:
    71cc:	7128           	l32i.n	a2, a1, 28
    71ce:	1a2142        	l32i	a4, a1, 104
    71d1:	152122        	l32i	a2, a1, 84
    71d4:	a149           	s32i.n	a4, a1, 40
    71d6:	6129           	s32i.n	a2, a1, 24
    71d8:	3139           	s32i.n	a3, a1, 12
    71da:	0213e6        	bgei	a3, 1, 71e0 <process_resamp12k8_fx+0xe8>
    71dd:	002086        	j	7263 <process_resamp12k8_fx+0x16b>
    71e0:	6128           	l32i.n	a2, a1, 24
    71e2:	115ef0        	slli	a5, a14, 1
    71e5:	060c           	movi.n	a6, 0
    71e7:	fc248fe23e 	{ addi	a3, a2, -2; ae_zeroq56	aeq0 }
    71ec:	3128           	l32i.n	a2, a1, 12
    71ee:	140c           	movi.n	a4, 1
    71f0:	1c0c           	movi.n	a12, 1
    71f2:	4178           	l32i.n	a7, a1, 16
    71f4:	8cbd           	ae_sext16	a11, a12
    71f6:	90ab70        	addx2	a10, a11, a7
    71f9:	40eb07        	bbsi	a11, 0, 723d <process_resamp12k8_fx+0x145>
    71fc:	1a1ea6        	blti	a14, 1, 721a <process_resamp12k8_fx+0x122>
    71ff:	86bd           	ae_sext16	a11, a6
    7201:	9178           	l32i.n	a7, a1, 36
    7203:	82b5b0        	mull	a11, a5, a11
    7206:	448a04        	ae_lp16x2f.iu	aep0, a10, 0
    7209:	90bb70        	addx2	a11, a11, a7
    720c:	449b04        	ae_lp16x2f.iu	aep1, a11, 0
    720f:	078e76        	loop	a14, 721a <process_resamp12k8_fx+0x122>
    7212:	e220ad8a1f 	{ ae_lp16x2f.iu	aep0, a10, 4; ae_mulaap24s.hh.ll	aeq0, aep0, aep1 }
    7217:	449b14        	ae_lp16x2f.iu	aep1, a11, 4

0000721a <process_resamp12k8_fx+0x122>:
    721a:	668a           	add.n	a6, a6, a8
    721c:	f86395bd6f 	{ sub	a11, a13, a6; ae_roundsp16q48asym	aep0, aeq0 }
    7221:	8bbd           	ae_sext16	a11, a11
    7223:	acfa           	add.n	a10, a12, a15
    7225:	72bb40        	salt	a11, a11, a4
    7228:	caba           	add.n	a12, a10, a11
    722a:	93bdb0        	movnez	a11, a13, a11
    722d:	220b           	addi.n	a2, a2, -1
    722f:	fc24b2831f 	{ ae_sp16f.l.iu	aep0, a3, 2; ae_zeroq56	aeq0 }
    7234:	c066b0        	sub	a6, a6, a11
    7237:	fb7256        	bnez	a2, 71f2 <process_resamp12k8_fx+0xfa>
    723a:	000946        	j	7263 <process_resamp12k8_fx+0x16b>

0000723d <process_resamp12k8_fx+0x145>:
    723d:	d91ea6        	blti	a14, 1, 721a <process_resamp12k8_fx+0x122>
    7240:	86bd           	ae_sext16	a11, a6
    7242:	9178           	l32i.n	a7, a1, 36
    7244:	82b5b0        	mull	a11, a5, a11
    7247:	408a04        	ae_lp16f.iu	aep0, a10, 0
    724a:	90bb70        	addx2	a11, a11, a7
    724d:	449b04        	ae_lp16x2f.iu	aep1, a11, 0
    7250:	0c8e76        	loop	a14, 7260 <process_resamp12k8_fx+0x168>
    7253:	e4222cfa1f 	{ ae_lp16f.iu	aep7, a10, 2; ae_mulap24s.hh	aeq0, aep0, aep1 }
    7258:	e63f2c8a1f 	{ ae_lp16f.iu	aep0, a10, 2; ae_mulap24s.ll	aeq0, aep7, aep1 }
    725d:	449b14        	ae_lp16x2f.iu	aep1, a11, 4

00007260 <process_resamp12k8_fx+0x168>:
    7260:	ffed86        	j	721a <process_resamp12k8_fx+0x122>

00007263 <process_resamp12k8_fx+0x16b>:
    7263:	7128           	l32i.n	a2, a1, 28
    7265:	e3a721        	l32r	a2, 104 (b9a8 <highpass50_filt_num>)
    7268:	e3a841        	l32r	a4, 108 (b9ac <highpass50_filt_den>)
    726b:	61a8           	l32i.n	a10, a1, 24
    726d:	0228           	l32i.n	a2, a2, 0
    726f:	b168           	l32i.n	a6, a1, 44
    7271:	0448           	l32i.n	a4, a4, 0
    7273:	a158           	l32i.n	a5, a1, 40
    7275:	142132        	l32i	a3, a1, 80
    7278:	440204        	ae_lp16x2f.i	aep0, a2, 0
    727b:	441214        	ae_lp16x2f.i	aep1, a2, 4
    727e:	0a2d           	mov.n	a2, a10
    7280:	8f1c           	movi.n	a15, 24
    7282:	604604        	ae_lq32f.i	aeq1, a6, 0
    7285:	600614        	ae_lq32f.i	aeq0, a6, 4
    7288:	442404        	ae_lp16x2f.i	aep2, a4, 0
    728b:	40b204        	ae_lp16f.iu	aep3, a2, 0
    728e:	2d95f7        	bne	a5, a15, 72bf <process_resamp12k8_fx+0x1c7>
    7291:	31b8           	l32i.n	a11, a1, 12
    7293:	5188           	l32i.n	a8, a1, 20
    7295:	4f1ba6        	blti	a11, 1, 72e8 <process_resamp12k8_fx+0x1f0>
    7298:	208b76        	loop	a11, 72bc <process_resamp12k8_fx+0x1c4>
    729b:	e4627b00df 	{ ae_sraiq56	aeq3, aeq0, 1; ae_mulap24s.hh	aeq1, aep0, aep3 }
    72a0:	064944        	ae_satq48s	aeq1, aeq1
    72a3:	03a244        	ae_mulfq32sp16s.h	aeq2, aeq1, aep2
    72a6:	028334        	ae_mulap24s.ll	aeq2, aep0, aep3
    72a9:	032254        	ae_mulfq32sp16s.l	aeq0, aeq1, aep2
    72ac:	1b9f44        	ae_roundsp16q48asym	aep4, aeq1
    72af:	fbfa72420f 	{ ae_sp16f.l.i	aep4, a2, 0; ae_addsq56s	aeq3, aeq3, aeq2 }
    72b4:	e4663af05f 	{ ae_sllisq56s	aeq1, aeq3, 1; ae_mulap24s.hh	aeq0, aep1, aep3 }
    72b9:	40b214        	ae_lp16f.iu	aep3, a2, 2

000072bc <process_resamp12k8_fx+0x1c4>:
    72bc:	000a06        	j	72e8 <process_resamp12k8_fx+0x1f0>

000072bf <process_resamp12k8_fx+0x1c7>:
    72bf:	31b8           	l32i.n	a11, a1, 12
    72c1:	5188           	l32i.n	a8, a1, 20
    72c3:	211ba6        	blti	a11, 1, 72e8 <process_resamp12k8_fx+0x1f0>
    72c6:	1e8b76        	loop	a11, 72e8 <process_resamp12k8_fx+0x1f0>
    72c9:	020b04        	ae_mulap24s.hh	aeq1, aep0, aep3
    72cc:	068944        	ae_satq48s	aeq2, aeq1
    72cf:	032a84        	ae_mulfq32sp16s.h	aeq1, aeq2, aep2
    72d2:	020b34        	ae_mulap24s.ll	aeq1, aep0, aep3
    72d5:	1baf44        	ae_roundsp16q48asym	aep4, aeq2
    72d8:	365054        	ae_sllisq56s	aeq1, aeq1, 1
    72db:	f96672420f 	{ ae_sp16f.l.i	aep4, a2, 0; ae_addsq56s	aeq1, aeq0, aeq1 }
    72e0:	032294        	ae_mulfq32sp16s.l	aeq0, aeq2, aep2
    72e3:	e4662cb21f 	{ ae_lp16f.iu	aep3, a2, 2; ae_mulap24s.hh	aeq0, aep1, aep3 }

000072e8 <process_resamp12k8_fx+0x1f0>:
    72e8:	368404        	ae_trunca32q48	a4, aeq0
    72eb:	1649           	s32i.n	a4, a6, 4
    72ed:	8148           	l32i.n	a4, a1, 32
    72ef:	369204        	ae_trunca32q48	a2, aeq1
    72f2:	ff7c           	movi.n	a15, -1
    72f4:	0629           	s32i.n	a2, a6, 0
    72f6:	415130        	srli	a5, a3, 1
    72f9:	4162f0        	srli	a6, a15, 2
    72fc:	102560        	and	a2, a5, a6
    72ff:	448404        	ae_lp16x2f.iu	aep0, a4, 0
    7302:	080657        	bnone	a6, a5, 730e <process_resamp12k8_fx+0x216>
    7305:	058276        	loop	a2, 730e <process_resamp12k8_fx+0x216>
    7308:	468914        	ae_sp16x2f.iu	aep0, a9, 4
    730b:	448414        	ae_lp16x2f.iu	aep0, a4, 4
    730e:	076307        	bbci	a3, 0, 7319 <process_resamp12k8_fx+0x221>
    7311:	dc0180294e 	{ addi	a4, a9, 2; ae_selp24.lh	aep0, aep0, aep0 }
    7316:	428414        	ae_sp16f.l.iu	aep0, a4, 2

00007319 <process_resamp12k8_fx+0x221>:
    7319:	e41541        	l32r	a4, 370 (3ffffff0 <_end+0x3fff4508>)
    731c:	4151b0        	srli	a5, a11, 1
    731f:	41f8           	l32i.n	a15, a1, 16
    7321:	160457        	bnone	a4, a5, 733b <process_resamp12k8_fx+0x243>
    7324:	106540        	and	a6, a5, a4
    7327:	0a4d           	mov.n	a4, a10
    7329:	9053f0        	addx2	a5, a3, a15
    732c:	448404        	ae_lp16x2f.iu	aep0, a4, 0
    732f:	fcc552        	addi	a5, a5, -4
    7332:	058676        	loop	a6, 733b <process_resamp12k8_fx+0x243>
    7335:	468514        	ae_sp16x2f.iu	aep0, a5, 4
    7338:	448414        	ae_lp16x2f.iu	aep0, a4, 4

0000733b <process_resamp12k8_fx+0x243>:
    733b:	284d           	ae_l16si.n	a4, a8, 0
    733d:	250c           	movi.n	a5, 2
    733f:	043030        	extui	a3, a3, 0, 1
    7342:	90c450        	addx2	a12, a4, a5
    7345:	4158           	l32i.n	a5, a1, 16
    7347:	e3cc41        	l32r	a4, 278 (c14 <basop_memmove>)
    734a:	05bd           	mov.n	a11, a5
    734c:	0004e0        	callx8	a4
    734f:	3148           	l32i.n	a4, a1, 12
    7351:	81f8           	l32i.n	a15, a1, 32
    7353:	905450        	addx2	a5, a4, a5
    7356:	fccf42        	addi	a4, a15, -4
    7359:	448504        	ae_lp16x2f.iu	aep0, a5, 0
    735c:	728c           	beqz.n	a2, 7367 <process_resamp12k8_fx+0x26f>
    735e:	058276        	loop	a2, 7367 <process_resamp12k8_fx+0x26f>
    7361:	468414        	ae_sp16x2f.iu	aep0, a4, 4
    7364:	448514        	ae_lp16x2f.iu	aep0, a5, 4
    7367:	638c           	beqz.n	a3, 7371 <process_resamp12k8_fx+0x279>
    7369:	dc0180242e 	{ addi	a2, a4, 2; ae_selp24.lh	aep0, aep0, aep0 }
    736e:	428214        	ae_sp16f.l.iu	aep0, a2, 2

00007371 <process_resamp12k8_fx+0x279>:
    7371:	f01d           	retw.n

00007373 <process_resamp12k8_fx+0x27b>:
    7373:	00000000                                 .....

00007378 <scale_signal24_fx>:
    7378:	010136        	entry	a1, 128
    737b:	2621b2        	l32i	a11, a1, 152
    737e:	126162        	s32i	a6, a1, 72
    7381:	2721a2        	l32i	a10, a1, 156
    7384:	c1b9           	s32i.n	a11, a1, 48
    7386:	2521b2        	l32i	a11, a1, 148
    7389:	e3c961        	l32r	a6, 2b0 (fd0 <getScaleFactor32_0>)
    738c:	156142        	s32i	a4, a1, 84
    738f:	282192        	l32i	a9, a1, 160
    7392:	1061a2        	s32i	a10, a1, 64
    7395:	2421c2        	l32i	a12, a1, 144
    7398:	2321d2        	l32i	a13, a1, 140
    739b:	2221e2        	l32i	a14, a1, 136
    739e:	2021f2        	l32i	a15, a1, 128
    73a1:	212142        	l32i	a4, a1, 132
    73a4:	02ad           	mov.n	a10, a2
    73a6:	d199           	s32i.n	a9, a1, 52
    73a8:	b1c9           	s32i.n	a12, a1, 44
    73aa:	e1d9           	s32i.n	a13, a1, 56
    73ac:	f1e9           	s32i.n	a14, a1, 60
    73ae:	1161f2        	s32i	a15, a1, 68
    73b1:	166122        	s32i	a2, a1, 88
    73b4:	1761b2        	s32i	a11, a1, 92
    73b7:	0006e0        	callx8	a6
    73ba:	721c           	movi.n	a2, 23
    73bc:	c0f2a0        	sub	a15, a2, a10
    73bf:	b1a8           	l32i.n	a10, a1, 44
    73c1:	1221b2        	l32i	a11, a1, 72
    73c4:	8f2d           	ae_sext16	a2, a15
    73c6:	146122        	s32i	a2, a1, 80
    73c9:	0851f2        	s16i	a15, a1, 16
    73cc:	062d           	mov.n	a2, a6
    73ce:	0006e0        	callx8	a6
    73d1:	781c           	movi.n	a8, 23
    73d3:	c088a0        	sub	a8, a8, a10
    73d6:	c1a8           	l32i.n	a10, a1, 48
    73d8:	1121b2        	l32i	a11, a1, 68
    73db:	12c162        	addi	a6, a1, 18
    73de:	095182        	s16i	a8, a1, 18
    73e1:	0002e0        	callx8	a2
    73e4:	029d           	mov.n	a9, a2
    73e6:	d128           	l32i.n	a2, a1, 52
    73e8:	7f1c           	movi.n	a15, 23
    73ea:	2b0c           	movi.n	a11, 2
    73ec:	228d           	ae_l16si.n	a8, a2, 0
    73ee:	a189           	s32i.n	a8, a1, 40
    73f0:	c08fa0        	sub	a8, a15, a10
    73f3:	04ad           	mov.n	a10, a4
    73f5:	0a5182        	s16i	a8, a1, 20
    73f8:	0009e0        	callx8	a9
    73fb:	a1f8           	l32i.n	a15, a1, 40
    73fd:	228d           	ae_l16si.n	a8, a2, 0
    73ff:	e1b8           	l32i.n	a11, a1, 56
    7401:	c02fa0        	sub	a2, a15, a10
    7404:	fec222        	addi	a2, a2, -2
    7407:	0b5122        	s16i	a2, a1, 22
    740a:	e38c21        	l32r	a2, 23c (f0c <getScaleFactor16_0>)
    740d:	f1a8           	l32i.n	a10, a1, 60
    740f:	136182        	s32i	a8, a1, 76
    7412:	0002e0        	callx8	a2
    7415:	d188           	l32i.n	a8, a1, 52
    7417:	1321f2        	l32i	a15, a1, 76
    741a:	3b0c           	movi.n	a11, 3
    741c:	288d           	ae_l16si.n	a8, a8, 0
    741e:	a189           	s32i.n	a8, a1, 40
    7420:	c08fa0        	sub	a8, a15, a10
    7423:	1021a2        	l32i	a10, a1, 64
    7426:	fec882        	addi	a8, a8, -2
    7429:	0c5182        	s16i	a8, a1, 24
    742c:	0002e0        	callx8	a2
    742f:	152182        	l32i	a8, a1, 84
    7432:	a1f8           	l32i.n	a15, a1, 40
    7434:	720c           	movi.n	a2, 7
    7436:	1421d2        	l32i	a13, a1, 80
    7439:	682d           	ae_s16i.n	a2, a8, 0
    743b:	08ed           	mov.n	a14, a8
    743d:	c08fa0        	sub	a8, a15, a10
    7440:	fec882        	addi	a8, a8, -2
    7443:	590c           	movi.n	a9, 5
    7445:	5322d0        	max	a2, a2, a13
    7448:	0d5182        	s16i	a8, a1, 26
    744b:	068976        	loop	a9, 7455 <scale_signal24_fx+0xdd>
    744e:	268d           	ae_l16si.n	a8, a6, 0
    7450:	662b           	addi.n	a6, a6, 2
    7452:	532280        	max	a2, a2, a8

00007455 <scale_signal24_fx+0xdd>:
    7455:	761c           	movi.n	a6, 23
    7457:	1721d2        	l32i	a13, a1, 92
    745a:	c0f620        	sub	a15, a6, a2
    745d:	1621a2        	l32i	a10, a1, 88
    7460:	8f9d           	ae_sext16	a9, a15
    7462:	6e2d           	ae_s16i.n	a2, a14, 0
    7464:	81cb           	addi.n	a8, a1, 12
    7466:	60c090        	neg	a12, a9
    7469:	2a1da6        	blti	a13, 1, 7497 <scale_signal24_fx+0x11f>
    746c:	9d6d           	ae_zext16	a6, a13
    746e:	202aa0        	or	a2, a10, a10
    7471:	228676        	loop	a6, 7497 <scale_signal24_fx+0x11f>
    7474:	0268           	l32i.n	a6, a2, 0
    7476:	400c00        	ssr	a12
    7479:	224b           	addi.n	a2, a2, 4
    747b:	b1b060        	sra	a11, a6
    747e:	401900        	ssl	a9
    7481:	a16600        	sll	a6, a6
    7484:	a36b90        	movltz	a6, a11, a9
    7487:	360634        	ae_cvtq48a32s	aeq0, a6
    748a:	1b8f04        	ae_roundsp16q48asym	aep0, aeq0
    748d:	420804        	ae_sp16f.l.i	aep0, a8, 0
    7490:	0691f2        	l16si	a15, a1, 12
    7493:	63fd           	ae_s16i.n	a15, a3, 0
    7495:	332b           	addi.n	a3, a3, 2

00007497 <scale_signal24_fx+0x11f>:
    7497:	1221b2        	l32i	a11, a1, 72
    749a:	1121f2        	l32i	a15, a1, 68
    749d:	0b2122        	l32i	a2, a1, 44
    74a0:	271ba6        	blti	a11, 1, 74cb <scale_signal24_fx+0x153>
    74a3:	9b3d           	ae_zext16	a3, a11
    74a5:	228376        	loop	a3, 74cb <scale_signal24_fx+0x153>
    74a8:	0238           	l32i.n	a3, a2, 0
    74aa:	400c00        	ssr	a12
    74ad:	224b           	addi.n	a2, a2, 4
    74af:	b16030        	sra	a6, a3
    74b2:	401900        	ssl	a9
    74b5:	a13300        	sll	a3, a3
    74b8:	a33690        	movltz	a3, a6, a9
    74bb:	360334        	ae_cvtq48a32s	aeq0, a3
    74be:	1b8f04        	ae_roundsp16q48asym	aep0, aeq0
    74c1:	420804        	ae_sp16f.l.i	aep0, a8, 0
    74c4:	069162        	l16si	a6, a1, 12
    74c7:	656d           	ae_s16i.n	a6, a5, 0
    74c9:	552b           	addi.n	a5, a5, 2
    74cb:	291fa6        	blti	a15, 1, 74f8 <scale_signal24_fx+0x180>
    74ce:	c128           	l32i.n	a2, a1, 48
    74d0:	9f3d           	ae_zext16	a3, a15
    74d2:	228376        	loop	a3, 74f8 <scale_signal24_fx+0x180>
    74d5:	0238           	l32i.n	a3, a2, 0
    74d7:	400c00        	ssr	a12
    74da:	224b           	addi.n	a2, a2, 4
    74dc:	b15030        	sra	a5, a3
    74df:	401900        	ssl	a9
    74e2:	a13300        	sll	a3, a3
    74e5:	a33590        	movltz	a3, a5, a9
    74e8:	360334        	ae_cvtq48a32s	aeq0, a3
    74eb:	1b8f04        	ae_roundsp16q48asym	aep0, aeq0
    74ee:	420804        	ae_sp16f.l.i	aep0, a8, 0
    74f1:	069162        	l16si	a6, a1, 12
    74f4:	676d           	ae_s16i.n	a6, a7, 0
    74f6:	772b           	addi.n	a7, a7, 2
    74f8:	d168           	l32i.n	a6, a1, 52
    74fa:	2e3d           	ae_l16si.n	a3, a14, 0
    74fc:	f57c           	movi.n	a5, -1
    74fe:	262d           	ae_l16si.n	a2, a6, 0
    7500:	102172        	l32i	a7, a1, 64
    7503:	f45050        	extui	a5, a5, 0, 16
    7506:	c02230        	sub	a2, a2, a3
    7509:	332b           	addi.n	a3, a3, 2
    750b:	fec222        	addi	a2, a2, -2
    750e:	663d           	ae_s16i.n	a3, a6, 0
    7510:	590527        	bnone	a5, a2, 756d <scale_signal24_fx+0x1f5>
    7513:	822d           	ae_sext16	a2, a2
    7515:	250c           	movi.n	a5, 2
    7517:	603020        	neg	a3, a2
    751a:	148576        	loop	a5, 7532 <scale_signal24_fx+0x1ba>
    751d:	0458           	l32i.n	a5, a4, 0
    751f:	400300        	ssr	a3
    7522:	b16050        	sra	a6, a5
    7525:	401200        	ssl	a2
    7528:	a15500        	sll	a5, a5
    752b:	a35620        	movltz	a5, a6, a2
    752e:	0459           	s32i.n	a5, a4, 0
    7530:	444b           	addi.n	a4, a4, 4

00007532 <scale_signal24_fx+0x1ba>:
    7532:	e148           	l32i.n	a4, a1, 56
    7534:	f168           	l32i.n	a6, a1, 60
    7536:	1914a6        	blti	a4, 1, 7553 <scale_signal24_fx+0x1db>
    7539:	944d           	ae_zext16	a4, a4
    753b:	148476        	loop	a4, 7553 <scale_signal24_fx+0x1db>
    753e:	264d           	ae_l16si.n	a4, a6, 0
    7540:	400300        	ssr	a3
    7543:	b15040        	sra	a5, a4
    7546:	401200        	ssl	a2
    7549:	a14400        	sll	a4, a4
    754c:	a34520        	movltz	a4, a5, a2
    754f:	664d           	ae_s16i.n	a4, a6, 0
    7551:	662b           	addi.n	a6, a6, 2

00007553 <scale_signal24_fx+0x1db>:
    7553:	340c           	movi.n	a4, 3
    7555:	148476        	loop	a4, 756d <scale_signal24_fx+0x1f5>
    7558:	274d           	ae_l16si.n	a4, a7, 0
    755a:	400300        	ssr	a3
    755d:	b15040        	sra	a5, a4
    7560:	401200        	ssl	a2
    7563:	a14400        	sll	a4, a4
    7566:	a34520        	movltz	a4, a5, a2
    7569:	674d           	ae_s16i.n	a4, a7, 0
    756b:	772b           	addi.n	a7, a7, 2
    756d:	e38121        	l32r	a2, 374 (7ffffffe <_end+0x7fff4516>)
    7570:	113bf0        	slli	a3, a11, 1
    7573:	b1e8           	l32i.n	a14, a1, 44
    7575:	170237        	bnone	a2, a3, 7590 <scale_signal24_fx+0x218>
    7578:	c04db0        	sub	a4, a13, a11
    757b:	105320        	and	a5, a3, a2
    757e:	a034a0        	addx4	a3, a4, a10
    7581:	fece22        	addi	a2, a14, -2
    7584:	408304        	ae_lp16f.iu	aep0, a3, 0
    7587:	058576        	loop	a5, 7590 <scale_signal24_fx+0x218>
    758a:	428214        	ae_sp16f.l.iu	aep0, a2, 2
    758d:	408314        	ae_lp16f.iu	aep0, a3, 2
    7590:	c02df0        	sub	a2, a13, a15
    7593:	a0b2a0        	addx4	a11, a2, a10
    7596:	e33821        	l32r	a2, 278 (c14 <basop_memmove>)
    7599:	c1a8           	l32i.n	a10, a1, 48
    759b:	11cfe0        	slli	a12, a15, 2
    759e:	0002e0        	callx8	a2
    75a1:	f01d           	retw.n

000075a3 <scale_signal24_fx+0x22b>:
    75a3:	00000000                                 .....

000075a8 <processSnsComputeScf_fx>:
    75a8:	00a136        	entry	a1, 80
    75ab:	1521e2        	l32i	a14, a1, 84
    75ae:	c0c5f2        	addi	a15, a5, -64
    75b1:	02ad           	mov.n	a10, a2
    75b3:	6080e0        	neg	a8, a14
    75b6:	34b080        	extui	a11, a8, 0, 4
    75b9:	8f2d           	ae_sext16	a2, a15
    75bb:	b179           	s32i.n	a7, a1, 44
    75bd:	058d           	mov.n	a8, a5
    75bf:	ceba           	add.n	a12, a14, a11
    75c1:	71e9           	s32i.n	a14, a1, 28
    75c3:	61b9           	s32i.n	a11, a1, 24
    75c5:	0552d6        	bgez	a2, 761e <processSnsComputeScf_fx+0x76>
    75c8:	084c           	movi.n	a8, 64
    75ca:	250b           	addi.n	a2, a5, -1
    75cc:	c07850        	sub	a7, a8, a5
    75cf:	822d           	ae_sext16	a2, a2
    75d1:	87dd           	ae_sext16	a13, a7
    75d3:	2222d7        	blt	a2, a13, 75f9 <processSnsComputeScf_fx+0x51>
    75d6:	c072d0        	sub	a7, a2, a13
    75d9:	1b0c           	movi.n	a11, 1
    75db:	771b           	addi.n	a7, a7, 1
    75dd:	53b7b0        	max	a11, a7, a11
    75e0:	720b           	addi.n	a7, a2, -1
    75e2:	138b76        	loop	a11, 75f9 <processSnsComputeScf_fx+0x51>
    75e5:	822d           	ae_sext16	a2, a2
    75e7:	a0b2a0        	addx4	a11, a2, a10
    75ea:	22da           	add.n	a2, a2, a13
    75ec:	0bb8           	l32i.n	a11, a11, 0
    75ee:	a022a0        	addx4	a2, a2, a10
    75f1:	f70b           	addi.n	a15, a7, -1
    75f3:	02b9           	s32i.n	a11, a2, 0
    75f5:	072d           	mov.n	a2, a7
    75f7:	0f7d           	mov.n	a7, a15

000075f9 <processSnsComputeScf_fx+0x51>:
    75f9:	f23c           	movi.n	a2, 63
    75fb:	c02250        	sub	a2, a2, a5
    75fe:	822d           	ae_sext16	a2, a2
    7600:	01a296        	bltz	a2, 761e <processSnsComputeScf_fx+0x76>
    7603:	927d           	ae_zext16	a7, a2
    7605:	571b           	addi.n	a5, a7, 1
    7607:	a027a0        	addx4	a2, a7, a10
    760a:	b077a0        	addx8	a7, a7, a10
    760d:	0d8576        	loop	a5, 761e <processSnsComputeScf_fx+0x76>
    7610:	0258           	l32i.n	a5, a2, 0
    7612:	1759           	s32i.n	a5, a7, 4
    7614:	0258           	l32i.n	a5, a2, 0
    7616:	0759           	s32i.n	a5, a7, 0
    7618:	fcc222        	addi	a2, a2, -4
    761b:	f8c772        	addi	a7, a7, -8
    761e:	e2ad51        	l32r	a5, d4 (b93c <lpc_pre_emphasis>)
    7621:	e2ad71        	l32r	a7, d8 (b940 <lpc_pre_emphasis_e>)
    7624:	0a28           	l32i.n	a2, a10, 0
    7626:	0558           	l32i.n	a5, a5, 0
    7628:	1ae8           	l32i.n	a14, a10, 4
    762a:	3b0c           	movi.n	a11, 3
    762c:	11bb30        	slli	a11, a11, 13
    762f:	0778           	l32i.n	a7, a7, 0
    7631:	a05450        	addx4	a5, a4, a5
    7634:	a169           	s32i.n	a6, a1, 40
    7636:	b2b2b0        	mulsh	a11, a2, a11
    7639:	902220        	addx2	a2, a2, a2
    763c:	2162e0        	srai	a6, a14, 2
    763f:	05e8           	l32i.n	a14, a5, 0
    7641:	112230        	slli	a2, a2, 13
    7644:	412f20        	srli	a2, a2, 15
    7647:	a0f470        	addx4	a15, a4, a7
    764a:	1beb20        	depbits	a2, a11, 17, 15
    764d:	0fb8           	l32i.n	a11, a15, 0
    764f:	2e7d           	ae_l16si.n	a7, a14, 0
    7651:	262a           	add.n	a2, a6, a2
    7653:	2bdd           	ae_l16si.n	a13, a11, 0
    7655:	82f270        	mull	a15, a2, a7
    7658:	b22270        	mulsh	a2, a2, a7
    765b:	41fff0        	srli	a15, a15, 15
    765e:	dd3a           	add.n	a13, a13, a3
    7660:	1be2f0        	depbits	a15, a2, 17, 15
    7663:	805cd2        	s16i	a13, a12, 0x100
    7666:	01dc52        	addmi	a5, a12, 0x100
    7669:	d80b           	addi.n	a13, a8, -1
    766b:	5139           	s32i.n	a3, a1, 20
    766d:	41c9           	s32i.n	a12, a1, 16
    766f:	0cf9           	s32i.n	a15, a12, 0
    7671:	5038a6        	blti	a8, 3, 76c5 <processSnsComputeScf_fx+0x11d>
    7674:	0a3d           	mov.n	a3, a10
    7676:	4178           	l32i.n	a7, a1, 16
    7678:	0efd           	mov.n	a15, a14
    767a:	609304        	ae_lq32f.iu	aeq2, a3, 0
    767d:	20cbb0        	or	a12, a11, a11
    7680:	052122        	l32i	a2, a1, 20
    7683:	fec862        	addi	a6, a8, -2
    7686:	300224        	ae_cvtp24a16x2.ll	aep0, a2, a2
    7689:	409f14        	ae_lp16f.iu	aep1, a15, 2
    768c:	204550        	or	a4, a5, a5
    768f:	40ac14        	ae_lp16f.iu	aep2, a12, 2
    7692:	601314        	ae_lq32f.iu	aeq0, a3, 4
    7695:	2c8676        	loop	a6, 76c5 <processSnsComputeScf_fx+0x11d>
    7698:	db417b206f 	{ ae_sraiq56	aeq1, aeq2, 2; ae_addsp24s	aep7, aep0, aep2 }
    769d:	ff6c7b009f 	{ ae_sraiq56	aeq2, aeq0, 1; ae_truncq32	aeq3, aeq1 }
    76a2:	fe747d331f 	{ ae_lq32f.iu	aeq1, a3, 4; ae_truncq32	aeq2, aeq2 }
    76a7:	fafa3b10ef 	{ ae_sraiq56	aeq3, aeq1, 2; ae_addq56	aeq2, aeq3, aeq2 }
    76ac:	06fa34        	ae_truncq32	aeq3, aeq3
    76af:	01abc4        	ae_addq56	aeq2, aeq2, aeq3
    76b2:	039294        	ae_mulfq32sp16s.l	aeq2, aeq2, aep1
    76b5:	fe0479e71f 	{ ae_sq32f.iu	aeq2, a7, 4; ae_movq56	aeq2, aeq0 }
    76ba:	fc0c72f41f 	{ ae_sp16f.l.iu	aep7, a4, 2; ae_movq56	aeq0, aeq1 }
    76bf:	409f14        	ae_lp16f.iu	aep1, a15, 2
    76c2:	40ac14        	ae_lp16f.iu	aep2, a12, 2
    76c5:	41f8           	l32i.n	a15, a1, 16
    76c7:	fc24b1412e 	{ l32i	a2, a1, 80; ae_zeroq56	aeq0 }
    76cc:	80a142        	movi	a4, 0x180
    76cf:	9129           	s32i.n	a2, a1, 36
    76d1:	2f4a           	add.n	a2, a15, a4
    76d3:	a06da0        	addx4	a6, a13, a10
    76d6:	8129           	s32i.n	a2, a1, 32
    76d8:	90cdb0        	addx2	a12, a13, a11
    76db:	0628           	l32i.n	a2, a6, 0
    76dd:	a048a0        	addx4	a4, a8, a10
    76e0:	2c8d           	ae_l16si.n	a8, a12, 0
    76e2:	3c0c           	movi.n	a12, 3
    76e4:	f8c442        	addi	a4, a4, -8
    76e7:	11cc30        	slli	a12, a12, 13
    76ea:	0448           	l32i.n	a4, a4, 0
    76ec:	b2c2c0        	mulsh	a12, a2, a12
    76ef:	902220        	addx2	a2, a2, a2
    76f2:	907de0        	addx2	a7, a13, a14
    76f5:	5168           	l32i.n	a6, a1, 20
    76f7:	112230        	slli	a2, a2, 13
    76fa:	41af20        	srli	a10, a2, 15
    76fd:	277d           	ae_l16si.n	a7, a7, 0
    76ff:	214240        	srai	a4, a4, 2
    7702:	1beca0        	depbits	a10, a12, 17, 15
    7705:	44aa           	add.n	a4, a4, a10
    7707:	90ed50        	addx2	a14, a13, a5
    770a:	886a           	add.n	a8, a8, a6
    770c:	6e8d           	ae_s16i.n	a8, a14, 0
    770e:	828470        	mull	a8, a4, a7
    7711:	b2c470        	mulsh	a12, a4, a7
    7714:	bf1f22        	l16ui	a2, a15, 0x17e
    7717:	41ef80        	srli	a14, a8, 15
    771a:	a09df0        	addx4	a9, a13, a15
    771d:	1bece0        	depbits	a14, a12, 17, 15
    7720:	d26b           	addi.n	a13, a2, 6
    7722:	0b4c           	movi.n	a11, 64
    7724:	0f7d           	mov.n	a7, a15
    7726:	09e9           	s32i.n	a14, a9, 0
    7728:	02df32        	addmi	a3, a15, 0x200
    772b:	9d4d           	ae_zext16	a4, a13
    772d:	058d           	mov.n	a8, a5
    772f:	605704        	ae_lq32f.iu	aeq1, a7, 0
    7732:	0e8b76        	loop	a11, 7744 <processSnsComputeScf_fx+0x19c>
    7735:	289d           	ae_l16si.n	a9, a8, 0
    7737:	882b           	addi.n	a8, a8, 2
    7739:	c09490        	sub	a9, a4, a9
    773c:	3499b4        	ae_sraaq56	aeq2, aeq1, a9
    773f:	f8e23d371f 	{ ae_lq32f.iu	aeq1, a7, 4; ae_addq56	aeq0, aeq0, aeq2 }

00007744 <processSnsComputeScf_fx+0x19c>:
    7744:	82bd           	ae_sext16	a11, a2
    7746:	e30c21        	l32r	a2, 378 (149c <BASOP_Util_Log2_16>)
    7749:	368a04        	ae_trunca32q48	a10, aeq0
    774c:	026d           	mov.n	a6, a2
    774e:	0002e0        	callx8	a2
    7751:	93a022        	movi	a2, 147
    7754:	9ad222        	addmi	a2, a2, 0xffff9a00
    7757:	e30941        	l32r	a4, 37c (e56d0000 <_end+0xe56c4518>)
    775a:	532a20        	max	a2, a10, a2
    775d:	112200        	slli	a2, a2, 16
    7760:	424a           	add.n	a4, a2, a4
    7762:	4128           	l32i.n	a2, a1, 16
    7764:	074c           	movi.n	a7, 64
    7766:	314040        	srai	a4, a4, 16

00007769 <processSnsComputeScf_fx+0x1c1>:
    7769:	02a8           	l32i.n	a10, a2, 0
    776b:	25bd           	ae_l16si.n	a11, a5, 0
    776d:	0006e0        	callx8	a6
    7770:	5384a0        	max	a8, a4, a10
    7773:	770b           	addi.n	a7, a7, -1
    7775:	405582        	s16i	a8, a5, 128
    7778:	224b           	addi.n	a2, a2, 4
    777a:	552b           	addi.n	a5, a5, 2
    777c:	fe9756        	bnez	a7, 7769 <processSnsComputeScf_fx+0x1c1>
    777f:	4168           	l32i.n	a6, a1, 16
    7781:	aba042        	movi	a4, 171
    7784:	0ad442        	addmi	a4, a4, 0xa00
    7787:	070c           	movi.n	a7, 0
    7789:	c09622        	l16si	a2, a6, 0x180
    778c:	c19652        	l16si	a5, a6, 0x182
    778f:	595c           	movi.n	a9, 85
    7791:	180c           	movi.n	a8, 1
    7793:	300744        	ae_cvtp24a16x2.ll	aep0, a7, a4
    7796:	15d942        	addmi	a4, a9, 0x1500
    7799:	c396b2        	l16si	a11, a6, 0x186
    779c:	c49692        	l16si	a9, a6, 0x188
    779f:	118830        	slli	a8, a8, 13
    77a2:	c296a2        	l16si	a10, a6, 0x184
    77a5:	aaa0c2        	movi	a12, 170
    77a8:	6d5c           	movi.n	a13, 86
    77aa:	252a           	add.n	a2, a5, a2
    77ac:	301484        	ae_cvtp24a16x2.ll	aep1, a4, a8
    77af:	2adc42        	addmi	a4, a12, 0x2a00
    77b2:	15dd52        	addmi	a5, a13, 0x1500
    77b5:	d18b40        	mul16s	a8, a11, a4
    77b8:	d19950        	mul16s	a9, a9, a5
    77bb:	81e8           	l32i.n	a14, a1, 32
    77bd:	72aa           	add.n	a7, a2, a10
    77bf:	889a           	add.n	a8, a8, a9
    77c1:	117720        	slli	a7, a7, 14
    77c4:	2e4b           	addi.n	a2, a14, 4
    77c6:	808780        	add	a8, a7, a8
    77c9:	0ea0f2        	movi	a15, 14
    77cc:	44a204        	ae_lp16x2f.iu	aep2, a2, 0
    77cf:	207660        	or	a7, a6, a6
    77d2:	006682        	s32i	a8, a6, 0
    77d5:	178f76        	loop	a15, 77f0 <processSnsComputeScf_fx+0x248>
    77d8:	ea09add21f 	{ ae_lp16x2f.iu	aep5, a2, 4; ae_mulfp24s.ll	aeq0, aep2, aep0 }
    77dd:	e2342de21f 	{ ae_lp16x2f.iu	aep6, a2, 4; ae_mulaafp24s.hh.ll	aeq0, aep5, aep1 }
    77e2:	e2392df21f 	{ ae_lp16x2f.iu	aep7, a2, 4; ae_mulaafp24s.hl.lh	aeq0, aep6, aep1 }
    77e7:	017014        	ae_mulafp24s.hl	aeq0, aep7, aep0
    77ea:	624714        	ae_sq32f.iu	aeq0, a7, 4
    77ed:	44a2f4        	ae_lp16x2f.iu	aep2, a2, -4

000077f0 <processSnsComputeScf_fx+0x248>:
    77f0:	fe24afb62e 	{ l16si	a2, a6, 0x1f6; ae_zeroq56	aeq2 }
    77f5:	fc9672        	l16si	a7, a6, 0x1f8
    77f8:	fd9682        	l16si	a8, a6, 0x1fa
    77fb:	fe96c2        	l16si	a12, a6, 0x1fc
    77fe:	ff96d2        	l16si	a13, a6, 0x1fe
    7801:	d12250        	mul16s	a2, a2, a5
    7804:	5c8a           	add.n	a5, a12, a8
    7806:	d14740        	mul16s	a4, a7, a4
    7809:	55da           	add.n	a5, a5, a13
    780b:	1e0c           	movi.n	a14, 1
    780d:	115520        	slli	a5, a5, 14
    7810:	242a           	add.n	a2, a4, a2
    7812:	118e50        	slli	a8, a14, 11
    7815:	225a           	add.n	a2, a2, a5
    7817:	a1d8           	l32i.n	a13, a1, 40
    7819:	0921e2        	l32i	a14, a1, 36
    781c:	0f6622        	s32i	a2, a6, 60
    781f:	601604        	ae_lq32f.iu	aeq0, a6, 0
    7822:	10a0f2        	movi	a15, 16
    7825:	fd0458888f 	{ ae_cvtp24a16x2.ll	aep0, a8, a8; ae_movq56	aeq1, aeq0 }
    782a:	202660        	or	a2, a6, a6
    782d:	048f76        	loop	a15, 7835 <processSnsComputeScf_fx+0x28d>
    7830:	f583bd321f 	{ ae_lq32f.iu	aeq1, a2, 4; ae_mulafq32sp16s.l	aeq2, aeq1, aep0 }
    7835:	cda022        	movi	a2, 205
    7838:	6cd222        	addmi	a2, a2, 0x6c00
    783b:	041c           	movi.n	a4, 16
    783d:	300224        	ae_cvtp24a16x2.ll	aep0, a2, a2
    7840:	fecd22        	addi	a2, a13, -2
    7843:	f03d           	nop.n
    7845:	148476        	loop	a4, 785d <processSnsComputeScf_fx+0x2b5>
    7848:	010ec4        	ae_subq56	aeq0, aeq0, aeq2
    784b:	350054        	ae_slliq56	aeq0, aeq0, 1
    784e:	1b8f14        	ae_roundsp16q48asym	aep1, aeq0
    7851:	010174        	ae_mulfp24s.ll	aeq0, aep0, aep1
    7854:	1b8f14        	ae_roundsp16q48asym	aep1, aeq0
    7857:	429214        	ae_sp16f.l.iu	aep1, a2, 2
    785a:	601614        	ae_lq32f.iu	aeq0, a6, 4
    785d:	b128           	l32i.n	a2, a1, 44
    785f:	aba072        	movi	a7, 171
    7862:	0bf216        	beqz	a2, 7925 <processSnsComputeScf_fx+0x37d>
    7865:	2d4d           	ae_l16si.n	a4, a13, 0
    7867:	3d5d           	ae_l16si.n	a5, a13, 2
    7869:	029d62        	l16si	a6, a13, 4
    786c:	2ad722        	addmi	a2, a7, 0x2a00
    786f:	454a           	add.n	a4, a5, a4
    7871:	446a           	add.n	a4, a4, a6
    7873:	844d           	ae_sext16	a4, a4
    7875:	d14420        	mul16s	a4, a4, a2
    7878:	7178           	l32i.n	a7, a1, 28
    787a:	6188           	l32i.n	a8, a1, 24
    787c:	214f40        	srai	a4, a4, 15
    787f:	634d           	ae_s16i.n	a4, a3, 0
    7881:	787a           	add.n	a7, a8, a7
    7883:	2d8d           	ae_l16si.n	a8, a13, 0
    7885:	3dad           	ae_l16si.n	a10, a13, 2
    7887:	029db2        	l16si	a11, a13, 4
    788a:	039d92        	l16si	a9, a13, 6
    788d:	6a8a           	add.n	a6, a10, a8
    788f:	04a2f2        	movi	a15, 0x204
    7892:	8b9a           	add.n	a8, a11, a9
    7894:	668a           	add.n	a6, a6, a8
    7896:	218260        	srai	a8, a6, 2
    7899:	77fa           	add.n	a7, a7, a15
    789b:	3c3c           	movi.n	a12, 51
    789d:	cf0c           	movi.n	a15, 12
    789f:	33dc52        	addmi	a5, a12, 0x3300
    78a2:	738d           	ae_s16i.n	a8, a3, 2
    78a4:	0d6d           	mov.n	a6, a13
    78a6:	804840        	add	a4, a8, a4
    78a9:	248f76        	loop	a15, 78d1 <processSnsComputeScf_fx+0x329>
    78ac:	268d           	ae_l16si.n	a8, a6, 0
    78ae:	369d           	ae_l16si.n	a9, a6, 2
    78b0:	0296a2        	l16si	a10, a6, 4
    78b3:	0396b2        	l16si	a11, a6, 6
    78b6:	0496c2        	l16si	a12, a6, 8
    78b9:	898a           	add.n	a8, a9, a8
    78bb:	faba           	add.n	a15, a10, a11
    78bd:	88fa           	add.n	a8, a8, a15
    78bf:	88ca           	add.n	a8, a8, a12
    78c1:	888d           	ae_sext16	a8, a8
    78c3:	d18850        	mul16s	a8, a8, a5
    78c6:	662b           	addi.n	a6, a6, 2
    78c8:	318080        	srai	a8, a8, 16
    78cb:	678d           	ae_s16i.n	a8, a7, 0
    78cd:	484a           	add.n	a4, a8, a4
    78cf:	772b           	addi.n	a7, a7, 2
    78d1:	0c9d52        	l16si	a5, a13, 24
    78d4:	0d9d62        	l16si	a6, a13, 26
    78d7:	0e9d72        	l16si	a7, a13, 28
    78da:	0f9d82        	l16si	a8, a13, 30
    78dd:	565a           	add.n	a5, a6, a5
    78df:	0f1c           	movi.n	a15, 16
    78e1:	978a           	add.n	a9, a7, a8
    78e3:	559a           	add.n	a5, a5, a9
    78e5:	215250        	srai	a5, a5, 2
    78e8:	0e5352        	s16i	a5, a3, 28
    78eb:	0d9da2        	l16si	a10, a13, 26
    78ee:	0e9db2        	l16si	a11, a13, 28
    78f1:	0f9dc2        	l16si	a12, a13, 30
    78f4:	454a           	add.n	a4, a5, a4
    78f6:	6baa           	add.n	a6, a11, a10
    78f8:	66ca           	add.n	a6, a6, a12
    78fa:	866d           	ae_sext16	a6, a6
    78fc:	d12620        	mul16s	a2, a6, a2
    78ff:	212f20        	srai	a2, a2, 15
    7902:	0f5322        	s16i	a2, a3, 30
    7905:	242a           	add.n	a2, a4, a2
    7907:	412420        	srli	a2, a2, 4
    790a:	178f76        	loop	a15, 7925 <processSnsComputeScf_fx+0x37d>
    790d:	234d           	ae_l16si.n	a4, a3, 0
    790f:	332b           	addi.n	a3, a3, 2
    7911:	c04420        	sub	a4, a4, a2
    7914:	844d           	ae_sext16	a4, a4
    7916:	d144e0        	mul16s	a4, a4, a14
    7919:	40d442        	addmi	a4, a4, 0x4000
    791c:	214f40        	srai	a4, a4, 15
    791f:	a44d           	ae_clamps16	a4, a4
    7921:	6d4d           	ae_s16i.n	a4, a13, 0
    7923:	dd2b           	addi.n	a13, a13, 2

00007925 <processSnsComputeScf_fx+0x37d>:
    7925:	f01d           	retw.n

00007927 <processSnsComputeScf_fx+0x37f>:
	...

00007928 <processTnsCoder_fx>:
    7928:	014136        	entry	a1, 160
    792b:	e1d781        	l32r	a8, 88 (b878 <BW_cutoff_bin_all>)
    792e:	0e0c           	movi.n	a14, 0
    7930:	2b21c2        	l32i	a12, a1, 172
    7933:	08d8           	l32i.n	a13, a8, 0
    7935:	1f0c           	movi.n	a15, 1
    7937:	2c21a2        	l32i	a10, a1, 176
    793a:	62ed           	ae_s16i.n	a14, a2, 0
    793c:	f149           	s32i.n	a4, a1, 60
    793e:	106132        	s32i	a3, a1, 64
    7941:	67fd           	ae_s16i.n	a15, a7, 0
    7943:	9045d0        	addx2	a4, a5, a13
    7946:	2a2132        	l32i	a3, a1, 168
    7949:	444d           	ae_l16ui.n	a4, a4, 0
    794b:	90fca0        	addx2	a15, a12, a10
    794e:	be4c           	movi.n	a14, 75
    7950:	8179           	s32i.n	a7, a1, 32
    7952:	1e6162        	s32i	a6, a1, 120
    7955:	9199           	s32i.n	a9, a1, 36
    7957:	02bd           	mov.n	a11, a2
    7959:	0a7d           	mov.n	a7, a10
    795b:	e1c9           	s32i.n	a12, a1, 56
    795d:	71f9           	s32i.n	a15, a1, 28
    795f:	1493e7        	bne	a3, a14, 7977 <processTnsCoder_fx+0x4f>
    7962:	849d           	ae_sext16	a9, a4
    7964:	219290        	srai	a9, a9, 2
    7967:	e1cc61        	l32r	a6, 98 (b8d8 <tns_subdiv_stopfreq_7_5ms>)
    796a:	e1ca81        	l32r	a8, 94 (b8d4 <tns_subdiv_startfreq_7_5ms>)
    796d:	902990        	addx2	a2, a9, a9
    7970:	940c           	movi.n	a4, 9
    7972:	a129           	s32i.n	a2, a1, 40
    7974:	000246        	j	7981 <processTnsCoder_fx+0x59>

00007977 <processTnsCoder_fx+0x4f>:
    7977:	e1c661        	l32r	a6, 90 (b8a8 <tns_subdiv_stopfreq>)
    797a:	e1c481        	l32r	a8, 8c (b8a4 <tns_subdiv_startfreq>)
    797d:	a149           	s32i.n	a4, a1, 40
    797f:	c40c           	movi.n	a4, 12
    7981:	0668           	l32i.n	a6, a6, 0
    7983:	0888           	l32i.n	a8, a8, 0
    7985:	7128           	l32i.n	a2, a1, 28
    7987:	a06560        	addx4	a6, a5, a6
    798a:	a08580        	addx4	a8, a5, a8
    798d:	fdc5d2        	addi	a13, a5, -3
    7990:	06e8           	l32i.n	a14, a6, 0
    7992:	08f8           	l32i.n	a15, a8, 0
    7994:	8d5d           	ae_sext16	a5, a13
    7996:	24c2a2        	addi	a10, a2, 36
    7999:	d1e9           	s32i.n	a14, a1, 52
    799b:	c1f9           	s32i.n	a15, a1, 48
    799d:	0a5142        	s16i	a4, a1, 20
    79a0:	1261b2        	s32i	a11, a1, 72
    79a3:	017596        	bltz	a5, 79be <processTnsCoder_fx+0x96>
    79a6:	243c           	movi.n	a4, 50
    79a8:	122347        	blt	a3, a4, 79be <processTnsCoder_fx+0x96>
    79ab:	a128           	l32i.n	a2, a1, 40
    79ad:	8148           	l32i.n	a4, a1, 32
    79af:	230c           	movi.n	a3, 2
    79b1:	82fd           	ae_sext16	a15, a2
    79b3:	2121f0        	srai	a2, a15, 1
    79b6:	643d           	ae_s16i.n	a3, a4, 0
    79b8:	176122        	s32i	a2, a1, 92
    79bb:	0b5122        	s16i	a2, a1, 22
    79be:	e22921        	l32r	a2, 264 (bf8 <basop_memset>)
    79c1:	0b0c           	movi.n	a11, 0
    79c3:	0c2c           	movi.n	a12, 32
    79c5:	1961a2        	s32i	a10, a1, 100
    79c8:	0002e0        	callx8	a2
    79cb:	8138           	l32i.n	a3, a1, 32
    79cd:	e1b8           	l32i.n	a11, a1, 56
    79cf:	9128           	l32i.n	a2, a1, 36
    79d1:	233d           	ae_l16si.n	a3, a3, 0
    79d3:	7168           	l32i.n	a6, a1, 28
    79d5:	292142        	l32i	a4, a1, 164
    79d8:	0213e6        	bgei	a3, 1, 79de <processTnsCoder_fx+0xb6>
    79db:	0122c6        	j	7e6a <processTnsCoder_fx+0x542>
    79de:	2d2122        	l32i	a2, a1, 180
    79e1:	1d6122        	s32i	a2, a1, 116
    79e4:	112bf0        	slli	a2, a11, 1
    79e7:	fec7d2        	addi	a13, a7, -2
    79ea:	227a           	add.n	a2, a2, a7
    79ec:	1f61d2        	s32i	a13, a1, 124
    79ef:	1021d2        	l32i	a13, a1, 64
    79f2:	2821a2        	l32i	a10, a1, 160
    79f5:	44c652        	addi	a5, a6, 68
    79f8:	68c6b2        	addi	a11, a6, 104
    79fb:	78c6c2        	addi	a12, a6, 120
    79fe:	fcc6e2        	addi	a14, a6, -4
    7a01:	364b           	addi.n	a3, a6, 4
    7a03:	48c222        	addi	a2, a2, 72
    7a06:	11f4f0        	slli	a15, a4, 1
    7a09:	1c61c2        	s32i	a12, a1, 112
    7a0c:	0c0c           	movi.n	a12, 0
    7a0e:	1161a2        	s32i	a10, a1, 68
    7a11:	136152        	s32i	a5, a1, 76
    7a14:	e1e9           	s32i.n	a14, a1, 56
    7a16:	1a6132        	s32i	a3, a1, 104
    7a19:	186122        	s32i	a2, a1, 96
    7a1c:	146142        	s32i	a4, a1, 80
    7a1f:	1b61f2        	s32i	a15, a1, 108
    7a22:	9179           	s32i.n	a7, a1, 36
    7a24:	b1b9           	s32i.n	a11, a1, 44
    7a26:	000a86        	j	7a54 <processTnsCoder_fx+0x12c>

00007a29 <processTnsCoder_fx+0x101>:
    7a29:	122142        	l32i	a4, a1, 72
    7a2c:	0f0c           	movi.n	a15, 0
    7a2e:	243d           	ae_l16si.n	a3, a4, 0
    7a30:	331b           	addi.n	a3, a3, 1
    7a32:	643d           	ae_s16i.n	a3, a4, 0
    7a34:	62fd           	ae_s16i.n	a15, a2, 0
    7a36:	8128           	l32i.n	a2, a1, 32
    7a38:	c138           	l32i.n	a3, a1, 48
    7a3a:	1b2142        	l32i	a4, a1, 108
    7a3d:	d1f8           	l32i.n	a15, a1, 52
    7a3f:	222d           	ae_l16si.n	a2, a2, 0
    7a41:	334a           	add.n	a3, a3, a4
    7a43:	c139           	s32i.n	a3, a1, 48
    7a45:	3f4a           	add.n	a3, a15, a4
    7a47:	cc1b           	addi.n	a12, a12, 1
    7a49:	10cdd2        	addi	a13, a13, 16
    7a4c:	d139           	s32i.n	a3, a1, 52
    7a4e:	022c27        	blt	a12, a2, 7a54 <processTnsCoder_fx+0x12c>
    7a51:	010546        	j	7e6a <processTnsCoder_fx+0x542>
    7a54:	71a8           	l32i.n	a10, a1, 28
    7a56:	e20321        	l32r	a2, 264 (bf8 <basop_memset>)
    7a59:	1661c2        	s32i	a12, a1, 88
    7a5c:	0b0c           	movi.n	a11, 0
    7a5e:	4c2c           	movi.n	a12, 36
    7a60:	1561d2        	s32i	a13, a1, 84
    7a63:	0002e0        	callx8	a2
    7a66:	142122        	l32i	a2, a1, 80
    7a69:	d138           	l32i.n	a3, a1, 52
    7a6b:	c158           	l32i.n	a5, a1, 48
    7a6d:	0212e6        	bgei	a2, 1, 7a73 <processTnsCoder_fx+0x14b>
    7a70:	005b86        	j	7be2 <processTnsCoder_fx+0x2ba>
    7a73:	142142        	l32i	a4, a1, 80
    7a76:	232d           	ae_l16si.n	a2, a3, 0
    7a78:	256d           	ae_l16si.n	a6, a5, 0
    7a7a:	f178           	l32i.n	a7, a1, 60
    7a7c:	c02260        	sub	a2, a2, a6
    7a7f:	a0a670        	addx4	a10, a6, a7
    7a82:	826d           	ae_sext16	a6, a2
    7a84:	e22221        	l32r	a2, 30c (f88 <getScaleFactor32_Q>)
    7a87:	06bd           	mov.n	a11, a6
    7a89:	0002e0        	callx8	a2
    7a8c:	258d           	ae_l16si.n	a8, a5, 0
    7a8e:	0a2d           	mov.n	a2, a10
    7a90:	d1cb           	addi.n	a13, a1, 12
    7a92:	a0a870        	addx4	a10, a8, a7
    7a95:	e23a71        	l32r	a7, 380 (1150 <Norm32Norm>)
    7a98:	02bd           	mov.n	a11, a2
    7a9a:	06cd           	mov.n	a12, a6
    7a9c:	0007e0        	callx8	a7
    7a9f:	40ea90        	nsa	a9, a10
    7aa2:	839aa0        	moveqz	a9, a10, a10
    7aa5:	990b           	addi.n	a9, a9, -1
    7aa7:	069182        	l16si	a8, a1, 12
    7aaa:	89bd           	ae_sext16	a11, a9
    7aac:	60e0b0        	neg	a14, a11
    7aaf:	400e00        	ssr	a14
    7ab2:	c08890        	sub	a8, a8, a9
    7ab5:	b190a0        	sra	a9, a10
    7ab8:	401b00        	ssl	a11
    7abb:	a1fa00        	sll	a15, a10
    7abe:	170c           	movi.n	a7, 1
    7ac0:	a3f9b0        	movltz	a15, a9, a11
    7ac3:	117710        	slli	a7, a7, 15
    7ac6:	9f7a           	add.n	a9, a15, a7
    7ac8:	e22f71        	l32r	a7, 384 (7fff0000 <_end+0x7ffe4518>)
    7acb:	065182        	s16i	a8, a1, 12
    7ace:	ee7c           	movi.n	a14, -2
    7ad0:	028797        	bany	a7, a9, 7ad6 <processTnsCoder_fx+0x1ae>
    7ad3:	003d46        	j	7bcc <processTnsCoder_fx+0x2a4>
    7ad6:	109970        	and	a9, a9, a7
    7ad9:	40e9a0        	nsa	a10, a9
    7adc:	c0aa80        	sub	a10, a10, a8
    7adf:	f470e0        	extui	a7, a14, 0, 16
    7ae2:	aa1b           	addi.n	a10, a10, 1
    7ae4:	10ba70        	and	a11, a10, a7
    7ae7:	f8ba           	add.n	a15, a8, a11
    7ae9:	8f0b           	addi.n	a8, a15, -1
    7aeb:	888d           	ae_sext16	a8, a8
    7aed:	607080        	neg	a7, a8
    7af0:	400700        	ssr	a7
    7af3:	91b090        	srl	a11, a9
    7af6:	401800        	ssl	a8
    7af9:	a19900        	sll	a9, a9
    7afc:	a39b80        	movltz	a9, a11, a8
    7aff:	360934        	ae_cvtq48a32s	aeq0, a9
    7b02:	f8638101ce 	{ addi	a12, a1, 16; ae_roundsp16q48asym	aep0, aeq0 }
    7b07:	8aad           	ae_sext16	a10, a10
    7b09:	420c04        	ae_sp16f.l.i	aep0, a12, 0
    7b0c:	21d1a0        	srai	a13, a10, 1
    7b0f:	0891a2        	l16si	a10, a1, 16
    7b12:	1f0c           	movi.n	a15, 1
    7b14:	9178           	l32i.n	a7, a1, 36
    7b16:	439d20        	min	a9, a13, a2
    7b19:	ffa0e2        	movi	a14, 255
    7b1c:	11bf30        	slli	a11, a15, 13
    7b1f:	7fde22        	addmi	a2, a14, 0x7f00
    7b22:	c08d90        	sub	a8, a13, a9
    7b25:	071ab7        	beq	a10, a11, 7b30 <processTnsCoder_fx+0x208>
    7b28:	120c           	movi.n	a2, 1
    7b2a:	012240        	slli	a2, a2, 28
    7b2d:	d222a0        	quos	a2, a2, a10
    7b30:	1188f0        	slli	a8, a8, 1
    7b33:	2016a6        	blti	a6, 1, 7b57 <processTnsCoder_fx+0x22f>
    7b36:	25ad           	ae_l16si.n	a10, a5, 0
    7b38:	f178           	l32i.n	a7, a1, 60
    7b3a:	1f21b2        	l32i	a11, a1, 124
    7b3d:	899d           	ae_sext16	a9, a9
    7b3f:	a0aa70        	addx4	a10, a10, a7
    7b42:	9178           	l32i.n	a7, a1, 36
    7b44:	601a04        	ae_lq32f.iu	aeq0, a10, 0
    7b47:	0c8676        	loop	a6, 7b57 <processTnsCoder_fx+0x22f>
    7b4a:	fc24fe890f 	{ ae_slaasq56s	aeq0, aeq0, a9; nop }
    7b4f:	f863bd1a1f 	{ ae_lq32f.iu	aeq0, a10, 4; ae_roundsp16q48asym	aep0, aeq0 }
    7b54:	428b14        	ae_sp16f.l.iu	aep0, a11, 2

00007b57 <processTnsCoder_fx+0x22f>:
    7b57:	e156f1        	l32r	a15, b0 (b8f0 <tnsAcfWindow>)
    7b5a:	fc2498822f 	{ ae_cvtp24a16x2.ll	aep0, a2, a2; ae_zeroq56	aeq0 }
    7b5f:	e1b8           	l32i.n	a11, a1, 56
    7b61:	0f28           	l32i.n	a2, a15, 0
    7b63:	888d           	ae_sext16	a8, a8
    7b65:	00a092        	movi	a9, 0
    7b68:	20a770        	or	a10, a7, a7
    7b6b:	509204        	ae_lp24f.iu	aep1, a2, 0

00007b6e <processTnsCoder_fx+0x246>:
    7b6e:	c0d690        	sub	a13, a6, a9
    7b71:	20c770        	or	a12, a7, a7
    7b74:	20eaa0        	or	a14, a10, a10
    7b77:	8ddd           	ae_sext16	a13, a13
    7b79:	44ac04        	ae_lp16x2f.iu	aep2, a12, 0
    7b7c:	40be04        	ae_lp16f.iu	aep3, a14, 0
    7b7f:	122da6        	blti	a13, 2, 7b95 <processTnsCoder_fx+0x26d>
    7b82:	21f1d0        	srai	a15, a13, 1
    7b85:	0c8f76        	loop	a15, 7b95 <processTnsCoder_fx+0x26d>
    7b88:	e46a2cfe1f 	{ ae_lp16f.iu	aep7, a14, 2; ae_mulap24s.hh	aeq0, aep2, aep3 }
    7b8d:	e4eb2cbe1f 	{ ae_lp16f.iu	aep3, a14, 2; ae_mulap24s.lh	aeq0, aep2, aep7 }
    7b92:	44ac14        	ae_lp16x2f.iu	aep2, a12, 4

00007b95 <processTnsCoder_fx+0x26d>:
    7b95:	026d07        	bbci	a13, 0, 7b9b <processTnsCoder_fx+0x273>
    7b98:	022304        	ae_mulap24s.hh	aeq0, aep2, aep3

00007b9b <processTnsCoder_fx+0x273>:
    7b9b:	060844        	ae_satq48s	aeq0, aeq0
    7b9e:	398c           	beqz.n	a9, 7ba5 <processTnsCoder_fx+0x27d>
    7ba0:	f8842e921f 	{ ae_lp24f.iu	aep1, a2, 4; ae_mulfq32sp24s.l	aeq0, aeq0, aep1 }
    7ba5:	d4e23d3b1f 	{ ae_lq32f.iu	aeq1, a11, 4; ae_mulfq32sp16s.l	aeq0, aeq0, aep0 }
    7baa:	991b           	addi.n	a9, a9, 1
    7bac:	fc24fe880f 	{ ae_slaasq56s	aeq0, aeq0, a8; nop }
    7bb1:	f8660009cf 	{ movi	a12, 9; ae_addq56	aeq0, aeq0, aeq1 }
    7bb6:	aa2b           	addi.n	a10, a10, 2
    7bb8:	fc24b98b0f 	{ ae_sq32f.i	aeq0, a11, 0; ae_zeroq56	aeq0 }
    7bbd:	ad99c7        	bne	a9, a12, 7b6e <processTnsCoder_fx+0x246>
    7bc0:	440b           	addi.n	a4, a4, -1
    7bc2:	552b           	addi.n	a5, a5, 2
    7bc4:	332b           	addi.n	a3, a3, 2
    7bc6:	eac456        	bnez	a4, 7a76 <processTnsCoder_fx+0x14e>
    7bc9:	000546        	j	7be2 <processTnsCoder_fx+0x2ba>

00007bcc <processTnsCoder_fx+0x2a4>:
    7bcc:	7128           	l32i.n	a2, a1, 28
    7bce:	f37c           	movi.n	a3, -1
    7bd0:	413130        	srli	a3, a3, 1
    7bd3:	0239           	s32i.n	a3, a2, 0
    7bd5:	1a21a2        	l32i	a10, a1, 104
    7bd8:	e1a321        	l32r	a2, 264 (bf8 <basop_memset>)
    7bdb:	0b0c           	movi.n	a11, 0
    7bdd:	0c2c           	movi.n	a12, 32
    7bdf:	0002e0        	callx8	a2
    7be2:	1321a2        	l32i	a10, a1, 76
    7be5:	71b8           	l32i.n	a11, a1, 28
    7be7:	b1d8           	l32i.n	a13, a1, 44
    7be9:	1c21f2        	l32i	a15, a1, 112
    7bec:	e1e721        	l32r	a2, 388 (5598 <processLevinson_fx>)
    7bef:	18c1e2        	addi	a14, a1, 24
    7bf2:	8c0c           	movi.n	a12, 8
    7bf4:	0002e0        	callx8	a2
    7bf7:	6128           	l32i.n	a2, a1, 24
    7bf9:	fe7c           	movi.n	a14, -1
    7bfb:	e1d1f1        	l32r	a15, 340 (3fff0000 <_end+0x3ffe4518>)
    7bfe:	40e260        	nsa	a6, a2
    7c01:	836220        	moveqz	a6, a2, a2
    7c04:	863d           	ae_sext16	a3, a6
    7c06:	604030        	neg	a4, a3
    7c09:	400400        	ssr	a4
    7c0c:	b18020        	sra	a8, a2
    7c0f:	401300        	ssl	a3
    7c12:	a15200        	sll	a5, a2
    7c15:	a35830        	movltz	a5, a8, a3
    7c18:	112e00        	slli	a2, a14, 16
    7c1b:	ffa092        	movi	a9, 255
    7c1e:	102520        	and	a2, a5, a2
    7c21:	7fd992        	addmi	a9, a9, 0x7f00
    7c24:	065162        	s16i	a6, a1, 12
    7c27:	0812f7        	beq	a2, a15, 7c33 <processTnsCoder_fx+0x30b>
    7c2a:	e1c661        	l32r	a6, 344 (1fff8000 <_end+0x1ffec518>)
    7c2d:	312050        	srai	a2, a5, 16
    7c30:	d29620        	quos	a9, a6, a2
    7c33:	360c           	movi.n	a6, 3
    7c35:	1e2122        	l32i	a2, a1, 120
    7c38:	1621c2        	l32i	a12, a1, 88
    7c3b:	1d2172        	l32i	a7, a1, 116
    7c3e:	401400        	ssl	a4
    7c41:	016640        	slli	a6, a6, 28
    7c44:	b1b8           	l32i.n	a11, a1, 44
    7c46:	1521d2        	l32i	a13, a1, 84
    7c49:	a18600        	sll	a8, a6
    7c4c:	400300        	ssr	a3
    7c4f:	902c20        	addx2	a2, a12, a2
    7c52:	916060        	srl	a6, a6
    7c55:	dd0756        	bnez	a7, 7a29 <processTnsCoder_fx+0x101>
    7c58:	7178           	l32i.n	a7, a1, 28
    7c5a:	899d           	ae_sext16	a9, a9
    7c5c:	b2e950        	mulsh	a14, a9, a5
    7c5f:	07a8           	l32i.n	a10, a7, 0
    7c61:	827950        	mull	a7, a9, a5
    7c64:	a36830        	movltz	a6, a8, a3
    7c67:	418f70        	srli	a8, a7, 15
    7c6a:	ff7c           	movi.n	a15, -1
    7c6c:	1bee80        	depbits	a8, a14, 17, 15
    7c6f:	4151f0        	srli	a5, a15, 1
    7c72:	c05580        	sub	a5, a5, a8
    7c75:	828590        	mull	a8, a5, a9
    7c78:	b25590        	mulsh	a5, a5, a9
    7c7b:	418f80        	srli	a8, a8, 15
    7c7e:	1be580        	depbits	a8, a5, 17, 15
    7c81:	825a80        	mull	a5, a10, a8
    7c84:	b28a80        	mulsh	a8, a10, a8
    7c87:	055f50        	extui	a5, a5, 31, 1
    7c8a:	905850        	addx2	a5, a8, a5
    7c8d:	022657        	blt	a6, a5, 7c93 <processTnsCoder_fx+0x36b>
    7c90:	ff6546        	j	7a29 <processTnsCoder_fx+0x101>
    7c93:	112162        	l32i	a6, a1, 68
    7c96:	170c           	movi.n	a7, 1
    7c98:	017720        	slli	a7, a7, 30
    7c9b:	08a616        	beqz	a6, 7d29 <processTnsCoder_fx+0x401>
    7c9e:	401400        	ssl	a4
    7ca1:	a16700        	sll	a6, a7
    7ca4:	400300        	ssr	a3
    7ca7:	918070        	srl	a8, a7
    7caa:	a38630        	movltz	a8, a6, a3
    7cad:	78a587        	bge	a5, a8, 7d29 <processTnsCoder_fx+0x401>
    7cb0:	400400        	ssr	a4
    7cb3:	b14050        	sra	a4, a5
    7cb6:	401300        	ssl	a3
    7cb9:	a1c500        	sll	a12, a5
    7cbc:	a3c430        	movltz	a12, a4, a3
    7cbf:	fd7c           	movi.n	a13, -1
    7cc1:	e1b2e1        	l32r	a14, 38c (13333333 <_end+0x1332784b>)
    7cc4:	113cd0        	slli	a3, a12, 3
    7cc7:	014d10        	slli	a4, a13, 31
    7cca:	303340        	xor	a3, a3, a4
    7ccd:	824e30        	mull	a4, a14, a3
    7cd0:	b23e30        	mulsh	a3, a14, a3
    7cd3:	e1aff1        	l32r	a15, 390 (6ccccccd <_end+0x6ccc11e5>)
    7cd6:	054f40        	extui	a4, a4, 31, 1
    7cd9:	903340        	addx2	a3, a3, a4
    7cdc:	182152        	l32i	a5, a1, 96
    7cdf:	43fa           	add.n	a4, a3, a15
    7ce1:	760c           	movi.n	a6, 7
    7ce3:	043d           	mov.n	a3, a4
    7ce5:	1d8676        	loop	a6, 7d06 <processTnsCoder_fx+0x3de>
    7ce8:	0568           	l32i.n	a6, a5, 0
    7cea:	828340        	mull	a8, a3, a4
    7ced:	b2f340        	mulsh	a15, a3, a4
    7cf0:	b29630        	mulsh	a9, a6, a3
    7cf3:	826630        	mull	a6, a6, a3
    7cf6:	058f80        	extui	a8, a8, 31, 1
    7cf9:	056f60        	extui	a6, a6, 31, 1
    7cfc:	906960        	addx2	a6, a9, a6
    7cff:	0569           	s32i.n	a6, a5, 0
    7d01:	903f80        	addx2	a3, a15, a8
    7d04:	554b           	addi.n	a5, a5, 4

00007d06 <processTnsCoder_fx+0x3de>:
    7d06:	1321a2        	l32i	a10, a1, 76
    7d09:	8c0c           	movi.n	a12, 8
    7d0b:	8a48           	l32i.n	a4, a10, 32
    7d0d:	825430        	mull	a5, a4, a3
    7d10:	b2e430        	mulsh	a14, a4, a3
    7d13:	05ff50        	extui	a15, a5, 31, 1
    7d16:	903ef0        	addx2	a3, a14, a15
    7d19:	8a39           	s32i.n	a3, a10, 32
    7d1b:	e19e31        	l32r	a3, 394 (5814 <lpc2rc>)
    7d1e:	0003e0        	callx8	a3
    7d21:	b1b8           	l32i.n	a11, a1, 44
    7d23:	1621c2        	l32i	a12, a1, 88
    7d26:	1521d2        	l32i	a13, a1, 84

00007d29 <processTnsCoder_fx+0x401>:
    7d29:	e0e341        	l32r	a4, b8 (b8f8 <tnsQuantThr>)
    7d2c:	113cd0        	slli	a3, a12, 3
    7d2f:	850c           	movi.n	a5, 8
    7d31:	0448           	l32i.n	a4, a4, 0
    7d33:	0b6d           	mov.n	a6, a11
    7d35:	0d8d           	mov.n	a8, a13
    7d37:	000346        	j	7d48 <processTnsCoder_fx+0x420>

00007d3a <processTnsCoder_fx+0x412>:
    7d3a:	097d           	mov.n	a7, a9
    7d3c:	970b           	addi.n	a9, a7, -1
    7d3e:	550b           	addi.n	a5, a5, -1
    7d40:	689d           	ae_s16i.n	a9, a8, 0
    7d42:	662b           	addi.n	a6, a6, 2
    7d44:	882b           	addi.n	a8, a8, 2
    7d46:	959c           	beqz.n	a5, 7d63 <processTnsCoder_fx+0x43b>
    7d48:	26ad           	ae_l16si.n	a10, a6, 0
    7d4a:	190c           	movi.n	a9, 1
    7d4c:	997d           	ae_zext16	a7, a9
    7d4e:	907740        	addx2	a7, a7, a4
    7d51:	fec772        	addi	a7, a7, -2
    7d54:	277d           	ae_l16si.n	a7, a7, 0
    7d56:	e0a7a7        	bge	a7, a10, 7d3a <processTnsCoder_fx+0x412>
    7d59:	991b           	addi.n	a9, a9, 1
    7d5b:	171c           	movi.n	a7, 17
    7d5d:	eb9977        	bne	a9, a7, 7d4c <processTnsCoder_fx+0x424>
    7d60:	fff606        	j	7d3c <processTnsCoder_fx+0x414>

00007d63 <processTnsCoder_fx+0x43b>:
    7d63:	102172        	l32i	a7, a1, 64
    7d66:	f87c           	movi.n	a8, -1
    7d68:	760c           	movi.n	a6, 7
    7d6a:	840c           	movi.n	a4, 8
    7d6c:	f48080        	extui	a8, a8, 0, 16
    7d6f:	96fd           	ae_zext16	a15, a6
    7d71:	065d           	mov.n	a5, a6
    7d73:	63fa           	add.n	a6, a3, a15
    7d75:	906670        	addx2	a6, a6, a7
    7d78:	466d           	ae_l16ui.n	a6, a6, 0
    7d7a:	0e8666        	bnei	a6, 8, 7d8c <processTnsCoder_fx+0x464>
    7d7d:	650b           	addi.n	a6, a5, -1
    7d7f:	440b           	addi.n	a4, a4, -1
    7d81:	ea8857        	bany	a8, a5, 7d6f <processTnsCoder_fx+0x447>
    7d84:	030c           	movi.n	a3, 0
    7d86:	623d           	ae_s16i.n	a3, a2, 0
    7d88:	ff2746        	j	7a29 <processTnsCoder_fx+0x101>

00007d8b <processTnsCoder_fx+0x463>:
	...

00007d8c <processTnsCoder_fx+0x464>:
    7d8c:	351b           	addi.n	a3, a5, 1
    7d8e:	623d           	ae_s16i.n	a3, a2, 0
    7d90:	028837        	bany	a8, a3, 7d96 <processTnsCoder_fx+0x46e>
    7d93:	ff2486        	j	7a29 <processTnsCoder_fx+0x101>
    7d96:	e0c961        	l32r	a6, bc (b8fc <ac_tns_order_bits>)
    7d99:	112172        	l32i	a7, a1, 68
    7d9c:	833d           	ae_sext16	a3, a3
    7d9e:	0668           	l32i.n	a6, a6, 0
    7da0:	1187c0        	slli	a8, a7, 4
    7da3:	855d           	ae_sext16	a5, a5
    7da5:	668a           	add.n	a6, a6, a8
    7da7:	903360        	addx2	a3, a3, a6
    7daa:	fec332        	addi	a3, a3, -2
    7dad:	233d           	ae_l16si.n	a3, a3, 0
    7daf:	017596        	bltz	a5, 7dca <processTnsCoder_fx+0x4a2>
    7db2:	e0c551        	l32r	a5, c8 (b908 <ac_tns_coef_bits>)
    7db5:	0d6d           	mov.n	a6, a13
    7db7:	0558           	l32i.n	a5, a5, 0
    7db9:	0d8476        	loop	a4, 7dca <processTnsCoder_fx+0x4a2>
    7dbc:	264d           	ae_l16si.n	a4, a6, 0
    7dbe:	662b           	addi.n	a6, a6, 2
    7dc0:	904450        	addx2	a4, a4, a5
    7dc3:	244d           	ae_l16si.n	a4, a4, 0
    7dc5:	22c552        	addi	a5, a5, 34
    7dc8:	334a           	add.n	a3, a3, a4

00007dca <processTnsCoder_fx+0x4a2>:
    7dca:	122152        	l32i	a5, a1, 72
    7dcd:	330b           	addi.n	a3, a3, -1
    7dcf:	413b30        	srli	a3, a3, 11
    7dd2:	254d           	ae_l16si.n	a4, a5, 0
    7dd4:	192172        	l32i	a7, a1, 100
    7dd7:	e0b781        	l32r	a8, b4 (b8f4 <tnsQuantPts>)
    7dda:	334a           	add.n	a3, a3, a4
    7ddc:	332b           	addi.n	a3, a3, 2
    7dde:	653d           	ae_s16i.n	a3, a5, 0
    7de0:	226d           	ae_l16si.n	a6, a2, 0
    7de2:	0d4d           	mov.n	a4, a13
    7de4:	0b5d           	mov.n	a5, a11
    7de6:	1116a6        	blti	a6, 1, 7dfb <processTnsCoder_fx+0x4d3>
    7de9:	0838           	l32i.n	a3, a8, 0
    7deb:	0c8676        	loop	a6, 7dfb <processTnsCoder_fx+0x4d3>
    7dee:	246d           	ae_l16si.n	a6, a4, 0
    7df0:	442b           	addi.n	a4, a4, 2
    7df2:	906630        	addx2	a6, a6, a3
    7df5:	266d           	ae_l16si.n	a6, a6, 0
    7df7:	656d           	ae_s16i.n	a6, a5, 0
    7df9:	552b           	addi.n	a5, a5, 2
    7dfb:	8138           	l32i.n	a3, a1, 32
    7dfd:	172152        	l32i	a5, a1, 92
    7e00:	a168           	l32i.n	a6, a1, 40
    7e02:	433d           	ae_l16ui.n	a3, a3, 0
    7e04:	14c142        	addi	a4, a1, 20
    7e07:	90fc40        	addx2	a15, a12, a4
    7e0a:	fec332        	addi	a3, a3, -2
    7e0d:	935630        	movnez	a5, a6, a3
    7e10:	2f4d           	ae_l16si.n	a4, a15, 0
    7e12:	9356c0        	movnez	a5, a6, a12
    7e15:	855d           	ae_sext16	a5, a5
    7e17:	022457        	blt	a4, a5, 7e1d <processTnsCoder_fx+0x4f5>
    7e1a:	ff0606        	j	7a36 <processTnsCoder_fx+0x10e>
    7e1d:	f138           	l32i.n	a3, a1, 60
    7e1f:	0b6d           	mov.n	a6, a11
    7e21:	a03430        	addx4	a3, a4, a3
    7e24:	c04540        	sub	a4, a5, a4
    7e27:	601304        	ae_lq32f.iu	aeq0, a3, 0

00007e2a <processTnsCoder_fx+0x502>:
    7e2a:	225d           	ae_l16si.n	a5, a2, 0
    7e2c:	fd046c860f 	{ ae_lp16f.iu	aep0, a6, 0; ae_movq56	aeq1, aeq0 }
    7e31:	850b           	addi.n	a8, a5, -1
    7e33:	075d           	mov.n	a5, a7
    7e35:	888d           	ae_sext16	a8, a8
    7e37:	609504        	ae_lq32f.iu	aeq2, a5, 0
    7e3a:	1418a6        	blti	a8, 1, 7e52 <processTnsCoder_fx+0x52a>
    7e3d:	064b34        	ae_movq56	aeq1, aeq0
    7e40:	0e8876        	loop	a8, 7e52 <processTnsCoder_fx+0x52a>
    7e43:	d5e379c50f 	{ ae_sq32f.iu	aeq0, a5, 0; ae_mulfq32sp16s.l	aeq3, aeq1, aep0 }
    7e48:	f682ec861f 	{ ae_lp16f.iu	aep0, a6, 2; ae_mulafq32sp16s.l	aeq1, aeq2, aep0 }
    7e4d:	f8f63d551f 	{ ae_lq32f.iu	aeq2, a5, 4; ae_addq56	aeq0, aeq2, aeq3 }

00007e52 <processTnsCoder_fx+0x52a>:
    7e52:	f682cff44e 	{ addi	a4, a4, -1; ae_mulafq32sp16s.l	aeq1, aeq2, aep0 }
    7e57:	0b6d           	mov.n	a6, a11
    7e59:	625304        	ae_sq32f.iu	aeq1, a3, 0
    7e5c:	605314        	ae_lq32f.iu	aeq1, a3, 4
    7e5f:	fc0c79c50f 	{ ae_sq32f.iu	aeq0, a5, 0; ae_movq56	aeq0, aeq1 }
    7e64:	fc2456        	bnez	a4, 7e2a <processTnsCoder_fx+0x502>
    7e67:	fef2c6        	j	7a36 <processTnsCoder_fx+0x10e>

00007e6a <processTnsCoder_fx+0x542>:
    7e6a:	f01d           	retw.n

00007e6c <Enc_LC3>:
    7e6c:	024136        	entry	a1, 0x120
    7e6f:	028d           	mov.n	a8, a2
    7e71:	e0f9e1        	l32r	a14, 258 (badc <g_p_enc_based>)
    7e74:	e0f8a1        	l32r	a10, 254 (bae0 <g_p_enc_stream>)
    7e77:	1092f2        	l16si	a15, a2, 32
    7e7a:	020c           	movi.n	a2, 0
    7e7c:	54c8b2        	addi	a11, a8, 84
    7e7f:	52c8c2        	addi	a12, a8, 82
    7e82:	376172        	s32i	a7, a1, 220
    7e85:	306142        	s32i	a4, a1, 192
    7e88:	f3f120        	wur.ae_bithead	a2
    7e8b:	032624        	wur.ae_bitptr	a2
    7e8e:	3361b2        	s32i	a11, a1, 204
    7e91:	0eb9           	s32i.n	a11, a14, 0
    7e93:	3261c2        	s32i	a12, a1, 200
    7e96:	0ac9           	s32i.n	a12, a10, 0
    7e98:	021fe6        	bgei	a15, 1, 7e9e <Enc_LC3+0x32>
    7e9b:	018206        	j	84a7 <Enc_LC3+0x63b>
    7e9e:	3021f2        	l32i	a15, a1, 192
    7ea1:	482122        	l32i	a2, a1, 0x120
    7ea4:	366122        	s32i	a2, a1, 216
    7ea7:	9f2d           	ae_zext16	a2, a15
    7ea9:	4ac8e2        	addi	a14, a8, 74
    7eac:	3561e2        	s32i	a14, a1, 212
    7eaf:	346122        	s32i	a2, a1, 208
    7eb2:	020c           	movi.n	a2, 0
    7eb4:	08ed           	mov.n	a14, a8
    7eb6:	0f0c           	movi.n	a15, 0
    7eb8:	246182        	s32i	a8, a1, 144
    7ebb:	286162        	s32i	a6, a1, 160
    7ebe:	004e86        	j	7ffc <Enc_LC3+0x190>

00007ec1 <Enc_LC3+0x55>:
    7ec1:	242122        	l32i	a2, a1, 144
    7ec4:	349142        	l16si	a4, a1, 104
    7ec7:	54c152        	addi	a5, a1, 84
    7eca:	3121c2        	l32i	a12, a1, 196
    7ecd:	1492f2        	l16si	a15, a2, 40
    7ed0:	0e9732        	l16si	a3, a7, 28
    7ed3:	3159           	s32i.n	a5, a1, 12
    7ed5:	21c9           	s32i.n	a12, a1, 8
    7ed7:	1149           	s32i.n	a4, a1, 4
    7ed9:	282142        	l32i	a4, a1, 160
    7edc:	272152        	l32i	a5, a1, 156
    7edf:	0139           	s32i.n	a3, a1, 0
    7ee1:	1c91a2        	l16si	a10, a1, 56
    7ee4:	2091d2        	l16si	a13, a1, 64
    7ee7:	2291e2        	l16si	a14, a1, 68
    7eea:	e13a31        	l32r	a3, 3d4 (a660 <processResidualCoding_fx>)
    7eed:	04bd           	mov.n	a11, a4
    7eef:	05cd           	mov.n	a12, a5
    7ef1:	0003e0        	callx8	a3
    7ef4:	04cd           	mov.n	a12, a4
    7ef6:	1e9132        	l16si	a3, a1, 60
    7ef9:	129242        	l16si	a4, a2, 36
    7efc:	292162        	l32i	a6, a1, 164
    7eff:	2169           	s32i.n	a6, a1, 8
    7f01:	1149           	s32i.n	a4, a1, 4
    7f03:	0139           	s32i.n	a3, a1, 0
    7f05:	1c91b2        	l16si	a11, a1, 56
    7f08:	2091e2        	l16si	a14, a1, 64
    7f0b:	2291f2        	l16si	a15, a1, 68
    7f0e:	e13231        	l32r	a3, 3d8 (6168 <processNoiseFactor_fx>)
    7f11:	6cc1a2        	addi	a10, a1, 108
    7f14:	05dd           	mov.n	a13, a5
    7f16:	0003e0        	callx8	a3
    7f19:	0e92c2        	l16si	a12, a2, 28
    7f1c:	0997d2        	l16si	a13, a7, 18
    7f1f:	0697e2        	l16si	a14, a7, 12
    7f22:	1492f2        	l16si	a15, a2, 40
    7f25:	1e9232        	l16si	a3, a2, 60
    7f28:	b1c9           	s32i.n	a12, a1, 44
    7f2a:	372182        	l32i	a8, a1, 220
    7f2d:	2f21c2        	l32i	a12, a1, 188
    7f30:	a189           	s32i.n	a8, a1, 40
    7f32:	91c9           	s32i.n	a12, a1, 36
    7f34:	2b21c2        	l32i	a12, a1, 172
    7f37:	81c9           	s32i.n	a12, a1, 32
    7f39:	1e91b2        	l16si	a11, a1, 60
    7f3c:	249152        	l16si	a5, a1, 72
    7f3f:	2c9162        	l16si	a6, a1, 88
    7f42:	369192        	l16si	a9, a1, 108
    7f45:	4291a2        	l16si	a10, a1, 132
    7f48:	2621c2        	l32i	a12, a1, 152
    7f4b:	71b9           	s32i.n	a11, a1, 28
    7f4d:	61a9           	s32i.n	a10, a1, 24
    7f4f:	5199           	s32i.n	a9, a1, 20
    7f51:	41c9           	s32i.n	a12, a1, 16
    7f53:	3169           	s32i.n	a6, a1, 12
    7f55:	2159           	s32i.n	a5, a1, 8
    7f57:	3d2152        	l32i	a5, a1, 244
    7f5a:	2e9142        	l16si	a4, a1, 92
    7f5d:	1149           	s32i.n	a4, a1, 4
    7f5f:	0139           	s32i.n	a3, a1, 0
    7f61:	e11e31        	l32r	a3, 3dc (84b0 <processEncoderEntropy>)
    7f64:	64c1b2        	addi	a11, a1, 100
    7f67:	60c1c2        	addi	a12, a1, 96
    7f6a:	05ad           	mov.n	a10, a5
    7f6c:	0003e0        	callx8	a3
    7f6f:	0a97f2        	l16si	a15, a7, 20
    7f72:	292182        	l32i	a8, a1, 164
    7f75:	0997d2        	l16si	a13, a7, 18
    7f78:	8189           	s32i.n	a8, a1, 32
    7f7a:	71f9           	s32i.n	a15, a1, 28
    7f7c:	249162        	l16si	a6, a1, 72
    7f7f:	2e9132        	l16si	a3, a1, 92
    7f82:	2c9142        	l16si	a4, a1, 88
    7f85:	2a9192        	l16si	a9, a1, 84
    7f88:	3121a2        	l32i	a10, a1, 196
    7f8b:	2d21e2        	l32i	a14, a1, 180
    7f8e:	2a21f2        	l32i	a15, a1, 168
    7f91:	6169           	s32i.n	a6, a1, 24
    7f93:	5199           	s32i.n	a9, a1, 20
    7f95:	41a9           	s32i.n	a10, a1, 16
    7f97:	31e9           	s32i.n	a14, a1, 12
    7f99:	2149           	s32i.n	a4, a1, 8
    7f9b:	11f9           	s32i.n	a15, a1, 4
    7f9d:	0139           	s32i.n	a3, a1, 0
    7f9f:	3291b2        	l16si	a11, a1, 100
    7fa2:	3091c2        	l16si	a12, a1, 96
    7fa5:	2721e2        	l32i	a14, a1, 156
    7fa8:	2621f2        	l32i	a15, a1, 152
    7fab:	e10d31        	l32r	a3, 3e0 (18b8 <processAriEncoder_fx>)
    7fae:	05ad           	mov.n	a10, a5
    7fb0:	0003e0        	callx8	a3
    7fb3:	3b21e2        	l32i	a14, a1, 236
    7fb6:	101242        	l16ui	a4, a2, 32
    7fb9:	028d           	mov.n	a8, a2
    7fbb:	0e38           	l32i.n	a3, a14, 0
    7fbd:	e0a621        	l32r	a2, 258 (badc <g_p_enc_based>)
    7fc0:	332162        	l32i	a6, a1, 204
    7fc3:	069332        	l16si	a3, a3, 12
    7fc6:	142466        	bnei	a4, 2, 7fde <Enc_LC3+0x172>
    7fc9:	e0a2c1        	l32r	a12, 254 (bae0 <g_p_enc_stream>)
    7fcc:	0269           	s32i.n	a6, a2, 0
    7fce:	101842        	l16ui	a4, a8, 32
    7fd1:	0f0c           	movi.n	a15, 0
    7fd3:	3221d2        	l32i	a13, a1, 200
    7fd6:	0cd9           	s32i.n	a13, a12, 0
    7fd8:	f3f1f0        	wur.ae_bithead	a15
    7fdb:	0326f4        	wur.ae_bitptr	a15
    7fde:	3a21f2        	l32i	a15, a1, 232
    7fe1:	3e2122        	l32i	a2, a1, 248
    7fe4:	3c21d2        	l32i	a13, a1, 240
    7fe7:	282162        	l32i	a6, a1, 160
    7fea:	ff1b           	addi.n	a15, a15, 1
    7fec:	844d           	ae_sext16	a4, a4
    7fee:	553a           	add.n	a5, a5, a3
    7ff0:	223a           	add.n	a2, a2, a3
    7ff2:	3d4b           	addi.n	a3, a13, 4
    7ff4:	ee4b           	addi.n	a14, a14, 4
    7ff6:	022f47        	blt	a15, a4, 7ffc <Enc_LC3+0x190>
    7ff9:	012a86        	j	84a7 <Enc_LC3+0x63b>
    7ffc:	0e78           	l32i.n	a7, a14, 0
    7ffe:	40a142        	movi	a4, 0x140
    8001:	0f98b2        	l16si	a11, a8, 30
    8004:	474a           	add.n	a4, a7, a4
    8006:	38a1c2        	movi	a12, 0x138
    8009:	2b6142        	s32i	a4, a1, 172
    800c:	47ca           	add.n	a4, a7, a12
    800e:	b8a182        	movi	a8, 0x1b8
    8011:	2a6142        	s32i	a4, a1, 168
    8014:	478a           	add.n	a4, a7, a8
    8016:	0a5c           	movi.n	a10, 80
    8018:	10a292        	movi	a9, 0x210
    801b:	266142        	s32i	a4, a1, 152
    801e:	479a           	add.n	a4, a7, a9
    8020:	538ab0        	max	a8, a10, a11
    8023:	256142        	s32i	a4, a1, 148
    8026:	114800        	slli	a4, a8, 16
    8029:	21ae40        	srai	a10, a4, 14
    802c:	909880        	addx2	a9, a8, a8
    802f:	a6aa           	add.n	a10, a6, a10
    8031:	21cf40        	srai	a12, a4, 15
    8034:	491b           	addi.n	a4, a9, 1
    8036:	b34990        	movgez	a4, a9, a9
    8039:	3cca62        	addi	a6, a10, 60
    803c:	419140        	srli	a9, a4, 1
    803f:	c4af42        	movi	a4, -60
    8042:	c6ca           	add.n	a12, a6, a12
    8044:	9099c0        	addx2	a9, a9, a12
    8047:	c044a0        	sub	a4, a4, a10
    804a:	2f61a2        	s32i	a10, a1, 188
    804d:	24a040        	extui	a10, a4, 0, 3
    8050:	498a           	add.n	a4, a9, a8
    8052:	342182        	l32i	a8, a1, 208
    8055:	03d8           	l32i.n	a13, a3, 0
    8057:	2d61c2        	s32i	a12, a1, 180
    805a:	8c1c           	movi.n	a12, 24
    805c:	296142        	s32i	a4, a1, 164
    805f:	3e6122        	s32i	a2, a1, 248
    8062:	3d6152        	s32i	a5, a1, 244
    8065:	3c6132        	s32i	a3, a1, 240
    8068:	3b61e2        	s32i	a14, a1, 236
    806b:	3a61f2        	s32i	a15, a1, 232
    806e:	316192        	s32i	a9, a1, 196
    8071:	5398c7        	bne	a8, a12, 80c8 <Enc_LC3+0x25c>
    8074:	242122        	l32i	a2, a1, 144
    8077:	242142        	l32i	a4, a1, 144
    807a:	242152        	l32i	a5, a1, 144
    807d:	1792e2        	l16si	a14, a2, 46
    8080:	1f9422        	l16si	a2, a4, 62
    8083:	0798           	l32i.n	a9, a7, 0
    8085:	32c742        	addi	a4, a7, 50
    8088:	209582        	l16si	a8, a5, 64
    808b:	17f8           	l32i.n	a15, a7, 4
    808d:	8149           	s32i.n	a4, a1, 32
    808f:	252142        	l32i	a4, a1, 148
    8092:	48c752        	addi	a5, a7, 72
    8095:	2c6122        	s32i	a2, a1, 176
    8098:	7149           	s32i.n	a4, a1, 28
    809a:	6159           	s32i.n	a5, a1, 24
    809c:	51b9           	s32i.n	a11, a1, 20
    809e:	41f9           	s32i.n	a15, a1, 16
    80a0:	2b21f2        	l32i	a15, a1, 172
    80a3:	e0bd21        	l32r	a2, 398 (7378 <scale_signal24_fx>)
    80a6:	0a3d           	mov.n	a3, a10
    80a8:	3189           	s32i.n	a8, a1, 12
    80aa:	262152        	l32i	a5, a1, 152
    80ad:	0dad           	mov.n	a10, a13
    80af:	09dd           	mov.n	a13, a9
    80b1:	30c7c2        	addi	a12, a7, 48
    80b4:	06bd           	mov.n	a11, a6
    80b6:	2a2182        	l32i	a8, a1, 168
    80b9:	2c2192        	l32i	a9, a1, 176
    80bc:	2159           	s32i.n	a5, a1, 8
    80be:	1189           	s32i.n	a8, a1, 4
    80c0:	0199           	s32i.n	a9, a1, 0
    80c2:	0002e0        	callx8	a2
    80c5:	000386        	j	80d7 <Enc_LC3+0x26b>

000080c8 <Enc_LC3+0x25c>:
    80c8:	e07421        	l32r	a2, 298 (9b54 <memcpy>)
    80cb:	11cbf0        	slli	a12, a11, 1
    80ce:	0a3d           	mov.n	a3, a10
    80d0:	06ad           	mov.n	a10, a6
    80d2:	0dbd           	mov.n	a11, a13
    80d4:	0002e0        	callx8	a2
    80d7:	242122        	l32i	a2, a1, 144
    80da:	242192        	l32i	a9, a1, 144
    80dd:	2421a2        	l32i	a10, a1, 144
    80e0:	536a           	add.n	a5, a3, a6
    80e2:	1599e2        	l16si	a14, a9, 42
    80e5:	179a92        	l16si	a9, a10, 46
    80e8:	2c6152        	s32i	a5, a1, 176
    80eb:	1897b2        	l16si	a11, a7, 48
    80ee:	0f92c2        	l16si	a12, a2, 30
    80f1:	22d8           	l32i.n	a13, a2, 8
    80f3:	07f8           	l32i.n	a15, a7, 0
    80f5:	362182        	l32i	a8, a1, 216
    80f8:	38c152        	addi	a5, a1, 56
    80fb:	292132        	l32i	a3, a1, 164
    80fe:	2821a2        	l32i	a10, a1, 160
    8101:	e0a621        	l32r	a2, 39c (5ea8 <processMdct_fx>)
    8104:	4189           	s32i.n	a8, a1, 16
    8106:	3139           	s32i.n	a3, a1, 12
    8108:	2159           	s32i.n	a5, a1, 8
    810a:	11a9           	s32i.n	a10, a1, 4
    810c:	06ad           	mov.n	a10, a6
    810e:	064d           	mov.n	a4, a6
    8110:	276162        	s32i	a6, a1, 156
    8113:	0199           	s32i.n	a9, a1, 0
    8115:	0002e0        	callx8	a2
    8118:	242152        	l32i	a5, a1, 144
    811b:	242162        	l32i	a6, a1, 144
    811e:	242182        	l32i	a8, a1, 144
    8121:	2421a2        	l32i	a10, a1, 144
    8124:	3021c2        	l32i	a12, a1, 192
    8127:	242122        	l32i	a2, a1, 144
    812a:	1f95d2        	l16si	a13, a5, 62
    812d:	209692        	l16si	a9, a6, 64
    8130:	0e9852        	l16si	a5, a8, 28
    8133:	129a62        	l16si	a6, a10, 36
    8136:	8c8d           	ae_sext16	a8, a12
    8138:	50c1e2        	addi	a14, a1, 80
    813b:	2d21f2        	l32i	a15, a1, 180
    813e:	0f92b2        	l16si	a11, a2, 30
    8141:	6189           	s32i.n	a8, a1, 24
    8143:	5139           	s32i.n	a3, a1, 20
    8145:	4169           	s32i.n	a6, a1, 16
    8147:	3159           	s32i.n	a5, a1, 12
    8149:	21e9           	s32i.n	a14, a1, 8
    814b:	11f9           	s32i.n	a15, a1, 4
    814d:	2b21c2        	l32i	a12, a1, 172
    8150:	2a21e2        	l32i	a14, a1, 168
    8153:	2621f2        	l32i	a15, a1, 152
    8156:	e09221        	l32r	a2, 3a0 (70f8 <process_resamp12k8_fx>)
    8159:	04ad           	mov.n	a10, a4
    815b:	0199           	s32i.n	a9, a1, 0
    815d:	0002e0        	callx8	a2
    8160:	242182        	l32i	a8, a1, 144
    8163:	199742        	l16si	a4, a7, 50
    8166:	20c762        	addi	a6, a7, 32
    8169:	129852        	l16si	a5, a8, 36
    816c:	4139           	s32i.n	a3, a1, 16
    816e:	3159           	s32i.n	a5, a1, 12
    8170:	2149           	s32i.n	a4, a1, 8
    8172:	1169           	s32i.n	a6, a1, 4
    8174:	2d2162        	l32i	a6, a1, 180
    8177:	18a222        	movi	a2, 0x218
    817a:	c72a           	add.n	a12, a7, a2
    817c:	2891f2        	l16si	a15, a1, 80
    817f:	2521b2        	l32i	a11, a1, 148
    8182:	e08821        	l32r	a2, 3a4 (62f8 <process_olpa_fx>)
    8185:	78c192        	addi	a9, a1, 120
    8188:	1ec7a2        	addi	a10, a7, 30
    818b:	7cc1d2        	addi	a13, a1, 124
    818e:	06ed           	mov.n	a14, a6
    8190:	0199           	s32i.n	a9, a1, 0
    8192:	0002e0        	callx8	a2
    8195:	242142        	l32i	a4, a1, 144
    8198:	242152        	l32i	a5, a1, 144
    819b:	0b97e2        	l16si	a14, a7, 22
    819e:	22c7f2        	addi	a15, a7, 34
    81a1:	7ca332        	movi	a3, 0x37c
    81a4:	2661e2        	s32i	a14, a1, 152
    81a7:	2b61f2        	s32i	a15, a1, 172
    81aa:	e73a           	add.n	a14, a7, a3
    81ac:	1a94f2        	l16si	a15, a4, 52
    81af:	28c7b2        	addi	a11, a7, 40
    81b2:	129532        	l16si	a3, a5, 36
    81b5:	2891d2        	l16si	a13, a1, 80
    81b8:	24c7c2        	addi	a12, a7, 36
    81bb:	26c792        	addi	a9, a7, 38
    81be:	3c91a2        	l16si	a10, a1, 120
    81c1:	199742        	l16si	a4, a7, 50
    81c4:	292182        	l32i	a8, a1, 164
    81c7:	2ac752        	addi	a5, a7, 42
    81ca:	3e9122        	l16si	a2, a1, 124
    81cd:	a189           	s32i.n	a8, a1, 40
    81cf:	9139           	s32i.n	a3, a1, 36
    81d1:	8149           	s32i.n	a4, a1, 32
    81d3:	7159           	s32i.n	a5, a1, 28
    81d5:	61b9           	s32i.n	a11, a1, 24
    81d7:	51a9           	s32i.n	a10, a1, 20
    81d9:	4199           	s32i.n	a9, a1, 16
    81db:	31c9           	s32i.n	a12, a1, 12
    81dd:	21d9           	s32i.n	a13, a1, 8
    81df:	01d1d2        	addmi	a13, a1, 0x100
    81e2:	2a6122        	s32i	a2, a1, 168
    81e5:	88cd22        	addi	a2, a13, -120
    81e8:	2561b2        	s32i	a11, a1, 148
    81eb:	1169           	s32i.n	a6, a1, 4
    81ed:	2b21d2        	l32i	a13, a1, 172
    81f0:	2a21b2        	l32i	a11, a1, 168
    81f3:	2621c2        	l32i	a12, a1, 152
    81f6:	2b6122        	s32i	a2, a1, 172
    81f9:	0129           	s32i.n	a2, a1, 0
    81fb:	e06b21        	l32r	a2, 3a8 (5930 <process_ltpf_coder_fx>)
    81fe:	74c1a2        	addi	a10, a1, 116
    8201:	0002e0        	callx8	a2
    8204:	189732        	l16si	a3, a7, 48
    8207:	272162        	l32i	a6, a1, 156
    820a:	292152        	l32i	a5, a1, 164
    820d:	f1c332        	addi	a3, a3, -15
    8210:	2421a2        	l32i	a10, a1, 144
    8213:	e06621        	l32r	a2, 3ac (4e70 <attack_detector_fx>)
    8216:	83dd           	ae_sext16	a13, a3
    8218:	07bd           	mov.n	a11, a7
    821a:	06cd           	mov.n	a12, a6
    821c:	05ed           	mov.n	a14, a5
    821e:	0002e0        	callx8	a2
    8221:	242122        	l32i	a2, a1, 144
    8224:	2421a2        	l32i	a10, a1, 144
    8227:	2421c2        	l32i	a12, a1, 144
    822a:	2421b2        	l32i	a11, a1, 144
    822d:	32e8           	l32i.n	a14, a2, 12
    822f:	0e9af2        	l16si	a15, a10, 28
    8232:	129c42        	l16si	a4, a12, 36
    8235:	1c91d2        	l16si	a13, a1, 56
    8238:	2821c2        	l32i	a12, a1, 160
    823b:	e05d21        	l32r	a2, 3b0 (67c8 <processPerBandEnergy_fx>)
    823e:	189b32        	l16si	a3, a11, 48
    8241:	3159           	s32i.n	a5, a1, 12
    8243:	050c           	movi.n	a5, 0
    8245:	4cc1b2        	addi	a11, a1, 76
    8248:	06ad           	mov.n	a10, a6
    824a:	2149           	s32i.n	a4, a1, 8
    824c:	1159           	s32i.n	a5, a1, 4
    824e:	0139           	s32i.n	a3, a1, 0
    8250:	0002e0        	callx8	a2
    8253:	242122        	l32i	a2, a1, 144
    8256:	2421e2        	l32i	a14, a1, 144
    8259:	2421f2        	l32i	a15, a1, 144
    825c:	0e92b2        	l16si	a11, a2, 28
    825f:	249ec2        	l16si	a12, a14, 72
    8262:	189fd2        	l16si	a13, a15, 48
    8265:	2691f2        	l16si	a15, a1, 76
    8268:	3521a2        	l32i	a10, a1, 212
    826b:	e05221        	l32r	a2, 3b4 (6074 <processNearNyquistdetector_fx>)
    826e:	06ed           	mov.n	a14, a6
    8270:	0002e0        	callx8	a2
    8273:	242142        	l32i	a4, a1, 144
    8276:	252122        	l32i	a2, a1, 148
    8279:	251432        	l16ui	a3, a4, 74
    827c:	338c           	beqz.n	a3, 8283 <Enc_LC3+0x417>
    827e:	455152        	s16i	a5, a1, 138
    8281:	625d           	ae_s16i.n	a5, a2, 0
    8283:	2f2122        	l32i	a2, a1, 188
    8286:	2c2182        	l32i	a8, a1, 176
    8289:	0e94d2        	l16si	a13, a4, 28
    828c:	40a1e2        	movi	a14, 0x140
    828f:	c0a132        	movi	a3, 0x1c0
    8292:	1cc222        	addi	a2, a2, 28
    8295:	01d892        	addmi	a9, a8, 0x100
    8298:	20a1c2        	movi	a12, 0x120
    829b:	68ea           	add.n	a6, a8, a14
    829d:	f83a           	add.n	a15, a8, a3
    829f:	58ca           	add.n	a5, a8, a12
    82a1:	2a6122        	s32i	a2, a1, 168
    82a4:	2661f2        	s32i	a15, a1, 152
    82a7:	256162        	s32i	a6, a1, 148
    82aa:	2e6192        	s32i	a9, a1, 184
    82ad:	1f1da6        	blti	a13, 1, 82d0 <Enc_LC3+0x464>
    82b0:	242132        	l32i	a3, a1, 144
    82b3:	2721b2        	l32i	a11, a1, 156
    82b6:	2691c2        	l16si	a12, a1, 76
    82b9:	1293e2        	l16si	a14, a3, 36
    82bc:	e03f31        	l32r	a3, 3b8 (5138 <processDetectCutoffWarped_fx>)
    82bf:	3cc1a2        	addi	a10, a1, 60
    82c2:	0b2d           	mov.n	a2, a11
    82c4:	0003e0        	callx8	a3
    82c7:	242142        	l32i	a4, a1, 144
    82ca:	0e14d2        	l16ui	a13, a4, 28
    82cd:	000146        	j	82d6 <Enc_LC3+0x46a>

000082d0 <Enc_LC3+0x464>:
    82d0:	272122        	l32i	a2, a1, 156
    82d3:	1e51d2        	s16i	a13, a1, 60
    82d6:	189492        	l16si	a9, a4, 48
    82d9:	229432        	l16si	a3, a4, 68
    82dc:	292162        	l32i	a6, a1, 164
    82df:	2097f2        	l16si	a15, a7, 64
    82e2:	1169           	s32i.n	a6, a1, 4
    82e4:	0139           	s32i.n	a3, a1, 0
    82e6:	2691b2        	l16si	a11, a1, 76
    82e9:	e03431        	l32r	a3, 3bc (75a8 <processSnsComputeScf_fx>)
    82ec:	8dcd           	ae_sext16	a12, a13
    82ee:	02ad           	mov.n	a10, a2
    82f0:	09dd           	mov.n	a13, a9
    82f2:	05ed           	mov.n	a14, a5
    82f4:	0003e0        	callx8	a3
    82f7:	2e2122        	l32i	a2, a1, 184
    82fa:	2f21b2        	l32i	a11, a1, 188
    82fd:	e03031        	l32r	a3, 3c0 (28f8 <processSnsQuantizeScfEncoder_fx>)
    8300:	05ad           	mov.n	a10, a5
    8302:	02cd           	mov.n	a12, a2
    8304:	06dd           	mov.n	a13, a6
    8306:	0003e0        	callx8	a3
    8309:	02ad           	mov.n	a10, a2
    830b:	252152        	l32i	a5, a1, 148
    830e:	262122        	l32i	a2, a1, 152
    8311:	1894e2        	l16si	a14, a4, 48
    8314:	dff531        	l32r	a3, 2e8 (1790 <processSnsInterpolateScf_fx>)
    8317:	1d0c           	movi.n	a13, 1
    8319:	05bd           	mov.n	a11, a5
    831b:	02cd           	mov.n	a12, a2
    831d:	06fd           	mov.n	a15, a6
    831f:	0003e0        	callx8	a3
    8322:	282132        	l32i	a3, a1, 160
    8325:	02cd           	mov.n	a12, a2
    8327:	34d8           	l32i.n	a13, a4, 12
    8329:	1894e2        	l16si	a14, a4, 48
    832c:	dff121        	l32r	a2, 2f0 (a4f0 <processMdctShaping_fx>)
    832f:	03ad           	mov.n	a10, a3
    8331:	05bd           	mov.n	a11, a5
    8333:	0002e0        	callx8	a2
    8336:	0a9722        	l16si	a2, a7, 20
    8339:	01d1e2        	addmi	a14, a1, 0x100
    833c:	256122        	s32i	a2, a1, 148
    833f:	1e91d2        	l16si	a13, a1, 60
    8342:	1994f2        	l16si	a15, a4, 50
    8345:	129452        	l16si	a5, a4, 36
    8348:	0f9462        	l16si	a6, a4, 30
    834b:	259492        	l16si	a9, a4, 74
    834e:	292182        	l32i	a8, a1, 164
    8351:	2a21b2        	l32i	a11, a1, 168
    8354:	e01c21        	l32r	a2, 3c4 (7928 <processTnsCoder_fx>)
    8357:	5199           	s32i.n	a9, a1, 20
    8359:	4189           	s32i.n	a8, a1, 16
    835b:	3169           	s32i.n	a6, a1, 12
    835d:	2159           	s32i.n	a5, a1, 8
    835f:	11f9           	s32i.n	a15, a1, 4
    8361:	fccee2        	addi	a14, a14, -4
    8364:	252192        	l32i	a9, a1, 148
    8367:	1ac7a2        	addi	a10, a7, 26
    836a:	5cc1f2        	addi	a15, a1, 92
    836d:	03cd           	mov.n	a12, a3
    836f:	2661e2        	s32i	a14, a1, 152
    8372:	0199           	s32i.n	a9, a1, 0
    8374:	0002e0        	callx8	a2
    8377:	089732        	l16si	a3, a7, 16
    837a:	0d9722        	l16si	a2, a7, 26
    837d:	3a9152        	l16si	a5, a1, 116
    8380:	2ec782        	addi	a8, a7, 46
    8383:	c03320        	sub	a3, a3, a2
    8386:	c03350        	sub	a3, a3, a5
    8389:	01d1e2        	addmi	a14, a1, 0x100
    838c:	282152        	l32i	a5, a1, 160
    838f:	2c6182        	s32i	a8, a1, 176
    8392:	0c9762        	l16si	a6, a7, 24
    8395:	978b           	addi.n	a9, a7, 8
    8397:	2cc7a2        	addi	a10, a7, 44
    839a:	179782        	l16si	a8, a7, 46
    839d:	2921d2        	l32i	a13, a1, 164
    83a0:	80ce22        	addi	a2, a14, -128
    83a3:	1c91b2        	l16si	a11, a1, 56
    83a6:	1494c2        	l16si	a12, a4, 40
    83a9:	0e5732        	s16i	a3, a7, 28
    83ac:	61d9           	s32i.n	a13, a1, 24
    83ae:	5189           	s32i.n	a8, a1, 20
    83b0:	41a9           	s32i.n	a10, a1, 16
    83b2:	3199           	s32i.n	a9, a1, 12
    83b4:	2169           	s32i.n	a6, a1, 8
    83b6:	01d1f2        	addmi	a15, a1, 0x100
    83b9:	40c162        	addi	a6, a1, 64
    83bc:	1129           	s32i.n	a2, a1, 4
    83be:	e00221        	l32r	a2, 3c8 (5278 <processEstimateGlobalGain_fx>)
    83c1:	84cf82        	addi	a8, a15, -124
    83c4:	44c1f2        	addi	a15, a1, 68
    83c7:	83dd           	ae_sext16	a13, a3
    83c9:	05ad           	mov.n	a10, a5
    83cb:	06ed           	mov.n	a14, a6
    83cd:	2e6182        	s32i	a8, a1, 184
    83d0:	2561f2        	s32i	a15, a1, 148
    83d3:	0189           	s32i.n	a8, a1, 0
    83d5:	0002e0        	callx8	a2
    83d8:	48c182        	addi	a8, a1, 72
    83db:	f27c           	movi.n	a2, -1
    83dd:	1494f2        	l16si	a15, a4, 40
    83e0:	0e9792        	l16si	a9, a7, 28
    83e3:	0997a2        	l16si	a10, a7, 18
    83e6:	0e94e2        	l16si	a14, a4, 28
    83e9:	8129           	s32i.n	a2, a1, 32
    83eb:	58c122        	addi	a2, a1, 88
    83ee:	396182        	s32i	a8, a1, 228
    83f1:	7189           	s32i.n	a8, a1, 28
    83f3:	2d2182        	l32i	a8, a1, 180
    83f6:	6189           	s32i.n	a8, a1, 24
    83f8:	5129           	s32i.n	a2, a1, 20
    83fa:	41e9           	s32i.n	a14, a1, 16
    83fc:	68c132        	addi	a3, a1, 104
    83ff:	2c21e2        	l32i	a14, a1, 176
    8402:	3139           	s32i.n	a3, a1, 12
    8404:	21e9           	s32i.n	a14, a1, 8
    8406:	1c91b2        	l16si	a11, a1, 56
    8409:	2091c2        	l16si	a12, a1, 64
    840c:	2291d2        	l16si	a13, a1, 68
    840f:	2721e2        	l32i	a14, a1, 156
    8412:	dfee81        	l32r	a8, 3cc (6ab0 <processQuantizeSpec_fx>)
    8415:	11a9           	s32i.n	a10, a1, 4
    8417:	05ad           	mov.n	a10, a5
    8419:	386122        	s32i	a2, a1, 224
    841c:	032d           	mov.n	a2, a3
    841e:	0199           	s32i.n	a9, a1, 0
    8420:	0008e0        	callx8	a8
    8423:	0e94a2        	l16si	a10, a4, 28
    8426:	4091b2        	l16si	a11, a1, 128
    8429:	0c97c2        	l16si	a12, a7, 24
    842c:	0e97f2        	l16si	a15, a7, 28
    842f:	179792        	l16si	a9, a7, 46
    8432:	21a9           	s32i.n	a10, a1, 8
    8434:	2e21a2        	l32i	a10, a1, 184
    8437:	2521e2        	l32i	a14, a1, 148
    843a:	dfe531        	l32r	a3, 3d0 (4d68 <processAdjustGlobalGain_fx>)
    843d:	70c182        	addi	a8, a1, 112
    8440:	06dd           	mov.n	a13, a6
    8442:	1189           	s32i.n	a8, a1, 4
    8444:	0199           	s32i.n	a9, a1, 0
    8446:	0003e0        	callx8	a3
    8449:	381132        	l16ui	a3, a1, 112
    844c:	242142        	l32i	a4, a1, 144
    844f:	090c           	movi.n	a9, 0
    8451:	3b1366        	bnei	a3, 1, 8490 <Enc_LC3+0x624>
    8454:	392182        	l32i	a8, a1, 228
    8457:	0e9462        	l16si	a6, a4, 28
    845a:	2d21a2        	l32i	a10, a1, 180
    845d:	3821e2        	l32i	a14, a1, 224
    8460:	1c91b2        	l16si	a11, a1, 56
    8463:	2091c2        	l16si	a12, a1, 64
    8466:	2291d2        	l16si	a13, a1, 68
    8469:	1494f2        	l16si	a15, a4, 40
    846c:	0e9732        	l16si	a3, a7, 28
    846f:	099752        	l16si	a5, a7, 18
    8472:	8199           	s32i.n	a9, a1, 32
    8474:	7189           	s32i.n	a8, a1, 28
    8476:	61a9           	s32i.n	a10, a1, 24
    8478:	51e9           	s32i.n	a14, a1, 20
    847a:	4169           	s32i.n	a6, a1, 16
    847c:	3129           	s32i.n	a2, a1, 12
    847e:	2821a2        	l32i	a10, a1, 160
    8481:	2721e2        	l32i	a14, a1, 156
    8484:	dfd221        	l32r	a2, 3cc (6ab0 <processQuantizeSpec_fx>)
    8487:	2199           	s32i.n	a9, a1, 8
    8489:	1159           	s32i.n	a5, a1, 4
    848b:	0139           	s32i.n	a3, a1, 0
    848d:	0002e0        	callx8	a2
    8490:	241132        	l16ui	a3, a1, 72
    8493:	020c           	movi.n	a2, 0
    8495:	2821c2        	l32i	a12, a1, 160
    8498:	a25316        	beqz	a3, 7ec1 <Enc_LC3+0x55>
    849b:	2a5122        	s16i	a2, a1, 84
    849e:	242122        	l32i	a2, a1, 144
    84a1:	272152        	l32i	a5, a1, 156
    84a4:	fe9386        	j	7ef6 <Enc_LC3+0x8a>

000084a7 <Enc_LC3+0x63b>:
    84a7:	f01d           	retw.n

000084a9 <Enc_LC3+0x63d>:
    84a9:	00000000                                 .......

000084b0 <processEncoderEntropy>:
    84b0:	004136        	entry	a1, 32
    84b3:	887c           	movi.n	a8, -8
    84b5:	c50b           	addi.n	a12, a5, -1
    84b7:	f48080        	extui	a8, a8, 0, 16
    84ba:	108c80        	and	a8, a12, a8
    84bd:	c08850        	sub	a8, a8, a5
    84c0:	588b           	addi.n	a5, a8, 8
    84c2:	8cad           	ae_sext16	a10, a12
    84c4:	85cd           	ae_sext16	a12, a5
    84c6:	6050c0        	neg	a5, a12
    84c9:	1b0c           	movi.n	a11, 1
    84cb:	400500        	ssr	a5
    84ce:	1f0c           	movi.n	a15, 1
    84d0:	91e0f0        	srl	a14, a15
    84d3:	11bb00        	slli	a11, a11, 16
    84d6:	401c00        	ssl	a12
    84d9:	41a3a0        	srli	a10, a10, 3
    84dc:	a1fb00        	sll	a15, a11
    84df:	63ad           	ae_s16i.n	a10, a3, 0
    84e1:	f5a0f0        	extui	a10, a15, 16, 16
    84e4:	df60d1        	l32r	a13, 264 (bf8 <basop_memset>)
    84e7:	8158           	l32i.n	a5, a1, 32
    84e9:	a3aec0        	movltz	a10, a14, a12
    84ec:	64ad           	ae_s16i.n	a10, a4, 0
    84ee:	06e207        	bbsi	a2, 0, 84f8 <processEncoderEntropy+0x48>
    84f1:	0b0c           	movi.n	a11, 0
    84f3:	02ad           	mov.n	a10, a2
    84f5:	000206        	j	8501 <processEncoderEntropy+0x51>

000084f8 <processEncoderEntropy+0x48>:
    84f8:	040c           	movi.n	a4, 0
    84fa:	004242        	s8i	a4, a2, 0
    84fd:	a21b           	addi.n	a10, a2, 1
    84ff:	0b0c           	movi.n	a11, 0
    8501:	06cd           	mov.n	a12, a6
    8503:	000de0        	callx8	a13
    8506:	122132        	l32i	a3, a1, 72
    8509:	df5221        	l32r	a2, 254 (bae0 <g_p_enc_stream>)
    850c:	1215a6        	blti	a5, 1, 8522 <processEncoderEntropy+0x72>
    850f:	f168           	l32i.n	a6, a1, 60
    8511:	0248           	l32i.n	a4, a2, 0
    8513:	955d           	ae_zext16	a5, a5
    8515:	098576        	loop	a5, 8522 <processEncoderEntropy+0x72>
    8518:	111464        	ae_sbi	a4, a6, 1
    851b:	865d           	ae_sext16	a5, a6
    851d:	216150        	srai	a6, a5, 1
    8520:	0249           	s32i.n	a4, a2, 0

00008522 <processEncoderEntropy+0x72>:
    8522:	604070        	neg	a4, a7
    8525:	844d           	ae_sext16	a4, a4
    8527:	e51c           	movi.n	a5, 30
    8529:	40e440        	nsa	a4, a4
    852c:	a188           	l32i.n	a8, a1, 40
    852e:	c04540        	sub	a4, a5, a4
    8531:	0ea0f2        	movi	a15, 14
    8534:	93f470        	movnez	a15, a4, a7
    8537:	8f4d           	ae_sext16	a4, a15
    8539:	201366        	bnei	a3, 1, 855d <processEncoderEntropy+0xad>
    853c:	3614a6        	blti	a4, 1, 8576 <processEncoderEntropy+0xc6>
    853f:	132132        	l32i	a3, a1, 76
    8542:	dfa851        	l32r	a5, 3e4 (b650 <overflow_warning_enable+0x2c>)
    8545:	905350        	addx2	a5, a3, a5
    8548:	002232        	l32i	a3, a2, 0
    854b:	455d           	ae_l16ui.n	a5, a5, 0
    854d:	098476        	loop	a4, 855a <processEncoderEntropy+0xaa>
    8550:	111354        	ae_sbi	a3, a5, 1
    8553:	854d           	ae_sext16	a4, a5
    8555:	215140        	srai	a5, a4, 1
    8558:	0239           	s32i.n	a3, a2, 0

0000855a <processEncoderEntropy+0xaa>:
    855a:	000606        	j	8576 <processEncoderEntropy+0xc6>

0000855d <processEncoderEntropy+0xad>:
    855d:	1514a6        	blti	a4, 1, 8576 <processEncoderEntropy+0xc6>
    8560:	b158           	l32i.n	a5, a1, 44
    8562:	0238           	l32i.n	a3, a2, 0
    8564:	215150        	srai	a5, a5, 1
    8567:	550b           	addi.n	a5, a5, -1
    8569:	098476        	loop	a4, 8576 <processEncoderEntropy+0xc6>
    856c:	111354        	ae_sbi	a3, a5, 1
    856f:	854d           	ae_sext16	a4, a5
    8571:	215140        	srai	a5, a4, 1
    8574:	0239           	s32i.n	a3, a2, 0

00008576 <processEncoderEntropy+0xc6>:
    8576:	0248           	l32i.n	a4, a2, 0
    8578:	112162        	l32i	a6, a1, 68
    857b:	102152        	l32i	a5, a1, 64
    857e:	111484        	ae_sbi	a4, a8, 1
    8581:	e1a8           	l32i.n	a10, a1, 56
    8583:	d138           	l32i.n	a3, a1, 52
    8585:	c178           	l32i.n	a7, a1, 48
    8587:	9198           	l32i.n	a9, a1, 36
    8589:	8f0c           	movi.n	a15, 8
    858b:	0249           	s32i.n	a4, a2, 0
    858d:	098f76        	loop	a15, 859a <processEncoderEntropy+0xea>
    8590:	1114a4        	ae_sbi	a4, a10, 1
    8593:	8a8d           	ae_sext16	a8, a10
    8595:	21a180        	srai	a10, a8, 1
    8598:	0249           	s32i.n	a4, a2, 0

0000859a <processEncoderEntropy+0xea>:
    859a:	1019a6        	blti	a9, 1, 85ae <processEncoderEntropy+0xfe>
    859d:	180c           	movi.n	a8, 1
    859f:	0b8976        	loop	a9, 85ae <processEncoderEntropy+0xfe>
    85a2:	279d           	ae_l16si.n	a9, a7, 0
    85a4:	772b           	addi.n	a7, a7, 2
    85a6:	439980        	min	a9, a9, a8
    85a9:	111494        	ae_sbi	a4, a9, 1
    85ac:	0249           	s32i.n	a4, a2, 0

000085ae <processEncoderEntropy+0xfe>:
    85ae:	457d           	ae_l16ui.n	a7, a5, 0
    85b0:	580c           	movi.n	a8, 5
    85b2:	111474        	ae_sbi	a4, a7, 1
    85b5:	0678           	l32i.n	a7, a6, 0
    85b7:	0249           	s32i.n	a4, a2, 0
    85b9:	098876        	loop	a8, 85c6 <processEncoderEntropy+0x116>
    85bc:	111474        	ae_sbi	a4, a7, 1
    85bf:	878d           	ae_sext16	a8, a7
    85c1:	217180        	srai	a7, a8, 1
    85c4:	0249           	s32i.n	a4, a2, 0

000085c6 <processEncoderEntropy+0x116>:
    85c6:	1678           	l32i.n	a7, a6, 4
    85c8:	580c           	movi.n	a8, 5
    85ca:	098876        	loop	a8, 85d7 <processEncoderEntropy+0x127>
    85cd:	111474        	ae_sbi	a4, a7, 1
    85d0:	878d           	ae_sext16	a8, a7
    85d2:	217180        	srai	a7, a8, 1
    85d5:	0249           	s32i.n	a4, a2, 0
    85d7:	2678           	l32i.n	a7, a6, 8
    85d9:	dedb91        	l32r	a9, 148 (b9fc <sns_gainLSBbits>)
    85dc:	117700        	slli	a7, a7, 16
    85df:	317170        	srai	a7, a7, 17
    85e2:	111474        	ae_sbi	a4, a7, 1
    85e5:	09a8           	l32i.n	a10, a9, 0
    85e7:	2688           	l32i.n	a8, a6, 8
    85e9:	3698           	l32i.n	a9, a6, 12
    85eb:	0249           	s32i.n	a4, a2, 0
    85ed:	90a8a0        	addx2	a10, a8, a10
    85f0:	2abd           	ae_l16si.n	a11, a10, 0
    85f2:	89ad           	ae_sext16	a10, a9
    85f4:	091ba6        	blti	a11, 1, 8601 <processEncoderEntropy+0x151>
    85f7:	400b00        	ssr	a11
    85fa:	b1a0a0        	sra	a10, a10
    85fd:	0002c6        	j	860c <processEncoderEntropy+0x15c>

00008600 <processEncoderEntropy+0x150>:
	...

00008601 <processEncoderEntropy+0x151>:
    8601:	60b0b0        	neg	a11, a11
    8604:	401b00        	ssl	a11
    8607:	a1aa00        	sll	a10, a10
    860a:	8aad           	ae_sext16	a10, a10
    860c:	deceb1        	l32r	a11, 144 (b9f8 <sns_gainMSBbits>)
    860f:	0bb8           	l32i.n	a11, a11, 0
    8611:	90b8b0        	addx2	a11, a8, a11
    8614:	2bbd           	ae_l16si.n	a11, a11, 0
    8616:	0c1ba6        	blti	a11, 1, 8626 <processEncoderEntropy+0x176>
    8619:	098b76        	loop	a11, 8626 <processEncoderEntropy+0x176>
    861c:	1114a4        	ae_sbi	a4, a10, 1
    861f:	8abd           	ae_sext16	a11, a10
    8621:	21a1b0        	srai	a10, a11, 1
    8624:	0249           	s32i.n	a4, a2, 0

00008626 <processEncoderEntropy+0x176>:
    8626:	46b8           	l32i.n	a11, a6, 16
    8628:	04a080        	extui	a10, a8, 0, 1
    862b:	048090        	extui	a8, a9, 0, 1
    862e:	1114b4        	ae_sbi	a4, a11, 1
    8631:	0249           	s32i.n	a4, a2, 0
    8633:	061716        	beqz	a7, 8698 <processEncoderEntropy+0x1e8>
    8636:	5668           	l32i.n	a6, a6, 20
    8638:	aa8c           	beqz.n	a10, 8646 <processEncoderEntropy+0x196>
    863a:	dec571        	l32r	a7, 150 (ba04 <sns_MPVQ_Sz>)
    863d:	906680        	addx2	a6, a6, a8
    8640:	0778           	l32i.n	a7, a7, 0
    8642:	4778           	l32i.n	a7, a7, 16
    8644:	667a           	add.n	a6, a6, a7

00008646 <processEncoderEntropy+0x196>:
    8646:	c80c           	movi.n	a8, 12
    8648:	067d           	mov.n	a7, a6
    864a:	098876        	loop	a8, 8657 <processEncoderEntropy+0x1a7>
    864d:	111474        	ae_sbi	a4, a7, 1
    8650:	878d           	ae_sext16	a8, a7
    8652:	217180        	srai	a7, a8, 1
    8655:	0249           	s32i.n	a4, a2, 0

00008657 <processEncoderEntropy+0x1a7>:
    8657:	0ca072        	movi	a7, 12
    865a:	416c60        	srli	a6, a6, 12
    865d:	098776        	loop	a7, 866a <processEncoderEntropy+0x1ba>
    8660:	111464        	ae_sbi	a4, a6, 1
    8663:	867d           	ae_sext16	a7, a6
    8665:	216170        	srai	a6, a7, 1
    8668:	0249           	s32i.n	a4, a2, 0

0000866a <processEncoderEntropy+0x1ba>:
    866a:	456d           	ae_l16ui.n	a6, a5, 0
    866c:	9f0c           	movi.n	a15, 9
    866e:	569c           	beqz.n	a6, 8687 <processEncoderEntropy+0x1d7>
    8670:	556d           	ae_l16ui.n	a6, a5, 2
    8672:	111464        	ae_sbi	a4, a6, 1
    8675:	021552        	l16ui	a5, a5, 4
    8678:	0249           	s32i.n	a4, a2, 0
    867a:	098f76        	loop	a15, 8687 <processEncoderEntropy+0x1d7>
    867d:	111454        	ae_sbi	a4, a5, 1
    8680:	856d           	ae_sext16	a6, a5
    8682:	215160        	srai	a5, a6, 1
    8685:	0249           	s32i.n	a4, a2, 0
    8687:	350c           	movi.n	a5, 3
    8689:	098576        	loop	a5, 8696 <processEncoderEntropy+0x1e6>
    868c:	111434        	ae_sbi	a4, a3, 1
    868f:	835d           	ae_sext16	a5, a3
    8691:	213150        	srai	a3, a5, 1
    8694:	0249           	s32i.n	a4, a2, 0

00008696 <processEncoderEntropy+0x1e6>:
    8696:	f01d           	retw.n

00008698 <processEncoderEntropy+0x1e8>:
    8698:	deae71        	l32r	a7, 150 (ba04 <sns_MPVQ_Sz>)
    869b:	bacc           	bnez.n	a10, 86aa <processEncoderEntropy+0x1fa>
    869d:	0778           	l32i.n	a7, a7, 0
    869f:	6688           	l32i.n	a8, a6, 24
    86a1:	3798           	l32i.n	a9, a7, 12
    86a3:	898a           	add.n	a8, a9, a8
    86a5:	0000c6        	j	86ac <processEncoderEntropy+0x1fc>

000086a8 <processEncoderEntropy+0x1f8>:
	...

000086aa <processEncoderEntropy+0x1fa>:
    86aa:	0778           	l32i.n	a7, a7, 0
    86ac:	0778           	l32i.n	a7, a7, 0
    86ae:	5668           	l32i.n	a6, a6, 20
    86b0:	df0c           	movi.n	a15, 13
    86b2:	827870        	mull	a7, a8, a7
    86b5:	676a           	add.n	a6, a7, a6
    86b7:	067d           	mov.n	a7, a6
    86b9:	098f76        	loop	a15, 86c6 <processEncoderEntropy+0x216>
    86bc:	111474        	ae_sbi	a4, a7, 1
    86bf:	878d           	ae_sext16	a8, a7
    86c1:	217180        	srai	a7, a8, 1
    86c4:	0249           	s32i.n	a4, a2, 0

000086c6 <processEncoderEntropy+0x216>:
    86c6:	c70c           	movi.n	a7, 12
    86c8:	416d60        	srli	a6, a6, 13
    86cb:	f03d           	nop.n
    86cd:	098776        	loop	a7, 86da <processEncoderEntropy+0x22a>
    86d0:	111464        	ae_sbi	a4, a6, 1
    86d3:	867d           	ae_sext16	a7, a6
    86d5:	216170        	srai	a6, a7, 1
    86d8:	0249           	s32i.n	a4, a2, 0
    86da:	ffe306        	j	866a <processEncoderEntropy+0x1ba>

000086dd <processEncoderEntropy+0x22d>:
    86dd:	000000                                        ...

000086e0 <one_pulse_search>:
    86e0:	004136        	entry	a1, 32
    86e3:	8188           	l32i.n	a8, a1, 32
    86e5:	07a8           	l32i.n	a10, a7, 0
    86e7:	022237        	blt	a2, a3, 86ed <one_pulse_search+0xd>
    86ea:	002746        	j	878b <one_pulse_search+0xab>
    86ed:	91c8           	l32i.n	a12, a1, 36
    86ef:	ffafe2        	movi	a14, -1
    86f2:	301ee4        	ae_cvtp24a16x2.ll	aep1, a14, a14
    86f5:	90eca0        	addx2	a14, a12, a10
    86f8:	40eec0        	nsa	a12, a14
    86fb:	00a0f2        	movi	a15, 0
    86fe:	909240        	addx2	a9, a2, a4
    8701:	90b250        	addx2	a11, a2, a5
    8704:	8ccd           	ae_sext16	a12, a12
    8706:	01a0d2        	movi	a13, 1
    8709:	302ff4        	ae_cvtp24a16x2.ll	aep2, a15, a15
    870c:	ffaff2        	movi	a15, -1
    870f:	c03320        	sub	a3, a3, a2
    8712:	300dd4        	ae_cvtp24a16x2.ll	aep0, a13, a13
    8715:	360a34        	ae_cvtq48a32s	aeq0, a10
    8718:	fe047d280f 	{ ae_lq32f.i	aeq1, a8, 0; ae_movq56	aeq2, aeq0 }
    871d:	83cee0        	moveqz	a12, a14, a14
    8720:	f4d0f0        	extui	a13, a15, 0, 16
    8723:	ff0c6cc90f 	{ ae_lp16f.iu	aep4, a9, 0; ae_movq56	aeq3, aeq1 }
    8728:	e383acbb0f 	{ ae_lp16f.iu	aep3, a11, 0; ae_mulafp24s.ll	aeq2, aep0, aep4 }
    872d:	368376        	loop	a3, 8767 <one_pulse_search+0x87>
    8730:	e363ecc91f 	{ ae_lp16f.iu	aep4, a9, 2; ae_mulafp24s.ll	aeq3, aep0, aep3 }
    8735:	fc24feac8f 	{ ae_slaasq56s	aeq2, aeq2, a12; nop }
    873a:	fb73fab4cf 	{ ae_slliq56	aeq3, aeq3, 16; ae_roundsp16q48asym	aep7, aeq2 }
    873f:	ebff2cbb1f 	{ ae_lp16f.iu	aep3, a11, 2; ae_mulfs32p16s.ll	aeq2, aep7, aep7 }
    8744:	09bf54        	ae_truncp24q48x2	aep5, aeq3, aeq3
    8747:	09ae64        	ae_truncp24q48x2	aep6, aeq2, aeq2
    874a:	019d74        	ae_mulfp24s.ll	aeq3, aep1, aep5
    874d:	01e274        	ae_mulfp24s.ll	aeq2, aep6, aep2
    8750:	09a304        	ae_ltq56s	b0, aeq3, aeq2
    8753:	060076        	bf	b0, 875d <one_pulse_search+0x7d>
    8756:	f87aff50bf 	{ ae_movp48	aep2, aep5; ae_movp48	aep1, aep6 }
    875b:	02dd           	mov.n	a13, a2

0000875d <one_pulse_search+0x7d>:
    875d:	fe0440122e 	{ addi	a2, a2, 1; ae_movq56	aeq2, aeq0 }
    8762:	e383bf11ff 	{ ae_movq56	aeq3, aeq1; ae_mulafp24s.ll	aeq2, aep0, aep4 }

00008767 <one_pulse_search+0x87>:
    8767:	8d2d           	ae_sext16	a2, a13
    8769:	903240        	addx2	a3, a2, a4
    876c:	90d250        	addx2	a13, a2, a5
    876f:	233d           	ae_l16si.n	a3, a3, 0
    8771:	2d5d           	ae_l16si.n	a5, a13, 0
    8773:	9033a0        	addx2	a3, a3, a10
    8776:	e51b           	addi.n	a14, a5, 1
    8778:	0739           	s32i.n	a3, a7, 0
    877a:	6ded           	ae_s16i.n	a14, a13, 0
    877c:	264d           	ae_l16si.n	a4, a6, 0
    877e:	08f8           	l32i.n	a15, a8, 0
    8780:	441b           	addi.n	a4, a4, 1
    8782:	9035f0        	addx2	a3, a5, a15
    8785:	0839           	s32i.n	a3, a8, 0
    8787:	664d           	ae_s16i.n	a4, a6, 0
    8789:	f01d           	retw.n

0000878b <one_pulse_search+0xab>:
    878b:	fd7c           	movi.n	a13, -1
    878d:	f4d0d0        	extui	a13, a13, 0, 16
    8790:	fff4c6        	j	8767 <one_pulse_search+0x87>

00008793 <one_pulse_search+0xb3>:
	...

00008794 <pvq_enc_search_fx>:
    8794:	01a136        	entry	a1, 208
    8797:	3521b2        	l32i	a11, a1, 212
    879a:	3621f2        	l32i	a15, a1, 216
    879d:	1d61f2        	s32i	a15, a1, 116
    87a0:	3821a2        	l32i	a10, a1, 224
    87a3:	3721d2        	l32i	a13, a1, 220
    87a6:	342192        	l32i	a9, a1, 208
    87a9:	2bfd           	ae_l16si.n	a15, a11, 0
    87ab:	3bed           	ae_l16si.n	a14, a11, 2
    87ad:	029bc2        	l16si	a12, a11, 4
    87b0:	039bb2        	l16si	a11, a11, 6
    87b3:	480c           	movi.n	a8, 4
    87b5:	126152        	s32i	a5, a1, 72
    87b8:	1e6142        	s32i	a4, a1, 120
    87bb:	034d           	mov.n	a4, a3
    87bd:	030c           	movi.n	a3, 0
    87bf:	205770        	or	a5, a7, a7
    87c2:	156172        	s32i	a7, a1, 84
    87c5:	078876        	loop	a8, 87d0 <pvq_enc_search_fx+0x3c>
    87c8:	0539           	s32i.n	a3, a5, 0
    87ca:	0939           	s32i.n	a3, a9, 0
    87cc:	554b           	addi.n	a5, a5, 4
    87ce:	994b           	addi.n	a9, a9, 4

000087d0 <pvq_enc_search_fx+0x3c>:
    87d0:	f57c           	movi.n	a5, -1
    87d2:	01d182        	addmi	a8, a1, 0x100
    87d5:	1e2172        	l32i	a7, a1, 120
    87d8:	c03da0        	sub	a3, a13, a10
    87db:	f45050        	extui	a5, a5, 0, 16
    87de:	90c882        	addi	a8, a8, -112
    87e1:	e139           	s32i.n	a3, a1, 56
    87e3:	030c           	movi.n	a3, 0
    87e5:	136162        	s32i	a6, a1, 76
    87e8:	f1a9           	s32i.n	a10, a1, 60
    87ea:	176122        	s32i	a2, a1, 92
    87ed:	1c61b2        	s32i	a11, a1, 112
    87f0:	166152        	s32i	a5, a1, 88
    87f3:	1461c2        	s32i	a12, a1, 80
    87f6:	1b61e2        	s32i	a14, a1, 108
    87f9:	c1f9           	s32i.n	a15, a1, 48
    87fb:	d189           	s32i.n	a8, a1, 52
    87fd:	161aa6        	blti	a10, 1, 8817 <pvq_enc_search_fx+0x83>
    8800:	f57c           	movi.n	a5, -1
    8802:	118a76        	loop	a10, 8817 <pvq_enc_search_fx+0x83>
    8805:	229d           	ae_l16si.n	a9, a2, 0
    8807:	222b           	addi.n	a2, a2, 2
    8809:	609190        	abs	a9, a9
    880c:	689d           	ae_s16i.n	a9, a8, 0
    880e:	899d           	ae_sext16	a9, a9
    8810:	882b           	addi.n	a8, a8, 2
    8812:	535590        	max	a5, a5, a9
    8815:	393a           	add.n	a3, a9, a3

00008817 <pvq_enc_search_fx+0x83>:
    8817:	e128           	l32i.n	a2, a1, 56
    8819:	11cdf0        	slli	a12, a13, 1
    881c:	122162        	l32i	a6, a1, 72
    881f:	822d           	ae_sext16	a2, a2
    8821:	186122        	s32i	a2, a1, 96
    8824:	de9021        	l32r	a2, 264 (bf8 <basop_memset>)
    8827:	0b0c           	movi.n	a11, 0
    8829:	04ad           	mov.n	a10, a4
    882b:	2361c2        	s32i	a12, a1, 140
    882e:	1061d2        	s32i	a13, a1, 64
    8831:	0002e0        	callx8	a2
    8834:	f128           	l32i.n	a2, a1, 60
    8836:	de8b81        	l32r	a8, 264 (bf8 <basop_memset>)
    8839:	0b0c           	movi.n	a11, 0
    883b:	1122f0        	slli	a2, a2, 1
    883e:	07ad           	mov.n	a10, a7
    8840:	02cd           	mov.n	a12, a2
    8842:	0008e0        	callx8	a8
    8845:	1a6122        	s32i	a2, a1, 104
    8848:	02cd           	mov.n	a12, a2
    884a:	de8621        	l32r	a2, 264 (bf8 <basop_memset>)
    884d:	0b0c           	movi.n	a11, 0
    884f:	06ad           	mov.n	a10, a6
    8851:	0002e0        	callx8	a2
    8854:	f1d8           	l32i.n	a13, a1, 60
    8856:	102182        	l32i	a8, a1, 64
    8859:	e1b8           	l32i.n	a11, a1, 56
    885b:	032d           	mov.n	a2, a3
    885d:	26ad87        	bge	a13, a8, 8887 <pvq_enc_search_fx+0xf3>
    8860:	d128           	l32i.n	a2, a1, 52
    8862:	1721f2        	l32i	a15, a1, 92
    8865:	fc7c           	movi.n	a12, -1
    8867:	908d20        	addx2	a8, a13, a2
    886a:	909df0        	addx2	a9, a13, a15
    886d:	032d           	mov.n	a2, a3
    886f:	118b76        	loop	a11, 8884 <pvq_enc_search_fx+0xf0>
    8872:	29ad           	ae_l16si.n	a10, a9, 0
    8874:	992b           	addi.n	a9, a9, 2
    8876:	60a1a0        	abs	a10, a10
    8879:	68ad           	ae_s16i.n	a10, a8, 0
    887b:	8aad           	ae_sext16	a10, a10
    887d:	882b           	addi.n	a8, a8, 2
    887f:	53cca0        	max	a12, a12, a10
    8882:	2a2a           	add.n	a2, a10, a2

00008884 <pvq_enc_search_fx+0xf0>:
    8884:	1661c2        	s32i	a12, a1, 88

00008887 <pvq_enc_search_fx+0xf3>:
    8887:	de7781        	l32r	a8, 264 (bf8 <basop_memset>)
    888a:	11cbf0        	slli	a12, a11, 1
    888d:	90ad70        	addx2	a10, a13, a7
    8890:	0b0c           	movi.n	a11, 0
    8892:	0008e0        	callx8	a8
    8895:	182182        	l32i	a8, a1, 96
    8898:	1321a2        	l32i	a10, a1, 76
    889b:	0b0c           	movi.n	a11, 0
    889d:	11c8f0        	slli	a12, a8, 1
    88a0:	de7181        	l32r	a8, 264 (bf8 <basop_memset>)
    88a3:	0008e0        	callx8	a8
    88a6:	136216        	beqz	a2, 89e0 <pvq_enc_search_fx+0x24c>
    88a9:	1621d2        	l32i	a13, a1, 88
    88ac:	1d21e2        	l32i	a14, a1, 116
    88af:	857d           	ae_sext16	a7, a5
    88b1:	8d8d           	ae_sext16	a8, a13
    88b3:	01d1b2        	addmi	a11, a1, 0x100
    88b6:	2edd           	ae_l16si.n	a13, a14, 0
    88b8:	53f780        	max	a15, a7, a8
    88bb:	206182        	s32i	a8, a1, 128
    88be:	deca81        	l32r	a8, 3e8 (8c44 <pvq_pyr_project>)
    88c1:	1021a2        	l32i	a10, a1, 64
    88c4:	226172        	s32i	a7, a1, 136
    88c7:	28c172        	addi	a7, a1, 40
    88ca:	1961f2        	s32i	a15, a1, 100
    88cd:	2cc192        	addi	a9, a1, 44
    88d0:	90cbb2        	addi	a11, a11, -112
    88d3:	1cc1f2        	addi	a15, a1, 28
    88d6:	02cd           	mov.n	a12, a2
    88d8:	04ed           	mov.n	a14, a4
    88da:	1179           	s32i.n	a7, a1, 4
    88dc:	e179           	s32i.n	a7, a1, 56
    88de:	1f61b2        	s32i	a11, a1, 124
    88e1:	216192        	s32i	a9, a1, 132
    88e4:	0199           	s32i.n	a9, a1, 0
    88e6:	0008e0        	callx8	a8
    88e9:	0e9122        	l16si	a2, a1, 28
    88ec:	c158           	l32i.n	a5, a1, 48
    88ee:	01d1d2        	addmi	a13, a1, 0x100
    88f1:	027d           	mov.n	a7, a2
    88f3:	3fa257        	bge	a2, a5, 8936 <pvq_enc_search_fx+0x1a2>
    88f6:	c05520        	sub	a5, a5, a2
    88f9:	90cd22        	addi	a2, a13, -112
    88fc:	c129           	s32i.n	a2, a1, 48
    88fe:	e178           	l32i.n	a7, a1, 56
    8900:	192122        	l32i	a2, a1, 100
    8903:	1cc1e2        	addi	a14, a1, 28
    8906:	2cc1f2        	addi	a15, a1, 44
    8909:	d1e9           	s32i.n	a14, a1, 52
    890b:	1161f2        	s32i	a15, a1, 68
    890e:	a188           	l32i.n	a8, a1, 40
    8910:	1021b2        	l32i	a11, a1, 64
    8913:	c1c8           	l32i.n	a12, a1, 48
    8915:	881b           	addi.n	a8, a8, 1
    8917:	a189           	s32i.n	a8, a1, 40
    8919:	d1e8           	l32i.n	a14, a1, 52
    891b:	1121f2        	l32i	a15, a1, 68
    891e:	deb381        	l32r	a8, 3ec (86e0 <one_pulse_search>)
    8921:	0a0c           	movi.n	a10, 0
    8923:	04dd           	mov.n	a13, a4
    8925:	1129           	s32i.n	a2, a1, 4
    8927:	0179           	s32i.n	a7, a1, 0
    8929:	0008e0        	callx8	a8
    892c:	550b           	addi.n	a5, a5, -1
    892e:	fdc556        	bnez	a5, 890e <pvq_enc_search_fx+0x17a>
    8931:	0e9122        	l16si	a2, a1, 28
    8934:	927d           	ae_zext16	a7, a2
    8936:	b158           	l32i.n	a5, a1, 44
    8938:	c179           	s32i.n	a7, a1, 48
    893a:	1e2172        	l32i	a7, a1, 120
    893d:	1521f2        	l32i	a15, a1, 84
    8940:	de4e81        	l32r	a8, 278 (c14 <basop_memmove>)
    8943:	2321c2        	l32i	a12, a1, 140
    8946:	215150        	srai	a5, a5, 1
    8949:	07ad           	mov.n	a10, a7
    894b:	04bd           	mov.n	a11, a4
    894d:	0f59           	s32i.n	a5, a15, 0
    894f:	0008e0        	callx8	a8
    8952:	c198           	l32i.n	a9, a1, 48
    8954:	1b21a2        	l32i	a10, a1, 108
    8957:	125192        	s16i	a9, a1, 36
    895a:	898d           	ae_sext16	a8, a9
    895c:	e198           	l32i.n	a9, a1, 56
    895e:	42a8a7        	bge	a8, a10, 89a4 <pvq_enc_search_fx+0x210>
    8961:	01d1d2        	addmi	a13, a1, 0x100
    8964:	c05a20        	sub	a5, a10, a2
    8967:	90cd22        	addi	a2, a13, -112
    896a:	c129           	s32i.n	a2, a1, 48
    896c:	192122        	l32i	a2, a1, 100
    896f:	24c1e2        	addi	a14, a1, 36
    8972:	2cc1f2        	addi	a15, a1, 44
    8975:	d1e9           	s32i.n	a14, a1, 52
    8977:	1161f2        	s32i	a15, a1, 68
    897a:	a188           	l32i.n	a8, a1, 40
    897c:	1021b2        	l32i	a11, a1, 64
    897f:	c1c8           	l32i.n	a12, a1, 48
    8981:	881b           	addi.n	a8, a8, 1
    8983:	a189           	s32i.n	a8, a1, 40
    8985:	d1e8           	l32i.n	a14, a1, 52
    8987:	1121f2        	l32i	a15, a1, 68
    898a:	de9881        	l32r	a8, 3ec (86e0 <one_pulse_search>)
    898d:	0a0c           	movi.n	a10, 0
    898f:	07dd           	mov.n	a13, a7
    8991:	1129           	s32i.n	a2, a1, 4
    8993:	0199           	s32i.n	a9, a1, 0
    8995:	0008e0        	callx8	a8
    8998:	e198           	l32i.n	a9, a1, 56
    899a:	550b           	addi.n	a5, a5, -1
    899c:	fda556        	bnez	a5, 897a <pvq_enc_search_fx+0x1e6>
    899f:	b128           	l32i.n	a2, a1, 44
    89a1:	215120        	srai	a5, a2, 1
    89a4:	152122        	l32i	a2, a1, 84
    89a7:	1d2182        	l32i	a8, a1, 116
    89aa:	01d1b2        	addmi	a11, a1, 0x100
    89ad:	1259           	s32i.n	a5, a2, 4
    89af:	0a4316        	beqz	a3, 8a57 <pvq_enc_search_fx+0x2c3>
    89b2:	021822        	l16ui	a2, a8, 4
    89b5:	03cd           	mov.n	a12, a3
    89b7:	de8c31        	l32r	a3, 3e8 (8c44 <pvq_pyr_project>)
    89ba:	0b6216        	beqz	a2, 8a74 <pvq_enc_search_fx+0x2e0>
    89bd:	82dd           	ae_sext16	a13, a2
    89bf:	f128           	l32i.n	a2, a1, 60
    89c1:	1199           	s32i.n	a9, a1, 4
    89c3:	212192        	l32i	a9, a1, 132
    89c6:	90cbb2        	addi	a11, a11, -112
    89c9:	18c1f2        	addi	a15, a1, 24
    89cc:	02ad           	mov.n	a10, a2
    89ce:	06ed           	mov.n	a14, a6
    89d0:	0199           	s32i.n	a9, a1, 0
    89d2:	0003e0        	callx8	a3
    89d5:	02cd           	mov.n	a12, a2
    89d7:	0c1122        	l16ui	a2, a1, 24
    89da:	1421d2        	l32i	a13, a1, 80
    89dd:	003906        	j	8ac5 <pvq_enc_search_fx+0x331>

000089e0 <pvq_enc_search_fx+0x24c>:
    89e0:	1021b2        	l32i	a11, a1, 64
    89e3:	c188           	l32i.n	a8, a1, 48
    89e5:	1b21e2        	l32i	a14, a1, 108
    89e8:	2b0b           	addi.n	a2, a11, -1
    89ea:	213180        	srai	a3, a8, 1
    89ed:	822d           	ae_sext16	a2, a2
    89ef:	643d           	ae_s16i.n	a3, a4, 0
    89f1:	905240        	addx2	a5, a2, a4
    89f4:	256d           	ae_l16si.n	a6, a5, 0
    89f6:	c03830        	sub	a3, a8, a3
    89f9:	21f1e0        	srai	a15, a14, 1
    89fc:	336a           	add.n	a3, a3, a6
    89fe:	653d           	ae_s16i.n	a3, a5, 0
    8a00:	f1c8           	l32i.n	a12, a1, 60
    8a02:	902270        	addx2	a2, a2, a7
    8a05:	67fd           	ae_s16i.n	a15, a7, 0
    8a07:	142192        	l32i	a9, a1, 80
    8a0a:	225d           	ae_l16si.n	a5, a2, 0
    8a0c:	122162        	l32i	a6, a1, 72
    8a0f:	c03ef0        	sub	a3, a14, a15
    8a12:	8c0b           	addi.n	a8, a12, -1
    8a14:	335a           	add.n	a3, a3, a5
    8a16:	21a190        	srai	a10, a9, 1
    8a19:	88dd           	ae_sext16	a13, a8
    8a1b:	623d           	ae_s16i.n	a3, a2, 0
    8a1d:	903d60        	addx2	a3, a13, a6
    8a20:	66ad           	ae_s16i.n	a10, a6, 0
    8a22:	23ed           	ae_l16si.n	a14, a3, 0
    8a24:	c029a0        	sub	a2, a9, a10
    8a27:	182192        	l32i	a9, a1, 96
    8a2a:	22ea           	add.n	a2, a2, a14
    8a2c:	632d           	ae_s16i.n	a2, a3, 0
    8a2e:	1c2122        	l32i	a2, a1, 112
    8a31:	1321a2        	l32i	a10, a1, 76
    8a34:	f90b           	addi.n	a15, a9, -1
    8a36:	21d120        	srai	a13, a2, 1
    8a39:	8fed           	ae_sext16	a14, a15
    8a3b:	903ea0        	addx2	a3, a14, a10
    8a3e:	6add           	ae_s16i.n	a13, a10, 0
    8a40:	23fd           	ae_l16si.n	a15, a3, 0
    8a42:	c022d0        	sub	a2, a2, a13
    8a45:	172152        	l32i	a5, a1, 92
    8a48:	22fa           	add.n	a2, a2, a15
    8a4a:	0a8d           	mov.n	a8, a10
    8a4c:	632d           	ae_s16i.n	a2, a3, 0
    8a4e:	021ba6        	blti	a11, 1, 8a54 <pvq_enc_search_fx+0x2c0>
    8a51:	006486        	j	8be7 <pvq_enc_search_fx+0x453>
    8a54:	006e46        	j	8c11 <pvq_enc_search_fx+0x47d>

00008a57 <pvq_enc_search_fx+0x2c3>:
    8a57:	f1c8           	l32i.n	a12, a1, 60
    8a59:	142182        	l32i	a8, a1, 80
    8a5c:	2c0b           	addi.n	a2, a12, -1
    8a5e:	822d           	ae_sext16	a2, a2
    8a60:	213180        	srai	a3, a8, 1
    8a63:	663d           	ae_s16i.n	a3, a6, 0
    8a65:	902260        	addx2	a2, a2, a6
    8a68:	225d           	ae_l16si.n	a5, a2, 0
    8a6a:	c03830        	sub	a3, a8, a3
    8a6d:	335a           	add.n	a3, a3, a5
    8a6f:	623d           	ae_s16i.n	a3, a2, 0
    8a71:	002706        	j	8b11 <pvq_enc_search_fx+0x37d>

00008a74 <pvq_enc_search_fx+0x2e0>:
    8a74:	1a21c2        	l32i	a12, a1, 104
    8a77:	de0031        	l32r	a3, 278 (c14 <basop_memmove>)
    8a7a:	020c           	movi.n	a2, 0
    8a7c:	06ad           	mov.n	a10, a6
    8a7e:	07bd           	mov.n	a11, a7
    8a80:	0c5122        	s16i	a2, a1, 24
    8a83:	b129           	s32i.n	a2, a1, 44
    8a85:	a129           	s32i.n	a2, a1, 40
    8a87:	0003e0        	callx8	a3
    8a8a:	f1c8           	l32i.n	a12, a1, 60
    8a8c:	1421d2        	l32i	a13, a1, 80
    8a8f:	030c           	movi.n	a3, 0
    8a91:	2e1ca6        	blti	a12, 1, 8ac3 <pvq_enc_search_fx+0x32f>
    8a94:	1f21e2        	l32i	a14, a1, 124
    8a97:	030c           	movi.n	a3, 0
    8a99:	050c           	movi.n	a5, 0
    8a9b:	068d           	mov.n	a8, a6
    8a9d:	020c           	movi.n	a2, 0
    8a9f:	168c76        	loop	a12, 8ab9 <pvq_enc_search_fx+0x325>
    8aa2:	289d           	ae_l16si.n	a9, a8, 0
    8aa4:	2ead           	ae_l16si.n	a10, a14, 0
    8aa6:	882b           	addi.n	a8, a8, 2
    8aa8:	11b9f0        	slli	a11, a9, 1
    8aab:	292a           	add.n	a2, a9, a2
    8aad:	82aba0        	mull	a10, a11, a10
    8ab0:	829b90        	mull	a9, a11, a9
    8ab3:	ee2b           	addi.n	a14, a14, 2
    8ab5:	5a5a           	add.n	a5, a10, a5
    8ab7:	339a           	add.n	a3, a3, a9

00008ab9 <pvq_enc_search_fx+0x325>:
    8ab9:	a139           	s32i.n	a3, a1, 40
    8abb:	213130        	srai	a3, a3, 1
    8abe:	0c5122        	s16i	a2, a1, 24
    8ac1:	b159           	s32i.n	a5, a1, 44

00008ac3 <pvq_enc_search_fx+0x32f>:
    8ac3:	a139           	s32i.n	a3, a1, 40
    8ac5:	e198           	l32i.n	a9, a1, 56
    8ac7:	222132        	l32i	a3, a1, 136
    8aca:	822d           	ae_sext16	a2, a2
    8acc:	41a2d7        	bge	a2, a13, 8b11 <pvq_enc_search_fx+0x37d>
    8acf:	c05d20        	sub	a5, a13, a2
    8ad2:	01d1d2        	addmi	a13, a1, 0x100
    8ad5:	90cd22        	addi	a2, a13, -112
    8ad8:	18c1e2        	addi	a14, a1, 24
    8adb:	2cc1f2        	addi	a15, a1, 44
    8ade:	c129           	s32i.n	a2, a1, 48
    8ae0:	d1e9           	s32i.n	a14, a1, 52
    8ae2:	1161f2        	s32i	a15, a1, 68
    8ae5:	a188           	l32i.n	a8, a1, 40
    8ae7:	0cbd           	mov.n	a11, a12
    8ae9:	c1c8           	l32i.n	a12, a1, 48
    8aeb:	881b           	addi.n	a8, a8, 1
    8aed:	a189           	s32i.n	a8, a1, 40
    8aef:	d1e8           	l32i.n	a14, a1, 52
    8af1:	1121f2        	l32i	a15, a1, 68
    8af4:	de3e81        	l32r	a8, 3ec (86e0 <one_pulse_search>)
    8af7:	0a0c           	movi.n	a10, 0
    8af9:	06dd           	mov.n	a13, a6
    8afb:	1139           	s32i.n	a3, a1, 4
    8afd:	032d           	mov.n	a2, a3
    8aff:	0199           	s32i.n	a9, a1, 0
    8b01:	093d           	mov.n	a3, a9
    8b03:	0008e0        	callx8	a8
    8b06:	f1c8           	l32i.n	a12, a1, 60
    8b08:	550b           	addi.n	a5, a5, -1
    8b0a:	039d           	mov.n	a9, a3
    8b0c:	023d           	mov.n	a3, a2
    8b0e:	fd3556        	bnez	a5, 8ae5 <pvq_enc_search_fx+0x351>
    8b11:	b128           	l32i.n	a2, a1, 44
    8b13:	152152        	l32i	a5, a1, 84
    8b16:	1c2192        	l32i	a9, a1, 112
    8b19:	213120        	srai	a3, a2, 1
    8b1c:	2539           	s32i.n	a3, a5, 8
    8b1e:	030c           	movi.n	a3, 0
    8b20:	105132        	s16i	a3, a1, 32
    8b23:	581966        	bnei	a9, 1, 8b7f <pvq_enc_search_fx+0x3eb>
    8b26:	1021b2        	l32i	a11, a1, 64
    8b29:	162152        	l32i	a5, a1, 88
    8b2c:	01d182        	addmi	a8, a1, 0x100
    8b2f:	20acb7        	bge	a12, a11, 8b53 <pvq_enc_search_fx+0x3bf>
    8b32:	90c882        	addi	a8, a8, -112
    8b35:	c09bc0        	sub	a9, a11, a12
    8b38:	030c           	movi.n	a3, 0
    8b3a:	955d           	ae_zext16	a5, a5
    8b3c:	0c6d           	mov.n	a6, a12
    8b3e:	908c80        	addx2	a8, a12, a8
    8b41:	0e8976        	loop	a9, 8b53 <pvq_enc_search_fx+0x3bf>
    8b44:	489d           	ae_l16ui.n	a9, a8, 0
    8b46:	c0a6c0        	sub	a10, a6, a12
    8b49:	882b           	addi.n	a8, a8, 2
    8b4b:	c09950        	sub	a9, a9, a5
    8b4e:	661b           	addi.n	a6, a6, 1
    8b50:	833a90        	moveqz	a3, a10, a9

00008b53 <pvq_enc_search_fx+0x3bf>:
    8b53:	132182        	l32i	a8, a1, 76
    8b56:	836d           	ae_sext16	a6, a3
    8b58:	d3ca           	add.n	a13, a3, a12
    8b5a:	150c           	movi.n	a5, 1
    8b5c:	906680        	addx2	a6, a6, a8
    8b5f:	01d1e2        	addmi	a14, a1, 0x100
    8b62:	665d           	ae_s16i.n	a5, a6, 0
    8b64:	90ce62        	addi	a6, a14, -112
    8b67:	8d3d           	ae_sext16	a3, a13
    8b69:	903360        	addx2	a3, a3, a6
    8b6c:	233d           	ae_l16si.n	a3, a3, 0
    8b6e:	a1f8           	l32i.n	a15, a1, 40
    8b70:	105152        	s16i	a5, a1, 32
    8b73:	902320        	addx2	a2, a3, a2
    8b76:	5f1b           	addi.n	a5, a15, 1
    8b78:	a159           	s32i.n	a5, a1, 40
    8b7a:	b129           	s32i.n	a2, a1, 44
    8b7c:	001486        	j	8bd2 <pvq_enc_search_fx+0x43e>

00008b7f <pvq_enc_search_fx+0x3eb>:
    8b7f:	132182        	l32i	a8, a1, 76
    8b82:	1021b2        	l32i	a11, a1, 64
    8b85:	4c19a6        	blti	a9, 1, 8bd5 <pvq_enc_search_fx+0x441>
    8b88:	1a2122        	l32i	a2, a1, 104
    8b8b:	01d1e2        	addmi	a14, a1, 0x100
    8b8e:	202152        	l32i	a5, a1, 128
    8b91:	c02820        	sub	a2, a8, a2
    8b94:	c129           	s32i.n	a2, a1, 48
    8b96:	90ce22        	addi	a2, a14, -112
    8b99:	d129           	s32i.n	a2, a1, 52
    8b9b:	e128           	l32i.n	a2, a1, 56
    8b9d:	20c1f2        	addi	a15, a1, 32
    8ba0:	2cc132        	addi	a3, a1, 44
    8ba3:	1161f2        	s32i	a15, a1, 68
    8ba6:	a168           	l32i.n	a6, a1, 40
    8ba8:	0cad           	mov.n	a10, a12
    8baa:	d1c8           	l32i.n	a12, a1, 52
    8bac:	c1d8           	l32i.n	a13, a1, 48
    8bae:	1121e2        	l32i	a14, a1, 68
    8bb1:	de0e81        	l32r	a8, 3ec (86e0 <one_pulse_search>)
    8bb4:	661b           	addi.n	a6, a6, 1
    8bb6:	03fd           	mov.n	a15, a3
    8bb8:	a169           	s32i.n	a6, a1, 40
    8bba:	1159           	s32i.n	a5, a1, 4
    8bbc:	096d           	mov.n	a6, a9
    8bbe:	0129           	s32i.n	a2, a1, 0
    8bc0:	0008e0        	callx8	a8
    8bc3:	1021b2        	l32i	a11, a1, 64
    8bc6:	f1c8           	l32i.n	a12, a1, 60
    8bc8:	960b           	addi.n	a9, a6, -1
    8bca:	fd8956        	bnez	a9, 8ba6 <pvq_enc_search_fx+0x412>
    8bcd:	b128           	l32i.n	a2, a1, 44
    8bcf:	132182        	l32i	a8, a1, 76
    8bd2:	122162        	l32i	a6, a1, 72
    8bd5:	152132        	l32i	a3, a1, 84
    8bd8:	172152        	l32i	a5, a1, 92
    8bdb:	182192        	l32i	a9, a1, 96
    8bde:	212120        	srai	a2, a2, 1
    8be1:	036322        	s32i	a2, a3, 12
    8be4:	291ba6        	blti	a11, 1, 8c11 <pvq_enc_search_fx+0x47d>
    8be7:	052d           	mov.n	a2, a5
    8be9:	0f8b76        	loop	a11, 8bfc <pvq_enc_search_fx+0x468>
    8bec:	223d           	ae_l16si.n	a3, a2, 0
    8bee:	0063d6        	bgez	a3, 8bf8 <pvq_enc_search_fx+0x464>
    8bf1:	243d           	ae_l16si.n	a3, a4, 0
    8bf3:	603030        	neg	a3, a3
    8bf6:	643d           	ae_s16i.n	a3, a4, 0
    8bf8:	442b           	addi.n	a4, a4, 2
    8bfa:	222b           	addi.n	a2, a2, 2

00008bfc <pvq_enc_search_fx+0x468>:
    8bfc:	052d           	mov.n	a2, a5
    8bfe:	0f8b76        	loop	a11, 8c11 <pvq_enc_search_fx+0x47d>
    8c01:	223d           	ae_l16si.n	a3, a2, 0
    8c03:	0063d6        	bgez	a3, 8c0d <pvq_enc_search_fx+0x479>
    8c06:	273d           	ae_l16si.n	a3, a7, 0
    8c08:	603030        	neg	a3, a3
    8c0b:	673d           	ae_s16i.n	a3, a7, 0

00008c0d <pvq_enc_search_fx+0x479>:
    8c0d:	772b           	addi.n	a7, a7, 2
    8c0f:	222b           	addi.n	a2, a2, 2

00008c11 <pvq_enc_search_fx+0x47d>:
    8c11:	141ca6        	blti	a12, 1, 8c29 <pvq_enc_search_fx+0x495>
    8c14:	052d           	mov.n	a2, a5
    8c16:	0f8c76        	loop	a12, 8c29 <pvq_enc_search_fx+0x495>
    8c19:	223d           	ae_l16si.n	a3, a2, 0
    8c1b:	0063d6        	bgez	a3, 8c25 <pvq_enc_search_fx+0x491>
    8c1e:	263d           	ae_l16si.n	a3, a6, 0
    8c20:	603030        	neg	a3, a3
    8c23:	663d           	ae_s16i.n	a3, a6, 0

00008c25 <pvq_enc_search_fx+0x491>:
    8c25:	662b           	addi.n	a6, a6, 2
    8c27:	222b           	addi.n	a2, a2, 2

00008c29 <pvq_enc_search_fx+0x495>:
    8c29:	1519a6        	blti	a9, 1, 8c42 <pvq_enc_search_fx+0x4ae>
    8c2c:	902c50        	addx2	a2, a12, a5
    8c2f:	0f8976        	loop	a9, 8c42 <pvq_enc_search_fx+0x4ae>
    8c32:	223d           	ae_l16si.n	a3, a2, 0
    8c34:	0063d6        	bgez	a3, 8c3e <pvq_enc_search_fx+0x4aa>
    8c37:	283d           	ae_l16si.n	a3, a8, 0
    8c39:	603030        	neg	a3, a3
    8c3c:	683d           	ae_s16i.n	a3, a8, 0

00008c3e <pvq_enc_search_fx+0x4aa>:
    8c3e:	882b           	addi.n	a8, a8, 2
    8c40:	222b           	addi.n	a2, a2, 2

00008c42 <pvq_enc_search_fx+0x4ae>:
    8c42:	f01d           	retw.n

00008c44 <pvq_pyr_project>:
    8c44:	004136        	entry	a1, 32
    8c47:	40e4a0        	nsa	a10, a4
    8c4a:	40e590        	nsa	a9, a5
    8c4d:	83a440        	moveqz	a10, a4, a4
    8c50:	8a8d           	ae_sext16	a8, a10
    8c52:	fd7c           	movi.n	a13, -1
    8c54:	990b           	addi.n	a9, a9, -1
    8c56:	93d950        	movnez	a13, a9, a5
    8c59:	60b080        	neg	a11, a8
    8c5c:	8d9d           	ae_sext16	a9, a13
    8c5e:	400b00        	ssr	a11
    8c61:	b1e040        	sra	a14, a4
    8c64:	401800        	ssl	a8
    8c67:	60d090        	neg	a13, a9
    8c6a:	a1b400        	sll	a11, a4
    8c6d:	400d00        	ssr	a13
    8c70:	b1d050        	sra	a13, a5
    8c73:	401900        	ssl	a9
    8c76:	a15500        	sll	a5, a5
    8c79:	a3be80        	movltz	a11, a14, a8
    8c7c:	9188           	l32i.n	a8, a1, 36
    8c7e:	8148           	l32i.n	a4, a1, 32
    8c80:	ff7c           	movi.n	a15, -1
    8c82:	a35d90        	movltz	a5, a13, a9
    8c85:	11df00        	slli	a13, a15, 16
    8c88:	0c0c           	movi.n	a12, 0
    8c8a:	10dbd0        	and	a13, a11, a13
    8c8d:	04c9           	s32i.n	a12, a4, 0
    8c8f:	67cd           	ae_s16i.n	a12, a7, 0
    8c91:	08c9           	s32i.n	a12, a8, 0
    8c93:	0ca5d7        	bge	a5, a13, 8ca3 <pvq_pyr_project+0x5f>
    8c96:	31b0b0        	srai	a11, a11, 16
    8c99:	d255b0        	quos	a5, a5, a11
    8c9c:	415150        	srli	a5, a5, 1
    8c9f:	000186        	j	8ca9 <pvq_pyr_project+0x65>

00008ca2 <pvq_pyr_project+0x5e>:
	...

00008ca3 <pvq_pyr_project+0x5f>:
    8ca3:	ffa052        	movi	a5, 255
    8ca6:	7fd552        	addmi	a5, a5, 0x7f00
    8ca9:	fc209599af 	{ sub	a9, a9, a10; ae_zerop48	aep0 }
    8cae:	fc2498955f 	{ ae_cvtp24a16x2.ll	aep1, a5, a5; ae_zeroq56	aeq0 }
    8cb3:	0a5084        	ae_zeroq56	aeq1
    8cb6:	031694        	wur.ae_sar	a9
    8cb9:	2722a6        	blti	a2, 2, 8ce4 <pvq_pyr_project+0xa0>
    8cbc:	21f120        	srai	a15, a2, 1
    8cbf:	44a304        	ae_lp16x2f.iu	aep2, a3, 0
    8cc2:	fcc622        	addi	a2, a6, -4
    8cc5:	1b8f76        	loop	a15, 8ce4 <pvq_pyr_project+0xa0>
    8cc8:	019244        	ae_mulfp24s.hh	aeq2, aep1, aep2
    8ccb:	019a74        	ae_mulfp24s.ll	aeq3, aep1, aep2
    8cce:	09af34        	ae_truncp24q48x2	aep3, aeq2, aeq3
    8cd1:	0b33b4        	ae_srasp24	aep3, aep3
    8cd4:	0932b4        	ae_truncp16	aep3, aep3
    8cd7:	e26833b21f 	{ ae_sp16x2f.iu	aep3, a2, 4; ae_mulaafp24s.hh.ll	aeq0, aep2, aep3 }
    8cdc:	e26ceda31f 	{ ae_lp16x2f.iu	aep2, a3, 4; ae_mulaap24s.hh.ll	aeq1, aep3, aep3 }
    8ce1:	078304        	ae_addsp24s	aep0, aep0, aep3

00008ce4 <pvq_pyr_project+0xa0>:
    8ce4:	dc01ff12ef 	{ ae_trunca32q48	a2, aeq1; ae_selp24.lh	aep1, aep0, aep0 }
    8ce9:	d8213f03ef 	{ ae_trunca32q48	a3, aeq0; ae_addsp24s	aep0, aep0, aep1 }
    8cee:	360f24        	ae_trunca16p24s.l	a15, aep0
    8cf1:	0829           	s32i.n	a2, a8, 0
    8cf3:	0439           	s32i.n	a3, a4, 0
    8cf5:	67fd           	ae_s16i.n	a15, a7, 0
    8cf7:	f01d           	retw.n

00008cf9 <pvq_pyr_project+0xb5>:
    8cf9:	000000                                        ...

00008cfc <processPLCapply_fx>:
    8cfc:	00a136        	entry	a1, 80
    8cff:	050c           	movi.n	a5, 0
    8d01:	165152        	s16i	a5, a1, 44
    8d04:	721466        	bnei	a4, 1, 8d7a <processPLCapply_fx+0x7e>
    8d07:	1b2142        	l32i	a4, a1, 108
    8d0a:	255226        	beqi	a2, 5, 8d33 <processPLCapply_fx+0x37>
    8d0d:	2121e2        	l32i	a14, a1, 132
    8d10:	1c21c2        	l32i	a12, a1, 112
    8d13:	1a21a2        	l32i	a10, a1, 104
    8d16:	192152        	l32i	a5, a1, 100
    8d19:	1821b2        	l32i	a11, a1, 96
    8d1c:	5c4226        	beqi	a2, 4, 8d7c <processPLCapply_fx+0x80>
    8d1f:	057256        	bnez	a2, 8d7a <processPLCapply_fx+0x7e>
    8d22:	252d           	ae_l16si.n	a2, a5, 0
    8d24:	642d           	ae_s16i.n	a2, a4, 0
    8d26:	2221f2        	l32i	a15, a1, 136
    8d29:	ddb121        	l32r	a2, 3f0 (a6c8 <processPLCNoiseSubstitution0_fx>)
    8d2c:	03dd           	mov.n	a13, a3
    8d2e:	0002e0        	callx8	a2
    8d31:	f01d           	retw.n

00008d33 <processPLCapply_fx+0x37>:
    8d33:	252122        	l32i	a2, a1, 148
    8d36:	6129           	s32i.n	a2, a1, 24
    8d38:	2cc182        	addi	a8, a1, 44
    8d3b:	2421a2        	l32i	a10, a1, 144
    8d3e:	2321f2        	l32i	a15, a1, 140
    8d41:	1f21b2        	l32i	a11, a1, 124
    8d44:	1d21c2        	l32i	a12, a1, 116
    8d47:	172152        	l32i	a5, a1, 92
    8d4a:	1621d2        	l32i	a13, a1, 88
    8d4d:	1521e2        	l32i	a14, a1, 84
    8d50:	ddaa21        	l32r	a2, 3f8 (96e4 <tplc_process_fx>)
    8d53:	5189           	s32i.n	a8, a1, 20
    8d55:	41e9           	s32i.n	a14, a1, 16
    8d57:	3159           	s32i.n	a5, a1, 12
    8d59:	21d9           	s32i.n	a13, a1, 8
    8d5b:	142192        	l32i	a9, a1, 80
    8d5e:	03dd           	mov.n	a13, a3
    8d60:	06ed           	mov.n	a14, a6
    8d62:	1199           	s32i.n	a9, a1, 4
    8d64:	0179           	s32i.n	a7, a1, 0
    8d66:	0002e0        	callx8	a2
    8d69:	169122        	l16si	a2, a1, 44
    8d6c:	f30c           	movi.n	a3, 15
    8d6e:	c02320        	sub	a2, a3, a2
    8d71:	642d           	ae_s16i.n	a2, a4, 0
    8d73:	252d           	ae_l16si.n	a2, a5, 0
    8d75:	c02320        	sub	a2, a3, a2
    8d78:	652d           	ae_s16i.n	a2, a5, 0
    8d7a:	f01d           	retw.n

00008d7c <processPLCapply_fx+0x80>:
    8d7c:	252d           	ae_l16si.n	a2, a5, 0
    8d7e:	642d           	ae_s16i.n	a2, a4, 0
    8d80:	dd9d21        	l32r	a2, 3f4 (9598 <tplc_noise_fx>)
    8d83:	03dd           	mov.n	a13, a3
    8d85:	0002e0        	callx8	a2
    8d88:	f01d           	retw.n

00008d8a <processPLCapply_fx+0x8e>:
    8d8a:	00000000                                 ......

00008d90 <processPLCclassify_fx>:
    8d90:	004136        	entry	a1, 32
    8d93:	d178           	l32i.n	a7, a1, 52
    8d95:	091566        	bnei	a5, 1, 8da2 <processPLCclassify_fx+0x12>
    8d98:	445d           	ae_l16ui.n	a5, a4, 0
    8d9a:	851b           	addi.n	a8, a5, 1
    8d9c:	648d           	ae_s16i.n	a8, a4, 0
    8d9e:	659c           	beqz.n	a5, 8db8 <processPLCclassify_fx+0x28>

00008da0 <processPLCclassify_fx+0x10>:
    8da0:	f01d           	retw.n

00008da2 <processPLCclassify_fx+0x12>:
    8da2:	fa2266        	bnei	a2, 2, 8da0 <processPLCclassify_fx+0x10>
    8da5:	430c           	movi.n	a3, 4
    8da7:	27ab           	addi.n	a2, a7, 10
    8da9:	068376        	loop	a3, 8db3 <processPLCclassify_fx+0x23>
    8dac:	223d           	ae_l16si.n	a3, a2, 0
    8dae:	723d           	ae_s16i.n	a3, a2, 2
    8db0:	fec222        	addi	a2, a2, -2

00008db3 <processPLCclassify_fx+0x23>:
    8db3:	025762        	s16i	a6, a7, 4
    8db6:	f01d           	retw.n

00008db8 <processPLCclassify_fx+0x28>:
    8db8:	632d           	ae_s16i.n	a2, a3, 0
    8dba:	e22266        	bnei	a2, 2, 8da0 <processPLCclassify_fx+0x10>
    8dbd:	5316a6        	blti	a6, 1, 8e14 <processPLCclassify_fx+0x84>
    8dc0:	029722        	l16si	a2, a7, 4
    8dc3:	039742        	l16si	a4, a7, 6
    8dc6:	dd8dc1        	l32r	a12, 3fc (10ccd <_end+0x51e5>)
    8dc9:	221b           	addi.n	a2, a2, 1
    8dcb:	441b           	addi.n	a4, a4, 1
    8dcd:	825d           	ae_sext16	a5, a2
    8dcf:	848d           	ae_sext16	a8, a4
    8dd1:	539580        	max	a9, a5, a8
    8dd4:	43a580        	min	a10, a5, a8
    8dd7:	c05650        	sub	a5, a6, a5
    8dda:	c08680        	sub	a8, a6, a8
    8ddd:	605150        	abs	a5, a5
    8de0:	608180        	abs	a8, a8
    8de3:	725580        	salt	a5, a5, a8
    8de6:	832650        	moveqz	a2, a6, a5
    8de9:	934650        	movnez	a4, a6, a5
    8dec:	822d           	ae_sext16	a2, a2
    8dee:	844d           	ae_sext16	a4, a4
    8df0:	53e240        	max	a14, a2, a4
    8df3:	119900        	slli	a9, a9, 16
    8df6:	432240        	min	a2, a2, a4
    8df9:	11fe00        	slli	a15, a14, 16
    8dfc:	d22f20        	quos	a2, a15, a2
    8dff:	d299a0        	quos	a9, a9, a10
    8e02:	72d9c0        	salt	a13, a9, a12
    8e05:	7222c0        	salt	a2, a2, a12
    8e08:	5b0c           	movi.n	a11, 5
    8e0a:	102d20        	and	a2, a13, a2
    8e0d:	63bd           	ae_s16i.n	a11, a3, 0
    8e0f:	075722        	s16i	a2, a7, 14
    8e12:	f01d           	retw.n

00008e14 <processPLCclassify_fx+0x84>:
    8e14:	420c           	movi.n	a2, 4
    8e16:	632d           	ae_s16i.n	a2, a3, 0
    8e18:	f01d           	retw.n

00008e1a <processPLCclassify_fx+0x8a>:
	...

00008e1c <processPLCmain_fx>:
    8e1c:	01a136        	entry	a1, 208
    8e1f:	3b21a2        	l32i	a10, a1, 236
    8e22:	2b6162        	s32i	a6, a1, 172
    8e25:	2561a2        	s32i	a10, a1, 148
    8e28:	3a21b2        	l32i	a11, a1, 232
    8e2b:	372162        	l32i	a6, a1, 220
    8e2e:	4321a2        	l32i	a10, a1, 0x10c
    8e31:	05dd           	mov.n	a13, a5
    8e33:	1e6152        	s32i	a5, a1, 120
    8e36:	362152        	l32i	a5, a1, 216
    8e39:	1f6142        	s32i	a4, a1, 124
    8e3c:	03fd           	mov.n	a15, a3
    8e3e:	3d2142        	l32i	a4, a1, 244
    8e41:	1861b2        	s32i	a11, a1, 96
    8e44:	3921b2        	l32i	a11, a1, 228
    8e47:	286152        	s32i	a5, a1, 160
    8e4a:	276162        	s32i	a6, a1, 156
    8e4d:	2161a2        	s32i	a10, a1, 132
    8e50:	482132        	l32i	a3, a1, 0x120
    8e53:	3f21a2        	l32i	a10, a1, 252
    8e56:	452152        	l32i	a5, a1, 0x114
    8e59:	472162        	l32i	a6, a1, 0x11c
    8e5c:	3421c2        	l32i	a12, a1, 208
    8e5f:	3521e2        	l32i	a14, a1, 212
    8e62:	7139           	s32i.n	a3, a1, 28
    8e64:	6169           	s32i.n	a6, a1, 24
    8e66:	5159           	s32i.n	a5, a1, 20
    8e68:	41a9           	s32i.n	a10, a1, 16
    8e6a:	31b9           	s32i.n	a11, a1, 12
    8e6c:	1b6142        	s32i	a4, a1, 108
    8e6f:	2149           	s32i.n	a4, a1, 8
    8e71:	1f2142        	l32i	a4, a1, 124
    8e74:	196172        	s32i	a7, a1, 100
    8e77:	2a61c2        	s32i	a12, a1, 168
    8e7a:	2961e2        	s32i	a14, a1, 164
    8e7d:	402182        	l32i	a8, a1, 0x100
    8e80:	4421c2        	l32i	a12, a1, 0x110
    8e83:	4921e2        	l32i	a14, a1, 0x124
    8e86:	3c2192        	l32i	a9, a1, 240
    8e89:	1761b2        	s32i	a11, a1, 92
    8e8c:	382172        	l32i	a7, a1, 224
    8e8f:	236182        	s32i	a8, a1, 140
    8e92:	2061c2        	s32i	a12, a1, 128
    8e95:	3e21c2        	l32i	a12, a1, 248
    8e98:	1d61e2        	s32i	a14, a1, 116
    8e9b:	4121e2        	l32i	a14, a1, 0x104
    8e9e:	02ad           	mov.n	a10, a2
    8ea0:	dd5881        	l32r	a8, 400 (8d90 <processPLCclassify_fx>)
    8ea3:	0f2d           	mov.n	a2, a15
    8ea5:	0fbd           	mov.n	a11, a15
    8ea7:	1921f2        	l32i	a15, a1, 100
    8eaa:	246192        	s32i	a9, a1, 144
    8ead:	266172        	s32i	a7, a1, 152
    8eb0:	422192        	l32i	a9, a1, 0x108
    8eb3:	462172        	l32i	a7, a1, 0x118
    8eb6:	11c9           	s32i.n	a12, a1, 4
    8eb8:	1c61c2        	s32i	a12, a1, 112
    8ebb:	04cd           	mov.n	a12, a4
    8ebd:	226192        	s32i	a9, a1, 136
    8ec0:	1a61e2        	s32i	a14, a1, 104
    8ec3:	0179           	s32i.n	a7, a1, 0
    8ec5:	0008e0        	callx8	a8
    8ec8:	24bd           	ae_l16si.n	a11, a4, 0
    8eca:	1d2142        	l32i	a4, a1, 116
    8ecd:	22ad           	ae_l16si.n	a10, a2, 0
    8ecf:	136142        	s32i	a4, a1, 76
    8ed2:	126132        	s32i	a3, a1, 72
    8ed5:	116162        	s32i	a6, a1, 68
    8ed8:	106152        	s32i	a5, a1, 64
    8edb:	202152        	l32i	a5, a1, 128
    8ede:	f179           	s32i.n	a7, a1, 60
    8ee0:	e159           	s32i.n	a5, a1, 56
    8ee2:	212172        	l32i	a7, a1, 132
    8ee5:	222182        	l32i	a8, a1, 136
    8ee8:	1e2152        	l32i	a5, a1, 120
    8eeb:	d179           	s32i.n	a7, a1, 52
    8eed:	c189           	s32i.n	a8, a1, 48
    8eef:	1a2192        	l32i	a9, a1, 104
    8ef2:	1b2132        	l32i	a3, a1, 108
    8ef5:	242142        	l32i	a4, a1, 144
    8ef8:	252162        	l32i	a6, a1, 148
    8efb:	2321c2        	l32i	a12, a1, 140
    8efe:	1c21d2        	l32i	a13, a1, 112
    8f01:	1821e2        	l32i	a14, a1, 96
    8f04:	1721f2        	l32i	a15, a1, 92
    8f07:	262122        	l32i	a2, a1, 152
    8f0a:	272172        	l32i	a7, a1, 156
    8f0d:	282182        	l32i	a8, a1, 160
    8f10:	b199           	s32i.n	a9, a1, 44
    8f12:	a1c9           	s32i.n	a12, a1, 40
    8f14:	91d9           	s32i.n	a13, a1, 36
    8f16:	8139           	s32i.n	a3, a1, 32
    8f18:	7149           	s32i.n	a4, a1, 28
    8f1a:	6169           	s32i.n	a6, a1, 24
    8f1c:	51e9           	s32i.n	a14, a1, 20
    8f1e:	41f9           	s32i.n	a15, a1, 16
    8f20:	3129           	s32i.n	a2, a1, 12
    8f22:	2179           	s32i.n	a7, a1, 8
    8f24:	1189           	s32i.n	a8, a1, 4
    8f26:	dd3781        	l32r	a8, 404 (8cfc <processPLCapply_fx>)
    8f29:	2b21d2        	l32i	a13, a1, 172
    8f2c:	1921e2        	l32i	a14, a1, 100
    8f2f:	2a21f2        	l32i	a15, a1, 168
    8f32:	05cd           	mov.n	a12, a5
    8f34:	292192        	l32i	a9, a1, 164
    8f37:	0199           	s32i.n	a9, a1, 0
    8f39:	0008e0        	callx8	a8
    8f3c:	058c           	beqz.n	a5, 8f40 <processPLCmain_fx+0x124>
    8f3e:	f01d           	retw.n

00008f40 <processPLCmain_fx+0x124>:
    8f40:	dd3251        	l32r	a5, 408 (4d30 <processPLCupdateSpec_fx>)
    8f43:	1721a2        	l32i	a10, a1, 92
    8f46:	1821b2        	l32i	a11, a1, 96
    8f49:	06cd           	mov.n	a12, a6
    8f4b:	04dd           	mov.n	a13, a4
    8f4d:	03ed           	mov.n	a14, a3
    8f4f:	0005e0        	callx8	a5
    8f52:	f01d           	retw.n

00008f54 <processPLCmain_fx+0x138>:
    8f54:	00000000                                ....

00008f58 <celt_rcp>:
    8f58:	004136        	entry	a1, 32
    8f5b:	f31c           	movi.n	a3, 31
    8f5d:	40f270        	nsau	a7, a2
    8f60:	303730        	xor	a3, a7, a3
    8f63:	f40c           	movi.n	a4, 15
    8f65:	f1c372        	addi	a7, a3, -15
    8f68:	400700        	ssr	a7
    8f6b:	c04430        	sub	a4, a4, a3
    8f6e:	b17020        	sra	a7, a2
    8f71:	401400        	ssl	a4
    8f74:	41f430        	srli	a15, a3, 4
    8f77:	a18200        	sll	a8, a2
    8f7a:	f57c           	movi.n	a5, -1
    8f7c:	9387f0        	movnez	a8, a7, a15
    8f7f:	88a062        	movi	a6, 136
    8f82:	115510        	slli	a5, a5, 15
    8f85:	882d           	ae_sext16	a2, a8
    8f87:	87d662        	addmi	a6, a6, 0xffff8700
    8f8a:	302250        	xor	a2, a2, a5
    8f8d:	dd1f91        	l32r	a9, 40c (78780000 <_end+0x78774518>)
    8f90:	d15260        	mul16s	a5, a2, a6
    8f93:	1a0c           	movi.n	a10, 1
    8f95:	459a           	add.n	a4, a5, a9
    8f97:	314040        	srai	a4, a4, 16
    8f9a:	d1b420        	mul16s	a11, a4, a2
    8f9d:	116a10        	slli	a6, a10, 15
    8fa0:	30c460        	xor	a12, a4, a6
    8fa3:	415fb0        	srli	a5, a11, 15
    8fa6:	55ca           	add.n	a5, a5, a12
    8fa8:	855d           	ae_sext16	a5, a5
    8faa:	d15540        	mul16s	a5, a5, a4
    8fad:	1d0c           	movi.n	a13, 1
    8faf:	415f50        	srli	a5, a5, 15
    8fb2:	c04450        	sub	a4, a4, a5
    8fb5:	845d           	ae_sext16	a5, a4
    8fb7:	d12520        	mul16s	a2, a5, a2
    8fba:	306460        	xor	a6, a4, a6
    8fbd:	412f20        	srli	a2, a2, 15
    8fc0:	226a           	add.n	a2, a2, a6
    8fc2:	822d           	ae_sext16	a2, a2
    8fc4:	d12250        	mul16s	a2, a2, a5
    8fc7:	117d00        	slli	a7, a13, 16
    8fca:	412f20        	srli	a2, a2, 15
    8fcd:	112200        	slli	a2, a2, 16
    8fd0:	227a           	add.n	a2, a2, a7
    8fd2:	0e1c           	movi.n	a14, 16
    8fd4:	f52020        	extui	a2, a2, 16, 16
    8fd7:	c02420        	sub	a2, a4, a2
    8fda:	c0fe30        	sub	a15, a14, a3
    8fdd:	626e30        	saltu	a6, a14, a3
    8fe0:	f0c332        	addi	a3, a3, -16
    8fe3:	400300        	ssr	a3
    8fe6:	822d           	ae_sext16	a2, a2
    8fe8:	b13020        	sra	a3, a2
    8feb:	401f00        	ssl	a15
    8fee:	a12200        	sll	a2, a2
    8ff1:	932360        	movnez	a2, a3, a6
    8ff4:	f01d           	retw.n

00008ff6 <celt_rcp+0x9e>:
	...

00008ff8 <frac_div32>:
    8ff8:	004136        	entry	a1, 32
    8ffb:	240c           	movi.n	a4, 2
    8ffd:	40f360        	nsau	a6, a3
    9000:	c04460        	sub	a4, a4, a6
    9003:	400400        	ssr	a4
    9006:	fec662        	addi	a6, a6, -2
    9009:	b17020        	sra	a7, a2
    900c:	401600        	ssl	a6
    900f:	a12200        	sll	a2, a2
    9012:	400400        	ssr	a4
    9015:	b1f030        	sra	a15, a3
    9018:	401600        	ssl	a6
    901b:	150c           	movi.n	a5, 1
    901d:	15ee30        	extui	a14, a3, 30, 2
    9020:	a13300        	sll	a3, a3
    9023:	115510        	slli	a5, a5, 15
    9026:	933fe0        	movnez	a3, a15, a14
    9029:	435a           	add.n	a4, a3, a5
    902b:	31a040        	srai	a10, a4, 16
    902e:	dcf841        	l32r	a4, 410 (8f58 <celt_rcp>)
    9031:	9327e0        	movnez	a2, a7, a14
    9034:	0004e0        	callx8	a4
    9037:	7a4b           	addi.n	a7, a10, 4
    9039:	117730        	slli	a7, a7, 13
    903c:	925d           	ae_zext16	a5, a2
    903e:	317070        	srai	a7, a7, 16
    9041:	314020        	srai	a4, a2, 16
    9044:	825750        	mull	a5, a7, a5
    9047:	d14470        	mul16s	a4, a4, a7
    904a:	215f50        	srai	a5, a5, 15
    904d:	904450        	addx2	a4, a4, a5
    9050:	316030        	srai	a6, a3, 16
    9053:	93dd           	ae_zext16	a13, a3
    9055:	315040        	srai	a5, a4, 16
    9058:	8235d0        	mull	a3, a5, a13
    905b:	d15650        	mul16s	a5, a6, a5
    905e:	c22b           	addi.n	a12, a2, 2
    9060:	948d           	ae_zext16	a8, a4
    9062:	828860        	mull	a8, a8, a6
    9065:	2122c0        	srai	a2, a12, 2
    9068:	1155f0        	slli	a5, a5, 1
    906b:	213f30        	srai	a3, a3, 15
    906e:	c02250        	sub	a2, a2, a5
    9071:	218f80        	srai	a8, a8, 15
    9074:	c02230        	sub	a2, a2, a3
    9077:	c02280        	sub	a2, a2, a8
    907a:	31f020        	srai	a15, a2, 16
    907d:	922d           	ae_zext16	a2, a2
    907f:	822270        	mull	a2, a2, a7
    9082:	d137f0        	mul16s	a3, a7, a15
    9085:	212f20        	srai	a2, a2, 15
    9088:	902320        	addx2	a2, a3, a2
    908b:	fe7c           	movi.n	a14, -1
    908d:	a03240        	addx4	a3, a2, a4
    9090:	4163e0        	srli	a6, a14, 3
    9093:	06a637        	bge	a6, a3, 909d <frac_div32+0xa5>
    9096:	f27c           	movi.n	a2, -1
    9098:	412120        	srli	a2, a2, 1
    909b:	f01d           	retw.n

0000909d <frac_div32+0xa5>:
    909d:	dcdd41        	l32r	a4, 414 (e0000001 <_end+0xdfff4519>)
    90a0:	dc6821        	l32r	a2, 240 (80000001 <_end+0x7fff4519>)
    90a3:	11f3e0        	slli	a15, a3, 2
    90a6:	724340        	salt	a4, a3, a4
    90a9:	832f40        	moveqz	a2, a15, a4
    90ac:	f01d           	retw.n

000090ae <frac_div32+0xb6>:
	...

000090b0 <celt_inner_prod>:
    90b0:	004136        	entry	a1, 32
    90b3:	1514a6        	blti	a4, 1, 90cc <celt_inner_prod+0x1c>
    90b6:	025d           	mov.n	a5, a2
    90b8:	020c           	movi.n	a2, 0
    90ba:	0c8476        	loop	a4, 90ca <celt_inner_prod+0x1a>
    90bd:	254d           	ae_l16si.n	a4, a5, 0
    90bf:	236d           	ae_l16si.n	a6, a3, 0
    90c1:	552b           	addi.n	a5, a5, 2
    90c3:	332b           	addi.n	a3, a3, 2
    90c5:	d14640        	mul16s	a4, a6, a4
    90c8:	242a           	add.n	a2, a4, a2

000090ca <celt_inner_prod+0x1a>:
    90ca:	f01d           	retw.n

000090cc <celt_inner_prod+0x1c>:
    90cc:	020c           	movi.n	a2, 0
    90ce:	f01d           	retw.n

000090d0 <xcorr_kernel>:
    90d0:	00e136        	entry	a1, 112
    90d3:	02ad           	mov.n	a10, a2
    90d5:	438d           	ae_l16ui.n	a8, a3, 0
    90d7:	532d           	ae_l16ui.n	a2, a3, 2
    90d9:	021362        	l16ui	a6, a3, 4
    90dc:	05fd           	mov.n	a15, a5
    90de:	0d0c           	movi.n	a13, 0
    90e0:	0e0c           	movi.n	a14, 0
    90e2:	536b           	addi.n	a5, a3, 6
    90e4:	024fe6        	bgei	a15, 4, 90ea <xcorr_kernel+0x1a>
    90e7:	003fc6        	j	91ea <xcorr_kernel+0x11a>
    90ea:	14b8           	l32i.n	a11, a4, 4
    90ec:	24d8           	l32i.n	a13, a4, 8
    90ee:	34e8           	l32i.n	a14, a4, 12
    90f0:	04c8           	l32i.n	a12, a4, 0
    90f2:	a149           	s32i.n	a4, a1, 40
    90f4:	fccf42        	addi	a4, a15, -4
    90f7:	7139           	s32i.n	a3, a1, 28
    90f9:	470c           	movi.n	a7, 4
    90fb:	790c           	movi.n	a9, 7
    90fd:	413240        	srli	a3, a4, 2
    9100:	51b9           	s32i.n	a11, a1, 20
    9102:	41e9           	s32i.n	a14, a1, 16
    9104:	a0e370        	addx4	a14, a3, a7
    9107:	a03390        	addx4	a3, a3, a9
    910a:	41b2f0        	srli	a11, a15, 2
    910d:	21d9           	s32i.n	a13, a1, 8
    910f:	0add           	mov.n	a13, a10
    9111:	91f9           	s32i.n	a15, a1, 36
    9113:	81e9           	s32i.n	a14, a1, 32
    9115:	6139           	s32i.n	a3, a1, 24
    9117:	31a9           	s32i.n	a10, a1, 12
    9119:	ab8b76        	loop	a11, 91c8 <xcorr_kernel+0xf8>
    911c:	2d7d           	ae_l16si.n	a7, a13, 0
    911e:	883d           	ae_sext16	a3, a8
    9120:	25fd           	ae_l16si.n	a15, a5, 0
    9122:	d13730        	mul16s	a3, a7, a3
    9125:	358d           	ae_l16si.n	a8, a5, 2
    9127:	3c3a           	add.n	a3, a12, a3
    9129:	136132        	s32i	a3, a1, 76
    912c:	039532        	l16si	a3, a5, 6
    912f:	0295b2        	l16si	a11, a5, 4
    9132:	039da2        	l16si	a10, a13, 6
    9135:	3d9d           	ae_l16si.n	a9, a13, 2
    9137:	029d42        	l16si	a4, a13, 4
    913a:	126132        	s32i	a3, a1, 72
    913d:	86cd           	ae_sext16	a12, a6
    913f:	d1eab0        	mul16s	a14, a10, a11
    9142:	d133a0        	mul16s	a3, a3, a10
    9145:	d16af0        	mul16s	a6, a10, a15
    9148:	d1aa80        	mul16s	a10, a10, a8
    914b:	1061a2        	s32i	a10, a1, 64
    914e:	d1a9f0        	mul16s	a10, a9, a15
    9151:	e169           	s32i.n	a6, a1, 56
    9153:	d169c0        	mul16s	a6, a9, a12
    9156:	b1a9           	s32i.n	a10, a1, 44
    9158:	822d           	ae_sext16	a2, a2
    915a:	41a8           	l32i.n	a10, a1, 16
    915c:	1161e2        	s32i	a14, a1, 68
    915f:	d1e890        	mul16s	a14, a8, a9
    9162:	c169           	s32i.n	a6, a1, 48
    9164:	d16f70        	mul16s	a6, a15, a7
    9167:	d19920        	mul16s	a9, a9, a2
    916a:	d12720        	mul16s	a2, a7, a2
    916d:	d177c0        	mul16s	a7, a7, a12
    9170:	d1c4c0        	mul16s	a12, a4, a12
    9173:	6a6a           	add.n	a6, a10, a6
    9175:	51a8           	l32i.n	a10, a1, 20
    9177:	99ca           	add.n	a9, a9, a12
    9179:	c1c8           	l32i.n	a12, a1, 48
    917b:	f139           	s32i.n	a3, a1, 60
    917d:	d1e9           	s32i.n	a14, a1, 52
    917f:	d1e480        	mul16s	a14, a4, a8
    9182:	d13b40        	mul16s	a3, a11, a4
    9185:	d144f0        	mul16s	a4, a4, a15
    9188:	2a2a           	add.n	a2, a10, a2
    918a:	4c4a           	add.n	a4, a12, a4
    918c:	21a8           	l32i.n	a10, a1, 8
    918e:	b1c8           	l32i.n	a12, a1, 44
    9190:	224a           	add.n	a2, a2, a4
    9192:	7a7a           	add.n	a7, a10, a7
    9194:	acea           	add.n	a10, a12, a14
    9196:	d1e8           	l32i.n	a14, a1, 52
    9198:	1321c2        	l32i	a12, a1, 76
    919b:	a7aa           	add.n	a10, a7, a10
    919d:	f178           	l32i.n	a7, a1, 60
    919f:	3e3a           	add.n	a3, a14, a3
    91a1:	4c9a           	add.n	a4, a12, a9
    91a3:	112192        	l32i	a9, a1, 68
    91a6:	363a           	add.n	a3, a6, a3
    91a8:	e1e8           	l32i.n	a14, a1, 56
    91aa:	373a           	add.n	a3, a7, a3
    91ac:	4139           	s32i.n	a3, a1, 16
    91ae:	39aa           	add.n	a3, a9, a10
    91b0:	1021a2        	l32i	a10, a1, 64
    91b3:	ce4a           	add.n	a12, a14, a4
    91b5:	1221e2        	l32i	a14, a1, 72
    91b8:	2a2a           	add.n	a2, a10, a2
    91ba:	5129           	s32i.n	a2, a1, 20
    91bc:	2139           	s32i.n	a3, a1, 8
    91be:	dd8b           	addi.n	a13, a13, 8
    91c0:	558b           	addi.n	a5, a5, 8
    91c2:	988d           	ae_zext16	a8, a8
    91c4:	9b2d           	ae_zext16	a2, a11
    91c6:	9e6d           	ae_zext16	a6, a14

000091c8 <xcorr_kernel+0xf8>:
    91c8:	7138           	l32i.n	a3, a1, 28
    91ca:	6148           	l32i.n	a4, a1, 24
    91cc:	9fdd           	ae_zext16	a13, a15
    91ce:	31a8           	l32i.n	a10, a1, 12
    91d0:	905430        	addx2	a5, a4, a3
    91d3:	a148           	l32i.n	a4, a1, 40
    91d5:	81e8           	l32i.n	a14, a1, 32
    91d7:	41f8           	l32i.n	a15, a1, 16
    91d9:	34f9           	s32i.n	a15, a4, 12
    91db:	91f8           	l32i.n	a15, a1, 36
    91dd:	04c9           	s32i.n	a12, a4, 0
    91df:	51b8           	l32i.n	a11, a1, 20
    91e1:	21c8           	l32i.n	a12, a1, 8
    91e3:	90aea0        	addx2	a10, a14, a10
    91e6:	14b9           	s32i.n	a11, a4, 4
    91e8:	24c9           	s32i.n	a12, a4, 8

000091ea <xcorr_kernel+0x11a>:
    91ea:	86cd           	ae_sext16	a12, a6
    91ec:	9e1b           	addi.n	a9, a14, 1
    91ee:	823d           	ae_sext16	a3, a2
    91f0:	21c9           	s32i.n	a12, a1, 8
    91f2:	35aef7        	bge	a14, a15, 922b <xcorr_kernel+0x15b>
    91f5:	2a2d           	ae_l16si.n	a2, a10, 0
    91f7:	88dd           	ae_sext16	a13, a8
    91f9:	14b8           	l32i.n	a11, a4, 4
    91fb:	31a9           	s32i.n	a10, a1, 12
    91fd:	d1a2d0        	mul16s	a10, a2, a13
    9200:	d1d230        	mul16s	a13, a2, a3
    9203:	0478           	l32i.n	a7, a4, 0
    9205:	bbda           	add.n	a11, a11, a13
    9207:	21d8           	l32i.n	a13, a1, 8
    9209:	256d           	ae_l16si.n	a6, a5, 0
    920b:	24c8           	l32i.n	a12, a4, 8
    920d:	d1d2d0        	mul16s	a13, a2, a13
    9210:	77aa           	add.n	a7, a7, a10
    9212:	34a8           	l32i.n	a10, a4, 12
    9214:	d12620        	mul16s	a2, a6, a2
    9217:	ccda           	add.n	a12, a12, a13
    9219:	31d8           	l32i.n	a13, a1, 12
    921b:	2a2a           	add.n	a2, a10, a2
    921d:	552b           	addi.n	a5, a5, 2
    921f:	ad2b           	addi.n	a10, a13, 2
    9221:	96dd           	ae_zext16	a13, a6
    9223:	0479           	s32i.n	a7, a4, 0
    9225:	14b9           	s32i.n	a11, a4, 4
    9227:	24c9           	s32i.n	a12, a4, 8
    9229:	3429           	s32i.n	a2, a4, 12
    922b:	7e2b           	addi.n	a7, a14, 2
    922d:	8d2d           	ae_sext16	a2, a13
    922f:	0429f7        	blt	a9, a15, 9237 <xcorr_kernel+0x167>
    9232:	3827f7        	blt	a7, a15, 926e <xcorr_kernel+0x19e>
    9235:	f01d           	retw.n

00009237 <xcorr_kernel+0x167>:
    9237:	2a6d           	ae_l16si.n	a6, a10, 0
    9239:	0498           	l32i.n	a9, a4, 0
    923b:	21c8           	l32i.n	a12, a1, 8
    923d:	d1d630        	mul16s	a13, a6, a3
    9240:	258d           	ae_l16si.n	a8, a5, 0
    9242:	0aed           	mov.n	a14, a10
    9244:	d9da           	add.n	a13, a9, a13
    9246:	14a8           	l32i.n	a10, a4, 4
    9248:	24b8           	l32i.n	a11, a4, 8
    924a:	3498           	l32i.n	a9, a4, 12
    924c:	d1c6c0        	mul16s	a12, a6, a12
    924f:	d13620        	mul16s	a3, a6, a2
    9252:	d16860        	mul16s	a6, a8, a6
    9255:	aaca           	add.n	a10, a10, a12
    9257:	bb3a           	add.n	a11, a11, a3
    9259:	696a           	add.n	a6, a9, a6
    925b:	ee2b           	addi.n	a14, a14, 2
    925d:	14a9           	s32i.n	a10, a4, 4
    925f:	552b           	addi.n	a5, a5, 2
    9261:	988d           	ae_zext16	a8, a8
    9263:	0ead           	mov.n	a10, a14
    9265:	04d9           	s32i.n	a13, a4, 0
    9267:	24b9           	s32i.n	a11, a4, 8
    9269:	3469           	s32i.n	a6, a4, 12
    926b:	c6a7f7        	bge	a7, a15, 9235 <xcorr_kernel+0x165>
    926e:	2a9d           	ae_l16si.n	a9, a10, 0
    9270:	2138           	l32i.n	a3, a1, 8
    9272:	255d           	ae_l16si.n	a5, a5, 0
    9274:	888d           	ae_sext16	a8, a8
    9276:	0468           	l32i.n	a6, a4, 0
    9278:	1478           	l32i.n	a7, a4, 4
    927a:	24e8           	l32i.n	a14, a4, 8
    927c:	34f8           	l32i.n	a15, a4, 12
    927e:	d13930        	mul16s	a3, a9, a3
    9281:	d12920        	mul16s	a2, a9, a2
    9284:	d18980        	mul16s	a8, a9, a8
    9287:	d19590        	mul16s	a9, a5, a9
    928a:	363a           	add.n	a3, a6, a3
    928c:	272a           	add.n	a2, a7, a2
    928e:	5e8a           	add.n	a5, a14, a8
    9290:	6f9a           	add.n	a6, a15, a9
    9292:	0439           	s32i.n	a3, a4, 0
    9294:	1429           	s32i.n	a2, a4, 4
    9296:	2459           	s32i.n	a5, a4, 8
    9298:	3469           	s32i.n	a6, a4, 12
    929a:	f01d           	retw.n

0000929c <celt_pitch_xcorr>:
    929c:	004136        	entry	a1, 32
    929f:	a65a           	add.n	a10, a6, a5
    92a1:	0d1aa6        	blti	a10, 1, 92b2 <celt_pitch_xcorr+0x16>
    92a4:	fec782        	addi	a8, a7, -2
    92a7:	039d           	mov.n	a9, a3
    92a9:	058a76        	loop	a10, 92b2 <celt_pitch_xcorr+0x16>
    92ac:	408914        	ae_lp16f.iu	aep0, a9, 2
    92af:	428814        	ae_sp16f.l.iu	aep0, a8, 2

000092b2 <celt_pitch_xcorr+0x16>:
    92b2:	180c           	movi.n	a8, 1
    92b4:	fd24bec83f 	{ ae_cvtq48a32s	aeq0, a8; ae_zeroq56	aeq1 }
    92b9:	6f16a6        	blti	a6, 1, 932c <celt_pitch_xcorr+0x90>
    92bc:	218150        	srai	a8, a5, 1
    92bf:	f8c4a2        	addi	a10, a4, -8
    92c2:	049050        	extui	a9, a5, 0, 1
    92c5:	0b0c           	movi.n	a11, 0

000092c7 <celt_pitch_xcorr+0x2b>:
    92c7:	02cd           	mov.n	a12, a2
    92c9:	20d330        	or	a13, a3, a3
    92cc:	448c04        	ae_lp16x2f.iu	aep0, a12, 0
    92cf:	449d04        	ae_lp16x2f.iu	aep1, a13, 0
    92d2:	0a25a6        	blti	a5, 2, 92e0 <celt_pitch_xcorr+0x44>
    92d5:	078876        	loop	a8, 92e0 <celt_pitch_xcorr+0x44>
    92d8:	e220ed8c1f 	{ ae_lp16x2f.iu	aep0, a12, 4; ae_mulaap24s.hh.ll	aeq1, aep0, aep1 }
    92dd:	449d14        	ae_lp16x2f.iu	aep1, a13, 4

000092e0 <celt_pitch_xcorr+0x44>:
    92e0:	198c           	beqz.n	a9, 92e5 <celt_pitch_xcorr+0x49>
    92e2:	020904        	ae_mulap24s.hh	aeq1, aep0, aep1

000092e5 <celt_pitch_xcorr+0x49>:
    92e5:	f867002bbe 	{ addi	a11, a11, 2; ae_maxq56s	aeq0, aeq1, aeq0 }
    92ea:	fd24b9da2f 	{ ae_sq32f.iu	aeq1, a10, 8; ae_zeroq56	aeq1 }
    92ef:	334b           	addi.n	a3, a3, 4
    92f1:	d22b67        	blt	a11, a6, 92c7 <celt_pitch_xcorr+0x2b>
    92f4:	3426a6        	blti	a6, 2, 932c <celt_pitch_xcorr+0x90>
    92f7:	fd248fc43e 	{ addi	a3, a4, -4; ae_zeroq56	aeq1 }
    92fc:	01a042        	movi	a4, 1
    92ff:	02ad           	mov.n	a10, a2
    9301:	20b770        	or	a11, a7, a7
    9304:	448a04        	ae_lp16x2f.iu	aep0, a10, 0
    9307:	449b04        	ae_lp16x2f.iu	aep1, a11, 0
    930a:	0a25a6        	blti	a5, 2, 9318 <celt_pitch_xcorr+0x7c>
    930d:	078876        	loop	a8, 9318 <celt_pitch_xcorr+0x7c>
    9310:	e220ed8a1f 	{ ae_lp16x2f.iu	aep0, a10, 4; ae_mulaap24s.hh.ll	aeq1, aep0, aep1 }
    9315:	449b14        	ae_lp16x2f.iu	aep1, a11, 4

00009318 <celt_pitch_xcorr+0x7c>:
    9318:	198c           	beqz.n	a9, 931d <celt_pitch_xcorr+0x81>
    931a:	020904        	ae_mulap24s.hh	aeq1, aep0, aep1

0000931d <celt_pitch_xcorr+0x81>:
    931d:	f86700244e 	{ addi	a4, a4, 2; ae_maxq56s	aeq0, aeq1, aeq0 }
    9322:	fd24b9d32f 	{ ae_sq32f.iu	aeq1, a3, 8; ae_zeroq56	aeq1 }
    9327:	774b           	addi.n	a7, a7, 4
    9329:	d22467        	blt	a4, a6, 92ff <celt_pitch_xcorr+0x63>
    932c:	368204        	ae_trunca32q48	a2, aeq0
    932f:	f01d           	retw.n

00009331 <celt_pitch_xcorr+0x95>:
    9331:	000000                                        ...

00009334 <_celt_autocorr>:
    9334:	006136        	entry	a1, 48
    9337:	11e590        	slli	a14, a5, 7
    933a:	028d           	mov.n	a8, a2
    933c:	3169           	s32i.n	a6, a1, 12
    933e:	01ce62        	addi	a6, a14, 1
    9341:	20f770        	or	a15, a7, a7
    9344:	360634        	ae_cvtq48a32s	aeq0, a6
    9347:	219150        	srai	a9, a5, 1
    934a:	448804        	ae_lp16x2f.iu	aep0, a8, 0
    934d:	1225a6        	blti	a5, 2, 9363 <_celt_autocorr+0x2f>
    9350:	f862d3688f 	{ or	a6, a8, a8; ae_movp48	aep1, aep0 }
    9355:	0a8976        	loop	a9, 9363 <_celt_autocorr+0x2f>
    9358:	f027ed961f 	{ ae_lp16x2f.iu	aep1, a6, 4; ae_mulzaap24s.hh.ll	aeq1, aep1, aep1 }
    935d:	355274        	ae_sraiq56	aeq1, aeq1, 9
    9360:	0109c4        	ae_addq56	aeq0, aeq0, aeq1

00009363 <_celt_autocorr+0x2f>:
    9363:	368a04        	ae_trunca32q48	a10, aeq0
    9366:	1b0c           	movi.n	a11, 1
    9368:	01bba0        	slli	a11, a11, 22
    936b:	c07540        	sub	a7, a5, a4
    936e:	00a062        	movi	a6, 0
    9371:	273ab7        	bltu	a10, a11, 939c <_celt_autocorr+0x68>
    9374:	40fa60        	nsau	a6, a10
    9377:	0ba0e2        	movi	a14, 11
    937a:	c06e60        	sub	a6, a14, a6
    937d:	1625a6        	blti	a5, 2, 9397 <_celt_autocorr+0x63>
    9380:	41a160        	srli	a10, a6, 1
    9383:	fcc252        	addi	a5, a2, -4
    9386:	0316a4        	wur.ae_sar	a10
    9389:	0a8976        	loop	a9, 9397 <_celt_autocorr+0x63>
    938c:	0b0384        	ae_srasp24	aep0, aep0
    938f:	f8e2ed881f 	{ ae_lp16x2f.iu	aep0, a8, 4; ae_roundsp16asym	aep1, aep0 }
    9394:	469514        	ae_sp16x2f.iu	aep1, a5, 4
    9397:	e57c           	movi.n	a5, -2
    9399:	106650        	and	a6, a6, a5

0000939c <_celt_autocorr+0x68>:
    939c:	541b           	addi.n	a5, a4, 1
    939e:	dc1e81        	l32r	a8, 418 (929c <celt_pitch_xcorr>)
    93a1:	02ad           	mov.n	a10, a2
    93a3:	02bd           	mov.n	a11, a2
    93a5:	03cd           	mov.n	a12, a3
    93a7:	07dd           	mov.n	a13, a7
    93a9:	05ed           	mov.n	a14, a5
    93ab:	0008e0        	callx8	a8
    93ae:	038496        	bltz	a4, 93ea <_celt_autocorr+0xb6>
    93b1:	038d           	mov.n	a8, a3
    93b3:	fd2491272f 	{ addx2	a2, a7, a2; ae_zeroq56	aeq1 }
    93b8:	047d           	mov.n	a7, a4
    93ba:	601804        	ae_lq32f.iu	aeq0, a8, 0
    93bd:	029d           	mov.n	a9, a2
    93bf:	1517a6        	blti	a7, 1, 93d8 <_celt_autocorr+0xa4>
    93c2:	09ad           	mov.n	a10, a9
    93c4:	20b220        	or	a11, a2, a2
    93c7:	408a04        	ae_lp16f.iu	aep0, a10, 0
    93ca:	409b04        	ae_lp16f.iu	aep1, a11, 0
    93cd:	078776        	loop	a7, 93d8 <_celt_autocorr+0xa4>
    93d0:	e6236c8a1f 	{ ae_lp16f.iu	aep0, a10, 2; ae_mulap24s.ll	aeq1, aep0, aep1 }
    93d5:	409b14        	ae_lp16f.iu	aep1, a11, 2

000093d8 <_celt_autocorr+0xa4>:
    93d8:	f8660ff77e 	{ addi	a7, a7, -1; ae_addq56	aeq0, aeq0, aeq1 }
    93dd:	fd24b9c80f 	{ ae_sq32f.iu	aeq0, a8, 0; ae_zeroq56	aeq1 }
    93e2:	992b           	addi.n	a9, a9, 2
    93e4:	601814        	ae_lq32f.iu	aeq0, a8, 4
    93e7:	d40766        	bnei	a7, -1, 93bf <_celt_autocorr+0x8b>

000093ea <_celt_autocorr+0xb6>:
    93ea:	0416a6        	blti	a6, 1, 93f2 <_celt_autocorr+0xbe>
    93ed:	0328           	l32i.n	a2, a3, 0
    93ef:	000406        	j	9403 <_celt_autocorr+0xcf>

000093f2 <_celt_autocorr+0xbe>:
    93f2:	602060        	neg	a2, a6
    93f5:	03f8           	l32i.n	a15, a3, 0
    93f7:	170c           	movi.n	a7, 1
    93f9:	401200        	ssl	a2
    93fc:	a17700        	sll	a7, a7
    93ff:	2f7a           	add.n	a2, a15, a7
    9401:	0329           	s32i.n	a2, a3, 0
    9403:	f77c           	movi.n	a7, -1
    9405:	417470        	srli	a7, a7, 4
    9408:	1f2727        	blt	a7, a2, 942b <_celt_autocorr+0xf7>
    940b:	40f220        	nsau	a2, a2
    940e:	fdc222        	addi	a2, a2, -3
    9411:	010496        	bltz	a4, 9425 <_celt_autocorr+0xf1>
    9414:	034d           	mov.n	a4, a3
    9416:	601404        	ae_lq32f.iu	aeq0, a4, 0
    9419:	088576        	loop	a5, 9425 <_celt_autocorr+0xf1>
    941c:	340294        	ae_sllaq56	aeq0, aeq0, a2
    941f:	624404        	ae_sq32f.iu	aeq0, a4, 0
    9422:	601414        	ae_lq32f.iu	aeq0, a4, 4

00009425 <_celt_autocorr+0xf1>:
    9425:	c06620        	sub	a6, a6, a2
    9428:	0009c6        	j	9453 <_celt_autocorr+0x11f>

0000942b <_celt_autocorr+0xf7>:
    942b:	170c           	movi.n	a7, 1
    942d:	017730        	slli	a7, a7, 29
    9430:	1f2277        	blt	a2, a7, 9453 <_celt_autocorr+0x11f>
    9433:	f77c           	movi.n	a7, -1
    9435:	417270        	srli	a7, a7, 2
    9438:	722720        	salt	a2, a7, a2
    943b:	221b           	addi.n	a2, a2, 1
    943d:	010496        	bltz	a4, 9451 <_celt_autocorr+0x11d>
    9440:	034d           	mov.n	a4, a3
    9442:	601404        	ae_lq32f.iu	aeq0, a4, 0
    9445:	088576        	loop	a5, 9451 <_celt_autocorr+0x11d>
    9448:	3402b4        	ae_sraaq56	aeq0, aeq0, a2
    944b:	624404        	ae_sq32f.iu	aeq0, a4, 0
    944e:	601414        	ae_lq32f.iu	aeq0, a4, 4

00009451 <_celt_autocorr+0x11d>:
    9451:	626a           	add.n	a6, a2, a6

00009453 <_celt_autocorr+0x11f>:
    9453:	dbf241        	l32r	a4, 41c (b7b0 <T_lagwin>)
    9456:	3158           	l32i.n	a5, a1, 12
    9458:	070c           	movi.n	a7, 0
    945a:	581c           	movi.n	a8, 21
    945c:	a04540        	addx4	a4, a5, a4
    945f:	0448           	l32i.n	a4, a4, 0
    9461:	602060        	neg	a2, a6
    9464:	035d           	mov.n	a5, a3
    9466:	727760        	salt	a7, a7, a6
    9469:	298876        	loop	a8, 9496 <_celt_autocorr+0x162>
    946c:	0588           	l32i.n	a8, a5, 0
    946e:	400200        	ssr	a2
    9471:	249d           	ae_l16si.n	a9, a4, 0
    9473:	b1a080        	sra	a10, a8
    9476:	401600        	ssl	a6
    9479:	a18800        	sll	a8, a8
    947c:	838a70        	moveqz	a8, a10, a7
    947f:	31a080        	srai	a10, a8, 16
    9482:	988d           	ae_zext16	a8, a8
    9484:	828890        	mull	a8, a8, a9
    9487:	d199a0        	mul16s	a9, a9, a10
    948a:	218f80        	srai	a8, a8, 15
    948d:	908980        	addx2	a8, a9, a8
    9490:	0589           	s32i.n	a8, a5, 0
    9492:	442b           	addi.n	a4, a4, 2
    9494:	554b           	addi.n	a5, a5, 4

00009496 <_celt_autocorr+0x162>:
    9496:	0328           	l32i.n	a2, a3, 0
    9498:	214d20        	srai	a4, a2, 13
    949b:	242a           	add.n	a2, a4, a2
    949d:	0329           	s32i.n	a2, a3, 0
    949f:	f01d           	retw.n

000094a1 <_celt_autocorr+0x16d>:
    94a1:	000000                                        ...

000094a4 <_celt_lpc>:
    94a4:	012136        	entry	a1, 144
    94a7:	db8751        	l32r	a5, 2c4 (9b40 <memset>)
    94aa:	10c1a2        	addi	a10, a1, 16
    94ad:	0248           	l32i.n	a4, a2, 0
    94af:	0b0c           	movi.n	a11, 0
    94b1:	0c5c           	movi.n	a12, 80
    94b3:	31a9           	s32i.n	a10, a1, 12
    94b5:	0005e0        	callx8	a5
    94b8:	0bb416        	beqz	a4, 9577 <_celt_lpc+0xd3>
    94bb:	216a40        	srai	a6, a4, 10
    94be:	71cb           	addi.n	a7, a1, 12
    94c0:	150c           	movi.n	a5, 1

000094c2 <_celt_lpc+0x1e>:
    94c2:	b50b           	addi.n	a11, a5, -1
    94c4:	0b8d           	mov.n	a8, a11
    94c6:	eb9c           	beqz.n	a11, 94e8 <_celt_lpc+0x44>
    94c8:	481c           	movi.n	a8, 20
    94ca:	029b87        	bne	a11, a8, 94d0 <_celt_lpc+0x2c>
    94cd:	002986        	j	9577 <_celt_lpc+0xd3>
    94d0:	3198           	l32i.n	a9, a1, 12
    94d2:	080c           	movi.n	a8, 0
    94d4:	02ad           	mov.n	a10, a2
    94d6:	0e8b76        	loop	a11, 94e8 <_celt_lpc+0x44>
    94d9:	09b8           	l32i.n	a11, a9, 0
    94db:	0ac8           	l32i.n	a12, a10, 0
    94dd:	994b           	addi.n	a9, a9, 4
    94df:	fccaa2        	addi	a10, a10, -4
    94e2:	b2bbc0        	mulsh	a11, a11, a12
    94e5:	908b80        	addx2	a8, a11, a8

000094e8 <_celt_lpc+0x44>:
    94e8:	1298           	l32i.n	a9, a2, 4
    94ea:	8f7c           	movi.n	a15, -8
    94ec:	04bd           	mov.n	a11, a4
    94ee:	b08890        	addx8	a8, a8, a9
    94f1:	10a8f0        	and	a10, a8, a15
    94f4:	dbcb81        	l32r	a8, 420 (8ff8 <frac_div32>)
    94f7:	0008e0        	callx8	a8
    94fa:	db9ef1        	l32r	a15, 374 (7ffffffe <_end+0x7fff4516>)
    94fd:	6080a0        	neg	a8, a10
    9500:	219380        	srai	a9, a8, 3
    9503:	1799           	s32i.n	a9, a7, 4
    9505:	240f57        	bnone	a15, a5, 952d <_celt_lpc+0x89>
    9508:	41b150        	srli	a11, a5, 1
    950b:	10c192        	addi	a9, a1, 16
    950e:	20a770        	or	a10, a7, a7
    9511:	188b76        	loop	a11, 952d <_celt_lpc+0x89>
    9514:	0ab8           	l32i.n	a11, a10, 0
    9516:	09c8           	l32i.n	a12, a9, 0
    9518:	b2d8b0        	mulsh	a13, a8, a11
    951b:	b2e8c0        	mulsh	a14, a8, a12
    951e:	90cdc0        	addx2	a12, a13, a12
    9521:	90beb0        	addx2	a11, a14, a11
    9524:	09c9           	s32i.n	a12, a9, 0
    9526:	0ab9           	s32i.n	a11, a10, 0
    9528:	fccaa2        	addi	a10, a10, -4
    952b:	994b           	addi.n	a9, a9, 4
    952d:	319080        	srai	a9, a8, 16
    9530:	98cd           	ae_zext16	a12, a8
    9532:	8289c0        	mull	a8, a9, a12
    9535:	d19990        	mul16s	a9, a9, a9
    9538:	218f80        	srai	a8, a8, 15
    953b:	889a           	add.n	a8, a8, a9
    953d:	1188f0        	slli	a8, a8, 1
    9540:	ec7c           	movi.n	a12, -2
    9542:	31a040        	srai	a10, a4, 16
    9545:	31d080        	srai	a13, a8, 16
    9548:	94bd           	ae_zext16	a11, a4
    954a:	d19ad0        	mul16s	a9, a10, a13
    954d:	f4c0c0        	extui	a12, a12, 0, 16
    9550:	1088c0        	and	a8, a8, a12
    9553:	82bdb0        	mull	a11, a13, a11
    9556:	8288a0        	mull	a8, a8, a10
    9559:	1199f0        	slli	a9, a9, 1
    955c:	21efb0        	srai	a14, a11, 15
    955f:	c0f490        	sub	a15, a4, a9
    9562:	218f80        	srai	a8, a8, 15
    9565:	c04fe0        	sub	a4, a15, a14
    9568:	c04480        	sub	a4, a4, a8
    956b:	551b           	addi.n	a5, a5, 1
    956d:	224b           	addi.n	a2, a2, 4
    956f:	774b           	addi.n	a7, a7, 4
    9571:	022467        	blt	a4, a6, 9577 <_celt_lpc+0xd3>
    9574:	ffd286        	j	94c2 <_celt_lpc+0x1e>

00009577 <_celt_lpc+0xd3>:
    9577:	140c           	movi.n	a4, 1
    9579:	10c122        	addi	a2, a1, 16
    957c:	114440        	slli	a4, a4, 12
    957f:	451c           	movi.n	a5, 20
    9581:	601204        	ae_lq32f.iu	aeq0, a2, 0
    9584:	634d           	ae_s16i.n	a4, a3, 0
    9586:	078576        	loop	a5, 9591 <_celt_lpc+0xed>
    9589:	f863bd121f 	{ ae_lq32f.iu	aeq0, a2, 4; ae_roundsp16q48asym	aep0, aeq0 }
    958e:	428314        	ae_sp16f.l.iu	aep0, a3, 2

00009591 <_celt_lpc+0xed>:
    9591:	f01d           	retw.n

00009593 <_celt_lpc+0xef>:
    9593:	00000000                                 .....

00009598 <tplc_noise_fx>:
    9598:	004136        	entry	a1, 32
    959b:	570c           	movi.n	a7, 5
    959d:	cda082        	movi	a8, 205
    95a0:	ffa092        	movi	a9, 255
    95a3:	6cd882        	addmi	a8, a8, 0x6c00
    95a6:	727570        	salt	a7, a5, a7
    95a9:	26fd           	ae_l16si.n	a15, a6, 0
    95ab:	7fd992        	addmi	a9, a9, 0x7f00
    95ae:	e50b           	addi.n	a14, a5, -1
    95b0:	838770        	moveqz	a8, a7, a7
    95b3:	9398e0        	movnez	a9, a8, a14
    95b6:	d159f0        	mul16s	a5, a9, a15
    95b9:	94ad           	ae_zext16	a10, a4
    95bb:	40d552        	addmi	a5, a5, 0x4000
    95be:	215f50        	srai	a5, a5, 15
    95c1:	a55d           	ae_clamps16	a5, a5
    95c3:	665d           	ae_s16i.n	a5, a6, 0
    95c5:	1714a6        	blti	a4, 1, 95e0 <tplc_noise_fx+0x48>
    95c8:	854d           	ae_sext16	a4, a5
    95ca:	128a76        	loop	a10, 95e0 <tplc_noise_fx+0x48>
    95cd:	235d           	ae_l16si.n	a5, a3, 0
    95cf:	332b           	addi.n	a3, a3, 2
    95d1:	d15450        	mul16s	a5, a4, a5
    95d4:	215f50        	srai	a5, a5, 15
    95d7:	a55d           	ae_clamps16	a5, a5
    95d9:	115500        	slli	a5, a5, 16
    95dc:	0259           	s32i.n	a5, a2, 0
    95de:	224b           	addi.n	a2, a2, 4

000095e0 <tplc_noise_fx+0x48>:
    95e0:	f01d           	retw.n

000095e2 <tplc_noise_fx+0x4a>:
	...

000095e4 <tplc_buf_update_fx>:
    95e4:	004136        	entry	a1, 32
    95e7:	5ba472        	movi	a7, 0x45b
    95ea:	1165f0        	slli	a6, a5, 1
    95ed:	182757        	blt	a7, a5, 9609 <tplc_buf_update_fx+0x25>
    95f0:	5ca472        	movi	a7, 0x45c
    95f3:	14a782        	movi	a8, 0x714
    95f6:	c09750        	sub	a9, a7, a5
    95f9:	728a           	add.n	a7, a2, a8
    95fb:	078976        	loop	a9, 9606 <tplc_buf_update_fx+0x22>
    95fe:	876a           	add.n	a8, a7, a6
    9600:	288d           	ae_l16si.n	a8, a8, 0
    9602:	678d           	ae_s16i.n	a8, a7, 0
    9604:	772b           	addi.n	a7, a7, 2

00009606 <tplc_buf_update_fx+0x22>:
    9606:	3115a6        	blti	a5, 1, 963b <tplc_buf_update_fx+0x57>

00009609 <tplc_buf_update_fx+0x25>:
    9609:	f3a392        	movi	a9, 0x3f3
    960c:	f80c           	movi.n	a8, 15
    960e:	c06260        	sub	a6, a2, a6
    9611:	1199e0        	slli	a9, a9, 2
    9614:	f1c472        	addi	a7, a4, -15
    9617:	c02840        	sub	a2, a8, a4
    961a:	724480        	salt	a4, a4, a8
    961d:	669a           	add.n	a6, a6, a9
    961f:	188576        	loop	a5, 963b <tplc_buf_update_fx+0x57>
    9622:	235d           	ae_l16si.n	a5, a3, 0
    9624:	400200        	ssr	a2
    9627:	332b           	addi.n	a3, a3, 2
    9629:	b18050        	sra	a8, a5
    962c:	401700        	ssl	a7
    962f:	a15500        	sll	a5, a5
    9632:	a55d           	ae_clamps16	a5, a5
    9634:	935840        	movnez	a5, a8, a4
    9637:	665d           	ae_s16i.n	a5, a6, 0
    9639:	662b           	addi.n	a6, a6, 2

0000963b <tplc_buf_update_fx+0x57>:
    963b:	f01d           	retw.n

0000963d <tplc_buf_update_fx+0x59>:
    963d:	000000                                        ...

00009640 <tplc_ola_fx>:
    9640:	004136        	entry	a1, 32
    9643:	419140        	srli	a9, a4, 1
    9646:	c0a650        	sub	a10, a6, a5
    9649:	8188           	l32i.n	a8, a1, 32
    964b:	e94a           	add.n	a14, a9, a4
    964d:	41f1a0        	srli	a15, a10, 1
    9650:	902420        	addx2	a2, a4, a2
    9653:	90bf20        	addx2	a11, a15, a2
    9656:	90ce30        	addx2	a12, a14, a3
    9659:	0b2d           	mov.n	a2, a11
    965b:	0c4d           	mov.n	a4, a12
    965d:	909f80        	addx2	a9, a15, a8
    9660:	4082f4        	ae_lp16f.iu	aep0, a2, -2
    9663:	4094f4        	ae_lp16f.iu	aep1, a4, -2
    9666:	fec992        	addi	a9, a9, -2
    9669:	312aa6        	blti	a10, 2, 969e <tplc_ola_fx+0x5e>
    966c:	fecbb2        	addi	a11, a11, -2
    966f:	21d1a0        	srai	a13, a10, 1
    9672:	fecca2        	addi	a10, a12, -2
    9675:	c92b           	addi.n	a12, a9, 2
    9677:	40ab14        	ae_lp16f.iu	aep2, a11, 2
    967a:	40ba14        	ae_lp16f.iu	aep3, a10, 2
    967d:	1d8d76        	loop	a13, 969e <tplc_ola_fx+0x5e>
    9680:	010174        	ae_mulfp24s.ll	aeq0, aep0, aep1
    9683:	012334        	ae_mulafp24s.ll	aeq0, aep2, aep3
    9686:	350054        	ae_slliq56	aeq0, aeq0, 1
    9689:	1b8f74        	ae_roundsp16q48asym	aep7, aeq0
    968c:	42fcf4        	ae_sp16f.l.iu	aep7, a12, -2
    968f:	42f914        	ae_sp16f.l.iu	aep7, a9, 2
    9692:	4082f4        	ae_lp16f.iu	aep0, a2, -2
    9695:	40ab14        	ae_lp16f.iu	aep2, a11, 2
    9698:	4094f4        	ae_lp16f.iu	aep1, a4, -2
    969b:	40ba14        	ae_lp16f.iu	aep3, a10, 2

0000969e <tplc_ola_fx+0x5e>:
    969e:	1415a6        	blti	a5, 1, 96b6 <tplc_ola_fx+0x76>
    96a1:	118576        	loop	a5, 96b6 <tplc_ola_fx+0x76>
    96a4:	010174        	ae_mulfp24s.ll	aeq0, aep0, aep1
    96a7:	350054        	ae_slliq56	aeq0, aeq0, 1
    96aa:	1b8f74        	ae_roundsp16q48asym	aep7, aeq0
    96ad:	42f914        	ae_sp16f.l.iu	aep7, a9, 2
    96b0:	4082f4        	ae_lp16f.iu	aep0, a2, -2
    96b3:	4094f4        	ae_lp16f.iu	aep1, a4, -2
    96b6:	2616a6        	blti	a6, 1, 96e0 <tplc_ola_fx+0xa0>
    96b9:	902630        	addx2	a2, a6, a3
    96bc:	fec222        	addi	a2, a2, -2
    96bf:	300774        	ae_cvtp24a16x2.ll	aep0, a7, a7
    96c2:	409804        	ae_lp16f.iu	aep1, a8, 0
    96c5:	40a204        	ae_lp16f.iu	aep2, a2, 0
    96c8:	148676        	loop	a6, 96e0 <tplc_ola_fx+0xa0>
    96cb:	011274        	ae_mulfp24s.ll	aeq0, aep1, aep2
    96ce:	030214        	ae_mulfq32sp16s.l	aeq0, aeq0, aep0
    96d1:	350054        	ae_slliq56	aeq0, aeq0, 1
    96d4:	1b8f74        	ae_roundsp16q48asym	aep7, aeq0
    96d7:	42f804        	ae_sp16f.l.iu	aep7, a8, 0
    96da:	409814        	ae_lp16f.iu	aep1, a8, 2
    96dd:	40a2f4        	ae_lp16f.iu	aep2, a2, -2
    96e0:	f01d           	retw.n

000096e2 <tplc_ola_fx+0xa2>:
	...

000096e4 <tplc_process_fx>:
    96e4:	01c136        	entry	a1, 224
    96e7:	02fd           	mov.n	a15, a2
    96e9:	3e21c2        	l32i	a12, a1, 248
    96ec:	3821d2        	l32i	a13, a1, 224
    96ef:	42ed           	ae_l16ui.n	a14, a2, 0
    96f1:	236172        	s32i	a7, a1, 140
    96f4:	226192        	s32i	a9, a1, 136
    96f7:	1f61d2        	s32i	a13, a1, 124
    96fa:	302ee4        	ae_cvtp24a16x2.ll	aep2, a14, a14
    96fd:	3cc222        	addi	a2, a2, 60
    9700:	1b6162        	s32i	a6, a1, 108
    9703:	1e61f2        	s32i	a15, a1, 120
    9706:	1c61c2        	s32i	a12, a1, 112
    9709:	206142        	s32i	a4, a1, 128
    970c:	021526        	beqi	a5, 1, 9712 <tplc_process_fx+0x2e>
    970f:	008746        	j	9930 <tplc_process_fx+0x24c>
    9712:	db44d1        	l32r	a13, 424 (b6a0 <T_fs_Hz>)
    9715:	1d6152        	s32i	a5, a1, 116
    9718:	561b           	addi.n	a5, a6, 1
    971a:	b35660        	movgez	a5, a6, a6
    971d:	a0d4d0        	addx4	a13, a4, a13
    9720:	f3a372        	movi	a7, 0x3f3
    9723:	439630        	min	a9, a6, a3
    9726:	216150        	srai	a6, a5, 1
    9729:	db10a1        	l32r	a10, 36c (51eb851f <_end+0x51eaca37>)
    972c:	0d58           	l32i.n	a5, a13, 0
    972e:	1177e0        	slli	a7, a7, 2
    9731:	bf7a           	add.n	a11, a15, a7
    9733:	763a           	add.n	a7, a6, a3
    9735:	1a6162        	s32i	a6, a1, 104
    9738:	15c762        	addi	a6, a7, 21
    973b:	b255a0        	mulsh	a5, a5, a10
    973e:	90f6c0        	addx2	a15, a6, a12
    9741:	54cfa2        	addi	a10, a15, 84
    9744:	05ff50        	extui	a15, a5, 31, 1
    9747:	215750        	srai	a5, a5, 7
    974a:	55fa           	add.n	a5, a5, a15
    974c:	54cc82        	addi	a8, a12, 84
    974f:	1155f0        	slli	a5, a5, 1
    9752:	bc6c           	movi.n	a12, -21
    9754:	08ed           	mov.n	a14, a8
    9756:	538590        	max	a8, a5, a9
    9759:	c0cc70        	sub	a12, a12, a7
    975c:	15c852        	addi	a5, a8, 21
    975f:	90dcb0        	addx2	a13, a12, a11
    9762:	41a2a0        	srli	a10, a10, 2
    9765:	4c0c           	movi.n	a12, 4
    9767:	049050        	extui	a9, a5, 0, 1
    976a:	a0aac0        	addx4	a10, a10, a12
    976d:	80c950        	add	a12, a9, a5
    9770:	1916a6        	blti	a6, 1, 978d <tplc_process_fx+0xa9>
    9773:	9056e0        	addx2	a5, a6, a14
    9776:	02c552        	addi	a5, a5, 2
    9779:	108676        	loop	a6, 978d <tplc_process_fx+0xa9>
    977c:	408bf4        	ae_lp16f.iu	aep0, a11, -2
    977f:	ea41ac7b1f 	{ ae_lp16f.i	aep7, a11, 2; ae_mulfp24s.ll	aeq0, aep0, aep2 }
    9784:	1b8f14        	ae_roundsp16q48asym	aep1, aeq0
    9787:	07f184        	ae_subsp24s	aep0, aep7, aep1
    978a:	4285f4        	ae_sp16f.l.iu	aep0, a5, -2

0000978d <tplc_process_fx+0xa9>:
    978d:	2d5d           	ae_l16si.n	a5, a13, 0
    978f:	562114        	ae_sp24x2s.i	aep2, a1, 8
    9792:	d98a           	add.n	a13, a9, a8
    9794:	90fca0        	addx2	a15, a12, a10
    9797:	6e5d           	ae_s16i.n	a5, a14, 0
    9799:	211ca6        	blti	a12, 1, 97be <tplc_process_fx+0xda>
    979c:	c056c0        	sub	a5, a6, a12
    979f:	889a           	add.n	a8, a8, a9
    97a1:	bc6c           	movi.n	a12, -21
    97a3:	c08c80        	sub	a8, a12, a8
    97a6:	9055e0        	addx2	a5, a5, a14
    97a9:	608080        	neg	a8, a8
    97ac:	feca62        	addi	a6, a10, -2
    97af:	408504        	ae_lp16f.iu	aep0, a5, 0
    97b2:	088876        	loop	a8, 97be <tplc_process_fx+0xda>
    97b5:	0f0104        	ae_sraip24	aep0, aep0, 2
    97b8:	428614        	ae_sp16f.l.iu	aep0, a6, 2
    97bb:	408514        	ae_lp16f.iu	aep0, a5, 2
    97be:	db1a51        	l32r	a5, 428 (9334 <_celt_autocorr>)
    97c1:	0e6d           	mov.n	a6, a14
    97c3:	10c1b2        	addi	a11, a1, 16
    97c6:	4c1c           	movi.n	a12, 20
    97c8:	04ed           	mov.n	a14, a4
    97ca:	0005e0        	callx8	a5
    97cd:	4158           	l32i.n	a5, a1, 16
    97cf:	10c1a2        	addi	a10, a1, 16
    97d2:	0b0c           	movi.n	a11, 0
    97d4:	a5cc           	bnez.n	a5, 97e2 <tplc_process_fx+0xfe>
    97d6:	daa351        	l32r	a5, 264 (bf8 <basop_memset>)
    97d9:	4c5c           	movi.n	a12, 84
    97db:	0005e0        	callx8	a5
    97de:	150c           	movi.n	a5, 1
    97e0:	4159           	s32i.n	a5, a1, 16

000097e2 <tplc_process_fx+0xfe>:
    97e2:	db1251        	l32r	a5, 42c (94a4 <_celt_lpc>)
    97e5:	10c1a2        	addi	a10, a1, 16
    97e8:	02bd           	mov.n	a11, a2
    97ea:	0005e0        	callx8	a5
    97ed:	1a2182        	l32i	a8, a1, 104
    97f0:	905360        	addx2	a5, a3, a6
    97f3:	01d142        	addmi	a4, a1, 0x100
    97f6:	905850        	addx2	a5, a8, a5
    97f9:	02c552        	addi	a5, a5, 2
    97fc:	14a0f2        	movi	a15, 20
    97ff:	8ec442        	addi	a4, a4, -114
    9802:	408504        	ae_lp16f.iu	aep0, a5, 0
    9805:	058f76        	loop	a15, 980e <tplc_process_fx+0x12a>
    9808:	428414        	ae_sp16f.l.iu	aep0, a4, 2
    980b:	408514        	ae_lp16f.iu	aep0, a5, 2

0000980e <tplc_process_fx+0x12a>:
    980e:	1e2142        	l32i	a4, a1, 120
    9811:	1c21f2        	l32i	a15, a1, 112
    9814:	876d           	ae_sext16	a6, a7
    9816:	071442        	l16ui	a4, a4, 14
    9819:	216142        	s32i	a4, a1, 132
    981c:	7ecf42        	addi	a4, a15, 126
    981f:	dab951        	l32r	a5, 304 (ef8 <getScaleFactor16>)
    9822:	04ad           	mov.n	a10, a4
    9824:	06bd           	mov.n	a11, a6
    9826:	0005e0        	callx8	a5
    9829:	850c           	movi.n	a5, 8
    982b:	00a082        	movi	a8, 0
    982e:	0e25a7        	blt	a5, a10, 9840 <tplc_process_fx+0x15c>
    9831:	20b660        	or	a11, a6, a6
    9834:	dab461        	l32r	a6, 304 (ef8 <getScaleFactor16>)
    9837:	20a440        	or	a10, a4, a4
    983a:	0006e0        	callx8	a6
    983d:	c085a0        	sub	a8, a5, a10

00009840 <tplc_process_fx+0x15c>:
    9840:	1b2162        	l32i	a6, a1, 108
    9843:	01a052        	movi	a5, 1
    9846:	1c21c2        	l32i	a12, a1, 112
    9849:	360534        	ae_cvtq48a32s	aeq0, a5
    984c:	fd0471a1fe 	{ l32i	a15, a1, 104; ae_movq56	aeq1, aeq0 }
    9851:	2e26a6        	blti	a6, 2, 9883 <tplc_process_fx+0x19f>
    9854:	fd0451534f 	{ addx2	a5, a3, a4; ae_movq56	aeq1, aeq0 }
    9859:	7ccca2        	addi	a10, a12, 124
    985c:	fec592        	addi	a9, a5, -2
    985f:	408a14        	ae_lp16f.iu	aep0, a10, 2
    9862:	409914        	ae_lp16f.iu	aep1, a9, 2
    9865:	1a8f76        	loop	a15, 9883 <tplc_process_fx+0x19f>
    9868:	eb07ac991f 	{ ae_lp16f.iu	aep1, a9, 2; ae_mulp24s.ll	aeq2, aep1, aep0 }
    986d:	eb03ec8a1f 	{ ae_lp16f.iu	aep0, a10, 2; ae_mulp24s.ll	aeq3, aep0, aep0 }
    9872:	34a8b4        	ae_sraaq56	aeq2, aeq2, a8
    9875:	fe747ef8df 	{ ae_sraaq56	aeq3, aeq3, a8; ae_truncq32	aeq2, aeq2 }
    987a:	015ac4        	ae_addq56	aeq1, aeq1, aeq2
    987d:	06ba34        	ae_truncq32	aeq2, aeq3
    9880:	010ac4        	ae_addq56	aeq0, aeq0, aeq2

00009883 <tplc_process_fx+0x19f>:
    9883:	369a04        	ae_trunca32q48	a10, aeq1
    9886:	368b04        	ae_trunca32q48	a11, aeq0
    9889:	9aa092        	movi	a9, 154
    988c:	79d992        	addmi	a9, a9, 0x7900
    988f:	382ba7        	blt	a11, a10, 98cb <tplc_process_fx+0x1e7>
    9892:	dae351        	l32r	a5, 420 (8ff8 <frac_div32>)
    9895:	096d           	mov.n	a6, a9
    9897:	0005e0        	callx8	a5
    989a:	212152        	l32i	a5, a1, 132
    989d:	069d           	mov.n	a9, a6
    989f:	1c21c2        	l32i	a12, a1, 112
    98a2:	1b2162        	l32i	a6, a1, 108
    98a5:	25ec           	bnez.n	a5, 98cb <tplc_process_fx+0x1e7>
    98a7:	150c           	movi.n	a5, 1
    98a9:	115510        	slli	a5, a5, 15
    98ac:	5a5a           	add.n	a5, a10, a5
    98ae:	9aa082        	movi	a8, 154
    98b1:	315050        	srai	a5, a5, 16
    98b4:	79d882        	addmi	a8, a8, 0x7900
    98b7:	102857        	blt	a8, a5, 98cb <tplc_process_fx+0x1e7>
    98ba:	66a082        	movi	a8, 102
    98bd:	46d882        	addmi	a8, a8, 0x4600
    98c0:	390c           	movi.n	a9, 3
    98c2:	119930        	slli	a9, a9, 13
    98c5:	728580        	salt	a8, a5, a8
    98c8:	839580        	moveqz	a9, a5, a8

000098cb <tplc_process_fx+0x1e7>:
    98cb:	fc24b1e1fe 	{ l32i	a15, a1, 120; ae_zeroq56	aeq0 }
    98d0:	542114        	ae_lp24x2.i	aep2, a1, 8
    98d3:	28cca2        	addi	a10, a12, 40
    98d6:	085f92        	s16i	a9, a15, 16
    98d9:	2817a6        	blti	a7, 1, 9905 <tplc_process_fx+0x221>
    98dc:	581c           	movi.n	a8, 21
    98de:	029d           	mov.n	a9, a2
    98e0:	045d           	mov.n	a5, a4
    98e2:	408904        	ae_lp16f.iu	aep0, a9, 0
    98e5:	409504        	ae_lp16f.iu	aep1, a5, 0
    98e8:	078876        	loop	a8, 98f3 <tplc_process_fx+0x20f>
    98eb:	e223ac891f 	{ ae_lp16f.iu	aep0, a9, 2; ae_mulafp24s.ll	aeq0, aep0, aep1 }
    98f0:	4095f4        	ae_lp16f.iu	aep1, a5, -2

000098f3 <tplc_process_fx+0x20f>:
    98f3:	3500d4        	ae_slliq56	aeq0, aeq0, 3
    98f6:	f8638ff77e 	{ addi	a7, a7, -1; ae_roundsp16q48asym	aep0, aeq0 }
    98fb:	442b           	addi.n	a4, a4, 2
    98fd:	fc24b28a1f 	{ ae_sp16f.l.iu	aep0, a10, 2; ae_zeroq56	aeq0 }
    9902:	fd8756        	bnez	a7, 98de <tplc_process_fx+0x1fa>

00009905 <tplc_process_fx+0x221>:
    9905:	1d2152        	l32i	a5, a1, 116
    9908:	01d1a2        	addmi	a10, a1, 0x100
    990b:	604060        	neg	a4, a6
    990e:	90caa2        	addi	a10, a10, -112
    9911:	7f4d           	ae_s16i.n	a4, a15, 2
    9913:	1c13a6        	blti	a3, 1, 9933 <tplc_process_fx+0x24f>
    9916:	1a2172        	l32i	a7, a1, 104
    9919:	66cf42        	addi	a4, a15, 102
    991c:	9077c0        	addx2	a7, a7, a12
    991f:	2ac782        	addi	a8, a7, 42
    9922:	078376        	loop	a3, 992d <tplc_process_fx+0x249>
    9925:	287d           	ae_l16si.n	a7, a8, 0
    9927:	647d           	ae_s16i.n	a7, a4, 0
    9929:	882b           	addi.n	a8, a8, 2
    992b:	442b           	addi.n	a4, a4, 2

0000992d <tplc_process_fx+0x249>:
    992d:	000086        	j	9933 <tplc_process_fx+0x24f>

00009930 <tplc_process_fx+0x24c>:
    9930:	12cfa2        	addi	a10, a15, 18
    9933:	1f2142        	l32i	a4, a1, 124
    9936:	081fe2        	l16ui	a14, a15, 16
    9939:	ffa082        	movi	a8, 255
    993c:	c07640        	sub	a7, a6, a4
    993f:	1725a6        	blti	a5, 2, 995a <tplc_process_fx+0x276>
    9942:	0ebd           	mov.n	a11, a14
    9944:	1945a6        	blti	a5, 4, 9961 <tplc_process_fx+0x27d>
    9947:	8e4d           	ae_sext16	a4, a14
    9949:	fcc552        	addi	a5, a5, -4
    994c:	0b0c           	movi.n	a11, 0
    994e:	214140        	srai	a4, a4, 1
    9951:	83b450        	moveqz	a11, a4, a5
    9954:	085fb2        	s16i	a11, a15, 16
    9957:	000186        	j	9961 <tplc_process_fx+0x27d>

0000995a <tplc_process_fx+0x276>:
    995a:	7fd842        	addmi	a4, a8, 0x7f00
    995d:	0ebd           	mov.n	a11, a14
    995f:	04ed           	mov.n	a14, a4
    9961:	3fdd           	ae_l16si.n	a13, a15, 2
    9963:	28cc42        	addi	a4, a12, 40
    9966:	576a           	add.n	a5, a7, a6
    9968:	1a6142        	s32i	a4, a1, 104
    996b:	4d6a           	add.n	a4, a13, a6
    996d:	2179           	s32i.n	a7, a1, 8
    996f:	f27430        	rems	a7, a4, a3
    9972:	119500        	slli	a9, a5, 16
    9975:	858d           	ae_sext16	a8, a5
    9977:	7f7d           	ae_s16i.n	a7, a15, 2
    9979:	4519a6        	blti	a9, 1, 99c2 <tplc_process_fx+0x2de>
    997c:	daad41        	l32r	a4, 430 (b680 <T_div_1_frame_10ms>)
    997f:	202162        	l32i	a6, a1, 128
    9982:	c05eb0        	sub	a5, a14, a11
    9985:	855d           	ae_sext16	a5, a5
    9987:	904640        	addx2	a4, a6, a4
    998a:	244d           	ae_l16si.n	a4, a4, 0
    998c:	1a21c2        	l32i	a12, a1, 104
    998f:	0b0c           	movi.n	a11, 0
    9991:	d14540        	mul16s	a4, a5, a4
    9994:	41df40        	srli	a13, a4, 15
    9997:	278876        	loop	a8, 99c2 <tplc_process_fx+0x2de>
    999a:	874d           	ae_sext16	a4, a7
    999c:	9044f0        	addx2	a4, a4, a15
    999f:	331442        	l16ui	a4, a4, 102
    99a2:	300ee4        	ae_cvtp24a16x2.ll	aep0, a14, a14
    99a5:	301444        	ae_cvtp24a16x2.ll	aep1, a4, a4
    99a8:	ea0580175e 	{ addi	a5, a7, 1; ae_mulfp24s.ll	aeq0, aep1, aep0 }
    99ad:	c06ed0        	sub	a6, a14, a13
    99b0:	857d           	ae_sext16	a7, a5
    99b2:	f86395773f 	{ sub	a7, a7, a3; ae_roundsp16q48asym	aep0, aeq0 }
    99b7:	866d           	ae_sext16	a6, a6
    99b9:	53e6b0        	max	a14, a6, a11
    99bc:	937570        	movnez	a7, a5, a7
    99bf:	428c14        	ae_sp16f.l.iu	aep0, a12, 2

000099c2 <tplc_process_fx+0x2de>:
    99c2:	1c21d2        	l32i	a13, a1, 112
    99c5:	3b2132        	l32i	a3, a1, 236
    99c8:	222142        	l32i	a4, a1, 136
    99cb:	1d6132        	s32i	a3, a1, 116
    99ce:	3d2162        	l32i	a6, a1, 244
    99d1:	3c2172        	l32i	a7, a1, 240
    99d4:	3a2132        	l32i	a3, a1, 232
    99d7:	3921b2        	l32i	a11, a1, 228
    99da:	441c           	movi.n	a4, 20
    99dc:	2acdc2        	addi	a12, a13, 42
    99df:	0d5d           	mov.n	a5, a13
    99e1:	078476        	loop	a4, 99ec <tplc_process_fx+0x308>
    99e4:	2a4d           	ae_l16si.n	a4, a10, 0
    99e6:	654d           	ae_s16i.n	a4, a5, 0
    99e8:	aa2b           	addi.n	a10, a10, 2
    99ea:	552b           	addi.n	a5, a5, 2

000099ec <tplc_process_fx+0x308>:
    99ec:	4519a6        	blti	a9, 1, 9a35 <tplc_process_fx+0x351>
    99ef:	1b2142        	l32i	a4, a1, 108
    99f2:	1f2152        	l32i	a5, a1, 124
    99f5:	26cda2        	addi	a10, a13, 38
    99f8:	408c04        	ae_lp16f.iu	aep0, a12, 0
    99fb:	d05450        	subx2	a5, a4, a5
    99fe:	fc0c31a14e 	{ l32i	a4, a1, 104; ae_cvtq48p24s.l	aeq0, aep0 }
    9a03:	4d1c           	movi.n	a13, 20
    9a05:	85fd           	ae_sext16	a15, a5

00009a07 <tplc_process_fx+0x323>:
    9a07:	025d           	mov.n	a5, a2
    9a09:	20e440        	or	a14, a4, a4
    9a0c:	3500f4        	ae_sraiq56	aeq0, aeq0, 3
    9a0f:	408514        	ae_lp16f.iu	aep0, a5, 2
    9a12:	409ef4        	ae_lp16f.iu	aep1, a14, -2
    9a15:	078d76        	loop	a13, 9a20 <tplc_process_fx+0x33c>
    9a18:	ee21ac851f 	{ ae_lp16f.iu	aep0, a5, 2; ae_mulsfp24s.ll	aeq0, aep0, aep1 }
    9a1d:	409ef4        	ae_lp16f.iu	aep1, a14, -2

00009a20 <tplc_process_fx+0x33c>:
    9a20:	3500d4        	ae_slliq56	aeq0, aeq0, 3
    9a23:	ff0b           	addi.n	a15, a15, -1
    9a25:	f863ec8c1f 	{ ae_lp16f.iu	aep0, a12, 2; ae_roundsp16q48asym	aep1, aeq0 }
    9a2a:	02c442        	addi	a4, a4, 2
    9a2d:	fc0c329a1f 	{ ae_sp16f.l.iu	aep1, a10, 2; ae_cvtq48p24s.l	aeq0, aep0 }
    9a32:	fd1f56        	bnez	a15, 9a07 <tplc_process_fx+0x323>

00009a35 <tplc_process_fx+0x351>:
    9a35:	1b21c2        	l32i	a12, a1, 108
    9a38:	1a21a2        	l32i	a10, a1, 104
    9a3b:	1e21d2        	l32i	a13, a1, 120
    9a3e:	14a052        	movi	a5, 20
    9a41:	904ca0        	addx2	a4, a12, a10
    9a44:	d8c442        	addi	a4, a4, -40
    9a47:	10cd22        	addi	a2, a13, 16
    9a4a:	408404        	ae_lp16f.iu	aep0, a4, 0
    9a4d:	058576        	loop	a5, 9a56 <tplc_process_fx+0x372>
    9a50:	428214        	ae_sp16f.l.iu	aep0, a2, 2
    9a53:	408414        	ae_lp16f.iu	aep0, a4, 2

00009a56 <tplc_process_fx+0x372>:
    9a56:	0fdd22        	addmi	a2, a13, 0xf00
    9a59:	651222        	l16ui	a2, a2, 202
    9a5c:	300224        	ae_cvtp24a16x2.ll	aep0, a2, a2
    9a5f:	ea41932aaf 	{ or	a2, a10, a10; ae_mulfp24s.ll	aeq0, aep0, aep2 }
    9a64:	da1641        	l32r	a4, 2bc (10001 <_end+0x4519>)
    9a67:	f863ecf20f 	{ ae_lp16f.iu	aep7, a2, 0; ae_roundsp16q48asym	aep1, aeq0 }
    9a6c:	d83d3201de 	{ l32i	a13, a1, 128; ae_addsp24s	aep0, aep7, aep1 }
    9a71:	428204        	ae_sp16f.l.iu	aep0, a2, 0
    9a74:	162947        	blt	a9, a4, 9a8e <tplc_process_fx+0x3aa>
    9a77:	480b           	addi.n	a4, a8, -1
    9a79:	f03d           	nop.n
    9a7b:	f03d           	nop.n
    9a7d:	0d8476        	loop	a4, 9a8e <tplc_process_fx+0x3aa>
    9a80:	ea41acf21f 	{ ae_lp16f.iu	aep7, a2, 2; ae_mulfp24s.ll	aeq0, aep0, aep2 }
    9a85:	1b8f14        	ae_roundsp16q48asym	aep1, aeq0
    9a88:	07f104        	ae_addsp24s	aep0, aep7, aep1
    9a8b:	428204        	ae_sp16f.l.iu	aep0, a2, 0

00009a8e <tplc_process_fx+0x3aa>:
    9a8e:	232152        	l32i	a5, a1, 140
    9a91:	da6821        	l32r	a2, 434 (b670 <T_mdct_gain_7_5ms>)
    9a94:	da6941        	l32r	a4, 438 (b660 <T_mdct_gain_10ms>)
    9a97:	9cc552        	addi	a5, a5, -100
    9a9a:	21e8           	l32i.n	a14, a1, 8
    9a9c:	934250        	movnez	a4, a2, a5
    9a9f:	902d40        	addx2	a2, a13, a4
    9aa2:	22fd           	ae_l16si.n	a15, a2, 0
    9aa4:	da6621        	l32r	a2, 43c (9640 <tplc_ola_fx>)
    9aa7:	1f21d2        	l32i	a13, a1, 124
    9aaa:	0139           	s32i.n	a3, a1, 0
    9aac:	0002e0        	callx8	a2
    9aaf:	1b2152        	l32i	a5, a1, 108
    9ab2:	f27c           	movi.n	a2, -1
    9ab4:	1a2192        	l32i	a9, a1, 104
    9ab7:	412120        	srli	a2, a2, 1
    9aba:	110257        	bnone	a2, a5, 9acf <tplc_process_fx+0x3eb>
    9abd:	104520        	and	a4, a5, a2
    9ac0:	408904        	ae_lp16f.iu	aep0, a9, 0
    9ac3:	fec722        	addi	a2, a7, -2
    9ac6:	058476        	loop	a4, 9acf <tplc_process_fx+0x3eb>
    9ac9:	428214        	ae_sp16f.l.iu	aep0, a2, 2
    9acc:	408914        	ae_lp16f.iu	aep0, a9, 2
    9acf:	da0d21        	l32r	a2, 304 (ef8 <getScaleFactor16>)
    9ad2:	85bd           	ae_sext16	a11, a5
    9ad4:	07ad           	mov.n	a10, a7
    9ad6:	0002e0        	callx8	a2
    9ad9:	1b2142        	l32i	a4, a1, 108
    9adc:	66ad           	ae_s16i.n	a10, a6, 0
    9ade:	1014a6        	blti	a4, 1, 9af2 <tplc_process_fx+0x40e>
    9ae1:	408704        	ae_lp16f.iu	aep0, a7, 0
    9ae4:	0316a4        	wur.ae_sar	a10
    9ae7:	078476        	loop	a4, 9af2 <tplc_process_fx+0x40e>
    9aea:	f823ec871f 	{ ae_lp16f.iu	aep0, a7, 2; ae_sllssp24s	aep1, aep0 }
    9aef:	4217f4        	ae_sp16f.l.i	aep1, a7, -2
    9af2:	2148           	l32i.n	a4, a1, 8
    9af4:	03ad           	mov.n	a10, a3
    9af6:	84bd           	ae_sext16	a11, a4
    9af8:	0002e0        	callx8	a2
    9afb:	1d2122        	l32i	a2, a1, 116
    9afe:	62ad           	ae_s16i.n	a10, a2, 0
    9b00:	1414a6        	blti	a4, 1, 9b18 <tplc_process_fx+0x434>
    9b03:	408304        	ae_lp16f.iu	aep0, a3, 0
    9b06:	0316a4        	wur.ae_sar	a10
    9b09:	f03d           	nop.n
    9b0b:	f03d           	nop.n
    9b0d:	078476        	loop	a4, 9b18 <tplc_process_fx+0x434>
    9b10:	f823ec831f 	{ ae_lp16f.iu	aep0, a3, 2; ae_sllssp24s	aep1, aep0 }
    9b15:	4213f4        	ae_sp16f.l.i	aep1, a3, -2
    9b18:	f01d           	retw.n

00009b1a <tplc_process_fx+0x436>:
	...

00009b1c <__do_global_ctors_aux>:
    9b1c:	004136        	entry	a1, 32
    9b1f:	da4831        	l32r	a3, 440 (b588 <__CTOR_END__>)
    9b22:	fcc322        	addi	a2, a3, -4
    9b25:	0228           	l32i.n	a2, a2, 0
    9b27:	f8c332        	addi	a3, a3, -8
    9b2a:	0a0226        	beqi	a2, -1, 9b38 <__do_global_ctors_aux+0x1c>

00009b2d <__do_global_ctors_aux+0x11>:
    9b2d:	0002e0        	callx8	a2
    9b30:	0328           	l32i.n	a2, a3, 0
    9b32:	fcc332        	addi	a3, a3, -4
    9b35:	f40266        	bnei	a2, -1, 9b2d <__do_global_ctors_aux+0x11>
    9b38:	f01d           	retw.n

00009b3a <__do_global_ctors_aux+0x1e>:
    9b3a:	00000000                                 ......

00009b40 <memset>:
    9b40:	004136        	entry	a1, 32
    9b43:	a28c           	beqz.n	a2, 9b51 <memset+0x11>
    9b45:	848c           	beqz.n	a4, 9b51 <memset+0x11>
    9b47:	025d           	mov.n	a5, a2
    9b49:	048476        	loop	a4, 9b51 <memset+0x11>
    9b4c:	004532        	s8i	a3, a5, 0
    9b4f:	551b           	addi.n	a5, a5, 1

00009b51 <memset+0x11>:
    9b51:	f01d           	retw.n

00009b53 <memset+0x13>:
	...

00009b54 <memcpy>:
    9b54:	004136        	entry	a1, 32
    9b57:	025d           	mov.n	a5, a2
    9b59:	020c           	movi.n	a2, 0
    9b5b:	d5bc           	beqz.n	a5, 9b9c <memcpy+0x48>
    9b5d:	b3bc           	beqz.n	a3, 9b9c <memcpy+0x48>
    9b5f:	24b357        	bgeu	a3, a5, 9b87 <memcpy+0x33>
    9b62:	234a           	add.n	a2, a3, a4
    9b64:	1fb527        	bgeu	a5, a2, 9b87 <memcpy+0x33>
    9b67:	052d           	mov.n	a2, a5
    9b69:	f4ac           	beqz.n	a4, 9b9c <memcpy+0x48>
    9b6b:	243a           	add.n	a2, a4, a3
    9b6d:	320b           	addi.n	a3, a2, -1
    9b6f:	0f8476        	loop	a4, 9b82 <memcpy+0x2e>
    9b72:	254a           	add.n	a2, a5, a4
    9b74:	000362        	l8ui	a6, a3, 0
    9b77:	220b           	addi.n	a2, a2, -1
    9b79:	004262        	s8i	a6, a2, 0
    9b7c:	330b           	addi.n	a3, a3, -1
    9b7e:	440b           	addi.n	a4, a4, -1
    9b80:	052d           	mov.n	a2, a5

00009b82 <memcpy+0x2e>:
    9b82:	000586        	j	9b9c <memcpy+0x48>

00009b85 <memcpy+0x31>:
	...

00009b87 <memcpy+0x33>:
    9b87:	052d           	mov.n	a2, a5
    9b89:	f48c           	beqz.n	a4, 9b9c <memcpy+0x48>
    9b8b:	056d           	mov.n	a6, a5
    9b8d:	0b8476        	loop	a4, 9b9c <memcpy+0x48>
    9b90:	000322        	l8ui	a2, a3, 0
    9b93:	004622        	s8i	a2, a6, 0
    9b96:	331b           	addi.n	a3, a3, 1
    9b98:	052d           	mov.n	a2, a5
    9b9a:	661b           	addi.n	a6, a6, 1

00009b9c <memcpy+0x48>:
    9b9c:	f01d           	retw.n

00009b9e <memcpy+0x4a>:
	...

00009ba0 <msu_r>:
    9ba0:	004136        	entry	a1, 32
    9ba3:	d13340        	mul16s	a3, a3, a4
    9ba6:	150c           	movi.n	a5, 1
    9ba8:	1133f0        	slli	a3, a3, 1
    9bab:	115510        	slli	a5, a5, 15
    9bae:	c02230        	sub	a2, a2, a3
    9bb1:	225a           	add.n	a2, a2, a5
    9bb3:	312020        	srai	a2, a2, 16
    9bb6:	f01d           	retw.n

00009bb8 <L_mac0_sat>:
    9bb8:	004136        	entry	a1, 32
    9bbb:	d13430        	mul16s	a3, a4, a3
    9bbe:	232a           	add.n	a2, a3, a2
    9bc0:	f01d           	retw.n

00009bc2 <L_mac0_sat+0xa>:
	...

00009bc4 <add_sat>:
    9bc4:	004136        	entry	a1, 32
    9bc7:	232a           	add.n	a2, a3, a2
    9bc9:	a22d           	ae_clamps16	a2, a2
    9bcb:	822d           	ae_sext16	a2, a2
    9bcd:	f01d           	retw.n

00009bcf <add_sat+0xb>:
	...

00009bd0 <mac_r_sat>:
    9bd0:	004136        	entry	a1, 32
    9bd3:	d13340        	mul16s	a3, a3, a4
    9bd6:	1f0c           	movi.n	a15, 1
    9bd8:	114f10        	slli	a4, a15, 15
    9bdb:	902320        	addx2	a2, a3, a2
    9bde:	224a           	add.n	a2, a2, a4
    9be0:	312020        	srai	a2, a2, 16
    9be3:	f01d           	retw.n

00009be5 <mac_r_sat+0x15>:
    9be5:	000000                                        ...

00009be8 <L_shr_r>:
    9be8:	004136        	entry	a1, 32
    9beb:	024d           	mov.n	a4, a2
    9bed:	020c           	movi.n	a2, 0
    9bef:	21c3e6        	bgei	a3, 32, 9c14 <L_shr_r+0x2c>
    9bf2:	602030        	neg	a2, a3
    9bf5:	401200        	ssl	a2
    9bf8:	a15400        	sll	a5, a4
    9bfb:	400300        	ssr	a3
    9bfe:	b12040        	sra	a2, a4
    9c01:	a32530        	movltz	a2, a5, a3
    9c04:	0c13a6        	blti	a3, 1, 9c14 <L_shr_r+0x2c>
    9c07:	330b           	addi.n	a3, a3, -1
    9c09:	400300        	ssr	a3
    9c0c:	913040        	srl	a3, a4
    9c0f:	043030        	extui	a3, a3, 0, 1
    9c12:	223a           	add.n	a2, a2, a3

00009c14 <L_shr_r+0x2c>:
    9c14:	f01d           	retw.n

00009c16 <L_shr_r+0x2e>:
	...

00009c18 <UL_addNs>:
    9c18:	004136        	entry	a1, 32
    9c1b:	232a           	add.n	a2, a3, a2
    9c1d:	623230        	saltu	a3, a2, a3
    9c20:	643d           	ae_s16i.n	a3, a4, 0
    9c22:	f01d           	retw.n

00009c24 <Mpy_32_16_uu>:
    9c24:	004136        	entry	a1, 32
    9c27:	82f320        	mull	a15, a3, a2
    9c2a:	a26320        	muluh	a6, a3, a2
    9c2d:	f520f0        	extui	a2, a15, 16, 16
    9c30:	0bf620        	depbits	a2, a6, 16, 16
    9c33:	65fd           	ae_s16i.n	a15, a5, 0
    9c35:	0429           	s32i.n	a2, a4, 0
    9c37:	f01d           	retw.n

00009c39 <Mpy_32_16_uu+0x15>:
    9c39:	000000                                        ...

00009c3c <Mpy_32_32_uu>:
    9c3c:	004136        	entry	a1, 32
    9c3f:	a2f320        	muluh	a15, a3, a2
    9c42:	826320        	mull	a6, a3, a2
    9c45:	04f9           	s32i.n	a15, a4, 0
    9c47:	0569           	s32i.n	a6, a5, 0
    9c49:	f01d           	retw.n

00009c4b <Mpy_32_32_uu+0xf>:
	...

00009c4c <UL_deposit_h>:
    9c4c:	004136        	entry	a1, 32
    9c4f:	112200        	slli	a2, a2, 16
    9c52:	f01d           	retw.n

00009c54 <u_extract_h>:
    9c54:	004136        	entry	a1, 32
    9c57:	f52020        	extui	a2, a2, 16, 16
    9c5a:	f01d           	retw.n

00009c5c <dct16_fx>:
    9c5c:	00e136        	entry	a1, 112
    9c5f:	0a9242        	l16si	a4, a2, 20
    9c62:	059252        	l16si	a5, a2, 10
    9c65:	0d9262        	l16si	a6, a2, 26
    9c68:	029272        	l16si	a7, a2, 4
    9c6b:	c08540        	sub	a8, a5, a4
    9c6e:	454a           	add.n	a4, a5, a4
    9c70:	82a0c2        	movi	a12, 130
    9c73:	c0d760        	sub	a13, a7, a6
    9c76:	136132        	s32i	a3, a1, 76
    9c79:	5adc32        	addmi	a3, a12, 0x5a00
    9c7c:	8149           	s32i.n	a4, a1, 32
    9c7e:	8d4d           	ae_sext16	a4, a13
    9c80:	888d           	ae_sext16	a8, a8
    9c82:	d14430        	mul16s	a4, a4, a3
    9c85:	d13830        	mul16s	a3, a8, a3
    9c88:	7ea092        	movi	a9, 126
    9c8b:	40d442        	addmi	a4, a4, 0x4000
    9c8e:	f76a           	add.n	a15, a7, a6
    9c90:	40d362        	addmi	a6, a3, 0x4000
    9c93:	214f40        	srai	a4, a4, 15
    9c96:	216f60        	srai	a6, a6, 15
    9c99:	a5d992        	addmi	a9, a9, 0xffffa500
    9c9c:	d1e890        	mul16s	a14, a8, a9
    9c9f:	a44d           	ae_clamps16	a4, a4
    9ca1:	a66d           	ae_clamps16	a6, a6
    9ca3:	764a           	add.n	a7, a6, a4
    9ca5:	0c9262        	l16si	a6, a2, 24
    9ca8:	0392d2        	l16si	a13, a2, 6
    9cab:	40de52        	addmi	a5, a14, 0x4000
    9cae:	215f50        	srai	a5, a5, 15
    9cb1:	a55d           	ae_clamps16	a5, a5
    9cb3:	c0ad60        	sub	a10, a13, a6
    9cb6:	954a           	add.n	a9, a5, a4
    9cb8:	8a5d           	ae_sext16	a5, a10
    9cba:	82a0a2        	movi	a10, 130
    9cbd:	dd6a           	add.n	a13, a13, a6
    9cbf:	5ada62        	addmi	a6, a10, 0x5a00
    9cc2:	0b9242        	l16si	a4, a2, 22
    9cc5:	049232        	l16si	a3, a2, 8
    9cc8:	d1a560        	mul16s	a10, a5, a6
    9ccb:	0e9282        	l16si	a8, a2, 28
    9cce:	c05340        	sub	a5, a3, a4
    9cd1:	634a           	add.n	a6, a3, a4
    9cd3:	40da32        	addmi	a3, a10, 0x4000
    9cd6:	32bd           	ae_l16si.n	a11, a2, 2
    9cd8:	855d           	ae_sext16	a5, a5
    9cda:	214f30        	srai	a4, a3, 15
    9cdd:	3159           	s32i.n	a5, a1, 12
    9cdf:	a45d           	ae_clamps16	a5, a4
    9ce1:	0992c2        	l16si	a12, a2, 18
    9ce4:	0692e2        	l16si	a14, a2, 12
    9ce7:	4159           	s32i.n	a5, a1, 16
    9ce9:	5b8a           	add.n	a5, a11, a8
    9ceb:	c08b80        	sub	a8, a11, a8
    9cee:	c0b870        	sub	a11, a8, a7
    9cf1:	778a           	add.n	a7, a7, a8
    9cf3:	8b8d           	ae_sext16	a8, a11
    9cf5:	c04ec0        	sub	a4, a14, a12
    9cf8:	fca0a2        	movi	a10, 252
    9cfb:	bea0b2        	movi	a11, 190
    9cfe:	ceca           	add.n	a12, a14, a12
    9d00:	e94a           	add.n	a14, a9, a4
    9d02:	c04490        	sub	a4, a4, a9
    9d05:	30da32        	addmi	a3, a10, 0x3000
    9d08:	89dba2        	addmi	a10, a11, 0xffff8900
    9d0b:	4b0c           	movi.n	a11, 4
    9d0d:	6189           	s32i.n	a8, a1, 24
    9d0f:	849d           	ae_sext16	a9, a4
    9d11:	cfdb82        	addmi	a8, a11, 0xffffcf00
    9d14:	244c           	movi.n	a4, 66
    9d16:	d18980        	mul16s	a8, a9, a8
    9d19:	d199a0        	mul16s	a9, a9, a10
    9d1c:	877d           	ae_sext16	a7, a7
    9d1e:	76d4b2        	addmi	a11, a4, 0x7600
    9d21:	d1b7b0        	mul16s	a11, a7, a11
    9d24:	d17730        	mul16s	a7, a7, a3
    9d27:	40d992        	addmi	a9, a9, 0x4000
    9d2a:	40d882        	addmi	a8, a8, 0x4000
    9d2d:	40d772        	addmi	a7, a7, 0x4000
    9d30:	40dbb2        	addmi	a11, a11, 0x4000
    9d33:	213f80        	srai	a3, a8, 15
    9d36:	219f90        	srai	a9, a9, 15
    9d39:	217f70        	srai	a7, a7, 15
    9d3c:	a99d           	ae_clamps16	a9, a9
    9d3e:	a33d           	ae_clamps16	a3, a3
    9d40:	21bfb0        	srai	a11, a11, 15
    9d43:	a78d           	ae_clamps16	a8, a7
    9d45:	7199           	s32i.n	a9, a1, 28
    9d47:	5139           	s32i.n	a3, a1, 20
    9d49:	ab7d           	ae_clamps16	a7, a11
    9d4b:	0f9232        	l16si	a3, a2, 30
    9d4e:	229d           	ae_l16si.n	a9, a2, 0
    9d50:	0892b2        	l16si	a11, a2, 16
    9d53:	079222        	l16si	a2, a2, 14
    9d56:	493a           	add.n	a4, a9, a3
    9d58:	c09930        	sub	a9, a9, a3
    9d5b:	32ba           	add.n	a3, a2, a11
    9d5d:	c0b2b0        	sub	a11, a2, a11
    9d60:	c02430        	sub	a2, a4, a3
    9d63:	434a           	add.n	a4, a3, a4
    9d65:	f149           	s32i.n	a4, a1, 60
    9d67:	36da           	add.n	a3, a6, a13
    9d69:	c04d60        	sub	a4, a13, a6
    9d6c:	8168           	l32i.n	a6, a1, 32
    9d6e:	e139           	s32i.n	a3, a1, 56
    9d70:	116142        	s32i	a4, a1, 68
    9d73:	36fa           	add.n	a3, a6, a15
    9d75:	c0df60        	sub	a13, a15, a6
    9d78:	4c5a           	add.n	a4, a12, a5
    9d7a:	c065c0        	sub	a6, a5, a12
    9d7d:	82a0c2        	movi	a12, 130
    9d80:	8dfd           	ae_sext16	a15, a13
    9d82:	126122        	s32i	a2, a1, 72
    9d85:	b149           	s32i.n	a4, a1, 44
    9d87:	5adc42        	addmi	a4, a12, 0x5a00
    9d8a:	862d           	ae_sext16	a2, a6
    9d8c:	7ea0d2        	movi	a13, 126
    9d8f:	d12240        	mul16s	a2, a2, a4
    9d92:	a5dd62        	addmi	a6, a13, 0xffffa500
    9d95:	c139           	s32i.n	a3, a1, 48
    9d97:	d13f60        	mul16s	a3, a15, a6
    9d9a:	40d222        	addmi	a2, a2, 0x4000
    9d9d:	212f20        	srai	a2, a2, 15
    9da0:	40d332        	addmi	a3, a3, 0x4000
    9da3:	d1f9           	s32i.n	a15, a1, 52
    9da5:	a2fd           	ae_clamps16	a15, a2
    9da7:	212f30        	srai	a2, a3, 15
    9daa:	a22d           	ae_clamps16	a2, a2
    9dac:	2f2a           	add.n	a2, a15, a2
    9dae:	fca0c2        	movi	a12, 252
    9db1:	8eed           	ae_sext16	a14, a14
    9db3:	8129           	s32i.n	a2, a1, 32
    9db5:	30dc22        	addmi	a2, a12, 0x3000
    9db8:	d12e20        	mul16s	a2, a14, a2
    9dbb:	d1dea0        	mul16s	a13, a14, a10
    9dbe:	40d222        	addmi	a2, a2, 0x4000
    9dc1:	212f20        	srai	a2, a2, 15
    9dc4:	1061f2        	s32i	a15, a1, 64
    9dc7:	a22d           	ae_clamps16	a2, a2
    9dc9:	40ddf2        	addmi	a15, a13, 0x4000
    9dcc:	727a           	add.n	a7, a2, a7
    9dce:	212ff0        	srai	a2, a15, 15
    9dd1:	a22d           	ae_clamps16	a2, a2
    9dd3:	882a           	add.n	a8, a8, a2
    9dd5:	3128           	l32i.n	a2, a1, 12
    9dd7:	0aed           	mov.n	a14, a10
    9dd9:	41a8           	l32i.n	a10, a1, 16
    9ddb:	d15240        	mul16s	a5, a2, a4
    9dde:	d13260        	mul16s	a3, a2, a6
    9de1:	40d522        	addmi	a2, a5, 0x4000
    9de4:	212f20        	srai	a2, a2, 15
    9de7:	40d332        	addmi	a3, a3, 0x4000
    9dea:	213f30        	srai	a3, a3, 15
    9ded:	a22d           	ae_clamps16	a2, a2
    9def:	a33d           	ae_clamps16	a3, a3
    9df1:	42aa           	add.n	a4, a2, a10
    9df3:	53aa           	add.n	a5, a3, a10
    9df5:	349a           	add.n	a3, a4, a9
    9df7:	d73a           	add.n	a13, a7, a3
    9df9:	6fa6c2        	movi	a12, 0x66f
    9dfc:	8d6d           	ae_sext16	a6, a13
    9dfe:	d5ba           	add.n	a13, a5, a11
    9e00:	91a9f2        	movi	a15, 0xfffff991
    9e03:	f02cc0        	subx8	a2, a12, a12
    9e06:	f0cff0        	subx8	a12, a15, a15
    9e09:	f8da           	add.n	a15, a8, a13
    9e0b:	8ffd           	ae_sext16	a15, a15
    9e0d:	70a4a2        	movi	a10, 0x470
    9e10:	d12620        	mul16s	a2, a6, a2
    9e13:	d166a0        	mul16s	a6, a6, a10
    9e16:	d1cfc0        	mul16s	a12, a15, a12
    9e19:	40d662        	addmi	a6, a6, 0x4000
    9e1c:	40dcc2        	addmi	a12, a12, 0x4000
    9e1f:	d1afa0        	mul16s	a10, a15, a10
    9e22:	216f60        	srai	a6, a6, 15
    9e25:	21cfc0        	srai	a12, a12, 15
    9e28:	a66d           	ae_clamps16	a6, a6
    9e2a:	accd           	ae_clamps16	a12, a12
    9e2c:	6c6a           	add.n	a6, a12, a6
    9e2e:	40d222        	addmi	a2, a2, 0x4000
    9e31:	40daa2        	addmi	a10, a10, 0x4000
    9e34:	212f20        	srai	a2, a2, 15
    9e37:	4169           	s32i.n	a6, a1, 16
    9e39:	c06d80        	sub	a6, a13, a8
    9e3c:	218fa0        	srai	a8, a10, 15
    9e3f:	c03370        	sub	a3, a3, a7
    9e42:	bea5c2        	movi	a12, 0x5be
    9e45:	42aaf2        	movi	a15, 0xfffffa42
    9e48:	a88d           	ae_clamps16	a8, a8
    9e4a:	a22d           	ae_clamps16	a2, a2
    9e4c:	fca0d2        	movi	a13, 252
    9e4f:	228a           	add.n	a2, a2, a8
    9e51:	c0bb50        	sub	a11, a11, a5
    9e54:	a07cc0        	addx4	a7, a12, a12
    9e57:	833d           	ae_sext16	a3, a3
    9e59:	a0aff0        	addx4	a10, a15, a15
    9e5c:	865d           	ae_sext16	a5, a6
    9e5e:	22dd82        	addmi	a8, a13, 0x2200
    9e61:	d17370        	mul16s	a7, a3, a7
    9e64:	d13380        	mul16s	a3, a3, a8
    9e67:	d1a5a0        	mul16s	a10, a5, a10
    9e6a:	40d332        	addmi	a3, a3, 0x4000
    9e6d:	3129           	s32i.n	a2, a1, 12
    9e6f:	d18580        	mul16s	a8, a5, a8
    9e72:	40da22        	addmi	a2, a10, 0x4000
    9e75:	215f20        	srai	a5, a2, 15
    9e78:	213f30        	srai	a3, a3, 15
    9e7b:	40d862        	addmi	a6, a8, 0x4000
    9e7e:	6188           	l32i.n	a8, a1, 24
    9e80:	a55d           	ae_clamps16	a5, a5
    9e82:	a33d           	ae_clamps16	a3, a3
    9e84:	353a           	add.n	a3, a5, a3
    9e86:	40d752        	addmi	a5, a7, 0x4000
    9e89:	fca0c2        	movi	a12, 252
    9e8c:	a139           	s32i.n	a3, a1, 40
    9e8e:	213f50        	srai	a3, a5, 15
    9e91:	30dc52        	addmi	a5, a12, 0x3000
    9e94:	217f60        	srai	a7, a6, 15
    9e97:	d1a8e0        	mul16s	a10, a8, a14
    9e9a:	d1d850        	mul16s	a13, a8, a5
    9e9d:	a33d           	ae_clamps16	a3, a3
    9e9f:	a77d           	ae_clamps16	a7, a7
    9ea1:	737a           	add.n	a7, a3, a7
    9ea3:	40da32        	addmi	a3, a10, 0x4000
    9ea6:	40dd82        	addmi	a8, a13, 0x4000
    9ea9:	51e8           	l32i.n	a14, a1, 20
    9eab:	71f8           	l32i.n	a15, a1, 28
    9ead:	213f30        	srai	a3, a3, 15
    9eb0:	218f80        	srai	a8, a8, 15
    9eb3:	a33d           	ae_clamps16	a3, a3
    9eb5:	a88d           	ae_clamps16	a8, a8
    9eb7:	33ea           	add.n	a3, a3, a14
    9eb9:	af8a           	add.n	a10, a15, a8
    9ebb:	c09940        	sub	a9, a9, a4
    9ebe:	c049a0        	sub	a4, a9, a10
    9ec1:	9179           	s32i.n	a7, a1, 36
    9ec3:	c07b30        	sub	a7, a11, a3
    9ec6:	e9a022        	movi	a2, 233
    9ec9:	555c           	movi.n	a5, 85
    9ecb:	761c           	movi.n	a6, 23
    9ecd:	15d5c2        	addmi	a12, a5, 0x1500
    9ed0:	d8d6d2        	addmi	a13, a6, 0xffffd800
    9ed3:	87ed           	ae_sext16	a14, a7
    9ed5:	844d           	ae_sext16	a4, a4
    9ed7:	27d282        	addmi	a8, a2, 0x2700
    9eda:	d18480        	mul16s	a8, a4, a8
    9edd:	d144c0        	mul16s	a4, a4, a12
    9ee0:	d1ded0        	mul16s	a13, a14, a13
    9ee3:	d1cec0        	mul16s	a12, a14, a12
    9ee6:	40d442        	addmi	a4, a4, 0x4000
    9ee9:	40ddd2        	addmi	a13, a13, 0x4000
    9eec:	40d882        	addmi	a8, a8, 0x4000
    9eef:	40dc22        	addmi	a2, a12, 0x4000
    9ef2:	33ba           	add.n	a3, a3, a11
    9ef4:	214f40        	srai	a4, a4, 15
    9ef7:	21dfd0        	srai	a13, a13, 15
    9efa:	21bf20        	srai	a11, a2, 15
    9efd:	218f80        	srai	a8, a8, 15
    9f00:	9a9a           	add.n	a9, a10, a9
    9f02:	61a452        	movi	a5, 0x461
    9f05:	9fab72        	movi	a7, 0xfffffb9f
    9f08:	a44d           	ae_clamps16	a4, a4
    9f0a:	addd           	ae_clamps16	a13, a13
    9f0c:	abbd           	ae_clamps16	a11, a11
    9f0e:	a88d           	ae_clamps16	a8, a8
    9f10:	e64c           	movi.n	a6, 78
    9f12:	fd4a           	add.n	a15, a13, a4
    9f14:	48ba           	add.n	a4, a8, a11
    9f16:	90a550        	addx2	a10, a5, a5
    9f19:	899d           	ae_sext16	a9, a9
    9f1b:	2bd6b2        	addmi	a11, a6, 0x2b00
    9f1e:	90c770        	addx2	a12, a7, a7
    9f21:	833d           	ae_sext16	a3, a3
    9f23:	d1a9a0        	mul16s	a10, a9, a10
    9f26:	d199b0        	mul16s	a9, a9, a11
    9f29:	d1c3c0        	mul16s	a12, a3, a12
    9f2c:	40d992        	addmi	a9, a9, 0x4000
    9f2f:	40dc82        	addmi	a8, a12, 0x4000
    9f32:	d1b3b0        	mul16s	a11, a3, a11
    9f35:	213f80        	srai	a3, a8, 15
    9f38:	219f90        	srai	a9, a9, 15
    9f3b:	6149           	s32i.n	a4, a1, 24
    9f3d:	a33d           	ae_clamps16	a3, a3
    9f3f:	a99d           	ae_clamps16	a9, a9
    9f41:	c148           	l32i.n	a4, a1, 48
    9f43:	b158           	l32i.n	a5, a1, 44
    9f45:	939a           	add.n	a9, a3, a9
    9f47:	40dac2        	addmi	a12, a10, 0x4000
    9f4a:	40dbd2        	addmi	a13, a11, 0x4000
    9f4d:	21afd0        	srai	a10, a13, 15
    9f50:	5199           	s32i.n	a9, a1, 20
    9f52:	219fc0        	srai	a9, a12, 15
    9f55:	a99d           	ae_clamps16	a9, a9
    9f57:	aaad           	ae_clamps16	a10, a10
    9f59:	e54a           	add.n	a14, a5, a4
    9f5b:	71f9           	s32i.n	a15, a1, 28
    9f5d:	a9aa           	add.n	a10, a9, a10
    9f5f:	8e9d           	ae_sext16	a9, a14
    9f61:	1f0c           	movi.n	a15, 1
    9f63:	f138           	l32i.n	a3, a1, 60
    9f65:	e168           	l32i.n	a6, a1, 56
    9f67:	11bf20        	slli	a11, a15, 14
    9f6a:	119930        	slli	a9, a9, 13
    9f6d:	c0bb90        	sub	a11, a11, a9
    9f70:	21bfb0        	srai	a11, a11, 15
    9f73:	736a           	add.n	a7, a3, a6
    9f75:	ab2d           	ae_clamps16	a2, a11
    9f77:	87bd           	ae_sext16	a11, a7
    9f79:	bb2b           	addi.n	a11, a11, 2
    9f7b:	11bb30        	slli	a11, a11, 13
    9f7e:	d1e8           	l32i.n	a14, a1, 52
    9f80:	40d992        	addmi	a9, a9, 0x4000
    9f83:	21bfb0        	srai	a11, a11, 15
    9f86:	82a0f2        	movi	a15, 130
    9f89:	219f90        	srai	a9, a9, 15
    9f8c:	ab8d           	ae_clamps16	a8, a11
    9f8e:	c0d360        	sub	a13, a3, a6
    9f91:	5adf32        	addmi	a3, a15, 0x5a00
    9f94:	d16e30        	mul16s	a6, a14, a3
    9f97:	c0f540        	sub	a15, a5, a4
    9f9a:	a99d           	ae_clamps16	a9, a9
    9f9c:	c82a           	add.n	a12, a8, a2
    9f9e:	f9a522        	movi	a2, 0x5f9
    9fa1:	135c           	movi.n	a3, 81
    9fa3:	07aa42        	movi	a4, 0xfffffa07
    9fa6:	b89a           	add.n	a11, a8, a9
    9fa8:	8fed           	ae_sext16	a14, a15
    9faa:	8d9d           	ae_sext16	a9, a13
    9fac:	f0f220        	subx8	a15, a2, a2
    9faf:	11d322        	addmi	a2, a3, 0x1100
    9fb2:	f03440        	subx8	a3, a4, a4
    9fb5:	d1f9f0        	mul16s	a15, a9, a15
    9fb8:	d19920        	mul16s	a9, a9, a2
    9fbb:	d13e30        	mul16s	a3, a14, a3
    9fbe:	40d992        	addmi	a9, a9, 0x4000
    9fc1:	40d332        	addmi	a3, a3, 0x4000
    9fc4:	d12e20        	mul16s	a2, a14, a2
    9fc7:	219f90        	srai	a9, a9, 15
    9fca:	213f30        	srai	a3, a3, 15
    9fcd:	40df52        	addmi	a5, a15, 0x4000
    9fd0:	a99d           	ae_clamps16	a9, a9
    9fd2:	a33d           	ae_clamps16	a3, a3
    9fd4:	40d662        	addmi	a6, a6, 0x4000
    9fd7:	1021d2        	l32i	a13, a1, 64
    9fda:	21ef50        	srai	a14, a5, 15
    9fdd:	40d222        	addmi	a2, a2, 0x4000
    9fe0:	793a           	add.n	a7, a9, a3
    9fe2:	219f60        	srai	a9, a6, 15
    9fe5:	112152        	l32i	a5, a1, 68
    9fe8:	8168           	l32i.n	a6, a1, 32
    9fea:	122142        	l32i	a4, a1, 72
    9fed:	212f20        	srai	a2, a2, 15
    9ff0:	a99d           	ae_clamps16	a9, a9
    9ff2:	a22d           	ae_clamps16	a2, a2
    9ff4:	aeed           	ae_clamps16	a14, a14
    9ff6:	9d9a           	add.n	a9, a13, a9
    9ff8:	8e2a           	add.n	a8, a14, a2
    9ffa:	e65a           	add.n	a14, a6, a5
    9ffc:	294a           	add.n	a2, a9, a4
    9ffe:	63a0f2        	movi	a15, 99
    a001:	35a232        	movi	a3, 0x235
    a004:	8edd           	ae_sext16	a13, a14
    a006:	2cdfe2        	addmi	a14, a15, 0x2c00
    a009:	82fd           	ae_sext16	a15, a2
    a00b:	1123e0        	slli	a2, a3, 2
    a00e:	d1efe0        	mul16s	a14, a15, a14
    a011:	d1ff20        	mul16s	a15, a15, a2
    a014:	9da032        	movi	a3, 157
    a017:	d12d20        	mul16s	a2, a13, a2
    a01a:	d3d332        	addmi	a3, a3, 0xffffd300
    a01d:	d13d30        	mul16s	a3, a13, a3
    a020:	40d222        	addmi	a2, a2, 0x4000
    a023:	40dee2        	addmi	a14, a14, 0x4000
    a026:	212f20        	srai	a2, a2, 15
    a029:	21dfe0        	srai	a13, a14, 15
    a02c:	40d332        	addmi	a3, a3, 0x4000
    a02f:	a22d           	ae_clamps16	a2, a2
    a031:	addd           	ae_clamps16	a13, a13
    a033:	40dff2        	addmi	a15, a15, 0x4000
    a036:	213f30        	srai	a3, a3, 15
    a039:	2d2a           	add.n	a2, a13, a2
    a03b:	21dff0        	srai	a13, a15, 15
    a03e:	addd           	ae_clamps16	a13, a13
    a040:	a33d           	ae_clamps16	a3, a3
    a042:	c09490        	sub	a9, a4, a9
    a045:	33da           	add.n	a3, a3, a13
    a047:	c0d560        	sub	a13, a5, a6
    a04a:	49a642        	movi	a4, 0x649
    a04d:	a1a052        	movi	a5, 161
    a050:	b7a962        	movi	a6, 0xfffff9b7
    a053:	11e4e0        	slli	a14, a4, 2
    a056:	899d           	ae_sext16	a9, a9
    a058:	1146e0        	slli	a4, a6, 2
    a05b:	8ddd           	ae_sext16	a13, a13
    a05d:	25d5f2        	addmi	a15, a5, 0x2500
    a060:	d14d40        	mul16s	a4, a13, a4
    a063:	d1e9e0        	mul16s	a14, a9, a14
    a066:	d199f0        	mul16s	a9, a9, a15
    a069:	d1ddf0        	mul16s	a13, a13, a15
    a06c:	40d442        	addmi	a4, a4, 0x4000
    a06f:	40d992        	addmi	a9, a9, 0x4000
    a072:	214f40        	srai	a4, a4, 15
    a075:	219f90        	srai	a9, a9, 15
    a078:	40ddd2        	addmi	a13, a13, 0x4000
    a07b:	40de52        	addmi	a5, a14, 0x4000
    a07e:	a44d           	ae_clamps16	a4, a4
    a080:	a99d           	ae_clamps16	a9, a9
    a082:	132162        	l32i	a6, a1, 76
    a085:	449a           	add.n	a4, a4, a9
    a087:	219f50        	srai	a9, a5, 15
    a08a:	21dfd0        	srai	a13, a13, 15
    a08d:	a99d           	ae_clamps16	a9, a9
    a08f:	addd           	ae_clamps16	a13, a13
    a091:	99da           	add.n	a9, a9, a13
    a093:	0a5692        	s16i	a9, a6, 20
    a096:	66bd           	ae_s16i.n	a11, a6, 0
    a098:	0856c2        	s16i	a12, a6, 16
    a09b:	045682        	s16i	a8, a6, 8
    a09e:	0c5672        	s16i	a7, a6, 24
    a0a1:	7178           	l32i.n	a7, a1, 28
    a0a3:	6188           	l32i.n	a8, a1, 24
    a0a5:	5198           	l32i.n	a9, a1, 20
    a0a7:	a1b8           	l32i.n	a11, a1, 40
    a0a9:	91c8           	l32i.n	a12, a1, 36
    a0ab:	31e8           	l32i.n	a14, a1, 12
    a0ad:	41f8           	l32i.n	a15, a1, 16
    a0af:	065642        	s16i	a4, a6, 12
    a0b2:	025622        	s16i	a2, a6, 4
    a0b5:	0e5632        	s16i	a3, a6, 28
    a0b8:	0b5672        	s16i	a7, a6, 22
    a0bb:	055682        	s16i	a8, a6, 10
    a0be:	035692        	s16i	a9, a6, 6
    a0c1:	0d56a2        	s16i	a10, a6, 26
    a0c4:	0756b2        	s16i	a11, a6, 14
    a0c7:	0956c2        	s16i	a12, a6, 18
    a0ca:	76ed           	ae_s16i.n	a14, a6, 2
    a0cc:	0f56f2        	s16i	a15, a6, 30
    a0cf:	f01d           	retw.n

0000a0d1 <dct16_fx+0x475>:
    a0d1:	000000                                        ...

0000a0d4 <idct16_fx>:
    a0d4:	00c136        	entry	a1, 96
    a0d7:	fca0a2        	movi	a10, 252
    a0da:	f139           	s32i.n	a3, a1, 60
    a0dc:	22da32        	addmi	a3, a10, 0x2200
    a0df:	0d92d2        	l16si	a13, a2, 26
    a0e2:	0392a2        	l16si	a10, a2, 6
    a0e5:	eb4c           	movi.n	a11, 78
    a0e7:	9fabe2        	movi	a14, 0xfffffb9f
    a0ea:	90eee0        	addx2	a14, a14, a14
    a0ed:	2bdbb2        	addmi	a11, a11, 0x2b00
    a0f0:	d1eae0        	mul16s	a14, a10, a14
    a0f3:	d1aab0        	mul16s	a10, a10, a11
    a0f6:	d1bdb0        	mul16s	a11, a13, a11
    a0f9:	40dee2        	addmi	a14, a14, 0x4000
    a0fc:	40dbb2        	addmi	a11, a11, 0x4000
    a0ff:	21bfb0        	srai	a11, a11, 15
    a102:	21efe0        	srai	a14, a14, 15
    a105:	0592c2        	l16si	a12, a2, 10
    a108:	0b9272        	l16si	a7, a2, 22
    a10b:	abbd           	ae_clamps16	a11, a11
    a10d:	aeed           	ae_clamps16	a14, a14
    a10f:	5f5c           	movi.n	a15, 85
    a111:	40daa2        	addmi	a10, a10, 0x4000
    a114:	beba           	add.n	a11, a14, a11
    a116:	7e1c           	movi.n	a14, 23
    a118:	21afa0        	srai	a10, a10, 15
    a11b:	81b9           	s32i.n	a11, a1, 32
    a11d:	d8deb2        	addmi	a11, a14, 0xffffd800
    a120:	0f9292        	l16si	a9, a2, 30
    a123:	15dff2        	addmi	a15, a15, 0x1500
    a126:	d1b7b0        	mul16s	a11, a7, a11
    a129:	d177f0        	mul16s	a7, a7, a15
    a12c:	d1fcf0        	mul16s	a15, a12, a15
    a12f:	aa4d           	ae_clamps16	a4, a10
    a131:	91a9a2        	movi	a10, 0xfffff991
    a134:	f0eaa0        	subx8	a14, a10, a10
    a137:	d1e9e0        	mul16s	a14, a9, a14
    a13a:	40dff2        	addmi	a15, a15, 0x4000
    a13d:	40dbb2        	addmi	a11, a11, 0x4000
    a140:	21bfb0        	srai	a11, a11, 15
    a143:	21fff0        	srai	a15, a15, 15
    a146:	40d772        	addmi	a7, a7, 0x4000
    a149:	40dee2        	addmi	a14, a14, 0x4000
    a14c:	affd           	ae_clamps16	a15, a15
    a14e:	abbd           	ae_clamps16	a11, a11
    a150:	217f70        	srai	a7, a7, 15
    a153:	bbfa           	add.n	a11, a11, a15
    a155:	099252        	l16si	a5, a2, 18
    a158:	079262        	l16si	a6, a2, 14
    a15b:	21efe0        	srai	a14, a14, 15
    a15e:	42aaf2        	movi	a15, 0xfffffa42
    a161:	a7ad           	ae_clamps16	a10, a7
    a163:	ae7d           	ae_clamps16	a7, a14
    a165:	a0eff0        	addx4	a14, a15, a15
    a168:	bea5f2        	movi	a15, 0x5be
    a16b:	a0fff0        	addx4	a15, a15, a15
    a16e:	d1e6e0        	mul16s	a14, a6, a14
    a171:	d1f5f0        	mul16s	a15, a5, a15
    a174:	d16630        	mul16s	a6, a6, a3
    a177:	40dff2        	addmi	a15, a15, 0x4000
    a17a:	40d662        	addmi	a6, a6, 0x4000
    a17d:	40dee2        	addmi	a14, a14, 0x4000
    a180:	21fff0        	srai	a15, a15, 15
    a183:	216f60        	srai	a6, a6, 15
    a186:	21efe0        	srai	a14, a14, 15
    a189:	a66d           	ae_clamps16	a6, a6
    a18b:	affd           	ae_clamps16	a15, a15
    a18d:	d15530        	mul16s	a5, a5, a3
    a190:	66fa           	add.n	a6, a6, a15
    a192:	ae3d           	ae_clamps16	a3, a14
    a194:	6fa6e2        	movi	a14, 0x66f
    a197:	61a4f2        	movi	a15, 0x461
    a19a:	7169           	s32i.n	a6, a1, 28
    a19c:	f06ee0        	subx8	a6, a14, a14
    a19f:	90eff0        	addx2	a14, a15, a15
    a1a2:	d1dde0        	mul16s	a13, a13, a14
    a1a5:	40d552        	addmi	a5, a5, 0x4000
    a1a8:	40ddd2        	addmi	a13, a13, 0x4000
    a1ab:	21dfd0        	srai	a13, a13, 15
    a1ae:	328d           	ae_l16si.n	a8, a2, 2
    a1b0:	addd           	ae_clamps16	a13, a13
    a1b2:	215f50        	srai	a5, a5, 15
    a1b5:	44da           	add.n	a4, a4, a13
    a1b7:	a55d           	ae_clamps16	a5, a5
    a1b9:	6149           	s32i.n	a4, a1, 24
    a1bb:	70a442        	movi	a4, 0x470
    a1be:	d16860        	mul16s	a6, a8, a6
    a1c1:	535a           	add.n	a5, a3, a5
    a1c3:	d18840        	mul16s	a8, a8, a4
    a1c6:	e9a032        	movi	a3, 233
    a1c9:	27d3d2        	addmi	a13, a3, 0x2700
    a1cc:	d1ccd0        	mul16s	a12, a12, a13
    a1cf:	40d882        	addmi	a8, a8, 0x4000
    a1d2:	218f80        	srai	a8, a8, 15
    a1d5:	40dcc2        	addmi	a12, a12, 0x4000
    a1d8:	4159           	s32i.n	a5, a1, 16
    a1da:	a85d           	ae_clamps16	a5, a8
    a1dc:	875a           	add.n	a8, a7, a5
    a1de:	21cfc0        	srai	a12, a12, 15
    a1e1:	069252        	l16si	a5, a2, 12
    a1e4:	d19940        	mul16s	a9, a9, a4
    a1e7:	ac3d           	ae_clamps16	a3, a12
    a1e9:	a1a072        	movi	a7, 161
    a1ec:	4a3a           	add.n	a4, a10, a3
    a1ee:	25d732        	addmi	a3, a7, 0x2500
    a1f1:	40d662        	addmi	a6, a6, 0x4000
    a1f4:	40d992        	addmi	a9, a9, 0x4000
    a1f7:	d1d530        	mul16s	a13, a5, a3
    a1fa:	216f60        	srai	a6, a6, 15
    a1fd:	219f90        	srai	a9, a9, 15
    a200:	40ddd2        	addmi	a13, a13, 0x4000
    a203:	0a92f2        	l16si	a15, a2, 20
    a206:	a66d           	ae_clamps16	a6, a6
    a208:	a99d           	ae_clamps16	a9, a9
    a20a:	696a           	add.n	a6, a9, a6
    a20c:	0292e2        	l16si	a14, a2, 4
    a20f:	0e92c2        	l16si	a12, a2, 28
    a212:	b7a992        	movi	a9, 0xfffff9b7
    a215:	21dfd0        	srai	a13, a13, 15
    a218:	5149           	s32i.n	a4, a1, 20
    a21a:	1149e0        	slli	a4, a9, 2
    a21d:	35a2a2        	movi	a10, 0x235
    a220:	ad9d           	ae_clamps16	a9, a13
    a222:	63a0d2        	movi	a13, 99
    a225:	d14540        	mul16s	a4, a5, a4
    a228:	d13f30        	mul16s	a3, a15, a3
    a22b:	2cdd52        	addmi	a5, a13, 0x2c00
    a22e:	117ae0        	slli	a7, a10, 2
    a231:	d15e50        	mul16s	a5, a14, a5
    a234:	d1ee70        	mul16s	a14, a14, a7
    a237:	d17c70        	mul16s	a7, a12, a7
    a23a:	40d442        	addmi	a4, a4, 0x4000
    a23d:	40d332        	addmi	a3, a3, 0x4000
    a240:	213f30        	srai	a3, a3, 15
    a243:	214f40        	srai	a4, a4, 15
    a246:	40d552        	addmi	a5, a5, 0x4000
    a249:	40d772        	addmi	a7, a7, 0x4000
    a24c:	217f70        	srai	a7, a7, 15
    a24f:	215f50        	srai	a5, a5, 15
    a252:	a33d           	ae_clamps16	a3, a3
    a254:	a44d           	ae_clamps16	a4, a4
    a256:	49a6a2        	movi	a10, 0x649
    a259:	343a           	add.n	a3, a4, a3
    a25b:	114ae0        	slli	a4, a10, 2
    a25e:	a77d           	ae_clamps16	a7, a7
    a260:	a55d           	ae_clamps16	a5, a5
    a262:	d14f40        	mul16s	a4, a15, a4
    a265:	f75a           	add.n	a15, a7, a5
    a267:	9da072        	movi	a7, 157
    a26a:	d3d752        	addmi	a5, a7, 0xffffd300
    a26d:	d15c50        	mul16s	a5, a12, a5
    a270:	40d442        	addmi	a4, a4, 0x4000
    a273:	40dee2        	addmi	a14, a14, 0x4000
    a276:	214f40        	srai	a4, a4, 15
    a279:	40d552        	addmi	a5, a5, 0x4000
    a27c:	81a8           	l32i.n	a10, a1, 32
    a27e:	215f50        	srai	a5, a5, 15
    a281:	a44d           	ae_clamps16	a4, a4
    a283:	21efe0        	srai	a14, a14, 15
    a286:	d94a           	add.n	a13, a9, a4
    a288:	ae4d           	ae_clamps16	a4, a14
    a28a:	a55d           	ae_clamps16	a5, a5
    a28c:	3139           	s32i.n	a3, a1, 12
    a28e:	3aba           	add.n	a3, a10, a11
    a290:	c0cab0        	sub	a12, a10, a11
    a293:	a54a           	add.n	a10, a5, a4
    a295:	4158           	l32i.n	a5, a1, 16
    a297:	8139           	s32i.n	a3, a1, 32
    a299:	bea092        	movi	a9, 190
    a29c:	358a           	add.n	a3, a5, a8
    a29e:	c07850        	sub	a7, a8, a5
    a2a1:	7188           	l32i.n	a8, a1, 28
    a2a3:	89d9e2        	addmi	a14, a9, 0xffff8900
    a2a6:	e139           	s32i.n	a3, a1, 56
    a2a8:	c09680        	sub	a9, a6, a8
    a2ab:	386a           	add.n	a3, a8, a6
    a2ad:	fca042        	movi	a4, 252
    a2b0:	264c           	movi.n	a6, 66
    a2b2:	8cbd           	ae_sext16	a11, a12
    a2b4:	30d4c2        	addmi	a12, a4, 0x3000
    a2b7:	874d           	ae_sext16	a4, a7
    a2b9:	895d           	ae_sext16	a5, a9
    a2bb:	76d672        	addmi	a7, a6, 0x7600
    a2be:	d17570        	mul16s	a7, a5, a7
    a2c1:	d155c0        	mul16s	a5, a5, a12
    a2c4:	a139           	s32i.n	a3, a1, 40
    a2c6:	6188           	l32i.n	a8, a1, 24
    a2c8:	5138           	l32i.n	a3, a1, 20
    a2ca:	40d552        	addmi	a5, a5, 0x4000
    a2cd:	215f50        	srai	a5, a5, 15
    a2d0:	683a           	add.n	a6, a8, a3
    a2d2:	c09830        	sub	a9, a8, a3
    a2d5:	9169           	s32i.n	a6, a1, 36
    a2d7:	a56d           	ae_clamps16	a6, a5
    a2d9:	450c           	movi.n	a5, 4
    a2db:	cfd582        	addmi	a8, a5, 0xffffcf00
    a2de:	893d           	ae_sext16	a3, a9
    a2e0:	d18b80        	mul16s	a8, a11, a8
    a2e3:	d194e0        	mul16s	a9, a4, a14
    a2e6:	d144c0        	mul16s	a4, a4, a12
    a2e9:	d1c3c0        	mul16s	a12, a3, a12
    a2ec:	d133e0        	mul16s	a3, a3, a14
    a2ef:	d1bbe0        	mul16s	a11, a11, a14
    a2f2:	40d332        	addmi	a3, a3, 0x4000
    a2f5:	40d882        	addmi	a8, a8, 0x4000
    a2f8:	40d772        	addmi	a7, a7, 0x4000
    a2fb:	40dbb2        	addmi	a11, a11, 0x4000
    a2fe:	40d952        	addmi	a5, a9, 0x4000
    a301:	40dcc2        	addmi	a12, a12, 0x4000
    a304:	40d442        	addmi	a4, a4, 0x4000
    a307:	218f80        	srai	a8, a8, 15
    a30a:	213f30        	srai	a3, a3, 15
    a30d:	217f70        	srai	a7, a7, 15
    a310:	214f40        	srai	a4, a4, 15
    a313:	21bfb0        	srai	a11, a11, 15
    a316:	215f50        	srai	a5, a5, 15
    a319:	21cfc0        	srai	a12, a12, 15
    a31c:	a88d           	ae_clamps16	a8, a8
    a31e:	a33d           	ae_clamps16	a3, a3
    a320:	938a           	add.n	a9, a3, a8
    a322:	a55d           	ae_clamps16	a5, a5
    a324:	ac8d           	ae_clamps16	a8, a12
    a326:	a77d           	ae_clamps16	a7, a7
    a328:	a44d           	ae_clamps16	a4, a4
    a32a:	abbd           	ae_clamps16	a11, a11
    a32c:	565a           	add.n	a5, a6, a5
    a32e:	6b8a           	add.n	a6, a11, a8
    a330:	747a           	add.n	a7, a4, a7
    a332:	049282        	l16si	a8, a2, 8
    a335:	0c9242        	l16si	a4, a2, 24
    a338:	1c5c           	movi.n	a12, 81
    a33a:	07aae2        	movi	a14, 0xfffffa07
    a33d:	11dcb2        	addmi	a11, a12, 0x1100
    a340:	f0cee0        	subx8	a12, a14, a14
    a343:	d1c4c0        	mul16s	a12, a4, a12
    a346:	d144b0        	mul16s	a4, a4, a11
    a349:	22ed           	ae_l16si.n	a14, a2, 0
    a34b:	d1b8b0        	mul16s	a11, a8, a11
    a34e:	40dcc2        	addmi	a12, a12, 0x4000
    a351:	40dbb2        	addmi	a11, a11, 0x4000
    a354:	089232        	l16si	a3, a2, 16
    a357:	ee2b           	addi.n	a14, a14, 2
    a359:	21cfc0        	srai	a12, a12, 15
    a35c:	21bfb0        	srai	a11, a11, 15
    a35f:	11ee30        	slli	a14, a14, 13
    a362:	40d442        	addmi	a4, a4, 0x4000
    a365:	abbd           	ae_clamps16	a11, a11
    a367:	accd           	ae_clamps16	a12, a12
    a369:	ccba           	add.n	a12, a12, a11
    a36b:	214f40        	srai	a4, a4, 15
    a36e:	21efe0        	srai	a14, a14, 15
    a371:	112330        	slli	a2, a3, 13
    a374:	71c9           	s32i.n	a12, a1, 28
    a376:	aecd           	ae_clamps16	a12, a14
    a378:	a4ed           	ae_clamps16	a14, a4
    a37a:	f9a542        	movi	a4, 0x5f9
    a37d:	3138           	l32i.n	a3, a1, 12
    a37f:	f0b440        	subx8	a11, a4, a4
    a382:	d188b0        	mul16s	a8, a8, a11
    a385:	c0ba30        	sub	a11, a10, a3
    a388:	43aa           	add.n	a4, a3, a10
    a38a:	8b3d           	ae_sext16	a3, a11
    a38c:	40d882        	addmi	a8, a8, 0x4000
    a38f:	6139           	s32i.n	a3, a1, 24
    a391:	213f80        	srai	a3, a8, 15
    a394:	a33d           	ae_clamps16	a3, a3
    a396:	3e3a           	add.n	a3, a14, a3
    a398:	c0bfd0        	sub	a11, a15, a13
    a39b:	edfa           	add.n	a14, a13, a15
    a39d:	1f0c           	movi.n	a15, 1
    a39f:	118f20        	slli	a8, a15, 14
    a3a2:	c08820        	sub	a8, a8, a2
    a3a5:	40d222        	addmi	a2, a2, 0x4000
    a3a8:	218f80        	srai	a8, a8, 15
    a3ab:	7ea0a2        	movi	a10, 126
    a3ae:	82a0d2        	movi	a13, 130
    a3b1:	212f20        	srai	a2, a2, 15
    a3b4:	4149           	s32i.n	a4, a1, 16
    a3b6:	b139           	s32i.n	a3, a1, 44
    a3b8:	a5da42        	addmi	a4, a10, 0xffffa500
    a3bb:	5adda2        	addmi	a10, a13, 0x5a00
    a3be:	8b3d           	ae_sext16	a3, a11
    a3c0:	a88d           	ae_clamps16	a8, a8
    a3c2:	d133a0        	mul16s	a3, a3, a10
    a3c5:	b8ca           	add.n	a11, a8, a12
    a3c7:	a22d           	ae_clamps16	a2, a2
    a3c9:	c08760        	sub	a8, a7, a6
    a3cc:	f2ca           	add.n	a15, a2, a12
    a3ce:	882d           	ae_sext16	a2, a8
    a3d0:	c0d590        	sub	a13, a5, a9
    a3d3:	595a           	add.n	a5, a9, a5
    a3d5:	40d332        	addmi	a3, a3, 0x4000
    a3d8:	d122a0        	mul16s	a2, a2, a10
    a3db:	5159           	s32i.n	a5, a1, 20
    a3dd:	8d5d           	ae_sext16	a5, a13
    a3df:	967a           	add.n	a9, a6, a7
    a3e1:	213f30        	srai	a3, a3, 15
    a3e4:	d1b9           	s32i.n	a11, a1, 52
    a3e6:	d1b540        	mul16s	a11, a5, a4
    a3e9:	04dd           	mov.n	a13, a4
    a3eb:	a148           	l32i.n	a4, a1, 40
    a3ed:	9168           	l32i.n	a6, a1, 36
    a3ef:	a3cd           	ae_clamps16	a12, a3
    a3f1:	40d222        	addmi	a2, a2, 0x4000
    a3f4:	c1c9           	s32i.n	a12, a1, 48
    a3f6:	0acd           	mov.n	a12, a10
    a3f8:	212f20        	srai	a2, a2, 15
    a3fb:	d155a0        	mul16s	a5, a5, a10
    a3fe:	a27d           	ae_clamps16	a7, a2
    a400:	c02460        	sub	a2, a4, a6
    a403:	a64a           	add.n	a10, a6, a4
    a405:	8138           	l32i.n	a3, a1, 32
    a407:	e148           	l32i.n	a4, a1, 56
    a409:	40d552        	addmi	a5, a5, 0x4000
    a40c:	215f50        	srai	a5, a5, 15
    a40f:	3199           	s32i.n	a9, a1, 12
    a411:	40db82        	addmi	a8, a11, 0x4000
    a414:	c09430        	sub	a9, a4, a3
    a417:	216f80        	srai	a6, a8, 15
    a41a:	822d           	ae_sext16	a2, a2
    a41c:	a55d           	ae_clamps16	a5, a5
    a41e:	898d           	ae_sext16	a8, a9
    a420:	d122c0        	mul16s	a2, a2, a12
    a423:	b57a           	add.n	a11, a5, a7
    a425:	d158d0        	mul16s	a5, a8, a13
    a428:	d188c0        	mul16s	a8, a8, a12
    a42b:	40d222        	addmi	a2, a2, 0x4000
    a42e:	40d882        	addmi	a8, a8, 0x4000
    a431:	218f80        	srai	a8, a8, 15
    a434:	212f20        	srai	a2, a2, 15
    a437:	a88d           	ae_clamps16	a8, a8
    a439:	a22d           	ae_clamps16	a2, a2
    a43b:	40d592        	addmi	a9, a5, 0x4000
    a43e:	582a           	add.n	a5, a8, a2
    a440:	834a           	add.n	a8, a3, a4
    a442:	b148           	l32i.n	a4, a1, 44
    a444:	a66d           	ae_clamps16	a6, a6
    a446:	676a           	add.n	a6, a7, a6
    a448:	217f90        	srai	a7, a9, 15
    a44b:	a77d           	ae_clamps16	a7, a7
    a44d:	94fa           	add.n	a9, a4, a15
    a44f:	727a           	add.n	a7, a2, a7
    a451:	c029e0        	sub	a2, a9, a14
    a454:	328a           	add.n	a3, a2, a8
    a456:	c02280        	sub	a2, a2, a8
    a459:	f188           	l32i.n	a8, a1, 60
    a45b:	075832        	s16i	a3, a8, 14
    a45e:	39ea           	add.n	a3, a9, a14
    a460:	41e8           	l32i.n	a14, a1, 16
    a462:	085822        	s16i	a2, a8, 16
    a465:	93aa           	add.n	a9, a3, a10
    a467:	c023a0        	sub	a2, a3, a10
    a46a:	c0af40        	sub	a10, a15, a4
    a46d:	0f5822        	s16i	a2, a8, 30
    a470:	faea           	add.n	a15, a10, a14
    a472:	c02ae0        	sub	a2, a10, a14
    a475:	61e8           	l32i.n	a14, a1, 24
    a477:	689d           	ae_s16i.n	a9, a8, 0
    a479:	9f5a           	add.n	a9, a15, a5
    a47b:	c03f50        	sub	a3, a15, a5
    a47e:	d1fed0        	mul16s	a15, a14, a13
    a481:	d15ec0        	mul16s	a5, a14, a12
    a484:	427a           	add.n	a4, a2, a7
    a486:	c02270        	sub	a2, a2, a7
    a489:	40df72        	addmi	a7, a15, 0x4000
    a48c:	c1c8           	l32i.n	a12, a1, 48
    a48e:	71d8           	l32i.n	a13, a1, 28
    a490:	d1e8           	l32i.n	a14, a1, 52
    a492:	217f70        	srai	a7, a7, 15
    a495:	40d5a2        	addmi	a10, a5, 0x4000
    a498:	a77d           	ae_clamps16	a7, a7
    a49a:	0b5822        	s16i	a2, a8, 22
    a49d:	212fa0        	srai	a2, a10, 15
    a4a0:	0c5832        	s16i	a3, a8, 24
    a4a3:	3c7a           	add.n	a3, a12, a7
    a4a5:	c0fed0        	sub	a15, a14, a13
    a4a8:	a22d           	ae_clamps16	a2, a2
    a4aa:	c07f30        	sub	a7, a15, a3
    a4ad:	33fa           	add.n	a3, a3, a15
    a4af:	5dea           	add.n	a5, a13, a14
    a4b1:	31d8           	l32i.n	a13, a1, 12
    a4b3:	51f8           	l32i.n	a15, a1, 20
    a4b5:	22ca           	add.n	a2, a2, a12
    a4b7:	c25a           	add.n	a12, a2, a5
    a4b9:	c02520        	sub	a2, a5, a2
    a4bc:	a67a           	add.n	a10, a6, a7
    a4be:	c06760        	sub	a6, a7, a6
    a4c1:	52fa           	add.n	a5, a2, a15
    a4c3:	045842        	s16i	a4, a8, 8
    a4c6:	4b3a           	add.n	a4, a11, a3
    a4c8:	c033b0        	sub	a3, a3, a11
    a4cb:	ecda           	add.n	a14, a12, a13
    a4cd:	c07cd0        	sub	a7, a12, a13
    a4d0:	c022f0        	sub	a2, a2, a15
    a4d3:	035892        	s16i	a9, a8, 6
    a4d6:	065852        	s16i	a5, a8, 12
    a4d9:	095822        	s16i	a2, a8, 18
    a4dc:	78ed           	ae_s16i.n	a14, a8, 2
    a4de:	0e5872        	s16i	a7, a8, 28
    a4e1:	0558a2        	s16i	a10, a8, 10
    a4e4:	0a5862        	s16i	a6, a8, 20
    a4e7:	025842        	s16i	a4, a8, 4
    a4ea:	0d5832        	s16i	a3, a8, 26
    a4ed:	f01d           	retw.n

0000a4ef <idct16_fx+0x41b>:
	...

0000a4f0 <processMdctShaping_fx>:
    a4f0:	004136        	entry	a1, 32
    a4f3:	3516a6        	blti	a6, 1, a52c <processMdctShaping_fx+0x3c>
    a4f6:	fcc272        	addi	a7, a2, -4
    a4f9:	408304        	ae_lp16f.iu	aep0, a3, 0
    a4fc:	601204        	ae_lq32f.iu	aeq0, a2, 0
    a4ff:	552b           	addi.n	a5, a5, 2
    a501:	090c           	movi.n	a9, 0

0000a503 <processMdctShaping_fx+0x13>:
    a503:	258d           	ae_l16si.n	a8, a5, 0
    a505:	17a987        	bge	a9, a8, a520 <processMdctShaping_fx+0x30>
    a508:	24ad           	ae_l16si.n	a10, a4, 0
    a50a:	c09890        	sub	a9, a8, a9
    a50d:	0d8976        	loop	a9, a51e <processMdctShaping_fx+0x2e>
    a510:	030214        	ae_mulfq32sp16s.l	aeq0, aeq0, aep0
    a513:	fc24fe8a4f 	{ ae_slaasq56s	aeq1, aeq0, a10; nop }
    a518:	601214        	ae_lq32f.iu	aeq0, a2, 4
    a51b:	625714        	ae_sq32f.iu	aeq1, a7, 4

0000a51e <processMdctShaping_fx+0x2e>:
    a51e:	089d           	mov.n	a9, a8

0000a520 <processMdctShaping_fx+0x30>:
    a520:	660b           	addi.n	a6, a6, -1
    a522:	442b           	addi.n	a4, a4, 2
    a524:	408314        	ae_lp16f.iu	aep0, a3, 2
    a527:	552b           	addi.n	a5, a5, 2
    a529:	fd6656        	bnez	a6, a503 <processMdctShaping_fx+0x13>
    a52c:	f01d           	retw.n

0000a52e <processMdctShaping_fx+0x3e>:
	...

0000a530 <processScfScaling>:
    a530:	004136        	entry	a1, 32
    a533:	426d           	ae_l16ui.n	a6, a2, 0
    a535:	830b           	addi.n	a8, a3, -1
    a537:	722b           	addi.n	a7, a2, 2
    a539:	065d           	mov.n	a5, a6
    a53b:	0e23a6        	blti	a3, 2, a54d <processScfScaling+0x1d>
    a53e:	205660        	or	a5, a6, a6
    a541:	088876        	loop	a8, a54d <processScfScaling+0x1d>
    a544:	278d           	ae_l16si.n	a8, a7, 0
    a546:	855d           	ae_sext16	a5, a5
    a548:	772b           	addi.n	a7, a7, 2
    a54a:	535580        	max	a5, a5, a8

0000a54d <processScfScaling+0x1d>:
    a54d:	1813a6        	blti	a3, 1, a569 <processScfScaling+0x39>
    a550:	c06650        	sub	a6, a6, a5
    a553:	626d           	ae_s16i.n	a6, a2, 0
    a555:	101326        	beqi	a3, 1, a569 <processScfScaling+0x39>
    a558:	330b           	addi.n	a3, a3, -1
    a55a:	02c222        	addi	a2, a2, 2
    a55d:	088376        	loop	a3, a569 <processScfScaling+0x39>
    a560:	223d           	ae_l16si.n	a3, a2, 0
    a562:	c03350        	sub	a3, a3, a5
    a565:	623d           	ae_s16i.n	a3, a2, 0
    a567:	222b           	addi.n	a2, a2, 2
    a569:	242d           	ae_l16si.n	a2, a4, 0
    a56b:	225a           	add.n	a2, a2, a5
    a56d:	642d           	ae_s16i.n	a2, a4, 0
    a56f:	f01d           	retw.n

0000a571 <processScfScaling+0x41>:
    a571:	000000                                        ...

0000a574 <cplxMpy_32_16>:
    a574:	004136        	entry	a1, 32
    a577:	828750        	mull	a8, a7, a5
    a57a:	829640        	mull	a9, a6, a4
    a57d:	82c740        	mull	a12, a7, a4
    a580:	82f650        	mull	a15, a6, a5
    a583:	b2a640        	mulsh	a10, a6, a4
    a586:	b2b750        	mulsh	a11, a7, a5
    a589:	b24740        	mulsh	a4, a7, a4
    a58c:	b26650        	mulsh	a6, a6, a5
    a58f:	41df90        	srli	a13, a9, 15
    a592:	418f80        	srli	a8, a8, 15
    a595:	41efc0        	srli	a14, a12, 15
    a598:	417ff0        	srli	a7, a15, 15
    a59b:	1bead0        	depbits	a13, a10, 17, 15
    a59e:	1beb80        	depbits	a8, a11, 17, 15
    a5a1:	1be4e0        	depbits	a14, a4, 17, 15
    a5a4:	1be670        	depbits	a7, a6, 17, 15
    a5a7:	c0fd80        	sub	a15, a13, a8
    a5aa:	5e7a           	add.n	a5, a14, a7
    a5ac:	02f9           	s32i.n	a15, a2, 0
    a5ae:	0359           	s32i.n	a5, a3, 0
    a5b0:	f01d           	retw.n

0000a5b2 <cplxMpy_32_16+0x3e>:
	...

0000a5b4 <processResidualDecoding_fx>:
    a5b4:	004136        	entry	a1, 32
    a5b7:	330b           	addi.n	a3, a3, -1
    a5b9:	f81c           	movi.n	a8, 31
    a5bb:	833d           	ae_sext16	a3, a3
    a5bd:	439380        	min	a9, a3, a8
    a5c0:	3a0c           	movi.n	a10, 3
    a5c2:	60b090        	neg	a11, a9
    a5c5:	01aa60        	slli	a10, a10, 26
    a5c8:	401b00        	ssl	a11
    a5cb:	570c           	movi.n	a7, 5
    a5cd:	a18a00        	sll	a8, a10
    a5d0:	400900        	ssr	a9
    a5d3:	9130a0        	srl	a3, a10
    a5d6:	017760        	slli	a7, a7, 26
    a5d9:	401b00        	ssl	a11
    a5dc:	a1a700        	sll	a10, a7
    a5df:	400900        	ssr	a9
    a5e2:	5114a6        	blti	a4, 1, a637 <processResidualDecoding_fx+0x83>
    a5e5:	60b060        	neg	a11, a6
    a5e8:	8bbd           	ae_sext16	a11, a11
    a5ea:	049bd6        	bgez	a11, a637 <processResidualDecoding_fx+0x83>
    a5ed:	917070        	srl	a7, a7
    a5f0:	a33890        	movltz	a3, a8, a9
    a5f3:	a37a90        	movltz	a7, a10, a9
    a5f6:	080c           	movi.n	a8, 0
    a5f8:	090c           	movi.n	a9, 0
    a5fa:	000546        	j	a613 <processResidualDecoding_fx+0x5f>

0000a5fd <processResidualDecoding_fx+0x49>:
    a5fd:	c0aa70        	sub	a10, a10, a7
    a600:	881b           	addi.n	a8, a8, 1
    a602:	02a9           	s32i.n	a10, a2, 0
    a604:	991b           	addi.n	a9, a9, 1
    a606:	2da947        	bge	a9, a4, a637 <processResidualDecoding_fx+0x83>
    a609:	c0a860        	sub	a10, a8, a6
    a60c:	8aad           	ae_sext16	a10, a10
    a60e:	224b           	addi.n	a2, a2, 4
    a610:	023ad6        	bgez	a10, a637 <processResidualDecoding_fx+0x83>
    a613:	02a8           	l32i.n	a10, a2, 0
    a615:	88bd           	ae_sext16	a11, a8
    a617:	90bb50        	addx2	a11, a11, a5
    a61a:	fe6a16        	beqz	a10, a604 <processResidualDecoding_fx+0x50>
    a61d:	4bbd           	ae_l16ui.n	a11, a11, 0
    a61f:	6b8c           	beqz.n	a11, a629 <processResidualDecoding_fx+0x75>
    a621:	0d1aa6        	blti	a10, 1, a632 <processResidualDecoding_fx+0x7e>
    a624:	aa7a           	add.n	a10, a10, a7
    a626:	fff586        	j	a600 <processResidualDecoding_fx+0x4c>

0000a629 <processResidualDecoding_fx+0x75>:
    a629:	d01aa6        	blti	a10, 1, a5fd <processResidualDecoding_fx+0x49>
    a62c:	c0aa30        	sub	a10, a10, a3
    a62f:	fff346        	j	a600 <processResidualDecoding_fx+0x4c>

0000a632 <processResidualDecoding_fx+0x7e>:
    a632:	aa3a           	add.n	a10, a10, a3
    a634:	fff206        	j	a600 <processResidualDecoding_fx+0x4c>

0000a637 <processResidualDecoding_fx+0x83>:
    a637:	f01d           	retw.n

0000a639 <processResidualDecoding_fx+0x85>:
    a639:	000000                                        ...

0000a63c <processPLCUpdateAfterIMDCT_fx>:
    a63c:	004136        	entry	a1, 32
    a63f:	a128           	l32i.n	a2, a1, 40
    a641:	9138           	l32i.n	a3, a1, 36
    a643:	8148           	l32i.n	a4, a1, 32
    a645:	0d1226        	beqi	a2, 1, a656 <processPLCUpdateAfterIMDCT_fx+0x1a>
    a648:	c158           	l32i.n	a5, a1, 48
    a64a:	ffa082        	movi	a8, 255
    a64d:	060c           	movi.n	a6, 0
    a64f:	7fd882        	addmi	a8, a8, 0x7f00
    a652:	676d           	ae_s16i.n	a6, a7, 0
    a654:	658d           	ae_s16i.n	a8, a5, 0

0000a656 <processPLCUpdateAfterIMDCT_fx+0x1a>:
    a656:	235d           	ae_l16si.n	a5, a3, 0
    a658:	645d           	ae_s16i.n	a5, a4, 0
    a65a:	632d           	ae_s16i.n	a2, a3, 0
    a65c:	f01d           	retw.n

0000a65e <processPLCUpdateAfterIMDCT_fx+0x22>:
	...

0000a660 <processResidualCoding_fx>:
    a660:	004136        	entry	a1, 32
    a663:	fc20f0b18e 	{ l32i	a8, a1, 44; ae_zerop48	aep1 }
    a668:	5417a6        	blti	a7, 1, a6c0 <processResidualCoding_fx+0x60>
    a66b:	91b8           	l32i.n	a11, a1, 36
    a66d:	8198           	l32i.n	a9, a1, 32
    a66f:	c0c620        	sub	a12, a6, a2
    a672:	a1a8           	l32i.n	a10, a1, 40
    a674:	c0b9b0        	sub	a11, a9, a11
    a677:	bb3b           	addi.n	a11, a11, 3
    a679:	fcfb           	addi.n	a15, a12, 15
    a67b:	300554        	ae_cvtp24a16x2.ll	aep0, a5, a5
    a67e:	40a404        	ae_lp16f.iu	aep2, a4, 0
    a681:	d22800002f 	{ movi	a2, 0; ae_eqp24	b0:b1, aep2, aep1 }
    a686:	160c           	movi.n	a6, 1
    a688:	050c           	movi.n	a5, 0
    a68a:	8f9d           	ae_sext16	a9, a15
    a68c:	9bbd           	ae_zext16	a11, a11
    a68e:	2a8776        	loop	a7, a6bc <processResidualCoding_fx+0x5c>
    a691:	1f1076        	bt	b0, a6b4 <processResidualCoding_fx+0x54>
    a694:	ea09bbb32f 	{ ae_lq32f.x	aeq1, a3, a2; ae_mulfp24s.ll	aeq0, aep2, aep0 }
    a699:	85cd           	ae_sext16	a12, a5
    a69b:	fc24fe890f 	{ ae_slaasq56s	aeq0, aeq0, a9; nop }
    a6a0:	d5480000df 	{ movi	a13, 0; ae_leq56s	b0, aeq0, aeq1 }
    a6a5:	957d           	ae_zext16	a7, a5
    a6a7:	caca           	add.n	a12, a10, a12
    a6a9:	d3d600        	movt	a13, a6, b0
    a6ac:	551b           	addi.n	a5, a5, 1
    a6ae:	004cd2        	s8i	a13, a12, 0
    a6b1:	0717b7        	beq	a7, a11, a6bc <processResidualCoding_fx+0x5c>

0000a6b4 <processResidualCoding_fx+0x54>:
    a6b4:	40a414        	ae_lp16f.iu	aep2, a4, 2
    a6b7:	d22800422e 	{ addi	a2, a2, 4; ae_eqp24	b0:b1, aep2, aep1 }

0000a6bc <processResidualCoding_fx+0x5c>:
    a6bc:	685d           	ae_s16i.n	a5, a8, 0
    a6be:	f01d           	retw.n

0000a6c0 <processResidualCoding_fx+0x60>:
    a6c0:	050c           	movi.n	a5, 0
    a6c2:	fffd86        	j	a6bc <processResidualCoding_fx+0x5c>

0000a6c5 <processResidualCoding_fx+0x65>:
    a6c5:	000000                                        ...

0000a6c8 <processPLCNoiseSubstitution0_fx>:
    a6c8:	004136        	entry	a1, 32
    a6cb:	383c           	movi.n	a8, 51
    a6cd:	cca092        	movi	a9, 204
    a6d0:	f8c5d2        	addi	a13, a5, -8
    a6d3:	ffa0a2        	movi	a10, 255
    a6d6:	fcc5b2        	addi	a11, a5, -4
    a6d9:	73d882        	addmi	a8, a8, 0x7300
    a6dc:	6cd992        	addmi	a9, a9, 0x6c00
    a6df:	8d5d           	ae_sext16	a5, a13
    a6e1:	26ed           	ae_l16si.n	a14, a6, 0
    a6e3:	7fdaa2        	addmi	a10, a10, 0x7f00
    a6e6:	a39850        	movltz	a9, a8, a5
    a6e9:	8bfd           	ae_sext16	a15, a11
    a6eb:	b3a9f0        	movgez	a10, a9, a15
    a6ee:	d15ae0        	mul16s	a5, a10, a14
    a6f1:	5c1c           	movi.n	a12, 21
    a6f3:	40d552        	addmi	a5, a5, 0x4000
    a6f6:	215f50        	srai	a5, a5, 15
    a6f9:	a55d           	ae_clamps16	a5, a5
    a6fb:	665d           	ae_s16i.n	a5, a6, 0
    a6fd:	479d           	ae_l16ui.n	a9, a7, 0
    a6ff:	2d14a6        	blti	a4, 1, a730 <processPLCNoiseSubstitution0_fx+0x68>
    a702:	bfa082        	movi	a8, 191
    a705:	855d           	ae_sext16	a5, a5
    a707:	32dc62        	addmi	a6, a12, 0x3200
    a70a:	41d882        	addmi	a8, a8, 0x4100
    a70d:	1f8476        	loop	a4, a730 <processPLCNoiseSubstitution0_fx+0x68>
    a710:	23dd           	ae_l16si.n	a13, a3, 0
    a712:	824960        	mull	a4, a9, a6
    a715:	332b           	addi.n	a3, a3, 2
    a717:	d1a5d0        	mul16s	a10, a5, a13
    a71a:	448a           	add.n	a4, a4, a8
    a71c:	21efa0        	srai	a14, a10, 15
    a71f:	849d           	ae_sext16	a9, a4
    a721:	ae4d           	ae_clamps16	a4, a14
    a723:	60f040        	neg	a15, a4
    a726:	b3f490        	movgez	a15, a4, a9
    a729:	114f00        	slli	a4, a15, 16
    a72c:	0249           	s32i.n	a4, a2, 0
    a72e:	224b           	addi.n	a2, a2, 4

0000a730 <processPLCNoiseSubstitution0_fx+0x68>:
    a730:	679d           	ae_s16i.n	a9, a7, 0
    a732:	f01d           	retw.n

0000a734 <_fini>:
    a734:	008136        	entry	a1, 64
    a737:	d74381        	l32r	a8, 444 (460 <__do_global_dtors_aux>)
    a73a:	f03d           	nop.n
    a73c:	0008e0        	callx8	a8

0000a73f <_fini+0xb>:
    a73f:	f01d           	retw.n
