
Build/lib/pisplit_ecnr_position_independent.splitload.lib:     file format elf32-xtensa-le


Disassembly of section .text:

00000000 <_init-0x4a0>:
       0:	000004ec 00009a0c 0000a7ac 00000000     ................
      10:	0000a77c 00000000 0000a794 0000c3d0     |...............
      20:	0000a7f8 00002c80 0000a811 00002d94     .....,.......-..
      30:	0000a828 000036e4 0000a83f 0000444c     (....6..?...LD..
      40:	0000a85a 00006854 0000a86e 00004394     Z...Th..n....C..
      50:	0000a885 00006550 0000a899 000043f0     ....Pe.......C..
      60:	0000a8b0 000044a8 0000a8ce 00005ff8     .....D......._..
      70:	0000a8e7 000099ec 0000a8f7 00002c8c     .............,..
      80:	0000a911 000044f8 0000a933 00002c78     .....D..3...x,..
      90:	0000a7c0 00000680 0000c3d4 0000be40     ............@...
      a0:	0000bb40 0000bbb0 00009a44 0000c3dc     @.......D.......
      b0:	00009a58 0000be20 dacccccd 0dfffffe     X... ...........
      c0:	00b33333 fb4ccccd fcb33333 7fff0000     33....L.33......
      d0:	00009aa0 00000830 33334ccd 7fe70019     ....0....L33....
      e0:	7e1401ec 000049cc 00009a30 00147ae1     ...~.I..0....z..
      f0:	0000133c 00533333 005851ec 005ae148     <...33S..QX.H.Z.
     100:	005ccccd 002ccccd 00466666 0000c148     ..\...,.ffF.H...
     110:	7ffffffe 005a8200 c28f0000 cccd0000     ......Z.........
     120:	e6660000 f3330000 0ccd0000 199a0000     ..f...3.........
     130:	33330000 3d710000 004ccccd 006ccccd     ..33..q=..L...l.
     140:	0059999a 00733333 0070a3d7 007e147b     ..Y.33s...p.{.~.
     150:	007fbe77 00000e44 0039999a 005d70a4     w...D.....9..p].
     160:	00666666 00014001 000ccccd 00001448     fff..@......H...
     170:	00009adc 000aaaab 000006d8 00cccccd     ................
     180:	0099999a 00435e51 0159999a 13ffffff     ....Q^C...Y.....
     190:	f570a3d7 2428f5c4 00002040 00300040     ..p...($@ ..@.0.
     1a0:	00200018 00c00100 00600040 00002574     .. .....@.`.t%..
     1b0:	00002558 002aaa00 0000bab0 000088fc     X%....*.........
     1c0:	000087f4 000025f4 0000265c 000026f4     .....%..\&...&..
     1d0:	00009900 00002d08 0000234c 0000666c     .....-..L#..lf..
     1e0:	0000c3d8 000045e8 00005eec 0000bcc0     .....E...^......
     1f0:	0000bce0 0000bd20 0000bd60 00011111     .... ...`.......
     200:	0000360c 00002f9c 0000313c 00002fd0     .6.../..<1.../..
     210:	000031c8 000032f8 00002798 000029d4     .1...2...'...)..
     220:	00003398 0000326c 00003088 00004ab8     .3..l2...0...J..
     230:	00004d3c 00005008 00004e84 000053f4     <M...P...N...S..
     240:	00005568 00002d38 000058e0 00005a30     hU..8-...X..0Z..
     250:	00005298 00002c34 0000770c 000065ec     .R..4,...w...e..
     260:	00003564 000034f8 00003184 00006894     d5...4...1...h..
     270:	00006594 0d330000 0e390000 000069e0     .e....3...9..i..
     280:	000ccccc 00393e4b 00155555 00175e97     ....K>9.UU...^..
     290:	00004508 00004a54 000049ec c0010000     .E..TJ...I......
     2a0:	3fff0000 00005d60 00005e20 0000af80     ...?`].. ^......
     2b0:	0000ae70 0000a950 0000b190 0000af00     p...P...........
     2c0:	0000aad0 0000b3a0 0000af50 0000ac90     ........P.......
     2d0:	007fff00 0000be80 00006134 0000c0a0     ........4a......
     2e0:	0000ee09 00000734 0000998c 000062c8     ....4........b..
     2f0:	00001a84 00007900 00001ad4 00007a98     .....y.......z..
     300:	00007bd0 00007f14 00008068 000082e0     .{......h.......
     310:	000005b0 00008644 0000c2c0 000066b0     ....D........f..
     320:	000068ec 00038e39 00035e51 ffe9ffe9     .h..9...Q^......
     330:	0000b5b0 0000926c 7f5c00a4 7ff00010     ....l.....\.....
     340:	00009578 034ccccd 00d9999a fe266666     x.....L.....ff&.
     350:	01eb851f 04cccccd 023fffff 0059999b     ..........?...Y.
     360:	ffa66666 0000e667 0000e001 000078d8     ff..g........x..
     370:	46666666 2666599a 1b333333 1e666666     fffF.Yf&333.fff.
     380:	7ccd0333 23333333 1ccccccd 00333333     3..|333#....333.
     390:	7eb80148 40004000 6666199a 00266666     H..~.@.@..ffff&.
     3a0:	599a2666 007ccccd 7fbe0042 7f1b00e5     f&.Y..|.B.......
     3b0:	00006940 6ccd1333 799a0666 5999999a     @i..3..lf..y...Y
     3c0:	0000bb20 10000001 00006b40 00007d20      .......@k.. }..
     3d0:	75c30a3d 00006990 0000be70 000e38e4     =..u.i..p....8..
     3e0:	00124925 0000be60 00000884 00000e34     %I..`.......4...
     3f0:	00008140 00008210 80000001 00008c60     @...........`...
     400:	0000b9b0 000089bc 00008920 00008c90     ........ .......
     410:	00008ee4 00008f0c 00008f38 00008f88     ........8.......
     420:	00008f60 00008fec 00008fc4 00009238     `...........8...
     430:	000091cc 003eb852 00333334 00266667     ....R.>.433.gf&.
     440:	0019999a ffc147ae ffcccccc ffd99999     .....G..........
     450:	ffe66666 fff33333 ffe00001 00028f5e     ff..33......^...
     460:	fe924dd3 04d24dd3 0effffff 077fffff     .M...M..........
     470:	0021eb86 00666667 cb333334 fb333334     ..!.gff.433.433.
     480:	00009340 00009420 000094b4 0399999a     @... ...........
     490:	0299999a 000098a8 0000a784 000004b8     ................

000004a0 <_init>:
     4a0:	008136        	entry	a1, 64
     4a3:	fed781        	l32r	a8, 0 (4ec <frame_dummy>)
     4a6:	f03d           	nop.n
     4a8:	0008e0        	callx8	a8
     4ab:	fed681        	l32r	a8, 4 (9a0c <__do_global_ctors_aux>)
     4ae:	f03d           	nop.n
     4b0:	0008e0        	callx8	a8
     4b3:	f01d           	retw.n

000004b5 <_init+0x15>:
     4b5:	000000                                        ...

000004b8 <__do_global_dtors_aux>:
     4b8:	004136        	entry	a1, 32
     4bb:	fed321        	l32r	a2, 8 (a7ac <__do_global_dtors_aux.completed>)
     4be:	000232        	l8ui	a3, a2, 0
     4c1:	23ec           	bnez.n	a3, 4e7 <__do_global_dtors_aux+0x2f>

000004c3 <__do_global_dtors_aux+0xb>:
     4c3:	1248           	l32i.n	a4, a2, 4
     4c5:	0438           	l32i.n	a3, a4, 0
     4c7:	444b           	addi.n	a4, a4, 4
     4c9:	738c           	beqz.n	a3, 4d4 <__do_global_dtors_aux+0x1c>
     4cb:	1249           	s32i.n	a4, a2, 4
     4cd:	0003e0        	callx8	a3
     4d0:	fffbc6        	j	4c3 <__do_global_dtors_aux+0xb>

000004d3 <__do_global_dtors_aux+0x1b>:
	...

000004d4 <__do_global_dtors_aux+0x1c>:
     4d4:	fece31        	l32r	a3, c (0 <_text_start>)
     4d7:	fecea1        	l32r	a10, 10 (a77c <__FRAME_END__>)
     4da:	438c           	beqz.n	a3, 4e2 <__do_global_dtors_aux+0x2a>
     4dc:	fecc81        	l32r	a8, c (0 <_text_start>)
     4df:	0008e0        	callx8	a8
     4e2:	130c           	movi.n	a3, 1
     4e4:	004232        	s8i	a3, a2, 0
     4e7:	f01d           	retw.n

000004e9 <__do_global_dtors_aux+0x31>:
     4e9:	000000                                        ...

000004ec <frame_dummy>:
     4ec:	004136        	entry	a1, 32
     4ef:	fec921        	l32r	a2, 14 (0 <_text_start>)
     4f2:	fec7a1        	l32r	a10, 10 (a77c <__FRAME_END__>)
     4f5:	fec8b1        	l32r	a11, 18 (a794 <frame_dummy.object>)
     4f8:	428c           	beqz.n	a2, 500 <frame_dummy+0x14>
     4fa:	fec681        	l32r	a8, 14 (0 <_text_start>)
     4fd:	0008e0        	callx8	a8

00000500 <frame_dummy+0x14>:
     500:	f01d           	retw.n

00000502 <frame_dummy+0x16>:
	...

00000504 <_start>:
     504:	004136        	entry	a1, 32
     507:	fec531        	l32r	a3, 1c (c3d0 <printf_ptr>)
     50a:	0228           	l32i.n	a2, a2, 0
     50c:	fec5a1        	l32r	a10, 20 (a7f8 <export_parameter_array+0x38>)
     50f:	fec5b1        	l32r	a11, 24 (2c80 <get_aec_nr_memsize>)
     512:	0329           	s32i.n	a2, a3, 0
     514:	0002e0        	callx8	a2
     517:	0328           	l32i.n	a2, a3, 0
     519:	fec3a1        	l32r	a10, 28 (a811 <export_parameter_array+0x51>)
     51c:	fec4b1        	l32r	a11, 2c (2d94 <Voice_WB_TX_Init>)
     51f:	0002e0        	callx8	a2
     522:	0328           	l32i.n	a2, a3, 0
     524:	fec3a1        	l32r	a10, 30 (a828 <export_parameter_array+0x68>)
     527:	fec3b1        	l32r	a11, 34 (36e4 <Voice_WB_TX_Prcs>)
     52a:	0002e0        	callx8	a2
     52d:	0328           	l32i.n	a2, a3, 0
     52f:	fec2a1        	l32r	a10, 38 (a83f <export_parameter_array+0x7f>)
     532:	fec2b1        	l32r	a11, 3c (444c <EC_REF_GAIN_READBACK>)
     535:	0002e0        	callx8	a2
     538:	0328           	l32i.n	a2, a3, 0
     53a:	fec1a1        	l32r	a10, 40 (a85a <export_parameter_array+0x9a>)
     53d:	fec1b1        	l32r	a11, 44 (6854 <NB_RX_NR_init>)
     540:	0002e0        	callx8	a2
     543:	0328           	l32i.n	a2, a3, 0
     545:	fec0a1        	l32r	a10, 48 (a86e <export_parameter_array+0xae>)
     548:	fec1b1        	l32r	a11, 4c (4394 <Voice_NB_RX_Prcs>)
     54b:	0002e0        	callx8	a2
     54e:	0328           	l32i.n	a2, a3, 0
     550:	fec0a1        	l32r	a10, 50 (a885 <export_parameter_array+0xc5>)
     553:	fec0b1        	l32r	a11, 54 (6550 <WB_RX_NR_init>)
     556:	0002e0        	callx8	a2
     559:	0328           	l32i.n	a2, a3, 0
     55b:	febfa1        	l32r	a10, 58 (a899 <export_parameter_array+0xd9>)
     55e:	febfb1        	l32r	a11, 5c (43f0 <Voice_WB_RX_Prcs>)
     561:	0002e0        	callx8	a2
     564:	0328           	l32i.n	a2, a3, 0
     566:	febea1        	l32r	a10, 60 (a8b0 <export_parameter_array+0xf0>)
     569:	febeb1        	l32r	a11, 64 (44a8 <EC_PreLim_Coef_READBACK>)
     56c:	0002e0        	callx8	a2
     56f:	0328           	l32i.n	a2, a3, 0
     571:	febda1        	l32r	a10, 68 (a8ce <export_parameter_array+0x10e>)
     574:	febeb1        	l32r	a11, 6c (5ff8 <AEC_NR_Write_FLASH>)
     577:	0002e0        	callx8	a2
     57a:	0328           	l32i.n	a2, a3, 0
     57c:	febda1        	l32r	a10, 70 (a8e7 <export_parameter_array+0x127>)
     57f:	febdb1        	l32r	a11, 74 (99ec <EQ_update>)
     582:	0002e0        	callx8	a2
     585:	0328           	l32i.n	a2, a3, 0
     587:	febca1        	l32r	a10, 78 (a8f7 <export_parameter_array+0x137>)
     58a:	febcb1        	l32r	a11, 7c (2c8c <get_txnr_pitch_last>)
     58d:	0002e0        	callx8	a2
     590:	0328           	l32i.n	a2, a3, 0
     592:	febba1        	l32r	a10, 80 (a911 <export_parameter_array+0x151>)
     595:	febbb1        	l32r	a11, 84 (44f8 <DaulMIC_power_Coef_READBACK>)
     598:	0002e0        	callx8	a2
     59b:	0328           	l32i.n	a2, a3, 0
     59d:	febaa1        	l32r	a10, 88 (a933 <export_parameter_array+0x173>)
     5a0:	febbb1        	l32r	a11, 8c (2c78 <get_ECNR_SVN>)
     5a3:	0002e0        	callx8	a2
     5a6:	feba21        	l32r	a2, 90 (a7c0 <export_parameter_array>)
     5a9:	f01d           	retw.n

000005ab <_start+0xa7>:
     5ab:	00000000                                 .....

000005b0 <comfort_noise_gen_wb>:
     5b0:	008136        	entry	a1, 64
     5b3:	15d2e2        	addmi	a14, a2, 0x1500
     5b6:	fc20bd0e0f 	{ ae_lq32f.i	aeq0, a14, 0; ae_zerop48	aep0 }
     5bb:	f8424fc38e 	{ addi	a8, a3, -4; ae_truncp24q48x2	aep1, aeq0, aeq0 }
     5c0:	0bd272        	addmi	a7, a2, 0xb00
     5c3:	f88427d73e 	{ l16si	a3, a7, 250; ae_mulfq32sp24s.l	aeq0, aeq0, aep1 }
     5c8:	468814        	ae_sp16x2f.iu	aep0, a8, 4
     5cb:	fb4273881f 	{ ae_sp16x2f.iu	aep0, a8, 4; ae_truncp24q48x2	aep7, aeq0, aeq0 }
     5d0:	31a452        	movi	a5, 0x431
     5d3:	1155e0        	slli	a5, a5, 2
     5d6:	70a462        	movi	a6, 0x470
     5d9:	15d2f2        	addmi	a15, a2, 0x1500
     5dc:	468814        	ae_sp16x2f.iu	aep0, a8, 4
     5df:	726a           	add.n	a7, a2, a6
     5e1:	040c           	movi.n	a4, 0
     5e3:	71f9           	s32i.n	a15, a1, 28
     5e5:	525a           	add.n	a5, a2, a5
     5e7:	561124        	ae_sp24x2s.i	aep1, a1, 16
     5ea:	682b           	addi.n	a6, a8, 2
     5ec:	567114        	ae_sp24x2s.i	aep7, a1, 8
     5ef:	000b06        	j	61f <comfort_noise_gen_wb+0x6f>

000005f2 <comfort_noise_gen_wb+0x42>:
     5f2:	081524        	ae_mulfq32sp24s.l	aeq0, aeq0, aep1
     5f5:	301894        	ae_cvtp24a16x2.ll	aep1, a8, a9
     5f8:	d4e640144e 	{ addi	a4, a4, 1; ae_mulfq32sp16s.l	aeq1, aeq0, aep1 }
     5fd:	d56640eeff 	{ movi	a15, 238; ae_mulfq32sp16s.h	aeq3, aeq0, aep1 }
     602:	d4e340477e 	{ addi	a7, a7, 4; ae_mulfq32sp16s.l	aeq1, aeq1, aep0 }
     607:	0302d4        	ae_mulfq32sp16s.l	aeq0, aeq3, aep0
     60a:	fc24fe9a4f 	{ ae_slaasq56s	aeq1, aeq1, a10; nop }
     60f:	fbebbe8a0f 	{ ae_slaasq56s	aeq0, aeq0, a10; ae_roundsp16q48sym	aep6, aeq1 }
     614:	fbe3f2e61f 	{ ae_sp16f.l.iu	aep6, a6, 2; ae_roundsp16q48sym	aep7, aeq0 }
     619:	42f614        	ae_sp16f.l.iu	aep7, a6, 2
     61c:	4f14f7        	beq	a4, a15, 66f <comfort_noise_gen_wb+0xbf>
     61f:	07b8           	l32i.n	a11, a7, 0
     621:	fe9c81        	l32r	a8, 94 (680 <HIFI_sqrt>)
     624:	03ad           	mov.n	a10, a3
     626:	0008e0        	callx8	a8
     629:	fe9b81        	l32r	a8, 98 (c3d4 <p_ecnr_mem>)
     62c:	71d8           	l32i.n	a13, a1, 28
     62e:	75a0e2        	movi	a14, 117
     631:	0888           	l32i.n	a8, a8, 0
     633:	f1a3f2        	movi	a15, 0x3f1
     636:	360b34        	ae_cvtq48a32s	aeq0, a11
     639:	1ad8c2        	addmi	a12, a8, 0x1a00
     63c:	179c92        	l16si	a9, a12, 46
     63f:	bbde82        	addmi	a8, a14, 0xffffbb00
     642:	059dd2        	l16si	a13, a13, 10
     645:	b0bff0        	addx8	a11, a15, a15
     648:	828980        	mull	a8, a9, a8
     64b:	8299b0        	mull	a9, a9, a11
     64e:	175c92        	s16i	a9, a12, 46
     651:	408514        	ae_lp16f.iu	aep0, a5, 2
     654:	9d24d7        	blt	a4, a13, 5f5 <comfort_noise_gen_wb+0x45>
     657:	3502b2        	l8ui	a11, a2, 53
     65a:	fe90c1        	l32r	a12, 9c (be40 <wb_sb_ptn>)
     65d:	541114        	ae_lp24x2.i	aep1, a1, 8
     660:	91b4b7        	bgeu	a4, a11, 5f5 <comfort_noise_gen_wb+0x45>
     663:	089cb2        	l16si	a11, a12, 16
     666:	88a4b7        	bge	a4, a11, 5f2 <comfort_noise_gen_wb+0x42>
     669:	541124        	ae_lp24x2.i	aep1, a1, 16
     66c:	ffe086        	j	5f2 <comfort_noise_gen_wb+0x42>

0000066f <comfort_noise_gen_wb+0xbf>:
     66f:	f30c           	movi.n	a3, 15
     671:	fc208fe62e 	{ addi	a2, a6, -2; ae_zerop48	aep0 }
     676:	028376        	loop	a3, 67c <comfort_noise_gen_wb+0xcc>
     679:	468214        	ae_sp16x2f.iu	aep0, a2, 4

0000067c <comfort_noise_gen_wb+0xcc>:
     67c:	f01d           	retw.n

0000067e <comfort_noise_gen_wb+0xce>:
	...

00000680 <HIFI_sqrt>:
     680:	004136        	entry	a1, 32
     683:	4b13a6        	blti	a3, 1, 6d2 <HIFI_sqrt+0x52>
     686:	40e340        	nsa	a4, a3
     689:	c02240        	sub	a2, a2, a4
     68c:	401400        	ssl	a4
     68f:	044020        	extui	a4, a2, 0, 1
     692:	a1c300        	sll	a12, a3
     695:	400400        	ssr	a4
     698:	b130c0        	sra	a3, a12
     69b:	656930        	extui	a6, a3, 25, 7
     69e:	fe80d1        	l32r	a13, a0 (bb40 <TABLE_SQRT>)
     6a1:	050c           	movi.n	a5, 0
     6a3:	f0c662        	addi	a6, a6, -16
     6a6:	535650        	max	a5, a6, a5
     6a9:	9055d0        	addx2	a5, a5, a13
     6ac:	456d           	ae_l16ui.n	a6, a5, 0
     6ae:	355d           	ae_l16si.n	a5, a5, 2
     6b0:	413930        	srli	a3, a3, 9
     6b3:	11f600        	slli	a15, a6, 16
     6b6:	c0e560        	sub	a14, a5, a6
     6b9:	300334        	ae_cvtp24a16x2.ll	aep0, a3, a3
     6bc:	113e00        	slli	a3, a14, 16
     6bf:	360f34        	ae_cvtq48a32s	aeq0, a15
     6c2:	364334        	ae_cvtq48a32s	aeq1, a3
     6c5:	d4e110242f 	{ add	a2, a4, a2; ae_mulaq32sp16u.l	aeq0, aeq1, aep0 }
     6ca:	212120        	srai	a2, a2, 1
     6cd:	368304        	ae_trunca32q48	a3, aeq0
     6d0:	f01d           	retw.n

000006d2 <HIFI_sqrt+0x52>:
     6d2:	020c           	movi.n	a2, 0
     6d4:	030c           	movi.n	a3, 0
     6d6:	f01d           	retw.n

000006d8 <Log2_norm>:
     6d8:	004136        	entry	a1, 32
     6db:	024d           	mov.n	a4, a2
     6dd:	ff7c           	movi.n	a15, -1
     6df:	012f10        	slli	a2, a15, 31
     6e2:	3214a6        	blti	a4, 1, 718 <Log2_norm+0x40>
     6e5:	156c           	movi.n	a5, -31
     6e7:	2d2357        	blt	a3, a5, 718 <Log2_norm+0x40>
     6ea:	022c           	movi.n	a2, 32
     6ec:	06a237        	bge	a2, a3, 6f6 <Log2_norm+0x1e>
     6ef:	f27c           	movi.n	a2, -1
     6f1:	412120        	srli	a2, a2, 1
     6f4:	f01d           	retw.n

000006f6 <Log2_norm+0x1e>:
     6f6:	fe6b51        	l32r	a5, a4 (bbb0 <TABLE_LOG2_1530>)
     6f9:	552840        	extui	a2, a4, 24, 6
     6fc:	1122e0        	slli	a2, a2, 2
     6ff:	603524        	ae_lq32f.xu	aeq0, a5, a2
     702:	604514        	ae_lq32f.i	aeq1, a5, 4
     705:	f92ae2044f 	{ ae_movpa24x2	aep0, a4, a4; ae_subq56	aeq1, aeq1, aeq0 }
     70a:	030174        	ae_mulaq32sp16u.l	aeq0, aeq1, aep0
     70d:	013360        	slli	a3, a3, 26
     710:	368f04        	ae_trunca32q48	a15, aeq0
     713:	2125f0        	srai	a2, a15, 5
     716:	223a           	add.n	a2, a2, a3
     718:	f01d           	retw.n

0000071a <Log2_norm+0x42>:
     71a:	00000000                                 ......

00000720 <COMPL_S16x2_fun>:
     720:	004136        	entry	a1, 32
     723:	f37c           	movi.n	a3, -1
     725:	013310        	slli	a3, a3, 31
     728:	114200        	slli	a4, a2, 16
     72b:	30f230        	xor	a15, a2, a3
     72e:	c02f40        	sub	a2, a15, a4
     731:	f01d           	retw.n

00000733 <COMPL_S16x2_fun+0x13>:
	...

00000734 <PD_INIT>:
     734:	004136        	entry	a1, 32
     737:	fe5851        	l32r	a5, 98 (c3d4 <p_ecnr_mem>)
     73a:	4da532        	movi	a3, 0x54d
     73d:	1133c0        	slli	a3, a3, 4
     740:	0548           	l32i.n	a4, a5, 0
     742:	fe5961        	l32r	a6, a8 (9a44 <xt_memset>)
     745:	0b0c           	movi.n	a11, 0
     747:	343a           	add.n	a3, a4, a3
     749:	f0a2c2        	movi	a12, 0x2f0
     74c:	03ad           	mov.n	a10, a3
     74e:	0006e0        	callx8	a6
     751:	fe5671        	l32r	a7, ac (c3dc <aec_nr_para>)
     754:	a4a082        	movi	a8, 164
     757:	7c0c           	movi.n	a12, 7
     759:	0768           	l32i.n	a6, a7, 0
     75b:	03ad           	mov.n	a10, a3
     75d:	b68a           	add.n	a11, a6, a8
     75f:	fe5461        	l32r	a6, b0 (9a58 <xt_memcpy>)
     762:	0006e0        	callx8	a6
     765:	882c           	movi.n	a8, 40
     767:	57d882        	addmi	a8, a8, 0x5700
     76a:	59d492        	addmi	a9, a4, 0x5900
     76d:	1a0c           	movi.n	a10, 1
     76f:	5d0c           	movi.n	a13, 5
     771:	7da5c2        	movi	a12, 0x57d
     774:	7459a2        	s16i	a10, a9, 232
     777:	11acc0        	slli	a10, a12, 4
     77a:	019df0        	slli	a9, a13, 17
     77d:	56d4e2        	addmi	a14, a4, 0x5600
     780:	848a           	add.n	a8, a4, a8
     782:	78a0d2        	movi	a13, 120
     785:	9e99           	s32i.n	a9, a14, 36
     787:	57d4f2        	addmi	a15, a4, 0x5700
     78a:	f66e82        	s32i	a8, a14, 0x3d8
     78d:	58dd82        	addmi	a8, a13, 0x5800
     790:	a4aa           	add.n	a10, a4, a10
     792:	c9a2e2        	movi	a14, 0x2c9
     795:	0738           	l32i.n	a3, a7, 0
     797:	9f99           	s32i.n	a9, a15, 36
     799:	b76fa2        	s32i	a10, a15, 0x2dc
     79c:	59d4b2        	addmi	a11, a4, 0x5900
     79f:	11aeb0        	slli	a10, a14, 5
     7a2:	848a           	add.n	a8, a4, a8
     7a4:	d8a0f2        	movi	a15, 216
     7a7:	386b82        	s32i	a8, a11, 224
     7aa:	59df82        	addmi	a8, a15, 0x5900
     7ad:	a4aa           	add.n	a10, a4, a10
     7af:	8c2c           	movi.n	a12, 40
     7b1:	396ba2        	s32i	a10, a11, 228
     7b4:	848a           	add.n	a8, a4, a8
     7b6:	56dca2        	addmi	a10, a12, 0x5600
     7b9:	346b82        	s32i	a8, a11, 208
     7bc:	84aa           	add.n	a8, a4, a10
     7be:	54d472        	addmi	a7, a4, 0x5400
     7c1:	c793d2        	l16si	a13, a3, 0x18e
     7c4:	c893e2        	l16si	a14, a3, 0x190
     7c7:	8b2c           	movi.n	a11, 40
     7c9:	ff7c           	movi.n	a15, -1
     7cb:	6f57d2        	s16i	a13, a7, 222
     7ce:	7057e2        	s16i	a14, a7, 224
     7d1:	4171f0        	srli	a7, a15, 1
     7d4:	089d           	mov.n	a9, a8
     7d6:	038b76        	loop	a11, 7dd <PD_INIT+0xa9>
     7d9:	0979           	s32i.n	a7, a9, 0
     7db:	994b           	addi.n	a9, a9, 4

000007dd <PD_INIT+0xa9>:
     7dd:	0558           	l32i.n	a5, a5, 0
     7df:	59d472        	addmi	a7, a4, 0x5900
     7e2:	17a5b2        	movi	a11, 0x517
     7e5:	356782        	s32i	a8, a7, 212
     7e8:	117bd0        	slli	a7, a11, 3
     7eb:	090c           	movi.n	a9, 0
     7ed:	1ad5a2        	addmi	a10, a5, 0x1a00
     7f0:	757a           	add.n	a7, a5, a7
     7f2:	1ad552        	addmi	a5, a5, 0x1a00
     7f5:	1a5a92        	s16i	a9, a10, 52
     7f8:	1a6572        	s32i	a7, a5, 104
     7fb:	d5a2d2        	movi	a13, 0x2d5
     7fe:	196522        	s32i	a2, a5, 100
     801:	117db0        	slli	a7, a13, 5
     804:	f2a0e2        	movi	a14, 242
     807:	5ad4c2        	addmi	a12, a4, 0x5a00
     80a:	3b23f2        	l32i	a15, a3, 236
     80d:	266cf2        	s32i	a15, a12, 152
     810:	b3ea           	add.n	a11, a3, a14
     812:	a47a           	add.n	a10, a4, a7
     814:	3c0c           	movi.n	a12, 3
     816:	0006e0        	callx8	a6
     819:	08d232        	addmi	a3, a2, 0x800
     81c:	5ad452        	addmi	a5, a4, 0x5a00
     81f:	77a1d2        	movi	a13, 0x177
     822:	246532        	s32i	a3, a5, 144
     825:	113dd0        	slli	a3, a13, 3
     828:	f23a           	add.n	a15, a2, a3
     82a:	2365f2        	s32i	a15, a5, 140
     82d:	f01d           	retw.n

0000082f <PD_INIT+0xfb>:
	...

00000830 <wind_noise_alpha>:
     830:	004136        	entry	a1, 32
     833:	f77c           	movi.n	a7, -1
     835:	017710        	slli	a7, a7, 31
     838:	2213a6        	blti	a3, 1, 85e <wind_noise_alpha+0x2e>
     83b:	944d           	ae_zext16	a4, a4
     83d:	824460        	mull	a4, a4, a6
     840:	414e40        	srli	a4, a4, 14
     843:	948d           	ae_zext16	a8, a4
     845:	114400        	slli	a4, a4, 16
     848:	c08840        	sub	a8, a8, a4
     84b:	024d           	mov.n	a4, a2
     84d:	887a           	add.n	a8, a8, a7
     84f:	038376        	loop	a3, 856 <wind_noise_alpha+0x26>
     852:	0489           	s32i.n	a8, a4, 0
     854:	444b           	addi.n	a4, a4, 4

00000856 <wind_noise_alpha+0x26>:
     856:	942c           	movi.n	a4, 41
     858:	04b437        	bgeu	a4, a3, 860 <wind_noise_alpha+0x30>
     85b:	0008c6        	j	882 <wind_noise_alpha+0x52>

0000085e <wind_noise_alpha+0x2e>:
     85e:	030c           	movi.n	a3, 0
     860:	954d           	ae_zext16	a4, a5
     862:	824460        	mull	a4, a4, a6
     865:	d6c3d2        	addi	a13, a3, -42
     868:	41fe40        	srli	a15, a4, 14
     86b:	a02320        	addx4	a2, a3, a2
     86e:	9f4d           	ae_zext16	a4, a15
     870:	113f00        	slli	a3, a15, 16
     873:	c03430        	sub	a3, a4, a3
     876:	60e0d0        	neg	a14, a13
     879:	337a           	add.n	a3, a3, a7
     87b:	038e76        	loop	a14, 882 <wind_noise_alpha+0x52>
     87e:	0239           	s32i.n	a3, a2, 0
     880:	224b           	addi.n	a2, a2, 4

00000882 <wind_noise_alpha+0x52>:
     882:	f01d           	retw.n

00000884 <PD_Noise_Est>:
     884:	00e136        	entry	a1, 112
     887:	fe04e1        	l32r	a14, 98 (c3d4 <p_ecnr_mem>)
     88a:	027d           	mov.n	a7, a2
     88c:	14d2f2        	addmi	a15, a2, 0x1400
     88f:	0e88           	l32i.n	a8, a14, 0
     891:	3a2fe2        	l32i	a14, a15, 232
     894:	a8a042        	movi	a4, 168
     897:	5ad442        	addmi	a4, a4, 0x5a00
     89a:	10ce22        	addi	a2, a14, 16
     89d:	605214        	ae_lq32f.iu	aeq1, a2, 4
     8a0:	609214        	ae_lq32f.iu	aeq2, a2, 4
     8a3:	f9ea3d721f 	{ ae_lq32f.iu	aeq3, a2, 4; ae_addq56	aeq1, aeq1, aeq2 }
     8a8:	f9ee3d721f 	{ ae_lq32f.iu	aeq3, a2, 4; ae_addq56	aeq1, aeq1, aeq3 }
     8ad:	f9ee00acaf 	{ movi	a10, 172; ae_addq56	aeq1, aeq1, aeq3 }
     8b2:	54d862        	addmi	a6, a8, 0x5400
     8b5:	603484        	ae_lq32f.xu	aeq0, a4, a8
     8b8:	5ad852        	addmi	a5, a8, 0x5a00
     8bb:	3550b4        	ae_sraiq56	aeq1, aeq1, 2
     8be:	f86633e6ce 	{ l32i	a12, a6, 248; ae_addq56	aeq0, aeq0, aeq1 }
     8c3:	5adaa2        	addmi	a10, a10, 0x5a00
     8c6:	4f9522        	l16si	a2, a5, 158
     8c9:	2525b2        	l32i	a11, a5, 148
     8cc:	5ad892        	addmi	a9, a8, 0x5a00
     8cf:	62da84        	ae_sq32f.xu	aeq1, a10, a8
     8d2:	030c           	movi.n	a3, 0
     8d4:	350074        	ae_sraiq56	aeq0, aeq0, 1
     8d7:	4e5532        	s16i	a3, a5, 156
     8da:	5ad8d2        	addmi	a13, a8, 0x5a00
     8dd:	9199           	s32i.n	a9, a1, 36
     8df:	f149           	s32i.n	a4, a1, 60
     8e1:	620404        	ae_sq32f.i	aeq0, a4, 0
     8e4:	c1a9           	s32i.n	a10, a1, 48
     8e6:	141ca6        	blti	a12, 1, 8fe <PD_Noise_Est+0x7a>
     8e9:	142ba6        	blti	a11, 2, 901 <PD_Noise_Est+0x7d>
     8ec:	5ad832        	addmi	a3, a8, 0x5a00
     8ef:	4d9332        	l16si	a3, a3, 154
     8f2:	f0c222        	addi	a2, a2, -16
     8f5:	1133f0        	slli	a3, a3, 1
     8f8:	432230        	min	a2, a2, a3
     8fb:	000c86        	j	931 <PD_Noise_Est+0xad>

000008fe <PD_Noise_Est+0x7a>:
     8fe:	101ba6        	blti	a11, 1, 912 <PD_Noise_Est+0x8e>
     901:	0a38           	l32i.n	a3, a10, 0
     903:	0513a6        	blti	a3, 1, 90c <PD_Noise_Est+0x88>
     906:	f8c222        	addi	a2, a2, -8
     909:	000906        	j	931 <PD_Noise_Est+0xad>

0000090c <PD_Noise_Est+0x88>:
     90c:	fec222        	addi	a2, a2, -2
     90f:	000786        	j	931 <PD_Noise_Est+0xad>

00000912 <PD_Noise_Est+0x8e>:
     912:	0e48           	l32i.n	a4, a14, 0
     914:	1e38           	l32i.n	a3, a14, 4
     916:	059d           	mov.n	a9, a5
     918:	f34a           	add.n	a15, a3, a4
     91a:	041fa6        	blti	a15, 1, 922 <PD_Noise_Est+0x9e>
     91d:	222b           	addi.n	a2, a2, 2
     91f:	000306        	j	92f <PD_Noise_Est+0xab>

00000922 <PD_Noise_Est+0x9e>:
     922:	0714e6        	bgei	a4, 1, 92d <PD_Noise_Est+0xa9>
     925:	0413e6        	bgei	a3, 1, 92d <PD_Noise_Est+0xa9>
     928:	220b           	addi.n	a2, a2, -1
     92a:	000046        	j	92f <PD_Noise_Est+0xab>

0000092d <PD_Noise_Est+0xa9>:
     92d:	221b           	addi.n	a2, a2, 1
     92f:	095d           	mov.n	a5, a9
     931:	030c           	movi.n	a3, 0
     933:	1ad8f2        	addmi	a15, a8, 0x1a00
     936:	532230        	max	a2, a2, a3
     939:	189f32        	l16si	a3, a15, 48
     93c:	f43c           	movi.n	a4, 63
     93e:	432240        	min	a2, a2, a4
     941:	1ad8a2        	addmi	a10, a8, 0x1a00
     944:	d159           	s32i.n	a5, a1, 52
     946:	4f5522        	s16i	a2, a5, 158
     949:	6189           	s32i.n	a8, a1, 24
     94b:	8169           	s32i.n	a6, a1, 32
     94d:	a179           	s32i.n	a7, a1, 40
     94f:	1061e2        	s32i	a14, a1, 64
     952:	e129           	s32i.n	a2, a1, 56
     954:	017396        	bltz	a3, 96f <PD_Noise_Est+0xeb>
     957:	1a9a52        	l16si	a5, a10, 52
     95a:	251ca6        	blti	a12, 1, 983 <PD_Noise_Est+0xff>
     95d:	149722        	l16si	a2, a7, 40
     960:	139732        	l16si	a3, a7, 38
     963:	fec542        	addi	a4, a5, -2
     966:	46a327        	bge	a3, a2, 9b0 <PD_Noise_Est+0x12c>
     969:	d8c542        	addi	a4, a5, -40
     96c:	001446        	j	9c1 <PD_Noise_Est+0x13d>

0000096f <PD_Noise_Est+0xeb>:
     96f:	020c           	movi.n	a2, 0
     971:	1a5a22        	s16i	a2, a10, 52
     974:	021ce6        	bgei	a12, 1, 97a <PD_Noise_Est+0xf6>
     977:	007986        	j	b61 <PD_Noise_Est+0x2dd>
     97a:	141722        	l16ui	a2, a7, 40
     97d:	131732        	l16ui	a3, a7, 38
     980:	0012c6        	j	9cf <PD_Noise_Est+0x14b>

00000983 <PD_Noise_Est+0xff>:
     983:	022ba6        	blti	a11, 2, 989 <PD_Noise_Est+0x105>
     986:	007246        	j	b53 <PD_Noise_Est+0x2cf>
     989:	fdca41        	l32r	a4, b4 (be20 <wb_score_bands>)
     98c:	171722        	l16ui	a2, a7, 46
     98f:	099432        	l16si	a3, a4, 18
     992:	346d           	ae_l16si.n	a6, a4, 2
     994:	029442        	l16si	a4, a4, 4
     997:	663a           	add.n	a6, a6, a3
     999:	464a           	add.n	a4, a6, a4
     99b:	022247        	blt	a2, a4, 9a1 <PD_Noise_Est+0x11d>
     99e:	006906        	j	b46 <PD_Noise_Est+0x2c2>
     9a1:	022237        	blt	a2, a3, 9a7 <PD_Noise_Est+0x123>
     9a4:	0068c6        	j	b4b <PD_Noise_Est+0x2c7>
     9a7:	1a5216        	beqz	a2, b50 <PD_Noise_Est+0x2cc>
     9aa:	fec552        	addi	a5, a5, -2
     9ad:	006886        	j	b53 <PD_Noise_Est+0x2cf>

000009b0 <PD_Noise_Est+0x12c>:
     9b0:	059237        	bne	a2, a3, 9b9 <PD_Noise_Est+0x135>
     9b3:	fac542        	addi	a4, a5, -6
     9b6:	0001c6        	j	9c1 <PD_Noise_Est+0x13d>

000009b9 <PD_Noise_Est+0x135>:
     9b9:	630b           	addi.n	a6, a3, -1
     9bb:	c06620        	sub	a6, a6, a2
     9be:	934560        	movnez	a4, a5, a6
     9c1:	050c           	movi.n	a5, 0
     9c3:	534450        	max	a4, a4, a5
     9c6:	ffa0f2        	movi	a15, 255
     9c9:	4344f0        	min	a4, a4, a15
     9cc:	1a5a42        	s16i	a4, a10, 52
     9cf:	822d           	ae_sext16	a2, a2
     9d1:	833d           	ae_sext16	a3, a3
     9d3:	0b0c           	movi.n	a11, 0
     9d5:	022327        	blt	a3, a2, 9db <PD_Noise_Est+0x157>
     9d8:	008006        	j	bdc <PD_Noise_Est+0x358>
     9db:	a148           	l32i.n	a4, a1, 40
     9dd:	48a422        	movi	a2, 0x448
     9e0:	530c           	movi.n	a3, 5
     9e2:	4e5d32        	s16i	a3, a13, 156
     9e5:	242a           	add.n	a2, a4, a2
     9e7:	601214        	ae_lq32f.iu	aeq0, a2, 4
     9ea:	605214        	ae_lq32f.iu	aeq1, a2, 4
     9ed:	f8663d721f 	{ ae_lq32f.iu	aeq3, a2, 4; ae_addq56	aeq0, aeq0, aeq1 }
     9f2:	f8e63d521f 	{ ae_lq32f.iu	aeq2, a2, 4; ae_addq56	aeq0, aeq0, aeq3 }
     9f7:	020c           	movi.n	a2, 0
     9f9:	fdafd1        	l32r	a13, b8 (dacccccd <_end+0xdacc08ed>)
     9fc:	f8e23ecdff 	{ ae_cvtq48a32s	aeq3, a13; ae_addq56	aeq0, aeq0, aeq2 }
     a01:	3500b4        	ae_sraiq56	aeq0, aeq0, 2
     a04:	d5580001ef 	{ movi	a14, 1; ae_leq56s	b0, aeq0, aeq3 }
     a09:	6198           	l32i.n	a9, a1, 24
     a0b:	0f0c           	movi.n	a15, 0
     a0d:	d32e00        	movt	a2, a14, b0
     a10:	0d0c           	movi.n	a13, 0
     a12:	71f9           	s32i.n	a15, a1, 28
     a14:	22ec           	bnez.n	a2, a3a <PD_Noise_Est+0x1b6>
     a16:	5ad922        	addmi	a2, a9, 0x5a00
     a19:	4c9222        	l16si	a2, a2, 152
     a1c:	f37c           	movi.n	a3, -1
     a1e:	013310        	slli	a3, a3, 31
     a21:	114200        	slli	a4, a2, 16
     a24:	305230        	xor	a5, a2, a3
     a27:	222b           	addi.n	a2, a2, 2
     a29:	212220        	srai	a2, a2, 2
     a2c:	11f200        	slli	a15, a2, 16
     a2f:	302230        	xor	a2, a2, a3
     a32:	c022f0        	sub	a2, a2, a15
     a35:	c0d540        	sub	a13, a5, a4
     a38:	7129           	s32i.n	a2, a1, 28
     a3a:	fda041        	l32r	a4, bc (dfffffe <_end+0xdff3c1e>)
     a3d:	3c2b           	addi.n	a3, a12, 2
     a3f:	5ad952        	addmi	a5, a9, 0x5a00
     a42:	2325a2        	l32i	a10, a5, 140
     a45:	21f230        	srai	a15, a3, 2
     a48:	725c40        	salt	a5, a12, a4
     a4b:	f27c           	movi.n	a2, -1
     a4d:	935f50        	movnez	a5, a15, a5
     a50:	fd9c81        	l32r	a8, c0 (b33333 <_end+0xb26f53>)
     a53:	012260        	slli	a2, a2, 26
     a56:	7f5a           	add.n	a7, a15, a5
     a58:	fd9b31        	l32r	a3, c4 (fb4ccccd <_end+0xfb4c08ed>)
     a5b:	472a           	add.n	a4, a7, a2
     a5d:	0a6d           	mov.n	a6, a10
     a5f:	232487        	blt	a4, a8, a86 <PD_Noise_Est+0x202>
     a62:	180c           	movi.n	a8, 1
     a64:	673a           	add.n	a6, a7, a3
     a66:	5ad9e2        	addmi	a14, a9, 0x5a00
     a69:	018880        	slli	a8, a8, 24
     a6c:	668a           	add.n	a6, a6, a8
     a6e:	242e72        	l32i	a7, a14, 144
     a71:	758860        	extui	a8, a6, 24, 8
     a74:	0a6d           	mov.n	a6, a10
     a76:	0c8876        	loop	a8, a86 <PD_Noise_Est+0x202>
     a79:	06d9           	s32i.n	a13, a6, 0
     a7b:	0788           	l32i.n	a8, a7, 0
     a7d:	664b           	addi.n	a6, a6, 4
     a7f:	1188f0        	slli	a8, a8, 1
     a82:	0789           	s32i.n	a8, a7, 0
     a84:	774b           	addi.n	a7, a7, 4

00000a86 <PD_Noise_Est+0x202>:
     a86:	fd8571        	l32r	a7, 9c (be40 <wb_sb_ptn>)
     a89:	7188           	l32i.n	a8, a1, 28
     a8b:	0689           	s32i.n	a8, a6, 0
     a8d:	059772        	l16si	a7, a7, 10
     a90:	5b0c           	movi.n	a11, 5
     a92:	9c7c           	movi.n	a12, -7
     a94:	e72b           	addi.n	a14, a7, 2
     a96:	016e80        	slli	a6, a14, 24
     a99:	136162        	s32i	a6, a1, 76
     a9c:	02a647        	bge	a6, a4, aa2 <PD_Noise_Est+0x21e>
     a9f:	004e46        	j	bdc <PD_Noise_Est+0x358>
     aa2:	6148           	l32i.n	a4, a1, 24
     aa4:	fd8991        	l32r	a9, c8 (fcb33333 <_end+0xfcb26f53>)
     aa7:	01cc90        	slli	a12, a12, 23
     aaa:	54d462        	addmi	a6, a4, 0x5400
     aad:	6d9662        	l16si	a6, a6, 218
     ab0:	5ad472        	addmi	a7, a4, 0x5a00
     ab3:	1e0c           	movi.n	a14, 1
     ab5:	904f50        	addx2	a4, a15, a5
     ab8:	852a           	add.n	a8, a5, a2
     aba:	242772        	l32i	a7, a7, 144
     abd:	25ca           	add.n	a2, a5, a12
     abf:	01ce80        	slli	a12, a14, 24
     ac2:	11e6e0        	slli	a14, a6, 2
     ac5:	443a           	add.n	a4, a4, a3
     ac7:	359a           	add.n	a3, a5, a9
     ac9:	b179           	s32i.n	a7, a1, 44
     acb:	1161c2        	s32i	a12, a1, 68
     ace:	1261e2        	s32i	a14, a1, 72

00000ad1 <PD_Noise_Est+0x24d>:
     ad1:	9f2a           	add.n	a9, a15, a2
     ad3:	b168           	l32i.n	a6, a1, 44
     ad5:	319890        	srai	a9, a9, 24
     ad8:	a0c9a0        	addx4	a12, a9, a10
     adb:	0a7d           	mov.n	a7, a10
     add:	0a0c           	movi.n	a10, 0
     adf:	e91b           	addi.n	a14, a9, 1
     ae1:	0ca9           	s32i.n	a10, a12, 0
     ae3:	07ad           	mov.n	a10, a7
     ae5:	01ce80        	slli	a12, a14, 24
     ae8:	5f3a           	add.n	a5, a15, a3
     aea:	a06960        	addx4	a6, a9, a6
     aed:	122172        	l32i	a7, a1, 72
     af0:	0679           	s32i.n	a7, a6, 0
     af2:	0bac57        	bge	a12, a5, b01 <PD_Noise_Est+0x27d>
     af5:	a05ea0        	addx4	a5, a14, a10
     af8:	e92b           	addi.n	a14, a9, 2
     afa:	7168           	l32i.n	a6, a1, 28
     afc:	01ce80        	slli	a12, a14, 24
     aff:	0569           	s32i.n	a6, a5, 0
     b01:	a09ea0        	addx4	a9, a14, a10
     b04:	2724c7        	blt	a4, a12, b2f <PD_Noise_Est+0x2ab>
     b07:	112162        	l32i	a6, a1, 68
     b0a:	015e80        	slli	a5, a14, 24
     b0d:	c05450        	sub	a5, a4, a5
     b10:	556a           	add.n	a5, a5, a6
     b12:	b1c8           	l32i.n	a12, a1, 44
     b14:	755850        	extui	a5, a5, 24, 8
     b17:	170c           	movi.n	a7, 1
     b19:	535570        	max	a5, a5, a7
     b1c:	a0eec0        	addx4	a14, a14, a12
     b1f:	0c8576        	loop	a5, b2f <PD_Noise_Est+0x2ab>
     b22:	09d9           	s32i.n	a13, a9, 0
     b24:	0e58           	l32i.n	a5, a14, 0
     b26:	994b           	addi.n	a9, a9, 4
     b28:	1155f0        	slli	a5, a5, 1
     b2b:	0e59           	s32i.n	a5, a14, 0
     b2d:	ee4b           	addi.n	a14, a14, 4

00000b2f <PD_Noise_Est+0x2ab>:
     b2f:	132162        	l32i	a6, a1, 76
     b32:	88fa           	add.n	a8, a8, a15
     b34:	7158           	l32i.n	a5, a1, 28
     b36:	ef8a           	add.n	a14, a15, a8
     b38:	0959           	s32i.n	a5, a9, 0
     b3a:	33fa           	add.n	a3, a3, a15
     b3c:	22fa           	add.n	a2, a2, a15
     b3e:	44fa           	add.n	a4, a4, a15
     b40:	8da6e7        	bge	a6, a14, ad1 <PD_Noise_Est+0x24d>
     b43:	002546        	j	bdc <PD_Noise_Est+0x358>

00000b46 <PD_Noise_Est+0x2c2>:
     b46:	552b           	addi.n	a5, a5, 2
     b48:	0001c6        	j	b53 <PD_Noise_Est+0x2cf>

00000b4b <PD_Noise_Est+0x2c7>:
     b4b:	551b           	addi.n	a5, a5, 1
     b4d:	000086        	j	b53 <PD_Noise_Est+0x2cf>

00000b50 <PD_Noise_Est+0x2cc>:
     b50:	e8c552        	addi	a5, a5, -24
     b53:	020c           	movi.n	a2, 0
     b55:	532520        	max	a2, a5, a2
     b58:	ffa032        	movi	a3, 255
     b5b:	432230        	min	a2, a2, a3
     b5e:	1a5a22        	s16i	a2, a10, 52
     b61:	54d832        	addmi	a3, a8, 0x5400
     b64:	6e9332        	l16si	a3, a3, 220
     b67:	0b0c           	movi.n	a11, 0
     b69:	6168           	l32i.n	a6, a1, 24
     b6b:	6d2237        	blt	a2, a3, bdc <PD_Noise_Est+0x358>
     b6e:	d8a042        	movi	a4, 216
     b71:	54d442        	addmi	a4, a4, 0x5400
     b74:	5ad632        	addmi	a3, a6, 0x5a00
     b77:	242332        	l32i	a3, a3, 144
     b7a:	410644        	ae_lp16f.x	aep0, a6, a4
     b7d:	4c1304        	ae_lp24.i	aep1, a3, 0
     b80:	ea2380ee5f 	{ movi	a5, 238; ae_mulp24s.ll	aeq0, aep0, aep1 }
     b85:	368f04        	ae_trunca32q48	a15, aeq0
     b88:	4f2b           	addi.n	a4, a15, 2
     b8a:	214240        	srai	a4, a4, 2
     b8d:	038576        	loop	a5, b94 <PD_Noise_Est+0x310>
     b90:	0349           	s32i.n	a4, a3, 0
     b92:	334b           	addi.n	a3, a3, 4

00000b94 <PD_Noise_Est+0x310>:
     b94:	54d632        	addmi	a3, a6, 0x5400
     b97:	6b9332        	l16si	a3, a3, 214
     b9a:	9148           	l32i.n	a4, a1, 36
     b9c:	6178           	l32i.n	a7, a1, 24
     b9e:	3a2237        	blt	a2, a3, bdc <PD_Noise_Est+0x358>
     ba1:	a2a032        	movi	a3, 162
     ba4:	252422        	l32i	a2, a4, 148
     ba7:	a4a042        	movi	a4, 164
     baa:	5ad332        	addmi	a3, a3, 0x5a00
     bad:	5ad442        	addmi	a4, a4, 0x5a00
     bb0:	250c           	movi.n	a5, 2
     bb2:	722250        	salt	a2, a2, a5
     bb5:	373a           	add.n	a3, a7, a3
     bb7:	474a           	add.n	a4, a7, a4
     bb9:	834320        	moveqz	a4, a3, a2
     bbc:	243d           	ae_l16si.n	a3, a4, 0
     bbe:	f67c           	movi.n	a6, -1
     bc0:	5ad7d2        	addmi	a13, a7, 0x5a00
     bc3:	016610        	slli	a6, a6, 31
     bc6:	232d22        	l32i	a2, a13, 140
     bc9:	30f360        	xor	a15, a3, a6
     bcc:	113300        	slli	a3, a3, 16
     bcf:	eea0e2        	movi	a14, 238
     bd2:	c03f30        	sub	a3, a15, a3
     bd5:	038e76        	loop	a14, bdc <PD_Noise_Est+0x358>
     bd8:	0239           	s32i.n	a3, a2, 0
     bda:	224b           	addi.n	a2, a2, 4

00000bdc <PD_Noise_Est+0x358>:
     bdc:	a1c8           	l32i.n	a12, a1, 40
     bde:	61d8           	l32i.n	a13, a1, 24
     be0:	1021e2        	l32i	a14, a1, 64
     be3:	171c22        	l16ui	a2, a12, 46
     be6:	431c           	movi.n	a3, 20
     be8:	54dda2        	addmi	a10, a13, 0x5400
     beb:	6d3327        	bltu	a3, a2, c5c <PD_Noise_Est+0x3d8>
     bee:	0872f6        	bgeui	a2, 7, bfa <PD_Noise_Est+0x376>
     bf1:	7da122        	movi	a2, 0x17d
     bf4:	1122d0        	slli	a2, a2, 3
     bf7:	000446        	j	c0c <PD_Noise_Est+0x388>

00000bfa <PD_Noise_Est+0x376>:
     bfa:	08b2f6        	bgeui	a2, 16, c06 <PD_Noise_Est+0x382>
     bfd:	fba222        	movi	a2, 0x2fb
     c00:	1122e0        	slli	a2, a2, 2
     c03:	000146        	j	c0c <PD_Noise_Est+0x388>

00000c06 <PD_Noise_Est+0x382>:
     c06:	bfa022        	movi	a2, 191
     c09:	1122c0        	slli	a2, a2, 4
     c0c:	2c2a           	add.n	a2, a12, a2
     c0e:	222d           	ae_l16si.n	a2, a2, 0
     c10:	fd2341        	l32r	a4, 9c (be40 <wb_sb_ptn>)
     c13:	f57c           	movi.n	a5, -1
     c15:	5add32        	addmi	a3, a13, 0x5a00
     c18:	015510        	slli	a5, a5, 31
     c1b:	960c           	movi.n	a6, 9
     c1d:	000ac6        	j	c4c <PD_Noise_Est+0x3c8>

00000c20 <PD_Noise_Est+0x39c>:
     c20:	bb1b           	addi.n	a11, a11, 1
     c22:	908b40        	addx2	a8, a11, a4
     c25:	297d           	ae_l16si.n	a7, a9, 0
     c27:	288d           	ae_l16si.n	a8, a8, 0
     c29:	1ca787        	bge	a7, a8, c49 <PD_Noise_Est+0x3c5>
     c2c:	232392        	l32i	a9, a3, 140
     c2f:	c08870        	sub	a8, a8, a7
     c32:	a07790        	addx4	a7, a7, a9
     c35:	108876        	loop	a8, c49 <PD_Noise_Est+0x3c5>
     c38:	478d           	ae_l16ui.n	a8, a7, 0
     c3a:	882a           	add.n	a8, a8, a2
     c3c:	119800        	slli	a9, a8, 16
     c3f:	308850        	xor	a8, a8, a5
     c42:	c08890        	sub	a8, a8, a9
     c45:	0789           	s32i.n	a8, a7, 0
     c47:	774b           	addi.n	a7, a7, 4

00000c49 <PD_Noise_Est+0x3c5>:
     c49:	0f1b67        	beq	a11, a6, c5c <PD_Noise_Est+0x3d8>

00000c4c <PD_Noise_Est+0x3c8>:
     c4c:	a07be0        	addx4	a7, a11, a14
     c4f:	0778           	l32i.n	a7, a7, 0
     c51:	909b40        	addx2	a9, a11, a4
     c54:	c817a6        	blti	a7, 1, c20 <PD_Noise_Est+0x39c>
     c57:	bb1b           	addi.n	a11, a11, 1
     c59:	fffb06        	j	c49 <PD_Noise_Est+0x3c5>

00000c5c <PD_Noise_Est+0x3d8>:
     c5c:	811a22        	l16ui	a2, a10, 0x102
     c5f:	f47c           	movi.n	a4, -1
     c61:	823d           	ae_sext16	a3, a2
     c63:	015396        	bltz	a3, c7c <PD_Noise_Est+0x3f8>
     c66:	021c42        	l16ui	a4, a12, 4
     c69:	531b           	addi.n	a5, a3, 1
     c6b:	90f440        	addx2	a15, a4, a4
     c6e:	113fe0        	slli	a3, a15, 2
     c71:	622230        	saltu	a2, a2, a3
     c74:	f37c           	movi.n	a3, -1
     c76:	933520        	movnez	a3, a5, a2
     c79:	000086        	j	c7f <PD_Noise_Est+0x3fb>

00000c7c <PD_Noise_Est+0x3f8>:
     c7c:	f43040        	extui	a3, a4, 0, 16
     c7f:	8168           	l32i.n	a6, a1, 32
     c81:	fd12b1        	l32r	a11, cc (7fff0000 <_end+0x7ffe3c20>)
     c84:	815a32        	s16i	a3, a10, 0x102
     c87:	3e2622        	l32i	a2, a6, 248
     c8a:	f148           	l32i.n	a4, a1, 60
     c8c:	55dd52        	addmi	a5, a13, 0x5500
     c8f:	928c           	beqz.n	a2, c9c <PD_Noise_Est+0x418>
     c91:	0448           	l32i.n	a4, a4, 0
     c93:	15e4d6        	bgez	a4, df5 <PD_Noise_Est+0x571>
     c96:	021542        	l16ui	a4, a5, 4
     c99:	158456        	bnez	a4, df5 <PD_Noise_Est+0x571>
     c9c:	9148           	l32i.n	a4, a1, 36
     c9e:	5add72        	addmi	a7, a13, 0x5a00
     ca1:	e158           	l32i.n	a5, a1, 56
     ca3:	252442        	l32i	a4, a4, 148
     ca6:	833d           	ae_sext16	a3, a3
     ca8:	855d           	ae_sext16	a5, a5
     caa:	0224a6        	blti	a4, 2, cb0 <PD_Noise_Est+0x42c>
     cad:	005106        	j	df5 <PD_Noise_Est+0x571>
     cb0:	4d9742        	l16si	a4, a7, 154
     cb3:	1e0c           	movi.n	a14, 1
     cb5:	11ee20        	slli	a14, a14, 14
     cb8:	022457        	blt	a4, a5, cbe <PD_Noise_Est+0x43a>
     cbb:	004d86        	j	df5 <PD_Noise_Est+0x571>
     cbe:	004396        	bltz	a3, cc6 <PD_Noise_Est+0x442>
     cc1:	0c5d           	mov.n	a5, a12
     cc3:	000a06        	j	cef <PD_Noise_Est+0x46b>

00000cc6 <PD_Noise_Est+0x442>:
     cc6:	0a9c22        	l16si	a2, a12, 20
     cc9:	0b9c32        	l16si	a3, a12, 22
     ccc:	0c9c42        	l16si	a4, a12, 24
     ccf:	c188           	l32i.n	a8, a1, 48
     cd1:	232a           	add.n	a2, a3, a2
     cd3:	224a           	add.n	a2, a2, a4
     cd5:	54ddf2        	addmi	a15, a13, 0x5400
     cd8:	0c5d           	mov.n	a5, a12
     cda:	08a8           	l32i.n	a10, a8, 0
     cdc:	6f9fc2        	l16si	a12, a15, 222
     cdf:	045122        	s16i	a2, a1, 8
     ce2:	82bd           	ae_sext16	a11, a2
     ce4:	fcfb21        	l32r	a2, d0 (9aa0 <cal_wind_score>)
     ce7:	0002e0        	callx8	a2
     cea:	3e2622        	l32i	a2, a6, 248
     ced:	0aed           	mov.n	a14, a10
     cef:	ffa032        	movi	a3, 255
     cf2:	3fd332        	addmi	a3, a3, 0x3f00
     cf5:	3e3a           	add.n	a3, a14, a3
     cf7:	058d           	mov.n	a8, a5
     cf9:	045132        	s16i	a3, a1, 8
     cfc:	099216        	beqz	a2, d99 <PD_Noise_Est+0x515>
     cff:	1cc522        	addi	a2, a5, 28
     d02:	400204        	ae_lp16f.i	aep0, a2, 0
     d05:	401144        	ae_lp16f.i	aep1, a1, 8
     d08:	e820b061de 	{ l32i	a13, a1, 24; ae_mulfp24s.hh	aeq0, aep0, aep1 }
     d0d:	af2c           	movi.n	a15, 42
     d0f:	3502f4        	ae_sraiq56	aeq0, aeq0, 11
     d12:	5add22        	addmi	a2, a13, 0x5a00
     d15:	620134        	ae_sq32f.i	aeq0, a1, 12
     d18:	242222        	l32i	a2, a2, 144
     d1b:	3138           	l32i.n	a3, a1, 12
     d1d:	038f76        	loop	a15, d24 <PD_Noise_Est+0x4a0>
     d20:	0239           	s32i.n	a3, a2, 0
     d22:	224b           	addi.n	a2, a2, 4

00000d24 <PD_Noise_Est+0x4a0>:
     d24:	d128           	l32i.n	a2, a1, 52
     d26:	343c           	movi.n	a4, 51
     d28:	5bd442        	addmi	a4, a4, 0x5b00
     d2b:	4f9232        	l16si	a3, a2, 158
     d2e:	4d9722        	l16si	a2, a7, 154
     d31:	6168           	l32i.n	a6, a1, 24
     d33:	113330        	slli	a3, a3, 13
     d36:	d14240        	mul16s	a4, a2, a4
     d39:	112220        	slli	a2, a2, 14
     d3c:	2ca437        	bge	a4, a3, d6c <PD_Noise_Est+0x4e8>
     d3f:	6168           	l32i.n	a6, a1, 24
     d41:	0bd822        	addmi	a2, a8, 0xb00
     d44:	15d842        	addmi	a4, a8, 0x1500
     d47:	5ad632        	addmi	a3, a6, 0x5a00
     d4a:	3a22d2        	l32i	a13, a2, 232
     d4d:	2323a2        	l32i	a10, a3, 140
     d50:	0494b2        	l16si	a11, a4, 8
     d53:	fce021        	l32r	a2, d4 (830 <wind_noise_alpha>)
     d56:	fce0c1        	l32r	a12, d8 (33334ccd <_end+0x333288ed>)
     d59:	085d           	mov.n	a5, a8
     d5b:	0002e0        	callx8	a2
     d5e:	509322        	l16si	a2, a3, 160
     d61:	06dd           	mov.n	a13, a6
     d63:	d12220        	mul16s	a2, a2, a2
     d66:	11b2f0        	slli	a11, a2, 1
     d69:	002106        	j	df1 <PD_Noise_Est+0x56d>

00000d6c <PD_Noise_Est+0x4e8>:
     d6c:	5fa237        	bge	a2, a3, dcf <PD_Noise_Est+0x54b>
     d6f:	6168           	l32i.n	a6, a1, 24
     d71:	0bd822        	addmi	a2, a8, 0xb00
     d74:	15d842        	addmi	a4, a8, 0x1500
     d77:	5ad632        	addmi	a3, a6, 0x5a00
     d7a:	2323a2        	l32i	a10, a3, 140
     d7d:	0494b2        	l16si	a11, a4, 8
     d80:	3a22c2        	l32i	a12, a2, 232
     d83:	3b22d2        	l32i	a13, a2, 236
     d86:	fcd321        	l32r	a2, d4 (830 <wind_noise_alpha>)
     d89:	085d           	mov.n	a5, a8
     d8b:	0002e0        	callx8	a2
     d8e:	509322        	l16si	a2, a3, 160
     d91:	06dd           	mov.n	a13, a6
     d93:	11b200        	slli	a11, a2, 16
     d96:	0015c6        	j	df1 <PD_Noise_Est+0x56d>

00000d99 <PD_Noise_Est+0x515>:
     d99:	15d522        	addmi	a2, a5, 0x1500
     d9c:	049232        	l16si	a3, a2, 8
     d9f:	6168           	l32i.n	a6, a1, 24
     da1:	040c           	movi.n	a4, 0
     da3:	0213e6        	bgei	a3, 1, da9 <PD_Noise_Est+0x525>
     da6:	ffde86        	j	d24 <PD_Noise_Est+0x4a0>
     da9:	5ad632        	addmi	a3, a6, 0x5a00
     dac:	242332        	l32i	a3, a3, 144
     daf:	400144        	ae_lp16f.i	aep0, a1, 8
     db2:	600304        	ae_lq32f.i	aeq0, a3, 0
     db5:	fcc352        	addi	a5, a3, -4
     db8:	d4e200144e 	{ addi	a4, a4, 1; ae_mulfq32sp16s.l	aeq0, aeq0, aep0 }
     dbd:	354054        	ae_slliq56	aeq1, aeq0, 1
     dc0:	601314        	ae_lq32f.iu	aeq0, a3, 4
     dc3:	625514        	ae_sq32f.iu	aeq1, a5, 4
     dc6:	049262        	l16si	a6, a2, 8
     dc9:	eb2467        	blt	a4, a6, db8 <PD_Noise_Est+0x534>
     dcc:	ffd506        	j	d24 <PD_Noise_Est+0x4a0>

00000dcf <PD_Noise_Est+0x54b>:
     dcf:	0bd822        	addmi	a2, a8, 0xb00
     dd2:	15d842        	addmi	a4, a8, 0x1500
     dd5:	5ad632        	addmi	a3, a6, 0x5a00
     dd8:	2323a2        	l32i	a10, a3, 140
     ddb:	0494b2        	l16si	a11, a4, 8
     dde:	3b22c2        	l32i	a12, a2, 236
     de1:	3c22d2        	l32i	a13, a2, 240
     de4:	fcbc21        	l32r	a2, d4 (830 <wind_noise_alpha>)
     de7:	085d           	mov.n	a5, a8
     de9:	0002e0        	callx8	a2
     dec:	fcb8b1        	l32r	a11, cc (7fff0000 <_end+0x7ffe3c20>)
     def:	06dd           	mov.n	a13, a6
     df1:	8168           	l32i.n	a6, a1, 32
     df3:	05cd           	mov.n	a12, a5
     df5:	15dc42        	addmi	a4, a12, 0x1500
     df8:	fcb921        	l32r	a2, dc (7fe70019 <_end+0x7fe63c39>)
     dfb:	4129           	s32i.n	a2, a1, 16
     dfd:	14a8           	l32i.n	a10, a4, 4
     dff:	fcb921        	l32r	a2, e4 (49cc <siir_safr>)
     e02:	fcb731        	l32r	a3, e0 (7e1401ec <_end+0x7e133e0c>)
     e05:	10c1c2        	addi	a12, a1, 16
     e08:	5139           	s32i.n	a3, a1, 20
     e0a:	0d5d           	mov.n	a5, a13
     e0c:	0002e0        	callx8	a2
     e0f:	55d552        	addmi	a5, a5, 0x5500
     e12:	029522        	l16si	a2, a5, 4
     e15:	3e2632        	l32i	a3, a6, 248
     e18:	3d0c           	movi.n	a13, 3
     e1a:	e21b           	addi.n	a14, a2, 1
     e1c:	0f0c           	movi.n	a15, 0
     e1e:	220b           	addi.n	a2, a2, -1
     e20:	14a9           	s32i.n	a10, a4, 4
     e22:	5362f0        	max	a6, a2, a15
     e25:	434ed0        	min	a4, a14, a13
     e28:	936430        	movnez	a6, a4, a3
     e2b:	020c           	movi.n	a2, 0
     e2d:	025562        	s16i	a6, a5, 4
     e30:	f01d           	retw.n

00000e32 <PD_Noise_Est+0x5ae>:
	...

00000e34 <PD_Noise_Gain>:
     e34:	004136        	entry	a1, 32
     e37:	fc9821        	l32r	a2, 98 (c3d4 <p_ecnr_mem>)
     e3a:	0228           	l32i.n	a2, a2, 0
     e3c:	5ad222        	addmi	a2, a2, 0x5a00
     e3f:	4e9222        	l16si	a2, a2, 156
     e42:	f01d           	retw.n

00000e44 <voiced_decision>:
     e44:	012136        	entry	a1, 144
     e47:	fc9441        	l32r	a4, 98 (c3d4 <p_ecnr_mem>)
     e4a:	eca052        	movi	a5, 236
     e4d:	14a182        	movi	a8, 0x114
     e50:	0468           	l32i.n	a6, a4, 0
     e52:	9ca0d2        	movi	a13, 156
     e55:	0b0c           	movi.n	a11, 0
     e57:	1ad662        	addmi	a6, a6, 0x1a00
     e5a:	192662        	l32i	a6, a6, 100
     e5d:	ec4c           	movi.n	a12, 78
     e5f:	156132        	s32i	a3, a1, 84
     e62:	e65a           	add.n	a14, a6, a5
     e64:	fca151        	l32r	a5, e8 (9a30 <memset>)
     e67:	f68a           	add.n	a15, a6, a8
     e69:	06ad           	mov.n	a10, a6
     e6b:	76da           	add.n	a7, a6, a13
     e6d:	1961e2        	s32i	a14, a1, 100
     e70:	81f9           	s32i.n	a15, a1, 32
     e72:	040c           	movi.n	a4, 0
     e74:	0005e0        	callx8	a5
     e77:	aca032        	movi	a3, 172
     e7a:	0b0c           	movi.n	a11, 0
     e7c:	a0a0c2        	movi	a12, 160
     e7f:	07ad           	mov.n	a10, a7
     e81:	323a           	add.n	a3, a2, a3
     e83:	186172        	s32i	a7, a1, 96
     e86:	0005e0        	callx8	a5
     e89:	54c152        	addi	a5, a1, 84
     e8c:	fc9871        	l32r	a7, ec (147ae1 <_end+0x13b701>)
     e8f:	9522f2        	l32i	a15, a2, 0x254
     e92:	60c504        	ae_lq32f.i	aeq3, a5, 0
     e95:	398774        	ae_movpa24x2	aep0, a7, a7
     e98:	180c           	movi.n	a8, 1
     e9a:	fb017ecf7f 	{ ae_cvtq48a32s	aeq1, a15; ae_mulfq32sp24s.h	aeq3, aeq3, aep0 }
     e9f:	3498b4        	ae_sraaq56	aeq2, aeq1, a8
     ea2:	f9ea53c22f 	{ or	a12, a2, a2; ae_addsq56s	aeq1, aeq1, aeq2 }
     ea7:	f9ef06819e 	{ addi	a9, a1, 104; ae_maxq56s	aeq1, aeq3, aeq1 }
     eac:	360434        	ae_cvtq48a32s	aeq0, a4
     eaf:	2a6242        	s32i	a4, a2, 168
     eb2:	630134        	ae_sq56s.i	aeq0, a1, 24
     eb5:	722c           	movi.n	a2, 39
     eb7:	150c           	movi.n	a5, 1
     eb9:	580c           	movi.n	a8, 5
     ebb:	070c           	movi.n	a7, 0
     ebd:	106192        	s32i	a9, a1, 64
     ec0:	621904        	ae_sq32f.i	aeq1, a9, 0

00000ec3 <voiced_decision+0x7f>:
     ec3:	609314        	ae_lq32f.iu	aeq2, a3, 4
     ec6:	d65400009f 	{ movi	a9, 0; ae_ltq56s	b0, aeq1, aeq2 }
     ecb:	01c442        	addi	a4, a4, 1
     ece:	61c134        	ae_lq56.i	aeq3, a1, 24
     ed1:	d39500        	movt	a9, a5, b0
     ed4:	d99c           	beqz.n	a9, ef5 <voiced_decision+0xb1>
     ed6:	f4c392        	addi	a9, a3, -12
     ed9:	058876        	loop	a8, ee2 <voiced_decision+0x9e>
     edc:	601914        	ae_lq32f.iu	aeq0, a9, 4
     edf:	01f0c4        	ae_maxq56s	aeq3, aeq0, aeq3

00000ee2 <voiced_decision+0x9e>:
     ee2:	d4d800009f 	{ movi	a9, 0; ae_eqq56	b0, aeq2, aeq3 }
     ee7:	87ad           	ae_sext16	a10, a7
     ee9:	90ba60        	addx2	a11, a10, a6
     eec:	d39500        	movt	a9, a5, b0
     eef:	298c           	beqz.n	a9, ef5 <voiced_decision+0xb1>
     ef1:	771b           	addi.n	a7, a7, 1
     ef3:	6b4d           	ae_s16i.n	a4, a11, 0

00000ef5 <voiced_decision+0xb1>:
     ef5:	ca9427        	bne	a4, a2, ec3 <voiced_decision+0x7f>
     ef8:	270b           	addi.n	a2, a7, -1
     efa:	827d           	ae_sext16	a7, a2
     efc:	0a5122        	s16i	a2, a1, 20
     eff:	4cc132        	addi	a3, a1, 76
     f02:	10c122        	addi	a2, a1, 16
     f05:	1761c2        	s32i	a12, a1, 92
     f08:	0217e6        	bgei	a7, 1, f0e <voiced_decision+0xca>
     f0b:	003086        	j	fd1 <voiced_decision+0x18d>
     f0e:	140c           	movi.n	a4, 1
     f10:	950c           	movi.n	a5, 9
     f12:	114410        	slli	a4, a4, 15
     f15:	115580        	slli	a5, a5, 8
     f18:	398554        	ae_movpa24x2	aep0, a5, a5
     f1b:	864b           	addi.n	a8, a6, 4
     f1d:	368434        	ae_cvtq48a32s	aeq2, a4
     f20:	166182        	s32i	a8, a1, 88
     f23:	090c           	movi.n	a9, 0
     f25:	050c           	movi.n	a5, 0
     f27:	560154        	ae_sp24x2s.i	aep0, a1, 40
     f2a:	632134        	ae_sq56s.i	aeq2, a1, 24
     f2d:	000f06        	j	f6d <voiced_decision+0x129>

00000f30 <voiced_decision+0xec>:
     f30:	adea           	add.n	a10, a13, a14
     f32:	fc6f81        	l32r	a8, f0 (133c <Xfrac_num_pd_td32>)
     f35:	9c0c           	movi.n	a12, 9
     f37:	0008e0        	callx8	a8
     f3a:	1721c2        	l32i	a12, a1, 92
     f3d:	618134        	ae_lq56.i	aeq2, a1, 24
     f40:	1361a2        	s32i	a10, a1, 76
     f43:	600304        	ae_lq32f.i	aeq0, a3, 0
     f46:	f8e3b1819e 	{ l32i	a9, a1, 96; ae_roundsp16q48sym	aep0, aeq0 }
     f4b:	420204        	ae_sp16f.l.i	aep0, a2, 0
     f4e:	0891d2        	l16si	a13, a1, 16
     f51:	858d           	ae_sext16	a8, a5
     f53:	1921e2        	l32i	a14, a1, 100
     f56:	a09890        	addx4	a9, a8, a9
     f59:	09a9           	s32i.n	a10, a9, 0
     f5b:	a09dc0        	addx4	a9, a13, a12
     f5e:	4519f2        	l16ui	a15, a9, 138
     f61:	9088e0        	addx2	a8, a8, a14
     f64:	551b           	addi.n	a5, a5, 1
     f66:	049d           	mov.n	a9, a4
     f68:	68fd           	ae_s16i.n	a15, a8, 0
     f6a:	67a477        	bge	a4, a7, fd5 <voiced_decision+0x191>
     f6d:	491b           	addi.n	a4, a9, 1
     f6f:	fc1451896f 	{ addx2	a8, a9, a6; ae_movq56	aeq0, aeq2 }
     f74:	90a460        	addx2	a10, a4, a6
     f77:	28bd           	ae_l16si.n	a11, a8, 0
     f79:	2a8d           	ae_l16si.n	a8, a10, 0
     f7b:	aca0e2        	movi	a14, 172
     f7e:	a0dbc0        	addx4	a13, a11, a12
     f81:	c0a8b0        	sub	a10, a8, a11
     f84:	a81a66        	bnei	a10, 1, f30 <voiced_decision+0xec>
     f87:	28a477        	bge	a4, a7, fb3 <voiced_decision+0x16f>
     f8a:	fc147161ae 	{ l32i	a10, a1, 88; ae_movq56	aeq0, aeq2 }
     f8f:	c0b740        	sub	a11, a7, a4
     f92:	08dd           	mov.n	a13, a8
     f94:	9099a0        	addx2	a9, a9, a10
     f97:	04ad           	mov.n	a10, a4
     f99:	168b76        	loop	a11, fb3 <voiced_decision+0x16f>
     f9c:	298d           	ae_l16si.n	a8, a9, 0
     f9e:	8d4d           	ae_sext16	a4, a13
     fa0:	992b           	addi.n	a9, a9, 2
     fa2:	c0b840        	sub	a11, a8, a4
     fa5:	0a4d           	mov.n	a4, a10
     fa7:	081b66        	bnei	a11, 1, fb3 <voiced_decision+0x16f>
     faa:	f8e2401aae 	{ addi	a10, a10, 1; ae_addsq56s	aeq0, aeq0, aeq2 }
     faf:	074d           	mov.n	a4, a7
     fb1:	08dd           	mov.n	a13, a8

00000fb3 <voiced_decision+0x16f>:
     fb3:	908460        	addx2	a8, a4, a6
     fb6:	400804        	ae_lp16f.i	aep0, a8, 0
     fb9:	541154        	ae_lp24x2.i	aep1, a1, 40
     fbc:	d82100144e 	{ addi	a4, a4, 1; ae_addsp24s	aep0, aep0, aep1 }
     fc1:	0a4884        	ae_cvtq48p24s.h	aeq1, aep0
     fc4:	061814        	ae_subsq56s	aeq0, aeq1, aeq0
     fc7:	620304        	ae_sq32f.i	aeq0, a3, 0
     fca:	1321a2        	l32i	a10, a1, 76
     fcd:	ffdc86        	j	f43 <voiced_decision+0xff>

00000fd0 <voiced_decision+0x18c>:
	...

00000fd1 <voiced_decision+0x18d>:
     fd1:	050c           	movi.n	a5, 0
     fd3:	040c           	movi.n	a4, 0
     fd5:	419477        	bne	a4, a7, 101a <voiced_decision+0x1d6>
     fd8:	904760        	addx2	a4, a7, a6
     fdb:	24bd           	ae_l16si.n	a11, a4, 0
     fdd:	aca0f2        	movi	a15, 172
     fe0:	4cfa           	add.n	a4, a12, a15
     fe2:	fc4361        	l32r	a6, f0 (133c <Xfrac_num_pd_td32>)
     fe5:	a0ab40        	addx4	a10, a11, a4
     fe8:	9c0c           	movi.n	a12, 9
     fea:	0006e0        	callx8	a6
     fed:	1361a2        	s32i	a10, a1, 76
     ff0:	600304        	ae_lq32f.i	aeq0, a3, 0
     ff3:	f8e3b1817e 	{ l32i	a7, a1, 96; ae_roundsp16q48sym	aep0, aeq0 }
     ff8:	420204        	ae_sp16f.l.i	aep0, a2, 0
     ffb:	089122        	l16si	a2, a1, 16
     ffe:	856d           	ae_sext16	a6, a5
    1000:	1921f2        	l32i	a15, a1, 100
    1003:	a02240        	addx4	a2, a2, a4
    1006:	a07670        	addx4	a7, a6, a7
    1009:	1721c2        	l32i	a12, a1, 92
    100c:	07a9           	s32i.n	a10, a7, 0
    100e:	dec222        	addi	a2, a2, -34
    1011:	9036f0        	addx2	a3, a6, a15
    1014:	422d           	ae_l16ui.n	a2, a2, 0
    1016:	551b           	addi.n	a5, a5, 1
    1018:	632d           	ae_s16i.n	a2, a3, 0
    101a:	858d           	ae_sext16	a8, a5
    101c:	0218e6        	bgei	a8, 1, 1022 <voiced_decision+0x1de>
    101f:	007146        	j	11e8 <voiced_decision+0x3a4>
    1022:	8138           	l32i.n	a3, a1, 32
    1024:	120c           	movi.n	a2, 1
    1026:	166182        	s32i	a8, a1, 88
    1029:	038876        	loop	a8, 1030 <voiced_decision+0x1ec>
    102c:	632d           	ae_s16i.n	a2, a3, 0
    102e:	332b           	addi.n	a3, a3, 2

00001030 <voiced_decision+0x1ec>:
    1030:	05dc62        	addmi	a6, a12, 0x500
    1033:	0c9622        	l16si	a2, a6, 24
    1036:	130c           	movi.n	a3, 1
    1038:	113300        	slli	a3, a3, 16
    103b:	0212e6        	bgei	a2, 1, 1041 <voiced_decision+0x1fd>
    103e:	006dc6        	j	11f9 <voiced_decision+0x3b5>
    1041:	360334        	ae_cvtq48a32s	aeq0, a3
    1044:	3a0c           	movi.n	a10, 3
    1046:	162182        	l32i	a8, a1, 88
    1049:	172132        	l32i	a3, a1, 92
    104c:	fc2ac1        	l32r	a12, f4 (533333 <_end+0x526f53>)
    104f:	fc2cf1        	l32r	a15, 100 (5ccccd <_end+0x5c08ed>)
    1052:	f90c           	movi.n	a9, 15
    1054:	39eff4        	ae_movpa24x2	aep6, a15, a15
    1057:	01aab0        	slli	a10, a10, 21
    105a:	fc2ab1        	l32r	a11, 104 (2ccccd <_end+0x2c08ed>)
    105d:	39bcc4        	ae_movpa24x2	aep3, a12, a12
    1060:	1821f2        	l32i	a15, a1, 96
    1063:	81c8           	l32i.n	a12, a1, 32
    1065:	119910        	slli	a9, a9, 15
    1068:	fc24d1        	l32r	a13, f8 (5851ec <_end+0x578e0c>)
    106b:	fc24e1        	l32r	a14, fc (5ae148 <_end+0x5a1d68>)
    106e:	399bb4        	ae_movpa24x2	aep1, a11, a11
    1071:	fc25b1        	l32r	a11, 108 (466666 <_end+0x45a286>)
    1074:	39faa4        	ae_movpa24x2	aep7, a10, a10
    1077:	6ca542        	movi	a4, 0x56c
    107a:	398994        	ae_movpa24x2	aep0, a9, a9
    107d:	39abb4        	ae_movpa24x2	aep2, a11, a11
    1080:	39cdd4        	ae_movpa24x2	aep4, a13, a13
    1083:	39dee4        	ae_movpa24x2	aep5, a14, a14
    1086:	922d           	ae_zext16	a2, a2
    1088:	630134        	ae_sq56s.i	aeq0, a1, 24
    108b:	10c372        	addi	a7, a3, 16
    108e:	880b           	addi.n	a8, a8, -1
    1090:	090c           	movi.n	a9, 0
    1092:	42a5b2        	movi	a11, 0x542
    1095:	50c1d2        	addi	a13, a1, 80
    1098:	1e0c           	movi.n	a14, 1
    109a:	a34a           	add.n	a10, a3, a4
    109c:	566174        	ae_sp24x2s.i	aep6, a1, 56
    109f:	567164        	ae_sp24x2s.i	aep7, a1, 48

000010a2 <voiced_decision+0x25e>:
    10a2:	604f04        	ae_lq32f.i	aeq1, a15, 0
    10a5:	d4634ff23e 	{ addi	a3, a2, -1; ae_mulfq32sp16s.h	aeq1, aeq1, aep0 }
    10aa:	0f28           	l32i.n	a2, a15, 0
    10ac:	610134        	ae_lq56.i	aeq0, a1, 24
    10af:	f86715439f 	{ sub	a4, a3, a9; ae_maxq56s	aeq0, aeq1, aeq0 }
    10b4:	21a937        	bge	a9, a3, 10d9 <voiced_decision+0x295>
    10b7:	068824        	ae_negq56	aeq2, aeq0
    10ba:	a039a0        	addx4	a3, a9, a10
    10bd:	188476        	loop	a4, 10d9 <voiced_decision+0x295>
    10c0:	0348           	l32i.n	a4, a3, 0
    10c2:	334b           	addi.n	a3, a3, 4
    10c4:	c04420        	sub	a4, a4, a2
    10c7:	146142        	s32i	a4, a1, 80
    10ca:	60cd04        	ae_lq32f.i	aeq3, a13, 0
    10cd:	d6d800004f 	{ movi	a4, 0; ae_ltq56s	b0, aeq2, aeq3 }
    10d2:	d34e00        	movt	a4, a14, b0
    10d5:	04cc           	bnez.n	a4, 10d9 <voiced_decision+0x295>
    10d7:	991b           	addi.n	a9, a9, 1

000010d9 <voiced_decision+0x295>:
    10d9:	172142        	l32i	a4, a1, 92
    10dc:	a03940        	addx4	a3, a9, a4
    10df:	05d332        	addmi	a3, a3, 0x500
    10e2:	1b2332        	l32i	a3, a3, 108
    10e5:	c02320        	sub	a2, a3, a2
    10e8:	602120        	abs	a2, a2
    10eb:	146122        	s32i	a2, a1, 80
    10ee:	608d04        	ae_lq32f.i	aeq2, a13, 0
    10f1:	d5c000003f 	{ movi	a3, 0; ae_leq56s	b0, aeq2, aeq0 }
    10f6:	902940        	addx2	a2, a9, a4
    10f9:	d33e00        	movt	a3, a14, b0
    10fc:	04a316        	beqz	a3, 114a <voiced_decision+0x306>
    10ff:	407704        	ae_lp16f.i	aep7, a7, 0
    1102:	4162b4        	ae_lp16f.x	aep6, a2, a11
    1105:	e9dccd8c3e 	{ addi	a3, a12, -40; ae_mulfp24s.hh	aeq3, aep7, aep6 }
    110a:	407304        	ae_lp16f.i	aep7, a3, 0
    110d:	fce43a015f 	{ ae_sq56s.i	aeq0, a1, 40; ae_cvtq48p24s.h	aeq0, aep7 }
    1112:	fbfffb00df 	{ ae_sraiq56	aeq3, aeq0, 1; ae_roundsp24q48sym	aep7, aeq3 }
    1117:	e8e4c0004f 	{ movi	a4, 0; ae_mulfp24s.hh	aeq1, aep1, aep7 }
    111c:	e8e880013f 	{ movi	a3, 1; ae_mulfp24s.hh	aeq0, aep2, aep7 }
    1121:	099304        	ae_ltq56s	b0, aeq3, aeq1
    1124:	098314        	ae_ltq56s	b1, aeq3, aeq0
    1127:	013f44        	ae_mulfp24s.hh	aeq1, aep3, aep7
    112a:	e8f0964e0f 	{ movt	a4, a14, b0; ae_mulfp24s.hh	aeq0, aep4, aep7 }
    112f:	05f456        	bnez	a4, 1192 <voiced_decision+0x34e>
    1132:	d6cc00003f 	{ movi	a3, 0; ae_ltq56s	b0, aeq3, aeq1 }
    1137:	d6c4563e1f 	{ movt	a3, a14, b1; ae_ltq56s	b1, aeq3, aeq0 }
    113c:	439c           	beqz.n	a3, 1154 <voiced_decision+0x310>
    113e:	05d222        	addmi	a2, a2, 0x500
    1141:	0d9222        	l16si	a2, a2, 26
    1144:	fbc222        	addi	a2, a2, -5
    1147:	001086        	j	118d <voiced_decision+0x349>

0000114a <voiced_decision+0x306>:
    114a:	120c           	movi.n	a2, 1
    114c:	6c2d           	ae_s16i.n	a2, a12, 0
    114e:	04f856        	bnez	a8, 11a1 <voiced_decision+0x35d>
    1151:	002906        	j	11f9 <voiced_decision+0x3b5>

00001154 <voiced_decision+0x310>:
    1154:	030c           	movi.n	a3, 0
    1156:	e8f4963e0f 	{ movt	a3, a14, b0; ae_mulfp24s.hh	aeq0, aep5, aep7 }
    115b:	a38c           	beqz.n	a3, 1169 <voiced_decision+0x325>
    115d:	05d222        	addmi	a2, a2, 0x500
    1160:	0d9222        	l16si	a2, a2, 26
    1163:	fcc222        	addi	a2, a2, -4
    1166:	0008c6        	j	118d <voiced_decision+0x349>

00001169 <voiced_decision+0x325>:
    1169:	030c           	movi.n	a3, 0
    116b:	d6c4163e1f 	{ movt	a3, a14, b1; ae_ltq56s	b0, aeq3, aeq0 }
    1170:	a38c           	beqz.n	a3, 117e <voiced_decision+0x33a>
    1172:	05d222        	addmi	a2, a2, 0x500
    1175:	0d9222        	l16si	a2, a2, 26
    1178:	fec222        	addi	a2, a2, -2
    117b:	000386        	j	118d <voiced_decision+0x349>

0000117e <voiced_decision+0x33a>:
    117e:	030c           	movi.n	a3, 0
    1180:	d33e00        	movt	a3, a14, b0
    1183:	63ac           	beqz.n	a3, 11ad <voiced_decision+0x369>
    1185:	05d222        	addmi	a2, a2, 0x500
    1188:	0d9222        	l16si	a2, a2, 26
    118b:	220b           	addi.n	a2, a2, -1
    118d:	130c           	movi.n	a3, 1
    118f:	533230        	max	a3, a2, a3
    1192:	6c3d           	ae_s16i.n	a3, a12, 0
    1194:	0c9622        	l16si	a2, a6, 24
    1197:	220b           	addi.n	a2, a2, -1
    1199:	722920        	salt	a2, a9, a2
    119c:	992a           	add.n	a9, a9, a2
    119e:	057816        	beqz	a8, 11f9 <voiced_decision+0x3b5>
    11a1:	0c9622        	l16si	a2, a6, 24
    11a4:	cc2b           	addi.n	a12, a12, 2
    11a6:	880b           	addi.n	a8, a8, -1
    11a8:	ff4b           	addi.n	a15, a15, 4
    11aa:	ffbd06        	j	10a2 <voiced_decision+0x25e>

000011ad <voiced_decision+0x369>:
    11ad:	546174        	ae_lp24x2.i	aep6, a1, 56
    11b0:	e8f880003f 	{ movi	a3, 0; ae_mulfp24s.hh	aeq0, aep6, aep7 }
    11b5:	05d242        	addmi	a4, a2, 0x500
    11b8:	d6c430616f 	{ ae_lp24x2.i	aep6, a1, 48; ae_ltq56s	b0, aeq3, aeq0 }
    11bd:	610154        	ae_lq56.i	aeq0, a1, 40
    11c0:	f818563e0f 	{ movt	a3, a14, b0; ae_mulfq32sp24s.h	aeq1, aeq0, aep6 }
    11c5:	438c           	beqz.n	a3, 11cd <voiced_decision+0x389>
    11c7:	0d1432        	l16ui	a3, a4, 26
    11ca:	fff106        	j	1192 <voiced_decision+0x34e>

000011cd <voiced_decision+0x389>:
    11cd:	d5c800003f 	{ movi	a3, 0; ae_leq56s	b0, aeq2, aeq1 }
    11d2:	05d222        	addmi	a2, a2, 0x500
    11d5:	0d9222        	l16si	a2, a2, 26
    11d8:	d33e00        	movt	a3, a14, b0
    11db:	fac316        	beqz	a3, 118b <voiced_decision+0x347>
    11de:	221b           	addi.n	a2, a2, 1
    11e0:	031c           	movi.n	a3, 16
    11e2:	433230        	min	a3, a2, a3
    11e5:	ffea46        	j	1192 <voiced_decision+0x34e>

000011e8 <voiced_decision+0x3a4>:
    11e8:	f37c           	movi.n	a3, -1
    11ea:	05dc22        	addmi	a2, a12, 0x500
    11ed:	0133f0        	slli	a3, a3, 17
    11f0:	364334        	ae_cvtq48a32s	aeq1, a3
    11f3:	0c5252        	s16i	a5, a2, 24
    11f6:	003b46        	j	12e7 <voiced_decision+0x4a3>

000011f9 <voiced_decision+0x3b5>:
    11f9:	172132        	l32i	a3, a1, 92
    11fc:	1aa522        	movi	a2, 0x51a
    11ff:	81b8           	l32i.n	a11, a1, 32
    1201:	732a           	add.n	a7, a3, a2
    1203:	1621c2        	l32i	a12, a1, 88
    1206:	fbaa21        	l32r	a2, b0 (9a58 <xt_memcpy>)
    1209:	07ad           	mov.n	a10, a7
    120b:	0002e0        	callx8	a2
    120e:	102192        	l32i	a9, a1, 64
    1211:	8fa382        	movi	a8, 0x38f
    1214:	7fd882        	addmi	a8, a8, 0x7f00
    1217:	600904        	ae_lq32f.i	aeq0, a9, 0
    121a:	390c           	movi.n	a9, 3
    121c:	1a0c           	movi.n	a10, 1
    121e:	36c834        	ae_cvtq48a32s	aeq3, a8
    1221:	0c5652        	s16i	a5, a6, 24
    1224:	115a20        	slli	a5, a10, 14
    1227:	1a0c           	movi.n	a10, 1
    1229:	119900        	slli	a9, a9, 16
    122c:	633134        	ae_sq56s.i	aeq3, a1, 24
    122f:	36c934        	ae_cvtq48a32s	aeq3, a9
    1232:	01aaf0        	slli	a10, a10, 17
    1235:	1d0c           	movi.n	a13, 1
    1237:	1921e2        	l32i	a14, a1, 100
    123a:	162182        	l32i	a8, a1, 88
    123d:	f27c           	movi.n	a2, -1
    123f:	03cd           	mov.n	a12, a3
    1241:	fbb2b1        	l32r	a11, 10c (c148 <win_rx_512_v3+0xa8>)
    1244:	113d00        	slli	a3, a13, 16
    1247:	633174        	ae_sq56s.i	aeq3, a1, 56
    124a:	36ca34        	ae_cvtq48a32s	aeq3, a10
    124d:	364334        	ae_cvtq48a32s	aeq1, a3
    1250:	633164        	ae_sq56s.i	aeq3, a1, 48
    1253:	35c074        	ae_sraiq56	aeq3, aeq0, 1
    1256:	0122f0        	slli	a2, a2, 17
    1259:	368b34        	ae_cvtq48a32s	aeq2, a11
    125c:	78c1f2        	addi	a15, a1, 120
    125f:	631144        	ae_sq56s.i	aeq1, a1, 32
    1262:	364234        	ae_cvtq48a32s	aeq1, a2
    1265:	300554        	ae_cvtp24a16x2.ll	aep0, a5, a5
    1268:	930c           	movi.n	a3, 9
    126a:	6cc142        	addi	a4, a1, 108
    126d:	fece22        	addi	a2, a14, -2
    1270:	01a052        	movi	a5, 1
    1273:	632f94        	ae_sq56s.i	aeq2, a15, -56
    1276:	633154        	ae_sq56s.i	aeq3, a1, 40
    1279:	6a8876        	loop	a8, 12e7 <voiced_decision+0x4a3>
    127c:	276d           	ae_l16si.n	a6, a7, 0
    127e:	409214        	ae_lp16f.iu	aep1, a2, 2
    1281:	fe2400009f 	{ movi	a9, 0; ae_cvtq48p24s.h	aeq2, aep1 }
    1286:	1836a6        	blti	a6, 3, 12a2 <voiced_decision+0x45e>
    1289:	372637        	blt	a6, a3, 12c4 <voiced_decision+0x480>
    128c:	36c094        	ae_sllisq56s	aeq3, aeq0, 2
    128f:	fb5a80006f 	{ movi	a6, 0; ae_subsq56s	aeq3, aeq3, aeq0 }
    1294:	09a304        	ae_ltq56s	b0, aeq3, aeq2
    1297:	d36500        	movt	a6, a5, b0
    129a:	96ac           	beqz.n	a6, 12c7 <voiced_decision+0x483>
    129c:	618174        	ae_lq56.i	aeq2, a1, 56
    129f:	000f06        	j	12df <voiced_decision+0x49b>

000012a2 <voiced_decision+0x45e>:
    12a2:	151666        	bnei	a6, 1, 12bb <voiced_decision+0x477>
    12a5:	36c054        	ae_sllisq56s	aeq3, aeq0, 1
    12a8:	f502c7816e 	{ addi	a6, a1, 120; ae_mulafq32sp16s.h	aeq3, aeq0, aep0 }
    12ad:	09b204        	ae_ltq56s	b0, aeq2, aeq3
    12b0:	d39500        	movt	a9, a5, b0
    12b3:	498c           	beqz.n	a9, 12bb <voiced_decision+0x477>
    12b5:	618694        	ae_lq56.i	aeq2, a6, -56
    12b8:	000086        	j	12be <voiced_decision+0x47a>

000012bb <voiced_decision+0x477>:
    12bb:	618134        	ae_lq56.i	aeq2, a1, 24
    12be:	065a14        	ae_subsq56s	aeq1, aeq1, aeq2
    12c1:	000746        	j	12e2 <voiced_decision+0x49e>

000012c4 <voiced_decision+0x480>:
    12c4:	1466a6        	blti	a6, 6, 12dc <voiced_decision+0x498>
    12c7:	61c154        	ae_lq56.i	aeq3, a1, 40
    12ca:	fb7a40006f 	{ movi	a6, 0; ae_addsq56s	aeq3, aeq3, aeq0 }
    12cf:	d6d43dc16f 	{ ae_lq56.i	aeq2, a1, 48; ae_ltq56s	b0, aeq3, aeq2 }
    12d4:	d36500        	movt	a6, a5, b0
    12d7:	168c           	beqz.n	a6, 12dc <voiced_decision+0x498>
    12d9:	000086        	j	12df <voiced_decision+0x49b>

000012dc <voiced_decision+0x498>:
    12dc:	618144        	ae_lq56.i	aeq2, a1, 32
    12df:	065a04        	ae_addsq56s	aeq1, aeq1, aeq2
    12e2:	772b           	addi.n	a7, a7, 2
    12e4:	621404        	ae_sq32f.i	aeq1, a4, 0

000012e7 <voiced_decision+0x4a3>:
    12e7:	f8eb81412e 	{ addi	a2, a1, 20; ae_roundsp16q48sym	aep0, aeq1 }
    12ec:	420204        	ae_sp16f.l.i	aep0, a2, 0
    12ef:	0a9122        	l16si	a2, a1, 20
    12f2:	05dc52        	addmi	a5, a12, 0x500
    12f5:	830c           	movi.n	a3, 8
    12f7:	312592        	l32i	a9, a5, 196
    12fa:	432230        	min	a2, a2, a3
    12fd:	847c           	movi.n	a4, -8
    12ff:	532240        	max	a2, a2, a4
    1302:	292a           	add.n	a2, a9, a2
    1304:	0a1c           	movi.n	a10, 16
    1306:	fb82f1        	l32r	a15, 110 (7ffffffe <_end+0x7fff3c1e>)
    1309:	4322a0        	min	a2, a2, a10
    130c:	0b0c           	movi.n	a11, 0
    130e:	5322b0        	max	a2, a2, a11
    1311:	6ca5d2        	movi	a13, 0x56c
    1314:	11e8f0        	slli	a14, a8, 1
    1317:	1821b2        	l32i	a11, a1, 96
    131a:	fb6541        	l32r	a4, b0 (9a58 <xt_memcpy>)
    131d:	acda           	add.n	a10, a12, a13
    131f:	0c3d           	mov.n	a3, a12
    1321:	10cef0        	and	a12, a14, a15
    1324:	316522        	s32i	a2, a5, 196
    1327:	085d           	mov.n	a5, a8
    1329:	0004e0        	callx8	a4
    132c:	42a522        	movi	a2, 0x542
    132f:	1921b2        	l32i	a11, a1, 100
    1332:	a32a           	add.n	a10, a3, a2
    1334:	05cd           	mov.n	a12, a5
    1336:	0004e0        	callx8	a4
    1339:	f01d           	retw.n

0000133b <voiced_decision+0x4f7>:
	...

0000133c <Xfrac_num_pd_td32>:
    133c:	008136        	entry	a1, 64
    133f:	fb7561        	l32r	a6, 114 (5a8200 <_end+0x59be20>)
    1342:	600204        	ae_lq32f.i	aeq0, a2, 0
    1345:	604214        	ae_lq32f.i	aeq1, a2, 4
    1348:	f946a2066f 	{ ae_movpa24x2	aep0, a6, a6; ae_subsq56s	aeq1, aeq0, aeq1 }
    134d:	f9017d42ff 	{ ae_lq32f.i	aeq2, a2, -4; ae_mulfq32sp24s.h	aeq3, aeq1, aep0 }
    1352:	f8c28000ff 	{ movi	a15, 0; ae_subsq56s	aeq0, aeq0, aeq2 }
    1357:	d65800017f 	{ movi	a7, 1; ae_ltq56s	b0, aeq0, aeq3 }
    135c:	5139           	s32i.n	a3, a1, 20
    135e:	f98039916f 	{ ae_sq32f.i	aeq1, a1, 24; ae_mulfq32sp24s.l	aeq2, aeq0, aep0 }
    1363:	d3f700        	movt	a15, a7, b0
    1366:	18c152        	addi	a5, a1, 24
    1369:	620174        	ae_sq32f.i	aeq0, a1, 28
    136c:	2fac           	beqz.n	a15, 1392 <Xfrac_num_pd_td32+0x56>
    136e:	120c           	movi.n	a2, 1
    1370:	0122c0        	slli	a2, a2, 20
    1373:	604504        	ae_lq32f.i	aeq1, a5, 0
    1376:	398224        	ae_movpa24x2	aep0, a2, a2
    1379:	f8814000ef 	{ movi	a14, 0; ae_mulfq32sp24s.l	aeq1, aeq1, aep0 }
    137e:	1f0c           	movi.n	a15, 1
    1380:	d64800006f 	{ movi	a6, 0; ae_ltq56s	b0, aeq0, aeq1 }
    1385:	fb6421        	l32r	a2, 118 (c28f0000 <_end+0xc28e3c20>)
    1388:	150c           	movi.n	a5, 1
    138a:	d3ef00        	movt	a14, a15, b0
    138d:	7e9c           	beqz.n	a14, 13a8 <Xfrac_num_pd_td32+0x6c>
    138f:	002546        	j	1428 <Xfrac_num_pd_td32+0xec>

00001392 <Xfrac_num_pd_td32+0x56>:
    1392:	604504        	ae_lq32f.i	aeq1, a5, 0
    1395:	d6c800002f 	{ movi	a2, 0; ae_ltq56s	b0, aeq2, aeq1 }
    139a:	1f0c           	movi.n	a15, 1
    139c:	160c           	movi.n	a6, 1
    139e:	d32f00        	movt	a2, a15, b0
    13a1:	b29c           	beqz.n	a2, 13c0 <Xfrac_num_pd_td32+0x84>
    13a3:	020c           	movi.n	a2, 0
    13a5:	001fc6        	j	1428 <Xfrac_num_pd_td32+0xec>

000013a8 <Xfrac_num_pd_td32+0x6c>:
    13a8:	369054        	ae_sllisq56s	aeq2, aeq1, 1
    13ab:	fe80c0007f 	{ movi	a7, 0; ae_satq48s	aeq2, aeq2 }
    13b0:	d65000018f 	{ movi	a8, 1; ae_ltq56s	b0, aeq0, aeq2 }
    13b5:	fb5921        	l32r	a2, 11c (cccd0000 <_end+0xcccc3c20>)
    13b8:	d36500        	movt	a6, a5, b0
    13bb:	06ac           	beqz.n	a6, 13df <Xfrac_num_pd_td32+0xa3>
    13bd:	0019c6        	j	1428 <Xfrac_num_pd_td32+0xec>

000013c0 <Xfrac_num_pd_td32+0x84>:
    13c0:	0126a0        	slli	a2, a6, 22
    13c3:	398224        	ae_movpa24x2	aep0, a2, a2
    13c6:	f8800000ff 	{ movi	a15, 0; ae_mulfq32sp24s.l	aeq0, aeq0, aep0 }
    13cb:	150c           	movi.n	a5, 1
    13cd:	d6483b009f 	{ ae_sraiq56	aeq2, aeq0, 1; ae_ltq56s	b0, aeq0, aeq1 }
    13d2:	fb5521        	l32r	a2, 128 (ccd0000 <_end+0xccc3c20>)
    13d5:	070c           	movi.n	a7, 0
    13d7:	d3f500        	movt	a15, a5, b0
    13da:	8f9c           	beqz.n	a15, 13f6 <Xfrac_num_pd_td32+0xba>
    13dc:	001206        	j	1428 <Xfrac_num_pd_td32+0xec>

000013df <Xfrac_num_pd_td32+0xa3>:
    13df:	365094        	ae_sllisq56s	aeq1, aeq1, 2
    13e2:	064944        	ae_satq48s	aeq1, aeq1
    13e5:	099004        	ae_ltq56s	b0, aeq0, aeq1
    13e8:	fb4e21        	l32r	a2, 120 (e6660000 <_end+0xe6653c20>)
    13eb:	fb4e51        	l32r	a5, 124 (f3330000 <_end+0xf3323c20>)
    13ee:	d37800        	movt	a7, a8, b0
    13f1:	879c           	beqz.n	a7, 140d <Xfrac_num_pd_td32+0xd1>
    13f3:	000c46        	j	1428 <Xfrac_num_pd_td32+0xec>

000013f6 <Xfrac_num_pd_td32+0xba>:
    13f6:	fe80c0015f 	{ movi	a5, 1; ae_satq48s	aeq2, aeq2 }
    13fb:	d6c83b002f 	{ ae_sraiq56	aeq0, aeq0, 2; ae_ltq56s	b0, aeq2, aeq1 }
    1400:	fb4b21        	l32r	a2, 12c (199a0000 <_end+0x19993c20>)
    1403:	060c           	movi.n	a6, 0
    1405:	d37500        	movt	a7, a5, b0
    1408:	678c           	beqz.n	a7, 1412 <Xfrac_num_pd_td32+0xd6>
    140a:	000686        	j	1428 <Xfrac_num_pd_td32+0xec>

0000140d <Xfrac_num_pd_td32+0xd1>:
    140d:	052d           	mov.n	a2, a5
    140f:	000546        	j	1428 <Xfrac_num_pd_td32+0xec>

00001412 <Xfrac_num_pd_td32+0xd6>:
    1412:	fc00c0015f 	{ movi	a5, 1; ae_satq48s	aeq0, aeq0 }
    1417:	099004        	ae_ltq56s	b0, aeq0, aeq1
    141a:	fb4521        	l32r	a2, 130 (33330000 <_end+0x33323c20>)
    141d:	d36500        	movt	a6, a5, b0
    1420:	168c           	beqz.n	a6, 1425 <Xfrac_num_pd_td32+0xe9>
    1422:	000086        	j	1428 <Xfrac_num_pd_td32+0xec>

00001425 <Xfrac_num_pd_td32+0xe9>:
    1425:	fb4321        	l32r	a2, 134 (3d710000 <_end+0x3d703c20>)
    1428:	d43a           	add.n	a13, a4, a3
    142a:	4129           	s32i.n	a2, a1, 16
    142c:	112d00        	slli	a2, a13, 16
    142f:	600144        	ae_lq32f.i	aeq0, a1, 16
    1432:	5129           	s32i.n	a2, a1, 20
    1434:	604154        	ae_lq32f.i	aeq1, a1, 20
    1437:	3503f4        	ae_sraiq56	aeq0, aeq0, 15
    143a:	0118c4        	ae_addq56	aeq0, aeq1, aeq0
    143d:	060834        	ae_roundsq32sym	aeq0, aeq0
    1440:	620144        	ae_sq32f.i	aeq0, a1, 16
    1443:	4128           	l32i.n	a2, a1, 16
    1445:	f01d           	retw.n

00001447 <Xfrac_num_pd_td32+0x10b>:
	...

00001448 <Pitch_by_Corel>:
    1448:	010136        	entry	a1, 128
    144b:	08a552        	movi	a5, 0x508
    144e:	18a542        	movi	a4, 0x518
    1451:	535a           	add.n	a5, a3, a5
    1453:	434a           	add.n	a4, a3, a4
    1455:	05d3d2        	addmi	a13, a3, 0x500
    1458:	f3f740        	wur.ae_cend0	a4
    145b:	f3f650        	wur.ae_cbegin0	a5
    145e:	0d68           	l32i.n	a6, a13, 0
    1460:	4b0c           	movi.n	a11, 4
    1462:	aca0f2        	movi	a15, 172
    1465:	0678           	l32i.n	a7, a6, 0
    1467:	fc24fb86bf 	{ ae_lq32f.c	aeq0, a6, a11; nop }
    146c:	0688           	l32i.n	a8, a6, 0
    146e:	fc24fb86bf 	{ ae_lq32f.c	aeq0, a6, a11; nop }
    1473:	0698           	l32i.n	a9, a6, 0
    1475:	fc24fb86bf 	{ ae_lq32f.c	aeq0, a6, a11; nop }
    147a:	06a8           	l32i.n	a10, a6, 0
    147c:	fc24fb86bf 	{ ae_lq32f.c	aeq0, a6, a11; nop }
    1481:	fc24fb86bf 	{ ae_lq32f.c	aeq0, a6, a11; nop }
    1486:	f3fa           	add.n	a15, a3, a15
    1488:	fb2ce1        	l32r	a14, 138 (4ccccd <_end+0x4c08ed>)
    148b:	116132        	s32i	a3, a1, 68
    148e:	030c           	movi.n	a3, 0
    1490:	0d69           	s32i.n	a6, a13, 0
    1492:	ec1c           	movi.n	a12, 30
    1494:	0b0c           	movi.n	a11, 0
    1496:	0d0c           	movi.n	a13, 0
    1498:	fc24a20eef 	{ ae_movpa24x2	aep0, a14, a14; ae_zeroq56	aeq0 }
    149d:	62c242        	addi	a4, a2, 98
    14a0:	50c262        	addi	a6, a2, 80
    14a3:	fccff2        	addi	a15, a15, -4
    14a6:	0e6132        	s32i	a3, a1, 56

000014a9 <Pitch_by_Corel+0x61>:
    14a9:	04ed           	mov.n	a14, a4
    14ab:	202660        	or	a2, a6, a6
    14ae:	409e14        	ae_lp16f.iu	aep1, a14, 2
    14b1:	078c76        	loop	a12, 14bc <Pitch_by_Corel+0x74>
    14b4:	40a214        	ae_lp16f.iu	aep2, a2, 2
    14b7:	e444ac9e1f 	{ ae_lp16f.iu	aep1, a14, 2; ae_mulafs56p24s.hh	aeq0, aep1, aep2 }

000014bc <Pitch_by_Corel+0x74>:
    14bc:	350174        	ae_sraiq56	aeq0, aeq0, 5
    14bf:	fc247d270f 	{ ae_lq32f.i	aeq1, a7, 0; ae_roundsq32asym	aeq0, aeq0 }
    14c4:	f9667d480f 	{ ae_lq32f.i	aeq2, a8, 0; ae_addsq56s	aeq1, aeq0, aeq1 }
    14c9:	f9ea7d690f 	{ ae_lq32f.i	aeq3, a9, 0; ae_addsq56s	aeq1, aeq1, aeq2 }
    14ce:	f9ee7d6a0f 	{ ae_lq32f.i	aeq3, a10, 0; ae_addsq56s	aeq1, aeq1, aeq3 }
    14d3:	f9ee4fed2e 	{ addi	a2, a13, -2; ae_addsq56s	aeq1, aeq1, aeq3 }
    14d8:	f8603ad16f 	{ ae_sllisq56s	aeq1, aeq1, 6; ae_mulrfq32sp24s.h	aeq0, aeq0, aep0 }
    14dd:	fd2c40265f 	{ movi	a5, 38; ae_roundsq32asym	aeq1, aeq1 }
    14e2:	625f14        	ae_sq32f.iu	aeq1, a15, 4
    14e5:	0fe8           	l32i.n	a14, a15, 0
    14e7:	922d           	ae_zext16	a2, a2
    14e9:	622250        	saltu	a2, a2, a5
    14ec:	53ee30        	max	a14, a14, a3
    14ef:	0fe9           	s32i.n	a14, a15, 0
    14f1:	620704        	ae_sq32f.i	aeq0, a7, 0
    14f4:	600804        	ae_lq32f.i	aeq0, a8, 0
    14f7:	f860001dde 	{ addi	a13, a13, 1; ae_mulrfq32sp24s.h	aeq0, aeq0, aep0 }
    14fc:	725be0        	salt	a5, a11, a14
    14ff:	620804        	ae_sq32f.i	aeq0, a8, 0
    1502:	600904        	ae_lq32f.i	aeq0, a9, 0
    1505:	f8600fe66e 	{ addi	a6, a6, -2; ae_mulrfq32sp24s.h	aeq0, aeq0, aep0 }
    150a:	83eb50        	moveqz	a14, a11, a5
    150d:	620904        	ae_sq32f.i	aeq0, a9, 0
    1510:	600a04        	ae_lq32f.i	aeq0, a10, 0
    1513:	f86000477e 	{ addi	a7, a7, 4; ae_mulrfq32sp24s.h	aeq0, aeq0, aep0 }
    1518:	93be20        	movnez	a11, a14, a2
    151b:	ae2c           	movi.n	a14, 42
    151d:	fc24b98a0f 	{ ae_sq32f.i	aeq0, a10, 0; ae_zeroq56	aeq0 }
    1522:	884b           	addi.n	a8, a8, 4
    1524:	994b           	addi.n	a9, a9, 4
    1526:	aa4b           	addi.n	a10, a10, 4
    1528:	021de7        	beq	a13, a14, 152e <Pitch_by_Corel+0xe6>
    152b:	ffde86        	j	14a9 <Pitch_by_Corel+0x61>
    152e:	112192        	l32i	a9, a1, 68
    1531:	54a132        	movi	a3, 0x154
    1534:	e1b9           	s32i.n	a11, a1, 56
    1536:	38c122        	addi	a2, a1, 56
    1539:	603394        	ae_lq32f.xu	aeq0, a3, a9
    153c:	604204        	ae_lq32f.i	aeq1, a2, 0
    153f:	065814        	ae_subsq56s	aeq1, aeq1, aeq0
    1542:	faf051        	l32r	a5, 104 (2ccccd <_end+0x2c08ed>)
    1545:	fd04e2055f 	{ ae_movpa24x2	aep0, a5, a5; ae_satq48s	aeq1, aeq1 }
    154a:	080254        	ae_mularfq32sp24s.h	aeq0, aeq1, aep0
    154d:	04d942        	addmi	a4, a9, 0x400
    1550:	fc00f3e4fe 	{ l32i	a15, a4, 248; ae_satq48s	aeq0, aeq0 }
    1555:	620304        	ae_sq32f.i	aeq0, a3, 0
    1558:	552932        	l32i	a3, a9, 0x154
    155b:	58a182        	movi	a8, 0x158
    155e:	872c           	movi.n	a7, 40
    1560:	436f30        	min	a6, a15, a3
    1563:	0a1932        	l16ui	a3, a9, 20
    1566:	3e6462        	s32i	a6, a4, 248
    1569:	f8a452        	movi	a5, 0x4f8
    156c:	5b73b6        	bltui	a3, 7, 15cb <Pitch_by_Corel+0x183>
    156f:	398a           	add.n	a3, a9, a8
    1571:	d169           	s32i.n	a6, a1, 52
    1573:	068776        	loop	a7, 157d <Pitch_by_Corel+0x135>
    1576:	0378           	l32i.n	a7, a3, 0
    1578:	334b           	addi.n	a3, a3, 4
    157a:	436760        	min	a6, a7, a6
    157d:	d169           	s32i.n	a6, a1, 52
    157f:	50a262        	movi	a6, 0x250
    1582:	34c132        	addi	a3, a1, 52
    1585:	58a1f2        	movi	a15, 0x158
    1588:	604304        	ae_lq32f.i	aeq1, a3, 0
    158b:	60b694        	ae_lq32f.xu	aeq2, a6, a9
    158e:	fa5681f8cf 	{ movi	a12, 0x1f8; ae_subsq56s	aeq2, aeq2, aeq1 }
    1593:	a9fa           	add.n	a10, a9, a15
    1595:	fae971        	l32r	a7, 13c (6ccccd <_end+0x6c08ed>)
    1598:	39ca           	add.n	a3, a9, a12
    159a:	05d982        	addmi	a8, a9, 0x500
    159d:	fe80e2077f 	{ ae_movpa24x2	aep0, a7, a7; ae_satq48s	aeq2, aeq2 }
    15a2:	f3f6a0        	wur.ae_cbegin0	a10
    15a5:	f3f730        	wur.ae_cend0	a3
    15a8:	d660f018ee 	{ l32i	a14, a8, 4; ae_mularfq32sp24s.h	aeq1, aeq2, aep0 }
    15ad:	ff7c           	movi.n	a15, -1
    15af:	fd04fb995f 	{ ae_lq32f.x	aeq0, a9, a5; ae_satq48s	aeq1, aeq1 }
    15b4:	4d0c           	movi.n	a13, 4
    15b6:	621604        	ae_sq32f.i	aeq1, a6, 0
    15b9:	fc24f80edf 	{ ae_sq32f.c	aeq0, a14, a13; nop }
    15be:	4131f0        	srli	a3, a15, 1
    15c1:	3e6432        	s32i	a3, a4, 248
    15c4:	030c           	movi.n	a3, 0
    15c6:	18e9           	s32i.n	a14, a8, 4
    15c8:	000046        	j	15cd <Pitch_by_Corel+0x185>

000015cb <Pitch_by_Corel+0x183>:
    15cb:	331b           	addi.n	a3, a3, 1
    15cd:	50a272        	movi	a7, 0x250
    15d0:	fadce1        	l32r	a14, 140 (59999a <_end+0x58d5ba>)
    15d3:	398ee4        	ae_movpa24x2	aep0, a14, a14
    15d6:	607794        	ae_lq32f.xu	aeq1, a7, a9
    15d9:	f90102546f 	{ movi	a6, 0x254; ae_mulfq32sp24s.h	aeq2, aeq1, aep0 }
    15de:	603694        	ae_lq32f.xu	aeq0, a6, a9
    15e1:	d6500000ff 	{ movi	a15, 0; ae_ltq56s	b0, aeq0, aeq2 }
    15e6:	150c           	movi.n	a5, 1
    15e8:	fad741        	l32r	a4, 144 (733333 <_end+0x726f53>)
    15eb:	d3f500        	movt	a15, a5, b0
    15ee:	fad651        	l32r	a5, 148 (70a3d7 <_end+0x6fdff7>)
    15f1:	0a5932        	s16i	a3, a9, 20
    15f4:	b1b9           	s32i.n	a11, a1, 44
    15f6:	560134        	ae_sp24x2s.i	aep0, a1, 24
    15f9:	6f8c           	beqz.n	a15, 1603 <Pitch_by_Corel+0x1bb>
    15fb:	0778           	l32i.n	a7, a7, 0
    15fd:	398444        	ae_movpa24x2	aep0, a4, a4
    1600:	001086        	j	1646 <Pitch_by_Corel+0x1fe>

00001603 <Pitch_by_Corel+0x1bb>:
    1603:	398554        	ae_movpa24x2	aep0, a5, a5
    1606:	f90100003f 	{ movi	a3, 0; ae_mulfq32sp24s.h	aeq2, aeq1, aep0 }
    160b:	180c           	movi.n	a8, 1
    160d:	d6500001af 	{ movi	a10, 1; ae_ltq56s	b0, aeq0, aeq2 }
    1612:	face91        	l32r	a9, 14c (7e147b <_end+0x7d509b>)
    1615:	01cac0        	slli	a12, a10, 20
    1618:	d33800        	movt	a3, a8, b0
    161b:	538c           	beqz.n	a3, 1624 <Pitch_by_Corel+0x1dc>
    161d:	0778           	l32i.n	a7, a7, 0
    161f:	093d           	mov.n	a3, a9
    1621:	000786        	j	1643 <Pitch_by_Corel+0x1fb>

00001624 <Pitch_by_Corel+0x1dc>:
    1624:	398cc4        	ae_movpa24x2	aep0, a12, a12
    1627:	d461c401fe 	{ addi	a15, a1, 64; ae_mularfq32sp24s.h	aeq1, aeq1, aep0 }
    162c:	fac831        	l32r	a3, 14c (7e147b <_end+0x7d509b>)
    162f:	fd04e2033f 	{ ae_movpa24x2	aep0, a3, a3; ae_satq48s	aeq1, aeq1 }
    1634:	621f04        	ae_sq32f.i	aeq1, a15, 0
    1637:	102172        	l32i	a7, a1, 64
    163a:	0227b7        	blt	a7, a11, 1640 <Pitch_by_Corel+0x1f8>
    163d:	00dbc6        	j	19b0 <Pitch_by_Corel+0x568>
    1640:	fac431        	l32r	a3, 150 (7fbe77 <_end+0x7efa97>)
    1643:	398334        	ae_movpa24x2	aep0, a3, a3
    1646:	b179           	s32i.n	a7, a1, 44
    1648:	2cc132        	addi	a3, a1, 44
    164b:	604304        	ae_lq32f.i	aeq1, a3, 0
    164e:	f84680ff8f 	{ movi	a8, 255; ae_subsq56s	aeq0, aeq0, aeq1 }
    1653:	fc00c001ef 	{ movi	a14, 1; ae_satq48s	aeq0, aeq0 }
    1658:	080a24        	ae_mulafq32sp24s.h	aeq1, aeq0, aep0
    165b:	136172        	s32i	a7, a1, 76
    165e:	060944        	ae_satq48s	aeq0, aeq1
    1661:	064834        	ae_roundsq32sym	aeq1, aeq0
    1664:	621604        	ae_sq32f.i	aeq1, a6, 0
    1667:	06f8           	l32i.n	a15, a6, 0
    1669:	117e20        	slli	a7, a14, 14
    166c:	3fd882        	addmi	a8, a8, 0x3f00
    166f:	364734        	ae_cvtq48a32s	aeq1, a7
    1672:	0128f7        	blt	a8, a15, 1677 <Pitch_by_Corel+0x22f>
    1675:	0679           	s32i.n	a7, a6, 0
    1677:	fa8831        	l32r	a3, 98 (c3d4 <p_ecnr_mem>)
    167a:	f867054d7f 	{ movi	a7, 0x54d; ae_maxq56s	aeq0, aeq1, aeq0 }
    167f:	1177c0        	slli	a7, a7, 4
    1682:	0368           	l32i.n	a6, a3, 0
    1684:	630114        	ae_sq56s.i	aeq0, a1, 8
    1687:	a67a           	add.n	a10, a6, a7
    1689:	fab261        	l32r	a6, 154 (e44 <voiced_decision>)
    168c:	0006e0        	callx8	a6
    168f:	0338           	l32i.n	a3, a3, 0
    1691:	fa9561        	l32r	a6, e8 (9a30 <memset>)
    1694:	0b0c           	movi.n	a11, 0
    1696:	1ad332        	addmi	a3, a3, 0x1a00
    1699:	1923a2        	l32i	a10, a3, 100
    169c:	8c2c           	movi.n	a12, 40
    169e:	0006e0        	callx8	a6
    16a1:	192372        	l32i	a7, a3, 100
    16a4:	1121b2        	l32i	a11, a1, 68
    16a7:	f8a1f2        	movi	a15, 0x1f8
    16aa:	a92c           	movi.n	a9, 42
    16ac:	6bfa           	add.n	a6, a11, a15
    16ae:	28c782        	addi	a8, a7, 40
    16b1:	078976        	loop	a9, 16bc <Pitch_by_Corel+0x274>
    16b4:	263d           	ae_l16si.n	a3, a6, 0
    16b6:	683d           	ae_s16i.n	a3, a8, 0
    16b8:	662b           	addi.n	a6, a6, 2
    16ba:	882b           	addi.n	a8, a8, 2

000016bc <Pitch_by_Corel+0x274>:
    16bc:	102b82        	l32i	a8, a11, 64
    16bf:	aca032        	movi	a3, 172
    16c2:	faa5f1        	l32r	a15, 158 (39999a <_end+0x38d5ba>)
    16c5:	fca162        	movi	a6, 0x1fc
    16c8:	398554        	ae_movpa24x2	aep0, a5, a5
    16cb:	399444        	ae_movpa24x2	aep1, a4, a4
    16ce:	39aff4        	ae_movpa24x2	aep2, a15, a15
    16d1:	2ac752        	addi	a5, a7, 42
    16d4:	290c           	movi.n	a9, 2
    16d6:	8a2c           	movi.n	a10, 40
    16d8:	5c0c           	movi.n	a12, 5
    16da:	1d0c           	movi.n	a13, 1
    16dc:	040c           	movi.n	a4, 0
    16de:	166182        	s32i	a8, a1, 88
    16e1:	6b89           	s32i.n	a8, a11, 24
    16e3:	eb3a           	add.n	a14, a11, a3
    16e5:	fb6a           	add.n	a15, a11, a6
    16e7:	61c114        	ae_lq56.i	aeq3, a1, 8
    16ea:	000a46        	j	1717 <Pitch_by_Corel+0x2cf>

000016ed <Pitch_by_Corel+0x2a5>:
    16ed:	030c           	movi.n	a3, 0
    16ef:	d33d10        	movt	a3, a13, b1
    16f2:	838c           	beqz.n	a3, 16fe <Pitch_by_Corel+0x2b6>
    16f4:	8b3d           	ae_sext16	a3, a11
    16f6:	fec332        	addi	a3, a3, -2
    16f9:	060c           	movi.n	a6, 0
    16fb:	53b630        	max	a11, a6, a3
    16fe:	8b3d           	ae_sext16	a3, a11
    1700:	461c           	movi.n	a6, 20
    1702:	441b           	addi.n	a4, a4, 1
    1704:	438360        	min	a8, a3, a6
    1707:	991b           	addi.n	a9, a9, 1
    1709:	6f8d           	ae_s16i.n	a8, a15, 0
    170b:	ee4b           	addi.n	a14, a14, 4
    170d:	ff2b           	addi.n	a15, a15, 2
    170f:	552b           	addi.n	a5, a5, 2
    1711:	0299a7        	bne	a9, a10, 1717 <Pitch_by_Corel+0x2cf>
    1714:	002cc6        	j	17cb <Pitch_by_Corel+0x383>
    1717:	4f6d           	ae_l16ui.n	a6, a15, 0
    1719:	0e8d           	mov.n	a8, a14
    171b:	0b0c           	movi.n	a11, 0
    171d:	068c76        	loop	a12, 1727 <Pitch_by_Corel+0x2df>
    1720:	0838           	l32i.n	a3, a8, 0
    1722:	884b           	addi.n	a8, a8, 4
    1724:	53b3b0        	max	a11, a3, a11

00001727 <Pitch_by_Corel+0x2df>:
    1727:	112132        	l32i	a3, a1, 68
    172a:	600e24        	ae_lq32f.i	aeq0, a14, 8
    172d:	3580f4        	ae_sraiq56	aeq2, aeq0, 3
    1730:	403304        	ae_lp16f.i	aep3, a3, 0
    1733:	d66fc0003f 	{ movi	a3, 0; ae_mulfq32sp16u.h	aeq1, aeq3, aep3 }
    1738:	080c           	movi.n	a8, 0
    173a:	09a104        	ae_ltq56s	b0, aeq1, aeq2
    173d:	d33d00        	movt	a3, a13, b0
    1740:	fc3316        	beqz	a3, 1707 <Pitch_by_Corel+0x2bf>
    1743:	2e38           	l32i.n	a3, a14, 8
    1745:	be93b7        	bne	a3, a11, 1707 <Pitch_by_Corel+0x2bf>
    1748:	553d           	ae_l16ui.n	a3, a5, 2
    174a:	06bd           	mov.n	a11, a6
    174c:	03dc           	bnez.n	a3, 1760 <Pitch_by_Corel+0x318>
    174e:	25bd           	ae_l16si.n	a11, a5, 0
    1750:	0c1be6        	bgei	a11, 1, 1760 <Pitch_by_Corel+0x318>
    1753:	029532        	l16si	a3, a5, 4
    1756:	0b0c           	movi.n	a11, 0
    1758:	72bb30        	salt	a11, a11, a3
    175b:	9363b0        	movnez	a6, a3, a11
    175e:	06bd           	mov.n	a11, a6

00001760 <Pitch_by_Corel+0x318>:
    1760:	112132        	l32i	a3, a1, 68
    1763:	60c204        	ae_lq32f.i	aeq3, a2, 0
    1766:	060c           	movi.n	a6, 0
    1768:	403324        	ae_lp16f.i	aep3, a3, 4
    176b:	03b2e4        	ae_mulfq32sp16u.h	aeq2, aeq3, aep3
    176e:	943d           	ae_zext16	a3, a4
    1770:	d66ed1337f 	{ addx2	a3, a3, a7; ae_mulfq32sp16u.h	aeq1, aeq2, aep3 }
    1775:	098214        	ae_ltq56s	b1, aeq2, aeq0
    1778:	f8017a112f 	{ ae_sq56s.i	aeq1, a1, 16; ae_mulfq32sp24s.h	aeq1, aeq1, aep0 }
    177d:	d6443da12f 	{ ae_lq56.i	aeq1, a1, 16; ae_ltq56s	b0, aeq1, aeq0 }
    1782:	d644166d0f 	{ movt	a6, a13, b0; ae_ltq56s	b0, aeq1, aeq0 }
    1787:	169c           	beqz.n	a6, 179c <Pitch_by_Corel+0x354>
    1789:	060c           	movi.n	a6, 0
    178b:	f805566d1f 	{ movt	a6, a13, b1; ae_mulfq32sp24s.h	aeq1, aeq1, aep1 }
    1790:	639d           	ae_s16i.n	a9, a3, 0
    1792:	36ac           	beqz.n	a6, 17b9 <Pitch_by_Corel+0x371>
    1794:	bb2b           	addi.n	a11, a11, 2
    1796:	61c114        	ae_lq56.i	aeq3, a1, 8
    1799:	ffd846        	j	16fe <Pitch_by_Corel+0x2b6>

0000179c <Pitch_by_Corel+0x354>:
    179c:	fa0940003f 	{ movi	a3, 0; ae_mulfq32sp24s.h	aeq1, aeq3, aep2 }
    17a1:	d6443de11f 	{ ae_lq56.i	aeq3, a1, 8; ae_ltq56s	b0, aeq1, aeq0 }
    17a6:	8b6d           	ae_sext16	a6, a11
    17a8:	d33d00        	movt	a3, a13, b0
    17ab:	f58316        	beqz	a3, 1707 <Pitch_by_Corel+0x2bf>
    17ae:	fbc632        	addi	a3, a6, -5
    17b1:	060c           	movi.n	a6, 0
    17b3:	538630        	max	a8, a6, a3
    17b6:	ffd346        	j	1707 <Pitch_by_Corel+0x2bf>

000017b9 <Pitch_by_Corel+0x371>:
    17b9:	030c           	movi.n	a3, 0
    17bb:	d6487de11f 	{ ae_lq56.i	aeq3, a1, 8; ae_ltq56s	b1, aeq0, aeq1 }
    17c0:	d33d00        	movt	a3, a13, b0
    17c3:	f26316        	beqz	a3, 16ed <Pitch_by_Corel+0x2a5>
    17c6:	bb1b           	addi.n	a11, a11, 1
    17c8:	ffcc86        	j	16fe <Pitch_by_Corel+0x2b6>

000017cb <Pitch_by_Corel+0x383>:
    17cb:	1121c2        	l32i	a12, a1, 68
    17ce:	fa6331        	l32r	a3, 15c (5d70a4 <_end+0x5cacc4>)
    17d1:	39f334        	ae_movpa24x2	aep7, a3, a3
    17d4:	400c04        	ae_lp16f.i	aep0, a12, 0
    17d7:	d663ac1c1f 	{ ae_lp16f.i	aep1, a12, 2; ae_mulfq32sp16u.h	aeq0, aeq3, aep0 }
    17dc:	f87c           	movi.n	a8, -1
    17de:	d56683c1be 	{ addi	a11, a1, 60; ae_mulfq32sp16u.h	aeq2, aeq0, aep1 }
    17e3:	5cc152        	addi	a5, a1, 92
    17e6:	fa7c79ab0f 	{ ae_sq32f.i	aeq2, a11, 0; ae_mulrfq32sp24s.h	aeq1, aeq2, aep7 }
    17eb:	f48080        	extui	a8, a8, 0, 16
    17ee:	621504        	ae_sq32f.i	aeq1, a5, 0
    17f1:	028847        	bany	a8, a4, 17f7 <Pitch_by_Corel+0x3af>
    17f4:	004e86        	j	1932 <Pitch_by_Corel+0x4ea>
    17f7:	600204        	ae_lq32f.i	aeq0, a2, 0
    17fa:	35c134        	ae_sraiq56	aeq3, aeq0, 4
    17fd:	d5d80000ff 	{ movi	a15, 0; ae_leq56s	b0, aeq2, aeq3 }
    1802:	130c           	movi.n	a3, 1
    1804:	060c           	movi.n	a6, 0
    1806:	d55c56f30f 	{ movt	a15, a3, b0; ae_leq56s	b1, aeq1, aeq3 }
    180b:	ffcc           	bnez.n	a15, 181e <Pitch_by_Corel+0x3d6>
    180d:	150c           	movi.n	a5, 1
    180f:	091c22        	l16ui	a2, a12, 18
    1812:	d36510        	movt	a6, a5, b1
    1815:	11c616        	beqz	a6, 1935 <Pitch_by_Corel+0x4ed>
    1818:	0222f6        	bgeui	a2, 2, 181e <Pitch_by_Corel+0x3d6>
    181b:	004586        	j	1935 <Pitch_by_Corel+0x4ed>
    181e:	fa50d1        	l32r	a13, 160 (666666 <_end+0x65a286>)
    1821:	547134        	ae_lp24x2.i	aep7, a1, 24
    1824:	f81c220ddf 	{ ae_movpa24x2	aep0, a13, a13; ae_mulfq32sp24s.h	aeq0, aeq0, aep7 }
    1829:	c1a8           	l32i.n	a10, a1, 48
    182b:	1321d2        	l32i	a13, a1, 76
    182e:	1461b2        	s32i	a11, a1, 80
    1831:	04dc22        	addmi	a2, a12, 0x400
    1834:	f1b8           	l32i.n	a11, a1, 60
    1836:	94ed           	ae_zext16	a14, a4
    1838:	156122        	s32i	a2, a1, 84
    183b:	21b9           	s32i.n	a11, a1, 8
    183d:	050c           	movi.n	a5, 0
    183f:	aca0f2        	movi	a15, 172
    1842:	560144        	ae_sp24x2s.i	aep0, a1, 32
    1845:	630124        	ae_sq56s.i	aeq0, a1, 16
    1848:	272d           	ae_l16si.n	a2, a7, 0
    184a:	9032c0        	addx2	a3, a2, a12
    184d:	fc1332        	l16ui	a3, a3, 0x1f8
    1850:	136132        	s32i	a3, a1, 76
    1853:	a042c0        	addx4	a4, a2, a12
    1856:	0263f6        	bgeui	a3, 6, 185c <Pitch_by_Corel+0x414>
    1859:	002bc6        	j	190c <Pitch_by_Corel+0x4c4>
    185c:	6034f4        	ae_lq32f.xu	aeq0, a4, a15
    185f:	614124        	ae_lq56.i	aeq1, a1, 16
    1862:	d64400003f 	{ movi	a3, 0; ae_ltq56s	b0, aeq1, aeq0 }
    1867:	160c           	movi.n	a6, 1
    1869:	928d           	ae_zext16	a8, a2
    186b:	d33600        	movt	a3, a6, b0
    186e:	09a316        	beqz	a3, 190c <Pitch_by_Corel+0x4c4>
    1871:	126182        	s32i	a8, a1, 72
    1874:	fa1f31        	l32r	a3, f0 (133c <Xfrac_num_pd_td32>)
    1877:	9c0c           	movi.n	a12, 9
    1879:	04ad           	mov.n	a10, a4
    187b:	02bd           	mov.n	a11, a2
    187d:	0e6d           	mov.n	a6, a14
    187f:	0003e0        	callx8	a3
    1882:	1621b2        	l32i	a11, a1, 88
    1885:	fa3781        	l32r	a8, 164 (14001 <_end+0x7c21>)
    1888:	152192        	l32i	a9, a1, 84
    188b:	0b4b16        	beqz	a11, 1943 <Pitch_by_Corel+0x4fb>
    188e:	c03ba0        	sub	a3, a11, a10
    1891:	02a387        	bge	a3, a8, 1897 <Pitch_by_Corel+0x44f>
    1894:	002ac6        	j	1943 <Pitch_by_Corel+0x4fb>
    1897:	1121c2        	l32i	a12, a1, 68
    189a:	bd0c           	movi.n	a13, 11
    189c:	7e1982        	l16ui	a8, a9, 252
    189f:	980b           	addi.n	a9, a8, -1
    18a1:	90f9c0        	addx2	a15, a9, a12
    18a4:	fc1f32        	l16ui	a3, a15, 0x1f8
    18a7:	f81b           	addi.n	a15, a8, 1
    18a9:	90efc0        	addx2	a14, a15, a12
    18ac:	0cb3d7        	bgeu	a3, a13, 18bc <Pitch_by_Corel+0x474>
    18af:	fc1e92        	l16ui	a9, a14, 0x1f8
    18b2:	ae0c           	movi.n	a14, 10
    18b4:	629e90        	saltu	a9, a14, a9
    18b7:	938f90        	movnez	a8, a15, a9
    18ba:	089d           	mov.n	a9, a8
    18bc:	998d           	ae_zext16	a8, a9
    18be:	9038c0        	addx2	a3, a8, a12
    18c1:	fc1392        	l16ui	a9, a3, 0x1f8
    18c4:	06ed           	mov.n	a14, a6
    18c6:	aca0f2        	movi	a15, 172
    18c9:	7939d7        	bltu	a9, a13, 1946 <Pitch_by_Corel+0x4fe>
    18cc:	a088c0        	addx4	a8, a8, a12
    18cf:	0438           	l32i.n	a3, a4, 0
    18d1:	2b28b2        	l32i	a11, a8, 172
    18d4:	02dd           	mov.n	a13, a2
    18d6:	2168           	l32i.n	a6, a1, 8
    18d8:	3023b7        	blt	a3, a11, 190c <Pitch_by_Corel+0x4c4>
    18db:	213530        	srai	a3, a3, 5
    18de:	02dd           	mov.n	a13, a2
    18e0:	282367        	blt	a3, a6, 190c <Pitch_by_Corel+0x4c4>
    18e3:	132132        	l32i	a3, a1, 76
    18e6:	600404        	ae_lq32f.i	aeq0, a4, 0
    18e9:	540144        	ae_lp24x2.i	aep0, a1, 32
    18ec:	026326        	beqi	a3, 6, 18f2 <Pitch_by_Corel+0x4aa>
    18ef:	003086        	j	19b5 <Pitch_by_Corel+0x56d>
    18f2:	02a9f6        	bgeui	a9, 12, 18f8 <Pitch_by_Corel+0x4b0>
    18f5:	002f06        	j	19b5 <Pitch_by_Corel+0x56d>
    18f8:	f8603bb8ff 	{ ae_lq32f.x	aeq1, a8, a15; ae_mulrfq32sp24s.h	aeq0, aeq0, aep0 }
    18fd:	030c           	movi.n	a3, 0
    18ff:	d6480001df 	{ movi	a13, 1; ae_ltq56s	b0, aeq0, aeq1 }
    1904:	d33d00        	movt	a3, a13, b0
    1907:	02dd           	mov.n	a13, a2
    1909:	0b8316        	beqz	a3, 19c5 <Pitch_by_Corel+0x57d>
    190c:	551b           	addi.n	a5, a5, 1
    190e:	772b           	addi.n	a7, a7, 2
    1910:	02b5e7        	bgeu	a5, a14, 1916 <Pitch_by_Corel+0x4ce>
    1913:	ffcc46        	j	1848 <Pitch_by_Corel+0x400>
    1916:	479d           	ae_l16ui.n	a9, a7, 0
    1918:	1621b2        	l32i	a11, a1, 88
    191b:	f87c           	movi.n	a8, -1
    191d:	892d           	ae_sext16	a2, a9
    191f:	9022c0        	addx2	a2, a2, a12
    1922:	fc1232        	l16ui	a3, a2, 0x1f8
    1925:	f48080        	extui	a8, a8, 0, 16
    1928:	b1d9           	s32i.n	a13, a1, 44
    192a:	c1a9           	s32i.n	a10, a1, 48
    192c:	2873f6        	bgeui	a3, 7, 1958 <Pitch_by_Corel+0x510>
    192f:	0026c6        	j	19ce <Pitch_by_Corel+0x586>

00001932 <Pitch_by_Corel+0x4ea>:
    1932:	091c22        	l16ui	a2, a12, 18
    1935:	0a5256        	bnez	a2, 19de <Pitch_by_Corel+0x596>
    1938:	04dc22        	addmi	a2, a12, 0x400
    193b:	030c           	movi.n	a3, 0
    193d:	7e5232        	s16i	a3, a2, 252
    1940:	002686        	j	19de <Pitch_by_Corel+0x596>

00001943 <Pitch_by_Corel+0x4fb>:
    1943:	1121c2        	l32i	a12, a1, 68
    1946:	b129           	s32i.n	a2, a1, 44
    1948:	c1a9           	s32i.n	a10, a1, 48
    194a:	122192        	l32i	a9, a1, 72
    194d:	132132        	l32i	a3, a1, 76
    1950:	f87c           	movi.n	a8, -1
    1952:	f48080        	extui	a8, a8, 0, 16
    1955:	7573b6        	bltui	a3, 7, 19ce <Pitch_by_Corel+0x586>
    1958:	c03ba0        	sub	a3, a11, a10
    195b:	540c           	movi.n	a4, 5
    195d:	091c22        	l16ui	a2, a12, 18
    1960:	114420        	slli	a4, a4, 14
    1963:	603130        	abs	a3, a3
    1966:	025192        	s16i	a9, a1, 4
    1969:	042437        	blt	a4, a3, 1971 <Pitch_by_Corel+0x529>
    196c:	221b           	addi.n	a2, a2, 1
    196e:	000d46        	j	19a7 <Pitch_by_Corel+0x55f>

00001971 <Pitch_by_Corel+0x529>:
    1971:	2a32b6        	bltui	a2, 3, 199f <Pitch_by_Corel+0x557>
    1974:	4131a0        	srli	a3, a10, 1
    1977:	c03b30        	sub	a3, a11, a3
    197a:	603130        	abs	a3, a3
    197d:	1e2437        	blt	a4, a3, 199f <Pitch_by_Corel+0x557>
    1980:	30c132        	addi	a3, a1, 48
    1983:	600304        	ae_lq32f.i	aeq0, a3, 0
    1986:	350074        	ae_sraiq56	aeq0, aeq0, 1
    1989:	f8e3b141be 	{ l32i	a11, a1, 80; ae_roundsp16q48sym	aep0, aeq0 }
    198e:	420124        	ae_sp16f.l.i	aep0, a1, 4
    1991:	029132        	l16si	a3, a1, 4
    1994:	221b           	addi.n	a2, a2, 1
    1996:	095c22        	s16i	a2, a12, 18
    1999:	f7c392        	addi	a9, a3, -9
    199c:	0010c6        	j	19e3 <Pitch_by_Corel+0x59b>

0000199f <Pitch_by_Corel+0x557>:
    199f:	152132        	l32i	a3, a1, 84
    19a2:	020c           	movi.n	a2, 0
    19a4:	7e5322        	s16i	a2, a3, 252
    19a7:	095c22        	s16i	a2, a12, 18
    19aa:	1421b2        	l32i	a11, a1, 80
    19ad:	000d46        	j	19e6 <Pitch_by_Corel+0x59e>

000019b0 <Pitch_by_Corel+0x568>:
    19b0:	0b7d           	mov.n	a7, a11
    19b2:	ff2486        	j	1648 <Pitch_by_Corel+0x200>

000019b5 <Pitch_by_Corel+0x56d>:
    19b5:	1621b2        	l32i	a11, a1, 88
    19b8:	122192        	l32i	a9, a1, 72
    19bb:	f87c           	movi.n	a8, -1
    19bd:	f48080        	extui	a8, a8, 0, 16
    19c0:	b129           	s32i.n	a2, a1, 44
    19c2:	ffd906        	j	192a <Pitch_by_Corel+0x4e2>

000019c5 <Pitch_by_Corel+0x57d>:
    19c5:	f87c           	movi.n	a8, -1
    19c7:	f48080        	extui	a8, a8, 0, 16
    19ca:	b129           	s32i.n	a2, a1, 44
    19cc:	c1a9           	s32i.n	a10, a1, 48
    19ce:	091c22        	l16ui	a2, a12, 18
    19d1:	1421b2        	l32i	a11, a1, 80
    19d4:	152132        	l32i	a3, a1, 84
    19d7:	32cc           	bnez.n	a2, 19de <Pitch_by_Corel+0x596>
    19d9:	020c           	movi.n	a2, 0
    19db:	7e5322        	s16i	a2, a3, 252
    19de:	090c           	movi.n	a9, 0
    19e0:	095c92        	s16i	a9, a12, 18
    19e3:	025192        	s16i	a9, a1, 4
    19e6:	04dc42        	addmi	a4, a12, 0x400
    19e9:	7e1432        	l16ui	a3, a4, 252
    19ec:	020c           	movi.n	a2, 0
    19ee:	0a0c           	movi.n	a10, 0
    19f0:	06c356        	bnez	a3, 1a60 <Pitch_by_Corel+0x618>
    19f3:	060c           	movi.n	a6, 0
    19f5:	f8a132        	movi	a3, 0x1f8
    19f8:	bf2c           	movi.n	a15, 43
    19fa:	126192        	s32i	a9, a1, 72
    19fd:	070c           	movi.n	a7, 0
    19ff:	050c           	movi.n	a5, 0
    1a01:	8c3a           	add.n	a8, a12, a3
    1a03:	6c69           	s32i.n	a6, a12, 24
    1a05:	0e8f76        	loop	a15, 1a17 <Pitch_by_Corel+0x5cf>
    1a08:	483d           	ae_l16ui.n	a3, a8, 0
    1a0a:	882b           	addi.n	a8, a8, 2
    1a0c:	629730        	saltu	a9, a7, a3
    1a0f:	935690        	movnez	a5, a6, a9
    1a12:	737730        	maxu	a7, a7, a3
    1a15:	661b           	addi.n	a6, a6, 1

00001a17 <Pitch_by_Corel+0x5cf>:
    1a17:	122192        	l32i	a9, a1, 72
    1a1a:	f87c           	movi.n	a8, -1
    1a1c:	0a0c           	movi.n	a10, 0
    1a1e:	f48080        	extui	a8, a8, 0, 16
    1a21:	3b47b6        	bltui	a7, 4, 1a60 <Pitch_by_Corel+0x618>
    1a24:	f9d131        	l32r	a3, 168 (ccccd <_end+0xc08ed>)
    1a27:	600b04        	ae_lq32f.i	aeq0, a11, 0
    1a2a:	85bd           	ae_sext16	a11, a5
    1a2c:	398334        	ae_movpa24x2	aep0, a3, a3
    1a2f:	d46080ac5f 	{ movi	a5, 172; ae_mularfq32sp24s.h	aeq0, aeq0, aep0 }
    1a34:	a06bc0        	addx4	a6, a11, a12
    1a37:	fc00fbb65f 	{ ae_lq32f.x	aeq1, a6, a5; ae_satq48s	aeq0, aeq0 }
    1a3c:	355134        	ae_sraiq56	aeq1, aeq1, 4
    1a3f:	d6480000ff 	{ movi	a15, 0; ae_ltq56s	b0, aeq0, aeq1 }
    1a44:	170c           	movi.n	a7, 1
    1a46:	f9aa31        	l32r	a3, f0 (133c <Xfrac_num_pd_td32>)
    1a49:	d3f700        	movt	a15, a7, b0
    1a4c:	0f9c           	beqz.n	a15, 1a60 <Pitch_by_Corel+0x618>
    1a4e:	a65a           	add.n	a10, a6, a5
    1a50:	9c0c           	movi.n	a12, 9
    1a52:	0003e0        	callx8	a3
    1a55:	122192        	l32i	a9, a1, 72
    1a58:	1121c2        	l32i	a12, a1, 68
    1a5b:	f87c           	movi.n	a8, -1
    1a5d:	f48080        	extui	a8, a8, 0, 16

00001a60 <Pitch_by_Corel+0x618>:
    1a60:	7ca9           	s32i.n	a10, a12, 28
    1a62:	7e5492        	s16i	a9, a4, 252
    1a65:	160897        	bnone	a8, a9, 1a7f <Pitch_by_Corel+0x637>
    1a68:	99bd           	ae_zext16	a11, a9
    1a6a:	a03bc0        	addx4	a3, a11, a12
    1a6d:	aca022        	movi	a2, 172
    1a70:	a32a           	add.n	a10, a3, a2
    1a72:	f99f21        	l32r	a2, f0 (133c <Xfrac_num_pd_td32>)
    1a75:	9c0c           	movi.n	a12, 9
    1a77:	0002e0        	callx8	a2
    1a7a:	1121c2        	l32i	a12, a1, 68
    1a7d:	0a2d           	mov.n	a2, a10
    1a7f:	106c22        	s32i	a2, a12, 64
    1a82:	f01d           	retw.n

00001a84 <PD_TD_prcs>:
    1a84:	004136        	entry	a1, 32
    1a87:	f98431        	l32r	a3, 98 (c3d4 <p_ecnr_mem>)
    1a8a:	441c           	movi.n	a4, 20
    1a8c:	55d442        	addmi	a4, a4, 0x5500
    1a8f:	0328           	l32i.n	a2, a3, 0
    1a91:	f98761        	l32r	a6, b0 (9a58 <xt_memcpy>)
    1a94:	2c3c           	movi.n	a12, 50
    1a96:	1ad252        	addmi	a5, a2, 0x1a00
    1a99:	1a2552        	l32i	a5, a5, 104
    1a9c:	b24a           	add.n	a11, a2, a4
    1a9e:	9cc522        	addi	a2, a5, -100
    1aa1:	02ad           	mov.n	a10, a2
    1aa3:	0006e0        	callx8	a6
    1aa6:	0378           	l32i.n	a7, a3, 0
    1aa8:	4da562        	movi	a6, 0x54d
    1aab:	1166c0        	slli	a6, a6, 4
    1aae:	b76a           	add.n	a11, a7, a6
    1ab0:	f9af71        	l32r	a7, 16c (1448 <Pitch_by_Corel>)
    1ab3:	02ad           	mov.n	a10, a2
    1ab5:	0007e0        	callx8	a7
    1ab8:	0328           	l32i.n	a2, a3, 0
    1aba:	d8c5a2        	addi	a10, a5, -40
    1abd:	b26a           	add.n	a11, a2, a6
    1abf:	0007e0        	callx8	a7
    1ac2:	0328           	l32i.n	a2, a3, 0
    1ac4:	14c5b2        	addi	a11, a5, 20
    1ac7:	2c3c           	movi.n	a12, 50
    1ac9:	a24a           	add.n	a10, a2, a4
    1acb:	f97921        	l32r	a2, b0 (9a58 <xt_memcpy>)
    1ace:	0002e0        	callx8	a2
    1ad1:	f01d           	retw.n

00001ad3 <PD_TD_prcs+0x4f>:
	...

00001ad4 <pitch_by_harmonic>:
    1ad4:	012136        	entry	a1, 144
    1ad7:	f970e1        	l32r	a14, 98 (c3d4 <p_ecnr_mem>)
    1ada:	027d           	mov.n	a7, a2
    1adc:	f8a062        	movi	a6, 248
    1adf:	0e58           	l32i.n	a5, a14, 0
    1ae1:	0f0c           	movi.n	a15, 0
    1ae3:	0248           	l32i.n	a4, a2, 0
    1ae5:	54d522        	addmi	a2, a5, 0x5400
    1ae8:	116122        	s32i	a2, a1, 68
    1aeb:	3a2222        	l32i	a2, a2, 232
    1aee:	54d662        	addmi	a6, a6, 0x5400
    1af1:	6139           	s32i.n	a3, a1, 24
    1af3:	136142        	s32i	a4, a1, 76
    1af6:	1457f2        	s16i	a15, a7, 40
    1af9:	075216        	beqz	a2, 1b72 <pitch_by_harmonic+0x9e>
    1afc:	fb7c           	movi.n	a11, -1
    1afe:	11c220        	slli	a12, a2, 14
    1b01:	d5d220        	extui	a13, a2, 18, 14
    1b04:	f99b21        	l32r	a2, 170 (9adc <__udivdi3>)
    1b07:	01bb10        	slli	a11, a11, 31
    1b0a:	0a0c           	movi.n	a10, 0
    1b0c:	0002e0        	callx8	a2
    1b0f:	54d522        	addmi	a2, a5, 0x5400
    1b12:	3e2222        	l32i	a2, a2, 248
    1b15:	54d532        	addmi	a3, a5, 0x5400
    1b18:	540c           	movi.n	a4, 5
    1b1a:	7e5342        	s16i	a4, a3, 252
    1b1d:	c1a9           	s32i.n	a10, a1, 48
    1b1f:	0212e6        	bgei	a2, 1, 1b25 <pitch_by_harmonic+0x51>
    1b22:	004386        	j	1c34 <pitch_by_harmonic+0x160>
    1b25:	30c132        	addi	a3, a1, 48
    1b28:	f99341        	l32r	a4, 174 (aaaab <_end+0x9e6cb>)
    1b2b:	602564        	ae_lq32f.x	aeq0, a5, a6
    1b2e:	604304        	ae_lq32f.i	aeq1, a3, 0
    1b31:	f94aa2044f 	{ ae_movpa24x2	aep0, a4, a4; ae_subsq56s	aeq1, aeq1, aeq0 }
    1b36:	fd04c000ef 	{ movi	a14, 0; ae_satq48s	aeq1, aeq1 }
    1b3b:	f8000001ff 	{ movi	a15, 1; ae_mulfq32sp24s.h	aeq0, aeq0, aep0 }
    1b40:	fd0cb1116e 	{ l32i	a6, a1, 68; ae_abssq56s	aeq1, aeq1 }
    1b45:	d64800343f 	{ movi	a3, 52; ae_ltq56s	b0, aeq0, aeq1 }
    1b4a:	55d542        	addmi	a4, a5, 0x5500
    1b4d:	82aa           	add.n	a8, a2, a10
    1b4f:	d3ef00        	movt	a14, a15, b0
    1b52:	0f7e16        	beqz	a14, 1c4d <pitch_by_harmonic+0x179>
    1b55:	244d           	ae_l16si.n	a4, a4, 0
    1b57:	7f5632        	s16i	a3, a6, 254
    1b5a:	0334a6        	blti	a4, 3, 1b61 <pitch_by_harmonic+0x8d>
    1b5d:	02ad           	mov.n	a10, a2
    1b5f:	c129           	s32i.n	a2, a1, 48

00001b61 <pitch_by_harmonic+0x8d>:
    1b61:	112142        	l32i	a4, a1, 68
    1b64:	1e0c           	movi.n	a14, 1
    1b66:	54d5f2        	addmi	a15, a5, 0x5400
    1b69:	212aa0        	srai	a2, a10, 10
    1b6c:	3d6f22        	s32i	a2, a15, 244
    1b6f:	003506        	j	1c47 <pitch_by_harmonic+0x173>

00001b72 <pitch_by_harmonic+0x9e>:
    1b72:	54d522        	addmi	a2, a5, 0x5400
    1b75:	3b2222        	l32i	a2, a2, 236
    1b78:	fb7c           	movi.n	a11, -1
    1b7a:	01bb10        	slli	a11, a11, 31
    1b7d:	574216        	beqz	a2, 20f5 <pitch_by_harmonic+0x621>
    1b80:	11c220        	slli	a12, a2, 14
    1b83:	d5d220        	extui	a13, a2, 18, 14
    1b86:	f97a21        	l32r	a2, 170 (9adc <__udivdi3>)
    1b89:	0a0c           	movi.n	a10, 0
    1b8b:	0002e0        	callx8	a2
    1b8e:	30c122        	addi	a2, a1, 48
    1b91:	c1a9           	s32i.n	a10, a1, 48
    1b93:	600204        	ae_lq32f.i	aeq0, a2, 0
    1b96:	606564        	ae_lq32f.x	aeq1, a5, a6
    1b99:	358074        	ae_sraiq56	aeq2, aeq0, 1
    1b9c:	fb5680013f 	{ movi	a3, 1; ae_subsq56s	aeq3, aeq2, aeq1 }
    1ba1:	ff84fa014f 	{ ae_sq56s.i	aeq0, a1, 32; ae_satq48s	aeq3, aeq3 }
    1ba6:	013370        	slli	a3, a3, 25
    1ba9:	ff8cbec33f 	{ ae_cvtq48a32s	aeq0, a3; ae_abssq56s	aeq3, aeq3 }
    1bae:	d6c40000ff 	{ movi	a15, 0; ae_ltq56s	b0, aeq3, aeq0 }
    1bb3:	140c           	movi.n	a4, 1
    1bb5:	351074        	ae_sraiq56	aeq0, aeq1, 1
    1bb8:	d3f400        	movt	a15, a4, b0
    1bbb:	0fec           	bnez.n	a15, 1bdf <pitch_by_harmonic+0x10b>
    1bbd:	618144        	ae_lq56.i	aeq2, a1, 32
    1bc0:	f85280013f 	{ movi	a3, 1; ae_subsq56s	aeq0, aeq2, aeq0 }
    1bc5:	fc00c000ff 	{ movi	a15, 0; ae_satq48s	aeq0, aeq0 }
    1bca:	013380        	slli	a3, a3, 24
    1bcd:	fc08bec3ff 	{ ae_cvtq48a32s	aeq3, a3; ae_abssq56s	aeq0, aeq0 }
    1bd2:	d65800014f 	{ movi	a4, 1; ae_ltq56s	b0, aeq0, aeq3 }
    1bd7:	d3f400        	movt	a15, a4, b0
    1bda:	4f8c           	beqz.n	a15, 1be2 <pitch_by_harmonic+0x10e>
    1bdc:	36a054        	ae_sllisq56s	aeq2, aeq2, 1
    1bdf:	622204        	ae_sq32f.i	aeq2, a2, 0
    1be2:	00a7b2        	movi	a11, 0x700
    1be5:	600204        	ae_lq32f.i	aeq0, a2, 0
    1be8:	398bb4        	ae_movpa24x2	aep0, a11, a11
    1beb:	f80030c1ae 	{ l32i	a10, a1, 48; ae_mulfq32sp24s.h	aeq0, aeq0, aep0 }
    1bf0:	14c1c2        	addi	a12, a1, 20
    1bf3:	360154        	ae_sllisq56s	aeq0, aeq0, 5
    1bf6:	fbe3c0094f 	{ movi	a4, 9; ae_roundsp16q48sym	aep7, aeq0 }
    1bfb:	54d532        	addmi	a3, a5, 0x5400
    1bfe:	427c04        	ae_sp16f.l.i	aep7, a12, 0
    1c01:	7e5342        	s16i	a4, a3, 252
    1c04:	0a9132        	l16si	a3, a1, 20
    1c07:	54d562        	addmi	a6, a5, 0x5400
    1c0a:	219aa0        	srai	a9, a10, 10
    1c0d:	3d6692        	s32i	a9, a6, 244
    1c10:	3e2c           	movi.n	a14, 35
    1c12:	112162        	l32i	a6, a1, 68
    1c15:	df2c           	movi.n	a15, 45
    1c17:	5323e0        	max	a2, a3, a14
    1c1a:	4322f0        	min	a2, a2, a15
    1c1d:	54d582        	addmi	a8, a5, 0x5400
    1c20:	1d0c           	movi.n	a13, 1
    1c22:	8356d2        	s16i	a13, a6, 0x106
    1c25:	3c68a2        	s32i	a10, a8, 240
    1c28:	0a5122        	s16i	a2, a1, 20
    1c2b:	7f5622        	s16i	a2, a6, 254
    1c2e:	3d1ae6        	bgei	a10, 1, 1c6f <pitch_by_harmonic+0x19b>
    1c31:	013206        	j	20fd <pitch_by_harmonic+0x629>

00001c34 <pitch_by_harmonic+0x160>:
    1c34:	112142        	l32i	a4, a1, 68
    1c37:	ed3c           	movi.n	a13, 62
    1c39:	1e0c           	movi.n	a14, 1
    1c3b:	54d5f2        	addmi	a15, a5, 0x5400
    1c3e:	212aa0        	srai	a2, a10, 10
    1c41:	3d6f22        	s32i	a2, a15, 244
    1c44:	7f54d2        	s16i	a13, a4, 254
    1c47:	8354e2        	s16i	a14, a4, 0x106
    1c4a:	000606        	j	1c66 <pitch_by_harmonic+0x192>

00001c4d <pitch_by_harmonic+0x179>:
    1c4d:	112162        	l32i	a6, a1, 68
    1c50:	212a80        	srai	a2, a8, 10
    1c53:	e33c           	movi.n	a3, 62
    1c55:	240c           	movi.n	a4, 2
    1c57:	11a270        	slli	a10, a2, 9
    1c5a:	54d5f2        	addmi	a15, a5, 0x5400
    1c5d:	7f5632        	s16i	a3, a6, 254
    1c60:	835642        	s16i	a4, a6, 0x106
    1c63:	3d6f22        	s32i	a2, a15, 244
    1c66:	3c6fa2        	s32i	a10, a15, 240
    1c69:	021ae6        	bgei	a10, 1, 1c6f <pitch_by_harmonic+0x19b>
    1c6c:	012346        	j	20fd <pitch_by_harmonic+0x629>
    1c6f:	6168           	l32i.n	a6, a1, 24
    1c71:	132192        	l32i	a9, a1, 76
    1c74:	54d532        	addmi	a3, a5, 0x5400
    1c77:	126132        	s32i	a3, a1, 72
    1c7a:	a0a690        	addx4	a10, a6, a9
    1c7d:	04a122        	movi	a2, 0x104
    1c80:	84a182        	movi	a8, 0x184
    1c83:	f93d31        	l32r	a3, 178 (6d8 <Log2_norm>)
    1c86:	2a2a           	add.n	a2, a10, a2
    1c88:	fa8a           	add.n	a15, a10, a8
    1c8a:	146152        	s32i	a5, a1, 80
    1c8d:	196122        	s32i	a2, a1, 100
    1c90:	1b6172        	s32i	a7, a1, 108
    1c93:	0bd742        	addmi	a4, a7, 0xb00
    1c96:	1176e0        	slli	a7, a6, 2
    1c99:	154c           	movi.n	a5, 65
    1c9b:	092d           	mov.n	a2, a9
    1c9d:	1561a2        	s32i	a10, a1, 84
    1ca0:	1661f2        	s32i	a15, a1, 88
    1ca3:	1288           	l32i.n	a8, a2, 4
    1ca5:	7c9492        	l16si	a9, a4, 248
    1ca8:	627a           	add.n	a6, a2, a7
    1caa:	40e8a0        	nsa	a10, a8
    1cad:	401a00        	ssl	a10
    1cb0:	c0b9a0        	sub	a11, a9, a10
    1cb3:	a1a800        	sll	a10, a8
    1cb6:	0003e0        	callx8	a3
    1cb9:	550b           	addi.n	a5, a5, -1
    1cbb:	224b           	addi.n	a2, a2, 4
    1cbd:	06a9           	s32i.n	a10, a6, 0
    1cbf:	fe0556        	bnez	a5, 1ca3 <pitch_by_harmonic+0x1cf>
    1cc2:	142162        	l32i	a6, a1, 80
    1cc5:	112152        	l32i	a5, a1, 68
    1cc8:	070c           	movi.n	a7, 0
    1cca:	54d632        	addmi	a3, a6, 0x5400
    1ccd:	7f9522        	l16si	a2, a5, 254
    1cd0:	7e9342        	l16si	a4, a3, 252
    1cd3:	55d6f2        	addmi	a15, a6, 0x5500
    1cd6:	855572        	s16i	a7, a5, 0x10a
    1cd9:	c02240        	sub	a2, a2, a4
    1cdc:	822d           	ae_sext16	a2, a2
    1cde:	1a61f2        	s32i	a15, a1, 104
    1ce1:	045f72        	s16i	a7, a15, 8
    1ce4:	0212e6        	bgei	a2, 1, 1cea <pitch_by_harmonic+0x216>
    1ce7:	00ff46        	j	20e8 <pitch_by_harmonic+0x614>
    1cea:	61e8           	l32i.n	a14, a1, 24
    1cec:	152132        	l32i	a3, a1, 84
    1cef:	132162        	l32i	a6, a1, 76
    1cf2:	927d           	ae_zext16	a7, a2
    1cf4:	2e4a           	add.n	a2, a14, a4
    1cf6:	a03430        	addx4	a3, a4, a3
    1cf9:	a02260        	addx4	a2, a2, a6
    1cfc:	0f0c           	movi.n	a15, 0
    1cfe:	5c0c           	movi.n	a12, 5
    1d00:	050c           	movi.n	a5, 0
    1d02:	1361f2        	s32i	a15, a1, 76
    1d05:	fcc332        	addi	a3, a3, -4
    1d08:	f4c222        	addi	a2, a2, -12
    1d0b:	0012c6        	j	1d5a <pitch_by_harmonic+0x286>

00001d0e <pitch_by_harmonic+0x23a>:
    1d0e:	5368a0        	max	a6, a8, a10
    1d11:	3a9967        	bne	a9, a6, 1d4f <pitch_by_harmonic+0x27b>
    1d14:	112162        	l32i	a6, a1, 68
    1d17:	f0c3a2        	addi	a10, a3, -16
    1d1a:	3a2662        	l32i	a6, a6, 232
    1d1d:	e6ac           	beqz.n	a6, 1d4f <pitch_by_harmonic+0x27b>
    1d1f:	4388           	l32i.n	a8, a3, 16
    1d21:	0a68           	l32i.n	a6, a10, 0
    1d23:	03ad           	mov.n	a10, a3
    1d25:	04bd           	mov.n	a11, a4
    1d27:	436680        	min	a6, a6, a8
    1d2a:	21a697        	bge	a6, a9, 1d4f <pitch_by_harmonic+0x27b>
    1d2d:	f8f061        	l32r	a6, f0 (133c <Xfrac_num_pd_td32>)
    1d30:	1c0c           	movi.n	a12, 1
    1d32:	0006e0        	callx8	a6
    1d35:	132192        	l32i	a9, a1, 76
    1d38:	162182        	l32i	a8, a1, 88
    1d3b:	1a21f2        	l32i	a15, a1, 104
    1d3e:	896d           	ae_sext16	a6, a9
    1d40:	991b           	addi.n	a9, a9, 1
    1d42:	5c0c           	movi.n	a12, 5
    1d44:	a06680        	addx4	a6, a6, a8
    1d47:	136192        	s32i	a9, a1, 76
    1d4a:	045f92        	s16i	a9, a15, 8
    1d4d:	06a9           	s32i.n	a10, a6, 0
    1d4f:	770b           	addi.n	a7, a7, -1
    1d51:	334b           	addi.n	a3, a3, 4
    1d53:	224b           	addi.n	a2, a2, 4
    1d55:	441b           	addi.n	a4, a4, 1
    1d57:	084716        	beqz	a7, 1ddf <pitch_by_harmonic+0x30b>
    1d5a:	f4c362        	addi	a6, a3, -12
    1d5d:	0688           	l32i.n	a8, a6, 0
    1d5f:	924b           	addi.n	a9, a2, 4
    1d61:	02ad           	mov.n	a10, a2
    1d63:	068c76        	loop	a12, 1d6d <pitch_by_harmonic+0x299>
    1d66:	0a68           	l32i.n	a6, a10, 0
    1d68:	aa4b           	addi.n	a10, a10, 4
    1d6a:	538860        	max	a8, a8, a6

00001d6d <pitch_by_harmonic+0x299>:
    1d6d:	f8c362        	addi	a6, a3, -8
    1d70:	06b8           	l32i.n	a11, a6, 0
    1d72:	20abb0        	or	a10, a11, a11
    1d75:	068c76        	loop	a12, 1d7f <pitch_by_harmonic+0x2ab>
    1d78:	0968           	l32i.n	a6, a9, 0
    1d7a:	994b           	addi.n	a9, a9, 4
    1d7c:	53aa60        	max	a10, a10, a6
    1d7f:	0398           	l32i.n	a9, a3, 0
    1d81:	021987        	beq	a9, a8, 1d87 <pitch_by_harmonic+0x2b3>
    1d84:	8699a7        	bne	a9, a10, 1d0e <pitch_by_harmonic+0x23a>

00001d87 <pitch_by_harmonic+0x2b3>:
    1d87:	560c           	movi.n	a6, 5
    1d89:	016680        	slli	a6, a6, 24
    1d8c:	6b6a           	add.n	a6, a11, a6
    1d8e:	112697        	blt	a6, a9, 1da3 <pitch_by_harmonic+0x2cf>
    1d91:	fcc362        	addi	a6, a3, -4
    1d94:	0668           	l32i.n	a6, a6, 0
    1d96:	3b0c           	movi.n	a11, 3
    1d98:	01bb60        	slli	a11, a11, 26
    1d9b:	66ba           	add.n	a6, a6, a11
    1d9d:	022697        	blt	a6, a9, 1da3 <pitch_by_harmonic+0x2cf>
    1da0:	ffda86        	j	1d0e <pitch_by_harmonic+0x23a>
    1da3:	2368           	l32i.n	a6, a3, 8
    1da5:	5b0c           	movi.n	a11, 5
    1da7:	01bb80        	slli	a11, a11, 24
    1daa:	66ba           	add.n	a6, a6, a11
    1dac:	0e2697        	blt	a6, a9, 1dbe <pitch_by_harmonic+0x2ea>
    1daf:	1368           	l32i.n	a6, a3, 4
    1db1:	3b0c           	movi.n	a11, 3
    1db3:	01bb60        	slli	a11, a11, 26
    1db6:	66ba           	add.n	a6, a6, a11
    1db8:	022697        	blt	a6, a9, 1dbe <pitch_by_harmonic+0x2ea>
    1dbb:	ffd3c6        	j	1d0e <pitch_by_harmonic+0x23a>
    1dbe:	f8cc61        	l32r	a6, f0 (133c <Xfrac_num_pd_td32>)
    1dc1:	1c0c           	movi.n	a12, 1
    1dc3:	03ad           	mov.n	a10, a3
    1dc5:	04bd           	mov.n	a11, a4
    1dc7:	0006e0        	callx8	a6
    1dca:	192182        	l32i	a8, a1, 100
    1dcd:	1121f2        	l32i	a15, a1, 68
    1dd0:	856d           	ae_sext16	a6, a5
    1dd2:	551b           	addi.n	a5, a5, 1
    1dd4:	5c0c           	movi.n	a12, 5
    1dd6:	a06680        	addx4	a6, a6, a8
    1dd9:	855f52        	s16i	a5, a15, 0x10a
    1ddc:	ffdb46        	j	1d4d <pitch_by_harmonic+0x279>

00001ddf <pitch_by_harmonic+0x30b>:
    1ddf:	142162        	l32i	a6, a1, 80
    1de2:	852d           	ae_sext16	a2, a5
    1de4:	070c           	movi.n	a7, 0
    1de6:	0212e6        	bgei	a2, 1, 1dec <pitch_by_harmonic+0x318>
    1de9:	00bec6        	j	20e8 <pitch_by_harmonic+0x614>
    1dec:	f8e6c1        	l32r	a12, 184 (435e51 <_end+0x429a71>)
    1def:	120c           	movi.n	a2, 1
    1df1:	55d642        	addmi	a4, a6, 0x5500
    1df4:	030c           	movi.n	a3, 0
    1df6:	398cc4        	ae_movpa24x2	aep0, a12, a12
    1df9:	1121c2        	l32i	a12, a1, 68
    1dfc:	54d6a2        	addmi	a10, a6, 0x5400
    1dff:	012280        	slli	a2, a2, 24
    1e02:	f8deb1        	l32r	a11, 17c (cccccd <_end+0xcc08ed>)
    1e05:	f8de71        	l32r	a7, 180 (99999a <_end+0x98d5ba>)
    1e08:	156142        	s32i	a4, a1, 84
    1e0b:	065432        	s16i	a3, a4, 12
    1e0e:	122162        	l32i	a6, a1, 72
    1e11:	192142        	l32i	a4, a1, 100
    1e14:	368b34        	ae_cvtq48a32s	aeq2, a11
    1e17:	180c           	movi.n	a8, 1
    1e19:	360234        	ae_cvtq48a32s	aeq0, a2
    1e1c:	36c734        	ae_cvtq48a32s	aeq3, a7
    1e1f:	1d0c           	movi.n	a13, 1
    1e21:	955d           	ae_zext16	a5, a5
    1e23:	1761a2        	s32i	a10, a1, 92
    1e26:	3cc192        	addi	a9, a1, 60
    1e29:	630134        	ae_sq56s.i	aeq0, a1, 24
    1e2c:	10c1a2        	addi	a10, a1, 16
    1e2f:	632154        	ae_sq56s.i	aeq2, a1, 40
    1e32:	40c1b2        	addi	a11, a1, 64
    1e35:	633144        	ae_sq56s.i	aeq3, a1, 32
    1e38:	1e0c           	movi.n	a14, 1
    1e3a:	0f0c           	movi.n	a15, 0
    1e3c:	1861d2        	s32i	a13, a1, 96
    1e3f:	875c82        	s16i	a8, a12, 0x10e
    1e42:	178576        	loop	a5, 1e5d <pitch_by_harmonic+0x389>
    1e45:	030150        	rsr.lend	a5
    1e48:	130050        	wsr.lbeg	a5
    1e4b:	f8d351        	l32r	a5, 198 (2040 <pitch_by_harmonic+0x56c>)
    1e4e:	0020f0        	nop
    1e51:	130150        	wsr.lend	a5
    1e54:	002000        	isync
    1e57:	030250        	rsr.lcount	a5
    1e5a:	01c552        	addi	a5, a5, 1
    1e5d:	050c           	movi.n	a5, 0
    1e5f:	048d           	mov.n	a8, a4
    1e61:	10df16        	beqz	a15, 1f72 <pitch_by_harmonic+0x49e>
    1e64:	604404        	ae_lq32f.i	aeq1, a4, 0
    1e67:	6084f4        	ae_lq32f.i	aeq2, a4, -4
    1e6a:	f9ca83412e 	{ addi	a2, a1, 52; ae_subsq56s	aeq1, aeq1, aeq2 }
    1e6f:	355064        	ae_srliq56	aeq1, aeq1, 1
    1e72:	3c2652        	l32i	a5, a6, 240
    1e75:	621204        	ae_sq32f.i	aeq1, a2, 0
    1e78:	d1c8           	l32i.n	a12, a1, 52
    1e7a:	21dc50        	srai	a13, a5, 12
    1e7d:	064d           	mov.n	a4, a6
    1e7f:	d25cd0        	quos	a5, a12, a13
    1e82:	e159           	s32i.n	a5, a1, 56
    1e84:	142162        	l32i	a6, a1, 80
    1e87:	60c214        	ae_lq32f.i	aeq3, a2, 4
    1e8a:	38c172        	addi	a7, a1, 56
    1e8d:	4fa5c2        	movi	a12, 0x54f
    1e90:	36b3d4        	ae_sllisq56s	aeq2, aeq3, 15
    1e93:	115cc0        	slli	a5, a12, 4
    1e96:	f8f3fbf65f 	{ ae_lq32f.x	aeq3, a6, a5; ae_roundsp16q48sym	aep1, aeq2 }
    1e9b:	fb253ad22f 	{ ae_sllisq56s	aeq0, aeq1, 10; ae_mulq32sp16s.h	aeq2, aeq3, aep1 }
    1ea0:	050c           	movi.n	a5, 0
    1ea2:	36a3d4        	ae_sllisq56s	aeq2, aeq2, 15
    1ea5:	f852bdc13f 	{ ae_lq56.i	aeq2, a1, 24; ae_subsq56s	aeq0, aeq2, aeq0 }
    1eaa:	fc00b2116f 	{ ae_sp16f.l.i	aep1, a1, 12; ae_absq56	aeq0, aeq0 }
    1eaf:	d65000c1ce 	{ addi	a12, a1, 12; ae_ltq56s	b0, aeq0, aeq2 }
    1eb4:	d35e00        	movt	a5, a14, b0
    1eb7:	95bc           	beqz.n	a5, 1ef4 <pitch_by_harmonic+0x420>
    1eb9:	f4a0c2        	movi	a12, 244
    1ebc:	112172        	l32i	a7, a1, 68
    1ebf:	54dcc2        	addmi	a12, a12, 0x5400
    1ec2:	6026c4        	ae_lq32f.x	aeq0, a6, a12
    1ec5:	365054        	ae_sllisq56s	aeq1, aeq1, 1
    1ec8:	f86668372e 	{ l16si	a2, a7, 0x106; ae_addsq56s	aeq0, aeq0, aeq1 }
    1ecd:	fc00e0615e 	{ l16si	a5, a1, 12; ae_satq48s	aeq0, aeq0 }
    1ed2:	1721d2        	l32i	a13, a1, 92
    1ed5:	6286c4        	ae_sq32f.x	aeq0, a6, a12
    1ed8:	252a           	add.n	a2, a5, a2
    1eda:	3d2d52        	l32i	a5, a13, 244
    1edd:	835722        	s16i	a2, a7, 0x106
    1ee0:	822d           	ae_sext16	a2, a2
    1ee2:	d22520        	quos	a2, a5, a2
    1ee5:	112260        	slli	a2, a2, 10
    1ee8:	150c           	movi.n	a5, 1
    1eea:	3c6422        	s32i	a2, a4, 240
    1eed:	046d           	mov.n	a6, a4
    1eef:	084d           	mov.n	a4, a8
    1ef1:	001f46        	j	1f72 <pitch_by_harmonic+0x49e>

00001ef4 <pitch_by_harmonic+0x420>:
    1ef4:	046d           	mov.n	a6, a4
    1ef6:	050c           	movi.n	a5, 0
    1ef8:	084d           	mov.n	a4, a8
    1efa:	742fb6        	bltui	a15, 2, 1f72 <pitch_by_harmonic+0x49e>
    1efd:	600404        	ae_lq32f.i	aeq0, a4, 0
    1f00:	6044e4        	ae_lq32f.i	aeq1, a4, -8
    1f03:	f84680005f 	{ movi	a5, 0; ae_subsq56s	aeq0, aeq0, aeq1 }
    1f08:	354064        	ae_srliq56	aeq1, aeq0, 1
    1f0b:	621204        	ae_sq32f.i	aeq1, a2, 0
    1f0e:	d128           	l32i.n	a2, a1, 52
    1f10:	d222d0        	quos	a2, a2, a13
    1f13:	e129           	s32i.n	a2, a1, 56
    1f15:	608704        	ae_lq32f.i	aeq2, a7, 0
    1f18:	3623d4        	ae_sllisq56s	aeq0, aeq2, 15
    1f1b:	f8e3fad2af 	{ ae_sllisq56s	aeq2, aeq1, 10; ae_roundsp16q48sym	aep1, aeq0 }
    1f20:	fa253de13f 	{ ae_lq56.i	aeq3, a1, 24; ae_mulq32sp16s.h	aeq0, aeq3, aep1 }
    1f25:	0d0c           	movi.n	a13, 0
    1f27:	3603d4        	ae_sllisq56s	aeq0, aeq0, 15
    1f2a:	f8c2b21c0f 	{ ae_sp16f.l.i	aep1, a12, 0; ae_subsq56s	aeq0, aeq0, aeq2 }
    1f2f:	fc0080f4cf 	{ movi	a12, 244; ae_absq56	aeq0, aeq0 }
    1f34:	d65831117e 	{ l32i	a7, a1, 68; ae_ltq56s	b0, aeq0, aeq3 }
    1f39:	54dcc2        	addmi	a12, a12, 0x5400
    1f3c:	d3de00        	movt	a13, a14, b0
    1f3f:	fdac           	beqz.n	a13, 1f72 <pitch_by_harmonic+0x49e>
    1f41:	142162        	l32i	a6, a1, 80
    1f44:	365054        	ae_sllisq56s	aeq1, aeq1, 1
    1f47:	839722        	l16si	a2, a7, 0x106
    1f4a:	6026c4        	ae_lq32f.x	aeq0, a6, a12
    1f4d:	f86660615e 	{ l16si	a5, a1, 12; ae_addsq56s	aeq0, aeq0, aeq1 }
    1f52:	fc00f171de 	{ l32i	a13, a1, 92; ae_satq48s	aeq0, aeq0 }
    1f57:	6286c4        	ae_sq32f.x	aeq0, a6, a12
    1f5a:	252a           	add.n	a2, a5, a2
    1f5c:	3d2d52        	l32i	a5, a13, 244
    1f5f:	835722        	s16i	a2, a7, 0x106
    1f62:	822d           	ae_sext16	a2, a2
    1f64:	122162        	l32i	a6, a1, 72
    1f67:	d22520        	quos	a2, a5, a2
    1f6a:	112260        	slli	a2, a2, 10
    1f6d:	150c           	movi.n	a5, 1
    1f6f:	3c6622        	s32i	a2, a6, 240
    1f72:	3c2662        	l32i	a6, a6, 240
    1f75:	0428           	l32i.n	a2, a4, 0
    1f77:	142172        	l32i	a7, a1, 80
    1f7a:	216b60        	srai	a6, a6, 11
    1f7d:	d26260        	quos	a6, a2, a6
    1f80:	f169           	s32i.n	a6, a1, 60
    1f82:	604904        	ae_lq32f.i	aeq1, a9, 0
    1f85:	4fa5c2        	movi	a12, 0x54f
    1f88:	3653d4        	ae_sllisq56s	aeq1, aeq1, 15
    1f8b:	106122        	s32i	a2, a1, 64
    1f8e:	11ccc0        	slli	a12, a12, 4
    1f91:	f8ebfb97cf 	{ ae_lq32f.x	aeq0, a7, a12; ae_roundsp16q48sym	aep1, aeq1 }
    1f96:	f824321a0f 	{ ae_sp16f.l.i	aep1, a10, 0; ae_mulq32sp16s.h	aeq0, aeq0, aep1 }
    1f9b:	081172        	l16ui	a7, a1, 16
    1f9e:	60cb04        	ae_lq32f.i	aeq3, a11, 0
    1fa1:	36b254        	ae_sllisq56s	aeq2, aeq3, 9
    1fa4:	3603d4        	ae_sllisq56s	aeq0, aeq0, 15
    1fa7:	fac2bda14f 	{ ae_lq56.i	aeq1, a1, 32; ae_subsq56s	aeq2, aeq0, aeq2 }
    1fac:	081726        	beqi	a7, 1, 1fb8 <pitch_by_harmonic+0x4e4>
    1faf:	614154        	ae_lq56.i	aeq1, a1, 40
    1fb2:	022726        	beqi	a7, 2, 1fb8 <pitch_by_harmonic+0x4e4>
    1fb5:	614134        	ae_lq56.i	aeq1, a1, 24
    1fb8:	069a64        	ae_absq56	aeq2, aeq2
    1fbb:	158c           	beqz.n	a5, 1fc0 <pitch_by_harmonic+0x4ec>
    1fbd:	088594        	ae_mulrfq32sp24s.l	aeq2, aeq2, aep0
    1fc0:	d6c800005f 	{ movi	a5, 0; ae_ltq56s	b0, aeq2, aeq1 }
    1fc5:	122162        	l32i	a6, a1, 72
    1fc8:	1421c2        	l32i	a12, a1, 80
    1fcb:	d35e00        	movt	a5, a14, b0
    1fce:	050516        	beqz	a5, 2022 <pitch_by_harmonic+0x54e>
    1fd1:	872d           	ae_sext16	a2, a7
    1fd3:	2e22a6        	blti	a2, 2, 2005 <pitch_by_harmonic+0x531>
    1fd6:	f4a042        	movi	a4, 244
    1fd9:	54d442        	addmi	a4, a4, 0x5400
    1fdc:	112172        	l32i	a7, a1, 68
    1fdf:	602c44        	ae_lq32f.x	aeq0, a12, a4
    1fe2:	f8e67171de 	{ l32i	a13, a1, 92; ae_addsq56s	aeq0, aeq0, aeq3 }
    1fe7:	fc00e8375e 	{ l16si	a5, a7, 0x106; ae_satq48s	aeq0, aeq0 }
    1fec:	628c44        	ae_sq32f.x	aeq0, a12, a4
    1fef:	3d2d62        	l32i	a6, a13, 244
    1ff2:	552a           	add.n	a5, a5, a2
    1ff4:	835752        	s16i	a5, a7, 0x106
    1ff7:	855d           	ae_sext16	a5, a5
    1ff9:	d25650        	quos	a5, a6, a5
    1ffc:	122162        	l32i	a6, a1, 72
    1fff:	115560        	slli	a5, a5, 10
    2002:	3c6652        	s32i	a5, a6, 240
    2005:	152142        	l32i	a4, a1, 84
    2008:	331b           	addi.n	a3, a3, 1
    200a:	1121c2        	l32i	a12, a1, 68
    200d:	065432        	s16i	a3, a4, 12
    2010:	084d           	mov.n	a4, a8
    2012:	266207        	bbci	a2, 0, 203c <pitch_by_harmonic+0x568>
    2015:	070c           	movi.n	a7, 0
    2017:	050c           	movi.n	a5, 0
    2019:	186152        	s32i	a5, a1, 96
    201c:	875c72        	s16i	a7, a12, 0x10e
    201f:	000646        	j	203c <pitch_by_harmonic+0x568>

00002022 <pitch_by_harmonic+0x54e>:
    2022:	132172        	l32i	a7, a1, 76
    2025:	162142        	l32i	a4, a1, 88
    2028:	1a21d2        	l32i	a13, a1, 104
    202b:	875d           	ae_sext16	a5, a7
    202d:	771b           	addi.n	a7, a7, 1
    202f:	a05540        	addx4	a5, a5, a4
    2032:	084d           	mov.n	a4, a8
    2034:	136172        	s32i	a7, a1, 76
    2037:	045d72        	s16i	a7, a13, 8
    203a:	0529           	s32i.n	a2, a5, 0
    203c:	444b           	addi.n	a4, a4, 4
    203e:	ff1b           	addi.n	a15, a15, 1

00002040 <pitch_by_harmonic+0x56c>:
    2040:	132172        	l32i	a7, a1, 76
    2043:	1b2152        	l32i	a5, a1, 108
    2046:	162142        	l32i	a4, a1, 88
    2049:	182182        	l32i	a8, a1, 96
    204c:	872d           	ae_sext16	a2, a7
    204e:	145532        	s16i	a3, a5, 40
    2051:	6712a6        	blti	a2, 1, 20bc <pitch_by_harmonic+0x5e8>
    2054:	122122        	l32i	a2, a1, 72
    2057:	1421d2        	l32i	a13, a1, 80
    205a:	4fa562        	movi	a6, 0x54f
    205d:	3c2252        	l32i	a5, a2, 240
    2060:	97fd           	ae_zext16	a15, a7
    2062:	152172        	l32i	a7, a1, 84
    2065:	1166c0        	slli	a6, a6, 4
    2068:	f848e1        	l32r	a14, 188 (159999a <_end+0x158d5ba>)
    206b:	602d64        	ae_lq32f.x	aeq0, a13, a6
    206e:	364e34        	ae_cvtq48a32s	aeq1, a14
    2071:	120c           	movi.n	a2, 1
    2073:	215b50        	srai	a5, a5, 11
    2076:	428f76        	loop	a15, 20bc <pitch_by_harmonic+0x5e8>
    2079:	0468           	l32i.n	a6, a4, 0
    207b:	106162        	s32i	a6, a1, 64
    207e:	0f0c           	movi.n	a15, 0
    2080:	d26650        	quos	a6, a6, a5
    2083:	f169           	s32i.n	a6, a1, 60
    2085:	608904        	ae_lq32f.i	aeq2, a9, 0
    2088:	36a3d4        	ae_sllisq56s	aeq2, aeq2, 15
    208b:	f8f3bd4b0f 	{ ae_lq32f.i	aeq2, a11, 0; ae_roundsp16q48sym	aep0, aeq2 }
    2090:	f9207ae29f 	{ ae_sllisq56s	aeq2, aeq2, 9; ae_mulq32sp16s.h	aeq3, aeq0, aep0 }
    2095:	36f3d4        	ae_sllisq56s	aeq3, aeq3, 15
    2098:	fadab20a0f 	{ ae_sp16f.l.i	aep0, a10, 0; ae_subsq56s	aeq2, aeq3, aeq2 }
    209d:	fe80b111ce 	{ l32i	a12, a1, 68; ae_absq56	aeq2, aeq2 }
    20a2:	099204        	ae_ltq56s	b0, aeq2, aeq1
    20a5:	100162        	l8ui	a6, a1, 16
    20a8:	d3f200        	movt	a15, a2, b0
    20ab:	bf8c           	beqz.n	a15, 20ba <pitch_by_harmonic+0x5e6>
    20ad:	331b           	addi.n	a3, a3, 1
    20af:	065732        	s16i	a3, a7, 12
    20b2:	046607        	bbci	a6, 0, 20ba <pitch_by_harmonic+0x5e6>
    20b5:	080c           	movi.n	a8, 0
    20b7:	875c82        	s16i	a8, a12, 0x10e

000020ba <pitch_by_harmonic+0x5e6>:
    20ba:	444b           	addi.n	a4, a4, 4

000020bc <pitch_by_harmonic+0x5e8>:
    20bc:	f27c           	movi.n	a2, -1
    20be:	142152        	l32i	a5, a1, 80
    20c1:	f8a062        	movi	a6, 248
    20c4:	f42020        	extui	a2, a2, 0, 16
    20c7:	54d662        	addmi	a6, a6, 0x5400
    20ca:	4b0287        	bnone	a2, a8, 2119 <pitch_by_harmonic+0x645>
    20cd:	54d522        	addmi	a2, a5, 0x5400
    20d0:	3b2222        	l32i	a2, a2, 236
    20d3:	834d           	ae_sext16	a4, a3
    20d5:	112172        	l32i	a7, a1, 68
    20d8:	02bc           	beqz.n	a2, 210c <pitch_by_harmonic+0x638>
    20da:	0234a6        	blti	a4, 3, 20e0 <pitch_by_harmonic+0x60c>
    20dd:	0023c6        	j	2170 <pitch_by_harmonic+0x69c>
    20e0:	020c           	movi.n	a2, 0
    20e2:	875722        	s16i	a2, a7, 0x10e
    20e5:	000e06        	j	2121 <pitch_by_harmonic+0x64d>

000020e8 <pitch_by_harmonic+0x614>:
    20e8:	54d622        	addmi	a2, a6, 0x5400
    20eb:	55d632        	addmi	a3, a6, 0x5500
    20ee:	3e6272        	s32i	a7, a2, 248
    20f1:	637d           	ae_s16i.n	a7, a3, 0
    20f3:	f01d           	retw.n

000020f5 <pitch_by_harmonic+0x621>:
    20f5:	54d522        	addmi	a2, a5, 0x5400
    20f8:	030c           	movi.n	a3, 0
    20fa:	3c6232        	s32i	a3, a2, 240
    20fd:	54d522        	addmi	a2, a5, 0x5400
    2100:	030c           	movi.n	a3, 0
    2102:	55d542        	addmi	a4, a5, 0x5500
    2105:	3e6232        	s32i	a3, a2, 248
    2108:	643d           	ae_s16i.n	a3, a4, 0
    210a:	f01d           	retw.n

0000210c <pitch_by_harmonic+0x638>:
    210c:	832d           	ae_sext16	a2, a3
    210e:	5e52e6        	bgei	a2, 5, 2170 <pitch_by_harmonic+0x69c>
    2111:	112142        	l32i	a4, a1, 68
    2114:	020c           	movi.n	a2, 0
    2116:	875422        	s16i	a2, a4, 0x10e
    2119:	832d           	ae_sext16	a2, a3
    211b:	0232a6        	blti	a2, 3, 2121 <pitch_by_harmonic+0x64d>
    211e:	002446        	j	21b3 <pitch_by_harmonic+0x6df>
    2121:	932d           	ae_zext16	a2, a3
    2123:	022226        	beqi	a2, 2, 2129 <pitch_by_harmonic+0x655>
    2126:	002886        	j	21cc <pitch_by_harmonic+0x6f8>
    2129:	55d522        	addmi	a2, a5, 0x5500
    212c:	422d           	ae_l16ui.n	a2, a2, 0
    212e:	122172        	l32i	a7, a1, 72
    2131:	d37c           	movi.n	a3, -3
    2133:	08d216        	beqz	a2, 21c4 <pitch_by_harmonic+0x6f0>
    2136:	3c2722        	l32i	a2, a7, 240
    2139:	013360        	slli	a3, a3, 26
    213c:	341c           	movi.n	a4, 19
    213e:	014480        	slli	a4, a4, 24
    2141:	323a           	add.n	a3, a2, a3
    2143:	7d3437        	bltu	a4, a3, 21c4 <pitch_by_harmonic+0x6f0>
    2146:	4fa532        	movi	a3, 0x54f
    2149:	1133c0        	slli	a3, a3, 4
    214c:	f80ae1        	l32r	a14, 174 (aaaab <_end+0x9e6cb>)
    214f:	602534        	ae_lq32f.x	aeq0, a5, a3
    2152:	606564        	ae_lq32f.x	aeq1, a5, a6
    2155:	f846a20eef 	{ ae_movpa24x2	aep0, a14, a14; ae_subsq56s	aeq0, aeq0, aeq1 }
    215a:	f8e14000ff 	{ movi	a15, 0; ae_mulrfq32sp24s.l	aeq1, aeq1, aep0 }
    215f:	fc0080014f 	{ movi	a4, 1; ae_absq56	aeq0, aeq0 }
    2164:	098104        	ae_ltq56s	b0, aeq1, aeq0
    2167:	d3f400        	movt	a15, a4, b0
    216a:	056f56        	bnez	a15, 21c4 <pitch_by_harmonic+0x6f0>
    216d:	001c86        	j	21e3 <pitch_by_harmonic+0x70f>

00002170 <pitch_by_harmonic+0x69c>:
    2170:	122122        	l32i	a2, a1, 72
    2173:	f80631        	l32r	a3, 18c (13ffffff <_end+0x13ff3c1f>)
    2176:	55d542        	addmi	a4, a5, 0x5500
    2179:	3c2222        	l32i	a2, a2, 240
    217c:	4fa572        	movi	a7, 0x54f
    217f:	1187c0        	slli	a8, a7, 4
    2182:	252327        	blt	a3, a2, 21ab <pitch_by_harmonic+0x6d7>
    2185:	243d           	ae_l16si.n	a3, a4, 0
    2187:	f7fbe1        	l32r	a14, 174 (aaaab <_end+0x9e6cb>)
    218a:	398ee4        	ae_movpa24x2	aep0, a14, a14
    218d:	4633a6        	blti	a3, 3, 21d7 <pitch_by_harmonic+0x703>
    2190:	602584        	ae_lq32f.x	aeq0, a5, a8
    2193:	606564        	ae_lq32f.x	aeq1, a5, a6
    2196:	f8468000ff 	{ movi	a15, 0; ae_subsq56s	aeq0, aeq0, aeq1 }
    219b:	f80140014f 	{ movi	a4, 1; ae_mulfq32sp24s.h	aeq1, aeq1, aep0 }
    21a0:	061864        	ae_absq56	aeq0, aeq0
    21a3:	099404        	ae_leq56s	b0, aeq0, aeq1
    21a6:	d3f400        	movt	a15, a4, b0
    21a9:	afac           	beqz.n	a15, 21d7 <pitch_by_harmonic+0x703>
    21ab:	112132        	l32i	a3, a1, 68
    21ae:	020c           	movi.n	a2, 0
    21b0:	875322        	s16i	a2, a3, 0x10e
    21b3:	122172        	l32i	a7, a1, 72
    21b6:	f7f631        	l32r	a3, 190 (f570a3d7 <_end+0xf56fdff7>)
    21b9:	f7f641        	l32r	a4, 194 (2428f5c4 <_end+0x242831e4>)
    21bc:	3c2722        	l32i	a2, a7, 240
    21bf:	323a           	add.n	a3, a2, a3
    21c1:	1e3347        	bltu	a3, a4, 21e3 <pitch_by_harmonic+0x70f>
    21c4:	020c           	movi.n	a2, 0
    21c6:	3c6722        	s32i	a2, a7, 240
    21c9:	001186        	j	2213 <pitch_by_harmonic+0x73f>

000021cc <pitch_by_harmonic+0x6f8>:
    21cc:	122132        	l32i	a3, a1, 72
    21cf:	020c           	movi.n	a2, 0
    21d1:	3c6322        	s32i	a2, a3, 240
    21d4:	000ec6        	j	2213 <pitch_by_harmonic+0x73f>

000021d7 <pitch_by_harmonic+0x703>:
    21d7:	122132        	l32i	a3, a1, 72
    21da:	1122f0        	slli	a2, a2, 1
    21dd:	3c6322        	s32i	a2, a3, 240
    21e0:	2f12a6        	blti	a2, 1, 2213 <pitch_by_harmonic+0x73f>
    21e3:	4fa532        	movi	a3, 0x54f
    21e6:	1133c0        	slli	a3, a3, 4
    21e9:	f7e2e1        	l32r	a14, 174 (aaaab <_end+0x9e6cb>)
    21ec:	602534        	ae_lq32f.x	aeq0, a5, a3
    21ef:	606564        	ae_lq32f.x	aeq1, a5, a6
    21f2:	f846a20eef 	{ ae_movpa24x2	aep0, a14, a14; ae_subsq56s	aeq0, aeq0, aeq1 }
    21f7:	f8e14000ff 	{ movi	a15, 0; ae_mulrfq32sp24s.l	aeq1, aeq1, aep0 }
    21fc:	fc0080014f 	{ movi	a4, 1; ae_absq56	aeq0, aeq0 }
    2201:	099004        	ae_ltq56s	b0, aeq0, aeq1
    2204:	55d532        	addmi	a3, a5, 0x5500
    2207:	d3f400        	movt	a15, a4, b0
    220a:	5f8c           	beqz.n	a15, 2213 <pitch_by_harmonic+0x73f>
    220c:	234d           	ae_l16si.n	a4, a3, 0
    220e:	441b           	addi.n	a4, a4, 1
    2210:	000106        	j	2218 <pitch_by_harmonic+0x744>

00002213 <pitch_by_harmonic+0x73f>:
    2213:	55d532        	addmi	a3, a5, 0x5500
    2216:	040c           	movi.n	a4, 0
    2218:	54d5f2        	addmi	a15, a5, 0x5400
    221b:	634d           	ae_s16i.n	a4, a3, 0
    221d:	3e6f22        	s32i	a2, a15, 248
    2220:	f01d           	retw.n

00002222 <pitch_by_harmonic+0x74e>:
	...

00002224 <XMAX6>:
    2224:	004136        	entry	a1, 32
    2227:	023d           	mov.n	a3, a2
    2229:	0228           	l32i.n	a2, a2, 0
    222b:	540c           	movi.n	a4, 5
    222d:	334b           	addi.n	a3, a3, 4
    222f:	068476        	loop	a4, 2239 <XMAX6+0x15>
    2232:	0348           	l32i.n	a4, a3, 0
    2234:	334b           	addi.n	a3, a3, 4
    2236:	532240        	max	a2, a2, a4

00002239 <XMAX6+0x15>:
    2239:	f01d           	retw.n

0000223b <XMAX6+0x17>:
	...

0000223c <Xfrac_num_pd_td16>:
    223c:	008136        	entry	a1, 64
    223f:	400204        	ae_lp16f.i	aep0, a2, 0
    2242:	fc042c121f 	{ ae_lp16f.i	aep1, a2, 2; ae_cvtq48p24s.h	aeq0, aep0 }
    2247:	fd242c72ff 	{ ae_lp16f.i	aep7, a2, -2; ae_cvtq48p24s.h	aeq1, aep1 }
    224c:	f7b261        	l32r	a6, 114 (5a8200 <_end+0x59be20>)
    224f:	f946a2066f 	{ ae_movpa24x2	aep0, a6, a6; ae_subsq56s	aeq1, aeq0, aeq1 }
    2254:	fee40000ff 	{ movi	a15, 0; ae_cvtq48p24s.h	aeq2, aep7 }
    2259:	f90140017f 	{ movi	a7, 1; ae_mulfq32sp24s.h	aeq3, aeq1, aep0 }
    225e:	f8c294513f 	{ s32i.n	a3, a1, 20; ae_subsq56s	aeq0, aeq0, aeq2 }
    2263:	d65839916f 	{ ae_sq32f.i	aeq1, a1, 24; ae_ltq56s	b0, aeq0, aeq3 }
    2268:	f98001815e 	{ addi	a5, a1, 24; ae_mulfq32sp24s.l	aeq2, aeq0, aep0 }
    226d:	620174        	ae_sq32f.i	aeq0, a1, 28
    2270:	d3f700        	movt	a15, a7, b0
    2273:	2fac           	beqz.n	a15, 2299 <Xfrac_num_pd_td16+0x5d>
    2275:	120c           	movi.n	a2, 1
    2277:	0122c0        	slli	a2, a2, 20
    227a:	604504        	ae_lq32f.i	aeq1, a5, 0
    227d:	398224        	ae_movpa24x2	aep0, a2, a2
    2280:	f8814000ef 	{ movi	a14, 0; ae_mulfq32sp24s.l	aeq1, aeq1, aep0 }
    2285:	1f0c           	movi.n	a15, 1
    2287:	d64800006f 	{ movi	a6, 0; ae_ltq56s	b0, aeq0, aeq1 }
    228c:	f7a321        	l32r	a2, 118 (c28f0000 <_end+0xc28e3c20>)
    228f:	150c           	movi.n	a5, 1
    2291:	d3ef00        	movt	a14, a15, b0
    2294:	7e9c           	beqz.n	a14, 22af <Xfrac_num_pd_td16+0x73>
    2296:	002446        	j	232b <Xfrac_num_pd_td16+0xef>

00002299 <Xfrac_num_pd_td16+0x5d>:
    2299:	604504        	ae_lq32f.i	aeq1, a5, 0
    229c:	d6c800002f 	{ movi	a2, 0; ae_ltq56s	b0, aeq2, aeq1 }
    22a1:	1f0c           	movi.n	a15, 1
    22a3:	160c           	movi.n	a6, 1
    22a5:	d32f00        	movt	a2, a15, b0
    22a8:	b29c           	beqz.n	a2, 22c7 <Xfrac_num_pd_td16+0x8b>
    22aa:	020c           	movi.n	a2, 0
    22ac:	001ec6        	j	232b <Xfrac_num_pd_td16+0xef>

000022af <Xfrac_num_pd_td16+0x73>:
    22af:	369054        	ae_sllisq56s	aeq2, aeq1, 1
    22b2:	fe80c0007f 	{ movi	a7, 0; ae_satq48s	aeq2, aeq2 }
    22b7:	d65000018f 	{ movi	a8, 1; ae_ltq56s	b0, aeq0, aeq2 }
    22bc:	f79821        	l32r	a2, 11c (cccd0000 <_end+0xcccc3c20>)
    22bf:	d36500        	movt	a6, a5, b0
    22c2:	26ac           	beqz.n	a6, 22e8 <Xfrac_num_pd_td16+0xac>
    22c4:	0018c6        	j	232b <Xfrac_num_pd_td16+0xef>

000022c7 <Xfrac_num_pd_td16+0x8b>:
    22c7:	0126a0        	slli	a2, a6, 22
    22ca:	398224        	ae_movpa24x2	aep0, a2, a2
    22cd:	f8800000ff 	{ movi	a15, 0; ae_mulfq32sp24s.l	aeq0, aeq0, aep0 }
    22d2:	150c           	movi.n	a5, 1
    22d4:	d6483b009f 	{ ae_sraiq56	aeq2, aeq0, 1; ae_ltq56s	b0, aeq0, aeq1 }
    22d9:	f79321        	l32r	a2, 128 (ccd0000 <_end+0xccc3c20>)
    22dc:	070c           	movi.n	a7, 0
    22de:	d6c856f50f 	{ movt	a15, a5, b0; ae_ltq56s	b1, aeq2, aeq1 }
    22e3:	8f9c           	beqz.n	a15, 22ff <Xfrac_num_pd_td16+0xc3>
    22e5:	001086        	j	232b <Xfrac_num_pd_td16+0xef>

000022e8 <Xfrac_num_pd_td16+0xac>:
    22e8:	365094        	ae_sllisq56s	aeq1, aeq1, 2
    22eb:	064944        	ae_satq48s	aeq1, aeq1
    22ee:	099004        	ae_ltq56s	b0, aeq0, aeq1
    22f1:	f78b21        	l32r	a2, 120 (e6660000 <_end+0xe6653c20>)
    22f4:	f78c51        	l32r	a5, 124 (f3330000 <_end+0xf3323c20>)
    22f7:	d37800        	movt	a7, a8, b0
    22fa:	e78c           	beqz.n	a7, 230c <Xfrac_num_pd_td16+0xd0>
    22fc:	000ac6        	j	232b <Xfrac_num_pd_td16+0xef>

000022ff <Xfrac_num_pd_td16+0xc3>:
    22ff:	150c           	movi.n	a5, 1
    2301:	d37510        	movt	a7, a5, b1
    2304:	978c           	beqz.n	a7, 2311 <Xfrac_num_pd_td16+0xd5>
    2306:	f78921        	l32r	a2, 12c (199a0000 <_end+0x19993c20>)
    2309:	000786        	j	232b <Xfrac_num_pd_td16+0xef>

0000230c <Xfrac_num_pd_td16+0xd0>:
    230c:	052d           	mov.n	a2, a5
    230e:	000646        	j	232b <Xfrac_num_pd_td16+0xef>

00002311 <Xfrac_num_pd_td16+0xd5>:
    2311:	3500b4        	ae_sraiq56	aeq0, aeq0, 2
    2314:	d64800002f 	{ movi	a2, 0; ae_ltq56s	b0, aeq0, aeq1 }
    2319:	150c           	movi.n	a5, 1
    231b:	f78561        	l32r	a6, 130 (33330000 <_end+0x33323c20>)
    231e:	d32500        	movt	a2, a5, b0
    2321:	328c           	beqz.n	a2, 2328 <Xfrac_num_pd_td16+0xec>
    2323:	062d           	mov.n	a2, a6
    2325:	000086        	j	232b <Xfrac_num_pd_td16+0xef>

00002328 <Xfrac_num_pd_td16+0xec>:
    2328:	f78321        	l32r	a2, 134 (3d710000 <_end+0x3d703c20>)
    232b:	d43a           	add.n	a13, a4, a3
    232d:	4129           	s32i.n	a2, a1, 16
    232f:	112d00        	slli	a2, a13, 16
    2332:	600144        	ae_lq32f.i	aeq0, a1, 16
    2335:	5129           	s32i.n	a2, a1, 20
    2337:	604154        	ae_lq32f.i	aeq1, a1, 20
    233a:	3503f4        	ae_sraiq56	aeq0, aeq0, 15
    233d:	0118c4        	ae_addq56	aeq0, aeq1, aeq0
    2340:	060834        	ae_roundsq32sym	aeq0, aeq0
    2343:	620144        	ae_sq32f.i	aeq0, a1, 16
    2346:	4128           	l32i.n	a2, a1, 16
    2348:	f01d           	retw.n

0000234a <Xfrac_num_pd_td16+0x10e>:
	...

0000234c <SBAEC_INIT>:
    234c:	008136        	entry	a1, 64
    234f:	f75251        	l32r	a5, 98 (c3d4 <p_ecnr_mem>)
    2352:	91a722        	movi	a2, 0x791
    2355:	1122d0        	slli	a2, a2, 3
    2358:	0578           	l32i.n	a7, a5, 0
    235a:	cda332        	movi	a3, 0x3cd
    235d:	d1a342        	movi	a4, 0x3d1
    2360:	a72a           	add.n	a10, a7, a2
    2362:	f75121        	l32r	a2, a8 (9a44 <xt_memset>)
    2365:	0b0c           	movi.n	a11, 0
    2367:	c0a0c2        	movi	a12, 192
    236a:	1133c0        	slli	a3, a3, 4
    236d:	1144c0        	slli	a4, a4, 4
    2370:	51a9           	s32i.n	a10, a1, 20
    2372:	0002e0        	callx8	a2
    2375:	0558           	l32i.n	a5, a5, 0
    2377:	a7a162        	movi	a6, 0x1a7
    237a:	1166c0        	slli	a6, a6, 4
    237d:	a56a           	add.n	a10, a5, a6
    237f:	0b0c           	movi.n	a11, 0
    2381:	c0a4c2        	movi	a12, 0x4c0
    2384:	0002e0        	callx8	a2
    2387:	f74921        	l32r	a2, ac (c3dc <aec_nr_para>)
    238a:	c50c           	movi.n	a5, 12
    238c:	767c           	movi.n	a6, -9
    238e:	0288           	l32i.n	a8, a2, 0
    2390:	f42060        	extui	a2, a6, 0, 16
    2393:	041892        	l16ui	a9, a8, 8
    2396:	1318a2        	l16ui	a10, a8, 38
    2399:	105950        	and	a5, a9, a5
    239c:	0da566        	bnei	a5, 12, 23ad <SBAEC_INIT+0x61>
    239f:	109920        	and	a9, a9, a2
    23a2:	851c           	movi.n	a5, 24
    23a4:	045892        	s16i	a9, a8, 8
    23a7:	023a57        	bltu	a10, a5, 23ad <SBAEC_INIT+0x61>
    23aa:	135852        	s16i	a5, a8, 38

000023ad <SBAEC_INIT+0x61>:
    23ad:	3cd722        	addmi	a2, a7, 0x3c00
    23b0:	d5a3e2        	movi	a14, 0x3d5
    23b3:	7129           	s32i.n	a2, a1, 28
    23b5:	112ec0        	slli	a2, a14, 4
    23b8:	d9a3f2        	movi	a15, 0x3d9
    23bb:	672a           	add.n	a6, a7, a2
    23bd:	112fc0        	slli	a2, a15, 4
    23c0:	272a           	add.n	a2, a7, a2
    23c2:	573a           	add.n	a5, a7, a3
    23c4:	474a           	add.n	a4, a7, a4
    23c6:	6129           	s32i.n	a2, a1, 24
    23c8:	52e937        	bbsi	a9, 3, 241e <SBAEC_INIT+0xd2>
    23cb:	e31832        	l16ui	a3, a8, 0x1c6
    23ce:	4d0c           	movi.n	a13, 4
    23d0:	131892        	l16ui	a9, a8, 38
    23d3:	056316        	beqz	a3, 242d <SBAEC_INIT+0xe1>
    23d6:	41cc30        	srli	a12, a3, 12
    23d9:	34a030        	extui	a10, a3, 0, 4
    23dc:	a0ccd0        	addx4	a12, a12, a13
    23df:	3dd722        	addmi	a2, a7, 0x3d00
    23e2:	34e430        	extui	a14, a3, 4, 4
    23e5:	11ded0        	slli	a13, a14, 3
    23e8:	11aae0        	slli	a10, a10, 2
    23eb:	7952c2        	s16i	a12, a2, 242
    23ee:	342830        	extui	a2, a3, 8, 4
    23f1:	1132e0        	slli	a3, a2, 2
    23f4:	aa4b           	addi.n	a10, a10, 4
    23f6:	3dd7f2        	addmi	a15, a7, 0x3d00
    23f9:	dd8b           	addi.n	a13, a13, 8
    23fb:	775fd2        	s16i	a13, a15, 238
    23fe:	3dd7e2        	addmi	a14, a7, 0x3d00
    2401:	334b           	addi.n	a3, a3, 4
    2403:	4399a0        	min	a9, a9, a10
    2406:	41f1d0        	srli	a15, a13, 1
    2409:	785e32        	s16i	a3, a14, 240
    240c:	4333c0        	min	a3, a3, a12
    240f:	4399f0        	min	a9, a9, a15
    2412:	433930        	min	a3, a9, a3
    2415:	765ea2        	s16i	a10, a14, 236
    2418:	135832        	s16i	a3, a8, 38
    241b:	000806        	j	243f <SBAEC_INIT+0xf3>

0000241e <SBAEC_INIT+0xd2>:
    241e:	f76131        	l32r	a3, 1a4 (c00100 <_end+0xbf3d20>)
    2421:	3dd792        	addmi	a9, a7, 0x3d00
    2424:	3b6932        	s32i	a3, a9, 236
    2427:	f76031        	l32r	a3, 1a8 (600040 <_end+0x5f3c60>)
    242a:	0002c6        	j	2439 <SBAEC_INIT+0xed>

0000242d <SBAEC_INIT+0xe1>:
    242d:	f75b31        	l32r	a3, 19c (300040 <_end+0x2f3c60>)
    2430:	3dd792        	addmi	a9, a7, 0x3d00
    2433:	3b6932        	s32i	a3, a9, 236
    2436:	f75a31        	l32r	a3, 1a0 (200018 <_end+0x1f3c38>)
    2439:	3dd792        	addmi	a9, a7, 0x3d00
    243c:	3c6932        	s32i	a3, a9, 240
    243f:	baa632        	movi	a3, 0x6ba
    2442:	b03330        	addx8	a3, a3, a3
    2445:	a73a           	add.n	a10, a7, a3
    2447:	f71a31        	l32r	a3, b0 (9a58 <xt_memcpy>)
    244a:	b8eb           	addi.n	a11, a8, 14
    244c:	ec0c           	movi.n	a12, 14
    244e:	0003e0        	callx8	a3
    2451:	f71631        	l32r	a3, ac (c3dc <aec_nr_para>)
    2454:	f71121        	l32r	a2, 98 (c3d4 <p_ecnr_mem>)
    2457:	3cd782        	addmi	a8, a7, 0x3c00
    245a:	0338           	l32i.n	a3, a3, 0
    245c:	02b8           	l32i.n	a11, a2, 0
    245e:	3fa2c2        	movi	a12, 0x23f
    2461:	061392        	l16ui	a9, a3, 12
    2464:	c693a2        	l16si	a10, a3, 0x18c
    2467:	5358a2        	s16i	a10, a8, 166
    246a:	1199c0        	slli	a9, a9, 4
    246d:	2b6892        	s32i	a9, a8, 172
    2470:	a7a1d2        	movi	a13, 0x1a7
    2473:	6c2332        	l32i	a3, a3, 0x1b0
    2476:	119dc0        	slli	a9, a13, 4
    2479:	2a6832        	s32i	a3, a8, 168
    247c:	118cc0        	slli	a8, a12, 4
    247f:	f74b31        	l32r	a3, 1ac (2574 <Fill_CH_MEM_WB>)
    2482:	61d8           	l32i.n	a13, a1, 24
    2484:	51e8           	l32i.n	a14, a1, 20
    2486:	fb9a           	add.n	a15, a11, a9
    2488:	9b8a           	add.n	a9, a11, a8
    248a:	05ad           	mov.n	a10, a5
    248c:	04bd           	mov.n	a11, a4
    248e:	06cd           	mov.n	a12, a6
    2490:	0199           	s32i.n	a9, a1, 0
    2492:	0003e0        	callx8	a3
    2495:	f70581        	l32r	a8, ac (c3dc <aec_nr_para>)
    2498:	0238           	l32i.n	a3, a2, 0
    249a:	3dd7e2        	addmi	a14, a7, 0x3d00
    249d:	0888           	l32i.n	a8, a8, 0
    249f:	1ad332        	addmi	a3, a3, 0x1a00
    24a2:	102392        	l32i	a9, a3, 64
    24a5:	142332        	l32i	a3, a3, 80
    24a8:	326e32        	s32i	a3, a14, 200
    24ab:	769eb2        	l16si	a11, a14, 236
    24ae:	1698c2        	l16si	a12, a8, 44
    24b1:	f73f31        	l32r	a3, 1b0 (2558 <Fill_sbco>)
    24b4:	1d0c           	movi.n	a13, 1
    24b6:	05ad           	mov.n	a10, a5
    24b8:	51e9           	s32i.n	a14, a1, 20
    24ba:	316e92        	s32i	a9, a14, 196
    24bd:	0003e0        	callx8	a3
    24c0:	f6fb21        	l32r	a2, ac (c3dc <aec_nr_para>)
    24c3:	3dd752        	addmi	a5, a7, 0x3d00
    24c6:	779552        	l16si	a5, a5, 238
    24c9:	0288           	l32i.n	a8, a2, 0
    24cb:	1d0c           	movi.n	a13, 1
    24cd:	f51b           	addi.n	a15, a5, 1
    24cf:	b3f550        	movgez	a15, a5, a5
    24d2:	1798c2        	l16si	a12, a8, 46
    24d5:	21b1f0        	srai	a11, a15, 1
    24d8:	04ad           	mov.n	a10, a4
    24da:	0003e0        	callx8	a3
    24dd:	0258           	l32i.n	a5, a2, 0
    24df:	3dd742        	addmi	a4, a7, 0x3d00
    24e2:	7894b2        	l16si	a11, a4, 240
    24e5:	1895c2        	l16si	a12, a5, 48
    24e8:	1d0c           	movi.n	a13, 1
    24ea:	06ad           	mov.n	a10, a6
    24ec:	0003e0        	callx8	a3
    24ef:	0258           	l32i.n	a5, a2, 0
    24f1:	7994b2        	l16si	a11, a4, 242
    24f4:	61a8           	l32i.n	a10, a1, 24
    24f6:	1995c2        	l16si	a12, a5, 50
    24f9:	1d0c           	movi.n	a13, 1
    24fb:	0003e0        	callx8	a3
    24fe:	f6e641        	l32r	a4, 98 (c3d4 <p_ecnr_mem>)
    2501:	0228           	l32i.n	a2, a2, 0
    2503:	ffa082        	movi	a8, 255
    2506:	0448           	l32i.n	a4, a4, 0
    2508:	1592f2        	l16si	a15, a2, 42
    250b:	041292        	l16ui	a9, a2, 8
    250e:	1ad462        	addmi	a6, a4, 0x1a00
    2511:	1156f2        	s16i	a15, a6, 34
    2514:	7168           	l32i.n	a6, a1, 28
    2516:	51e8           	l32i.n	a14, a1, 20
    2518:	1ad442        	addmi	a4, a4, 0x1a00
    251b:	3cd752        	addmi	a5, a7, 0x3c00
    251e:	7fd882        	addmi	a8, a8, 0x7f00
    2521:	3dd732        	addmi	a3, a7, 0x3d00
    2524:	595582        	s16i	a8, a5, 178
    2527:	0592a2        	l16si	a10, a2, 10
    252a:	0292c2        	l16si	a12, a2, 4
    252d:	2392b2        	l16si	a11, a2, 70
    2530:	3dd772        	addmi	a7, a7, 0x3d00
    2533:	e4d8           	l32i.n	a13, a4, 56
    2535:	04f090        	extui	a15, a9, 0, 1
    2538:	145190        	extui	a5, a9, 1, 2
    253b:	dc9222        	l16si	a2, a2, 0x1b8
    253e:	165452        	s16i	a5, a4, 44
    2541:	6953a2        	s16i	a10, a3, 210
    2544:	6a57b2        	s16i	a11, a7, 212
    2547:	4456c2        	s16i	a12, a6, 136
    254a:	3a6ed2        	s32i	a13, a14, 232
    254d:	6853f2        	s16i	a15, a3, 208
    2550:	6b5722        	s16i	a2, a7, 214
    2553:	f01d           	retw.n

00002555 <SBAEC_INIT+0x209>:
    2555:	000000                                        ...

00002558 <Fill_sbco>:
    2558:	004136        	entry	a1, 32
    255b:	ffa062        	movi	a6, 255
    255e:	11f400        	slli	a15, a4, 16
    2561:	7fd662        	addmi	a6, a6, 0x7f00
    2564:	115232        	s16i	a3, a2, 34
    2567:	105262        	s16i	a6, a2, 32
    256a:	125252        	s16i	a5, a2, 36
    256d:	52f9           	s32i.n	a15, a2, 20
    256f:	42f9           	s32i.n	a15, a2, 16
    2571:	f01d           	retw.n

00002573 <Fill_sbco+0x1b>:
	...

00002574 <Fill_CH_MEM_WB>:
    2574:	004136        	entry	a1, 32
    2577:	8188           	l32i.n	a8, a1, 32
    2579:	8ca092        	movi	a9, 140
    257c:	a0a0a2        	movi	a10, 160
    257f:	50c8f2        	addi	a15, a8, 80
    2582:	c8a0b2        	movi	a11, 200
    2585:	f0a0c2        	movi	a12, 240
    2588:	d389           	s32i.n	a8, a3, 52
    258a:	28c8d2        	addi	a13, a8, 40
    258d:	d2f9           	s32i.n	a15, a2, 52
    258f:	04a1f2        	movi	a15, 0x104
    2592:	f3d9           	s32i.n	a13, a3, 60
    2594:	64c8e2        	addi	a14, a8, 100
    2597:	b8ba           	add.n	a11, a8, a11
    2599:	d8fa           	add.n	a13, a8, a15
    259b:	989a           	add.n	a9, a8, a9
    259d:	a8aa           	add.n	a10, a8, a10
    259f:	c8ca           	add.n	a12, a8, a12
    25a1:	78c882        	addi	a8, a8, 120
    25a4:	f289           	s32i.n	a8, a2, 60
    25a6:	f499           	s32i.n	a9, a4, 60
    25a8:	b29692        	l16si	a9, a6, 0x164
    25ab:	d4e9           	s32i.n	a14, a4, 52
    25ad:	b396e2        	l16si	a14, a6, 0x166
    25b0:	f5a9           	s32i.n	a10, a5, 60
    25b2:	b496a2        	l16si	a10, a6, 0x168
    25b5:	e3b9           	s32i.n	a11, a3, 56
    25b7:	b596f2        	l16si	a15, a6, 0x16a
    25ba:	90b970        	addx2	a11, a9, a7
    25bd:	a279           	s32i.n	a7, a2, 40
    25bf:	907eb0        	addx2	a7, a14, a11
    25c2:	a3b9           	s32i.n	a11, a3, 40
    25c4:	a479           	s32i.n	a7, a4, 40
    25c6:	907a70        	addx2	a7, a10, a7
    25c9:	906f70        	addx2	a6, a15, a7
    25cc:	b269           	s32i.n	a6, a2, 44
    25ce:	906960        	addx2	a6, a9, a6
    25d1:	b369           	s32i.n	a6, a3, 44
    25d3:	906e60        	addx2	a6, a14, a6
    25d6:	a579           	s32i.n	a7, a5, 40
    25d8:	e2c9           	s32i.n	a12, a2, 56
    25da:	e4d9           	s32i.n	a13, a4, 56
    25dc:	a3c8           	l32i.n	a12, a3, 40
    25de:	a2d8           	l32i.n	a13, a2, 40
    25e0:	a4e8           	l32i.n	a14, a4, 40
    25e2:	90fa60        	addx2	a15, a10, a6
    25e5:	c3c9           	s32i.n	a12, a3, 48
    25e7:	c2d9           	s32i.n	a13, a2, 48
    25e9:	c4e9           	s32i.n	a14, a4, 48
    25eb:	b469           	s32i.n	a6, a4, 44
    25ed:	c579           	s32i.n	a7, a5, 48
    25ef:	b5f9           	s32i.n	a15, a5, 44
    25f1:	f01d           	retw.n

000025f3 <Fill_CH_MEM_WB+0x7f>:
	...

000025f4 <common_x_pow>:
    25f4:	004136        	entry	a1, 32
    25f7:	360334        	ae_cvtq48a32s	aeq0, a3
    25fa:	fe00bec47f 	{ ae_cvtq48a32s	aeq1, a4; ae_absq56	aeq2, aeq0 }
    25ff:	ff0480005f 	{ movi	a5, 0; ae_absq56	aeq3, aeq1 }
    2604:	d6d80001ff 	{ movi	a15, 1; ae_ltq56s	b0, aeq2, aeq3 }
    2609:	023d           	mov.n	a3, a2
    260b:	120c           	movi.n	a2, 1
    260d:	d35f00        	movt	a5, a15, b0
    2610:	65ac           	beqz.n	a5, 263a <common_x_pow+0x46>
    2612:	f9bac0004f 	{ movi	a4, 0; ae_subq56	aeq1, aeq3, aeq2 }
    2617:	0122b0        	slli	a2, a2, 21
    261a:	36c234        	ae_cvtq48a32s	aeq3, a2
    261d:	d6cc0001ff 	{ movi	a15, 1; ae_ltq56s	b0, aeq3, aeq1 }
    2622:	120c           	movi.n	a2, 1
    2624:	f6e451        	l32r	a5, 1b4 (2aaa00 <_end+0x29e620>)
    2627:	fd04564f0f 	{ movt	a4, a15, b0; ae_movq56	aeq1, aeq0 }
    262c:	c48c           	beqz.n	a4, 263c <common_x_pow+0x48>
    262e:	398554        	ae_movpa24x2	aep0, a5, a5
    2631:	030a14        	ae_mulfq32sp16s.l	aeq1, aeq0, aep0
    2634:	065934        	ae_roundsq32asym	aeq1, aeq1
    2637:	000046        	j	263c <common_x_pow+0x48>

0000263a <common_x_pow+0x46>:
    263a:	020c           	movi.n	a2, 0
    263c:	f6df41        	l32r	a4, 1b8 (bab0 <immediate_num>)
    263f:	608324        	ae_lq32f.i	aeq2, a3, 8
    2642:	60c334        	ae_lq32f.i	aeq3, a3, 12
    2645:	440404        	ae_lp16x2f.i	aep0, a4, 0
    2648:	c10084        	ae_mulzaafq32sp16s.lh	aeq0, aeq2, aep0, aeq0, aep0
    264b:	c108d4        	ae_mulzaafq32sp16s.lh	aeq1, aeq3, aep0, aeq1, aep0
    264e:	060934        	ae_roundsq32asym	aeq0, aeq0
    2651:	fd2c79832f 	{ ae_sq32f.i	aeq0, a3, 8; ae_roundsq32asym	aeq1, aeq1 }
    2656:	621334        	ae_sq32f.i	aeq1, a3, 12
    2659:	f01d           	retw.n

0000265b <common_x_pow+0x67>:
	...

0000265c <ref_gain_adapt>:
    265c:	004136        	entry	a1, 32
    265f:	5378           	l32i.n	a7, a3, 20
    2661:	f6d561        	l32r	a6, 1b8 (bab0 <immediate_num>)
    2664:	360734        	ae_cvtq48a32s	aeq0, a7
    2667:	03b5d6        	bgez	a5, 26a6 <ref_gain_adapt+0x4a>
    266a:	059252        	l16si	a5, a2, 10
    266d:	440614        	ae_lp16x2f.i	aep0, a6, 4
    2670:	364434        	ae_cvtq48a32s	aeq1, a4
    2673:	11d500        	slli	a13, a5, 16
    2676:	d5637ecdbf 	{ ae_cvtq48a32s	aeq2, a13; ae_mulfq32sp16s.h	aeq3, aeq1, aep0 }
    267b:	0e0c           	movi.n	a14, 0
    267d:	d6d80001ff 	{ movi	a15, 1; ae_ltq56s	b0, aeq2, aeq3 }
    2682:	040c           	movi.n	a4, 0
    2684:	150c           	movi.n	a5, 1
    2686:	d3ef00        	movt	a14, a15, b0
    2689:	0edc           	bnez.n	a14, 269d <ref_gain_adapt+0x41>
    268b:	440624        	ae_lp16x2f.i	aep0, a6, 8
    268e:	d56340007f 	{ movi	a7, 0; ae_mulfq32sp16s.h	aeq3, aeq1, aep0 }
    2693:	d6d800018f 	{ movi	a8, 1; ae_ltq56s	b0, aeq2, aeq3 }
    2698:	d34500        	movt	a4, a5, b0
    269b:	24ac           	beqz.n	a4, 26c1 <ref_gain_adapt+0x65>

0000269d <ref_gain_adapt+0x41>:
    269d:	a10004        	ae_mulzaafq32sp16s.ll	aeq0, aeq0, aep0, aeq0, aep0
    26a0:	060934        	ae_roundsq32asym	aeq0, aeq0
    26a3:	368704        	ae_trunca32q48	a7, aeq0
    26a6:	120c           	movi.n	a2, 1
    26a8:	0122b0        	slli	a2, a2, 21
    26ab:	532720        	max	a2, a7, a2
    26ae:	5329           	s32i.n	a2, a3, 20
    26b0:	604344        	ae_lq32f.i	aeq1, a3, 16
    26b3:	440654        	ae_lp16x2f.i	aep0, a6, 20
    26b6:	c10044        	ae_mulzaafq32sp16s.lh	aeq0, aeq1, aep0, aeq0, aep0
    26b9:	060934        	ae_roundsq32asym	aeq0, aeq0
    26bc:	620344        	ae_sq32f.i	aeq0, a3, 16
    26bf:	f01d           	retw.n

000026c1 <ref_gain_adapt+0x65>:
    26c1:	440634        	ae_lp16x2f.i	aep0, a6, 12
    26c4:	d76240004f 	{ movi	a4, 0; ae_mulfq32sp16s.h	aeq3, aeq2, aep0 }
    26c9:	d65c00015f 	{ movi	a5, 1; ae_ltq56s	b0, aeq1, aeq3 }
    26ce:	d7e244f22e 	{ addi	a2, a2, 79; ae_mulfq32sp16s.l	aeq3, aeq2, aep0 }
    26d3:	ff0222        	l8ui	a2, a2, 255
    26d6:	d6cc16780f 	{ movt	a7, a8, b0; ae_ltq56s	b0, aeq3, aeq1 }
    26db:	fc1716        	beqz	a7, 26a0 <ref_gain_adapt+0x44>
    26de:	370c           	movi.n	a7, 3
    26e0:	d34500        	movt	a4, a5, b0
    26e3:	14cc           	bnez.n	a4, 26e8 <ref_gain_adapt+0x8c>
    26e5:	b70727        	bnone	a7, a2, 26a0 <ref_gain_adapt+0x44>
    26e8:	440644        	ae_lp16x2f.i	aep0, a6, 16
    26eb:	030214        	ae_mulfq32sp16s.l	aeq0, aeq0, aep0
    26ee:	ffeb86        	j	26a0 <ref_gain_adapt+0x44>

000026f1 <ref_gain_adapt+0x95>:
    26f1:	000000                                        ...

000026f4 <aec_post_calc>:
    26f4:	006136        	entry	a1, 48
    26f7:	054466        	bnei	a4, 4, 2700 <aec_post_calc+0xc>
    26fa:	20c242        	addi	a4, a2, 32
    26fd:	000086        	j	2703 <aec_post_calc+0xf>

00002700 <aec_post_calc+0xc>:
    2700:	1ec242        	addi	a4, a2, 30
    2703:	150c           	movi.n	a5, 1
    2705:	0155d0        	slli	a5, a5, 19
    2708:	400404        	ae_lp16f.i	aep0, a4, 0
    270b:	360534        	ae_cvtq48a32s	aeq0, a5
    270e:	1d0c           	movi.n	a13, 1
    2710:	115d00        	slli	a5, a13, 16
    2713:	d4e2bec5ff 	{ ae_cvtq48a32s	aeq3, a5; ae_mulfq32sp16u.l	aeq0, aeq0, aep0 }
    2718:	23c8           	l32i.n	a12, a3, 8
    271a:	d6e3b9813f 	{ ae_sq32f.i	aeq0, a1, 12; ae_mulfq32sp16u.l	aeq0, aeq3, aep0 }
    271f:	3178           	l32i.n	a7, a1, 12
    2721:	33e8           	l32i.n	a14, a3, 12
    2723:	620134        	ae_sq32f.i	aeq0, a1, 12
    2726:	3168           	l32i.n	a6, a1, 12
    2728:	53bc70        	max	a11, a12, a7
    272b:	f6a441        	l32r	a4, 1bc (88fc <airoha_divide_limit_1>)
    272e:	53fe60        	max	a15, a14, a6
    2731:	43abf0        	min	a10, a11, a15
    2734:	0004e0        	callx8	a4
    2737:	600364        	ae_lq32f.i	aeq0, a3, 24
    273a:	4c0244        	ae_lp24.i	aep0, a2, 16
    273d:	379aa4        	ae_truncp24a32x2	aep1, a10, a10
    2740:	e207a1724e 	{ l16si	a4, a2, 46; ae_mulafp24s.ll	aeq0, aep1, aep0 }
    2745:	f966a0225e 	{ l16si	a5, a2, 4; ae_movp48	aep2, aep1 }
    274a:	fc2460b27e 	{ l16si	a7, a2, 22; ae_roundsq32asym	aeq0, aeq0 }
    274f:	620364        	ae_sq32f.i	aeq0, a3, 24
    2752:	18a547        	bge	a5, a4, 276e <aec_post_calc+0x7a>
    2755:	0a9242        	l16si	a4, a2, 20
    2758:	169252        	l16si	a5, a2, 44
    275b:	060c           	movi.n	a6, 0
    275d:	742b           	addi.n	a7, a4, 2
    275f:	725650        	salt	a5, a6, a5
    2762:	837450        	moveqz	a7, a4, a5
    2765:	031674        	wur.ae_sar	a7
    2768:	0b10a4        	ae_sllssp24s	aep2, aep1
    276b:	000506        	j	2783 <aec_post_calc+0x8f>

0000276e <aec_post_calc+0x7a>:
    276e:	074d           	mov.n	a4, a7
    2770:	0f27a6        	blti	a7, 2, 2783 <aec_post_calc+0x8f>
    2773:	944d           	ae_zext16	a4, a4
    2775:	f9668ff44e 	{ addi	a4, a4, -1; ae_movp48	aep2, aep1 }
    277a:	058476        	loop	a4, 2783 <aec_post_calc+0x8f>
    277d:	012174        	ae_mulfp24s.ll	aeq0, aep2, aep1
    2780:	1b8d24        	ae_roundsp24q48asym	aep2, aeq0

00002783 <aec_post_calc+0x8f>:
    2783:	401274        	ae_lp16f.i	aep1, a2, 14
    2786:	d82a7d037f 	{ ae_lq32f.i	aeq0, a3, 28; ae_maxp24s	aep1, aep2, aep1 }
    278b:	011034        	ae_mulafp24s.ll	aeq0, aep1, aep0
    278e:	060934        	ae_roundsq32asym	aeq0, aeq0
    2791:	620374        	ae_sq32f.i	aeq0, a3, 28
    2794:	f01d           	retw.n

00002796 <aec_post_calc+0xa2>:
	...

00002798 <subband_aec_block>:
    2798:	006136        	entry	a1, 48
    279b:	a378           	l32i.n	a7, a3, 40
    279d:	fd24a1138e 	{ l16si	a8, a3, 34; ae_zeroq56	aeq1 }
    27a2:	f41b           	addi.n	a15, a4, 1
    27a4:	a3d8           	l32i.n	a13, a3, 40
    27a6:	90e870        	addx2	a14, a8, a7
    27a9:	b3f440        	movgez	a15, a4, a4
    27ac:	21b1f0        	srai	a11, a15, 1
    27af:	3169           	s32i.n	a6, a1, 12
    27b1:	f3f6d0        	wur.ae_cbegin0	a13
    27b4:	f3f7e0        	wur.ae_cend0	a14
    27b7:	2f24a6        	blti	a4, 2, 27ea <subband_aec_block+0x52>
    27ba:	582262        	l32i	a6, a2, 0x160
    27bd:	e388           	l32i.n	a8, a3, 56
    27bf:	c378           	l32i.n	a7, a3, 48
    27c1:	600344        	ae_lq32f.i	aeq0, a3, 16
    27c4:	04a092        	movi	a9, 4
    27c7:	440804        	ae_lp16x2f.i	aep0, a8, 0
    27ca:	fcc6a2        	addi	a10, a6, -4
    27cd:	198b76        	loop	a11, 27ea <subband_aec_block+0x52>
    27d0:	09001aa79f 	{ ae_lp16x2f.c	aep2, a7, a9; ae_mulzaafq32sp16s.hh	aeq2, aeq0, aep0, aeq0, aep0 }
    27d5:	11006d881f 	{ ae_lp16x2f.iu	aep0, a8, 4; ae_mulzaafq32sp16s.ll	aeq3, aeq0, aep0, aeq0, aep0 }
    27da:	1baf74        	ae_roundsp16q48asym	aep7, aeq2
    27dd:	1bbf14        	ae_roundsp16q48asym	aep1, aeq3
    27e0:	f04a7e715f 	{ ae_selp24.hl	aep1, aep7, aep1; ae_mulssfp24s.hh.ll	aeq1, aep2, aep2 }
    27e5:	e224739a1f 	{ ae_sp16x2f.iu	aep1, a10, 4; ae_mulaafp24s.hh.ll	aeq1, aep1, aep1 }

000027ea <subband_aec_block+0x52>:
    27ea:	351234        	ae_sraiq56	aeq0, aeq1, 8
    27ed:	618304        	ae_lq56.i	aeq2, a3, 0
    27f0:	f87230926e 	{ l32i	a6, a2, 36; ae_addq56	aeq0, aeq2, aeq0 }
    27f5:	fc00fec6ff 	{ ae_cvtq48a32s	aeq3, a6; ae_satq48s	aeq0, aeq0 }
    27fa:	f87b1421bf 	{ s32i.n	a11, a1, 8; ae_maxq56s	aeq0, aeq0, aeq3 }
    27ff:	630304        	ae_sq56s.i	aeq0, a3, 0
    2802:	00e5d6        	bgez	a5, 2814 <subband_aec_block+0x7c>
    2805:	109362        	l16si	a6, a3, 32
    2808:	368b04        	ae_trunca32q48	a11, aeq0
    280b:	11a670        	slli	a10, a6, 9
    280e:	f66c61        	l32r	a6, 1c0 (87f4 <airoha_divide>)
    2811:	0006e0        	callx8	a6

00002814 <subband_aec_block+0x7c>:
    2814:	c388           	l32i.n	a8, a3, 48
    2816:	7414a6        	blti	a4, 1, 288e <subband_aec_block+0xf6>
    2819:	b368           	l32i.n	a6, a3, 44
    281b:	f3d8           	l32i.n	a13, a3, 60
    281d:	582272        	l32i	a7, a2, 0x160
    2820:	d3c8           	l32i.n	a12, a3, 52
    2822:	119392        	l16si	a9, a3, 34
    2825:	360b34        	ae_cvtq48a32s	aeq0, a11
    2828:	2b0c           	movi.n	a11, 2
    282a:	fec662        	addi	a6, a6, -2
    282d:	fecdd2        	addi	a13, a13, -2
    2830:	fecce2        	addi	a14, a12, -2
    2833:	04fd           	mov.n	a15, a4
    2835:	fec772        	addi	a7, a7, -2
    2838:	408714        	ae_lp16f.iu	aep0, a7, 2
    283b:	fc24e288bf 	{ ae_sp16f.l.c	aep0, a8, a11; nop }
    2840:	408e14        	ae_lp16f.iu	aep0, a14, 2
    2843:	fd0c13c66f 	{ or	a12, a6, a6; ae_cvtq48p24s.l	aeq1, aep0 }
    2848:	0f19a6        	blti	a9, 1, 285b <subband_aec_block+0xc3>
    284b:	408c14        	ae_lp16f.iu	aep0, a12, 2
    284e:	098976        	loop	a9, 285b <subband_aec_block+0xc3>
    2851:	fc24d918bf 	{ ae_lp16f.c	aep1, a8, a11; nop }
    2856:	ee21ec8c1f 	{ ae_lp16f.iu	aep0, a12, 2; ae_mulsfp24s.ll	aeq1, aep0, aep1 }

0000285b <subband_aec_block+0xc3>:
    285b:	f86b93c66f 	{ or	a12, a6, a6; ae_roundsp16q48asym	aep0, aeq1 }
    2860:	d4e2728d1f 	{ ae_sp16f.l.iu	aep0, a13, 2; ae_mulfq32sp16s.l	aeq1, aeq0, aep0 }
    2865:	0205d6        	bgez	a5, 2889 <subband_aec_block+0xf1>
    2868:	fc24fe9a4f 	{ ae_slaasq56s	aeq1, aeq1, a10; nop }
    286d:	1b9d04        	ae_roundsp24q48asym	aep0, aeq1
    2870:	1519a6        	blti	a9, 1, 2889 <subband_aec_block+0xf1>
    2873:	409c14        	ae_lp16f.iu	aep1, a12, 2
    2876:	0f8976        	loop	a9, 2889 <subband_aec_block+0xf1>
    2879:	fd2c1978bf 	{ ae_lp16f.c	aep7, a8, a11; ae_cvtq48p24s.l	aeq1, aep1 }
    287e:	e2e3ec9c1f 	{ ae_lp16f.iu	aep1, a12, 2; ae_mulafp24s.ll	aeq1, aep0, aep7 }
    2883:	1b9f24        	ae_roundsp16q48asym	aep2, aeq1
    2886:	422cf4        	ae_sp16f.l.i	aep2, a12, -2
    2889:	ff0b           	addi.n	a15, a15, -1
    288b:	fa9f56        	bnez	a15, 2838 <subband_aec_block+0xa0>

0000288e <subband_aec_block+0xf6>:
    288e:	fc2494c38f 	{ s32i.n	a8, a3, 48; ae_zeroq56	aeq0 }
    2893:	fd24b0d36e 	{ l32i	a6, a3, 52; ae_zeroq56	aeq1 }
    2898:	1724a6        	blti	a4, 2, 28b3 <subband_aec_block+0x11b>
    289b:	f378           	l32i.n	a7, a3, 60
    289d:	2188           	l32i.n	a8, a1, 8
    289f:	fcc662        	addi	a6, a6, -4
    28a2:	fcc772        	addi	a7, a7, -4
    28a5:	0a8876        	loop	a8, 28b3 <subband_aec_block+0x11b>
    28a8:	448614        	ae_lp16x2f.iu	aep0, a6, 4
    28ab:	e2006d971f 	{ ae_lp16x2f.iu	aep1, a7, 4; ae_mulaafp24s.hh.ll	aeq1, aep0, aep0 }
    28b0:	050104        	ae_mulaafp24s.hh.ll	aeq0, aep0, aep1

000028b3 <subband_aec_block+0x11b>:
    28b3:	355134        	ae_sraiq56	aeq1, aeq1, 4
    28b6:	fd2c7b010f 	{ ae_sraiq56	aeq0, aeq0, 4; ae_roundsq32asym	aeq1, aeq1 }
    28bb:	fc247f1bef 	{ ae_trunca32q48	a11, aeq1; ae_roundsq32asym	aeq0, aeq0 }
    28c0:	368c04        	ae_trunca32q48	a12, aeq0
    28c3:	f64061        	l32r	a6, 1c4 (25f4 <common_x_pow>)
    28c6:	03ad           	mov.n	a10, a3
    28c8:	0006e0        	callx8	a6
    28cb:	aa8c           	beqz.n	a10, 28d9 <subband_aec_block+0x141>
    28cd:	f3a8           	l32i.n	a10, a3, 60
    28cf:	d3b8           	l32i.n	a11, a3, 52
    28d1:	f5f761        	l32r	a6, b0 (9a58 <xt_memcpy>)
    28d4:	04cd           	mov.n	a12, a4
    28d6:	0006e0        	callx8	a6

000028d9 <subband_aec_block+0x141>:
    28d9:	fc24a0d24e 	{ l16si	a4, a2, 26; ae_zeroq56	aeq0 }
    28de:	2124a6        	blti	a4, 2, 2903 <subband_aec_block+0x16b>
    28e1:	b368           	l32i.n	a6, a3, 44
    28e3:	119372        	l16si	a7, a3, 34
    28e6:	e41b           	addi.n	a14, a4, 1
    28e8:	b3e440        	movgez	a14, a4, a4
    28eb:	906760        	addx2	a6, a7, a6
    28ee:	11f4f0        	slli	a15, a4, 1
    28f1:	c046f0        	sub	a4, a6, a15
    28f4:	2171e0        	srai	a7, a14, 1
    28f7:	fcc442        	addi	a4, a4, -4
    28fa:	058776        	loop	a7, 2903 <subband_aec_block+0x16b>
    28fd:	448414        	ae_lp16x2f.iu	aep0, a4, 4
    2900:	050004        	ae_mulaafp24s.hh.ll	aeq0, aep0, aep0

00002903 <subband_aec_block+0x16b>:
    2903:	3368           	l32i.n	a6, a3, 12
    2905:	070c           	movi.n	a7, 0
    2907:	3500b4        	ae_sraiq56	aeq0, aeq0, 2
    290a:	53a670        	max	a10, a6, a7
    290d:	fc247023be 	{ l32i	a11, a3, 8; ae_roundsq32asym	aeq0, aeq0 }
    2912:	f62a61        	l32r	a6, 1bc (88fc <airoha_divide_limit_1>)
    2915:	368404        	ae_trunca32q48	a4, aeq0
    2918:	0006e0        	callx8	a6
    291b:	ffa062        	movi	a6, 255
    291e:	049272        	l16si	a7, a2, 8
    2921:	2403f2        	l8ui	a15, a3, 36
    2924:	7fd662        	addmi	a6, a6, 0x7f00
    2927:	3180a0        	srai	a8, a10, 16
    292a:	c06680        	sub	a6, a6, a8
    292d:	536670        	max	a6, a6, a7
    2930:	05ef17        	bbsi	a15, 1, 2939 <subband_aec_block+0x1a1>
    2933:	105362        	s16i	a6, a3, 32
    2936:	000706        	j	2956 <subband_aec_block+0x1be>

00002939 <subband_aec_block+0x1a1>:
    2939:	039272        	l16si	a7, a2, 6
    293c:	02ad           	mov.n	a10, a2
    293e:	03bd           	mov.n	a11, a3
    2940:	826670        	mull	a6, a6, a7
    2943:	04cd           	mov.n	a12, a4
    2945:	40d662        	addmi	a6, a6, 0x4000
    2948:	416f60        	srli	a6, a6, 15
    294b:	105362        	s16i	a6, a3, 32
    294e:	f61e61        	l32r	a6, 1c8 (265c <ref_gain_adapt>)
    2951:	05dd           	mov.n	a13, a5
    2953:	0006e0        	callx8	a6
    2956:	059252        	l16si	a5, a2, 10
    2959:	069272        	l16si	a7, a2, 12
    295c:	260c           	movi.n	a6, 2
    295e:	115500        	slli	a5, a5, 16
    2961:	5ba547        	bge	a5, a4, 29c0 <subband_aec_block+0x228>
    2964:	129352        	l16si	a5, a3, 36
    2967:	11f700        	slli	a15, a7, 16
    296a:	f61381        	l32r	a8, 1b8 (bab0 <immediate_num>)
    296d:	205560        	or	a5, a5, a6
    2970:	125352        	s16i	a5, a3, 36
    2973:	0baf47        	bge	a15, a4, 2982 <subband_aec_block+0x1ea>
    2976:	f61041        	l32r	a4, 1b8 (bab0 <immediate_num>)
    2979:	18c442        	addi	a4, a4, 24
    297c:	400404        	ae_lp16f.i	aep0, a4, 0
    297f:	000146        	j	2988 <subband_aec_block+0x1f0>

00002982 <subband_aec_block+0x1ea>:
    2982:	18c842        	addi	a4, a8, 24
    2985:	400414        	ae_lp16f.i	aep0, a4, 2
    2988:	0d9242        	l16si	a4, a2, 26
    298b:	3124a6        	blti	a4, 2, 29c0 <subband_aec_block+0x228>
    298e:	b358           	l32i.n	a5, a3, 44
    2990:	119362        	l16si	a6, a3, 34
    2993:	e41b           	addi.n	a14, a4, 1
    2995:	b3e440        	movgez	a14, a4, a4
    2998:	905650        	addx2	a5, a6, a5
    299b:	11f4f0        	slli	a15, a4, 1
    299e:	c045f0        	sub	a4, a5, a15
    29a1:	2161e0        	srai	a6, a14, 1
    29a4:	441404        	ae_lp16x2f.i	aep1, a4, 0
    29a7:	fec452        	addi	a5, a4, -2
    29aa:	128676        	loop	a6, 29c0 <subband_aec_block+0x228>
    29ad:	011054        	ae_mulfp24s.hl	aeq0, aep1, aep0
    29b0:	ea05ed941f 	{ ae_lp16x2f.iu	aep1, a4, 4; ae_mulfp24s.ll	aeq1, aep1, aep0 }
    29b5:	1b8f24        	ae_roundsp16q48asym	aep2, aeq0
    29b8:	fb6bf2a51f 	{ ae_sp16f.l.iu	aep2, a5, 2; ae_roundsp16q48asym	aep7, aeq1 }
    29bd:	42f514        	ae_sp16f.l.iu	aep7, a5, 2

000029c0 <subband_aec_block+0x228>:
    29c0:	240342        	l8ui	a4, a3, 36
    29c3:	31c8           	l32i.n	a12, a1, 12
    29c5:	02ad           	mov.n	a10, a2
    29c7:	076407        	bbci	a4, 0, 29d2 <subband_aec_block+0x23a>
    29ca:	f60041        	l32r	a4, 1cc (26f4 <aec_post_calc>)
    29cd:	03bd           	mov.n	a11, a3
    29cf:	0004e0        	callx8	a4

000029d2 <subband_aec_block+0x23a>:
    29d2:	f01d           	retw.n

000029d4 <subband_aec_mid_channel>:
    29d4:	006136        	entry	a1, 48
    29d7:	a3e8           	l32i.n	a14, a3, 40
    29d9:	fd24a1137e 	{ l16si	a7, a3, 34; ae_zeroq56	aeq1 }
    29de:	3159           	s32i.n	a5, a1, 12
    29e0:	a398           	l32i.n	a9, a3, 40
    29e2:	e358           	l32i.n	a5, a3, 56
    29e4:	5822f2        	l32i	a15, a2, 0x160
    29e7:	f3f690        	wur.ae_cbegin0	a9
    29ea:	c398           	l32i.n	a9, a3, 48
    29ec:	a077e0        	addx4	a7, a7, a14
    29ef:	a80c           	movi.n	a8, 10
    29f1:	f3f770        	wur.ae_cend0	a7
    29f4:	460c           	movi.n	a6, 4
    29f6:	600344        	ae_lq32f.i	aeq0, a3, 16
    29f9:	440504        	ae_lp16x2f.i	aep0, a5, 0
    29fc:	fccf72        	addi	a7, a15, -4
    29ff:	198876        	loop	a8, 2a1c <subband_aec_mid_channel+0x48>
    2a02:	09001aa96f 	{ ae_lp16x2f.c	aep2, a9, a6; ae_mulzaafq32sp16s.hh	aeq2, aeq0, aep0, aeq0, aep0 }
    2a07:	11006d851f 	{ ae_lp16x2f.iu	aep0, a5, 4; ae_mulzaafq32sp16s.ll	aeq3, aeq0, aep0, aeq0, aep0 }
    2a0c:	1baf74        	ae_roundsp16q48asym	aep7, aeq2
    2a0f:	1bbf14        	ae_roundsp16q48asym	aep1, aeq3
    2a12:	f04a7e715f 	{ ae_selp24.hl	aep1, aep7, aep1; ae_mulssfp24s.hh.ll	aeq1, aep2, aep2 }
    2a17:	e22473971f 	{ ae_sp16x2f.iu	aep1, a7, 4; ae_mulaafp24s.hh.ll	aeq1, aep1, aep1 }

00002a1c <subband_aec_mid_channel+0x48>:
    2a1c:	9258           	l32i.n	a5, a2, 36
    2a1e:	3511b4        	ae_sraiq56	aeq0, aeq1, 6
    2a21:	618304        	ae_lq56.i	aeq2, a3, 0
    2a24:	f87221036e 	{ l16si	a6, a3, 32; ae_addq56	aeq0, aeq2, aeq0 }
    2a29:	1155e0        	slli	a5, a5, 2
    2a2c:	fc00fec5ff 	{ ae_cvtq48a32s	aeq3, a5; ae_satq48s	aeq0, aeq0 }
    2a31:	0130c4        	ae_maxq56s	aeq0, aeq0, aeq3
    2a34:	630304        	ae_sq56s.i	aeq0, a3, 0
    2a37:	00b4d6        	bgez	a4, 2a46 <subband_aec_mid_channel+0x72>
    2a3a:	368b04        	ae_trunca32q48	a11, aeq0
    2a3d:	11a650        	slli	a10, a6, 11
    2a40:	f5e051        	l32r	a5, 1c0 (87f4 <airoha_divide>)
    2a43:	0005e0        	callx8	a5

00002a46 <subband_aec_mid_channel+0x72>:
    2a46:	d3c8           	l32i.n	a12, a3, 52
    2a48:	5822e2        	l32i	a14, a2, 0x160
    2a4b:	f388           	l32i.n	a8, a3, 60
    2a4d:	b358           	l32i.n	a5, a3, 44
    2a4f:	c368           	l32i.n	a6, a3, 48
    2a51:	119372        	l16si	a7, a3, 34
    2a54:	026122        	s32i	a2, a1, 8
    2a57:	360b34        	ae_cvtq48a32s	aeq0, a11
    2a5a:	0aa092        	movi	a9, 10
    2a5d:	04a0b2        	movi	a11, 4
    2a60:	fcccc2        	addi	a12, a12, -4
    2a63:	fec8d2        	addi	a13, a8, -2
    2a66:	fccee2        	addi	a14, a14, -4
    2a69:	fec522        	addi	a2, a5, -2
    2a6c:	448e14        	ae_lp16x2f.iu	aep0, a14, 4
    2a6f:	fc24e406bf 	{ ae_sp16x2f.c	aep0, a6, a11; nop }
    2a74:	448c14        	ae_lp16x2f.iu	aep0, a12, 4
    2a77:	fe0413855f 	{ or	a8, a5, a5; ae_cvtq48p24s.h	aeq2, aep0 }
    2a7c:	0a4084        	ae_cvtq48p24s.l	aeq1, aep0
    2a7f:	1217a6        	blti	a7, 1, 2a95 <subband_aec_mid_channel+0xc1>
    2a82:	440504        	ae_lp16x2f.i	aep0, a5, 0
    2a85:	0c8776        	loop	a7, 2a95 <subband_aec_mid_channel+0xc1>
    2a88:	fc24da96bf 	{ ae_lp16x2f.c	aep1, a6, a11; nop }
    2a8d:	0581c4        	ae_mulssfp24s.hh.ll	aeq2, aep0, aep1
    2a90:	ee206d881f 	{ ae_lp16x2f.iu	aep0, a8, 4; ae_mulsafp24s.hl.lh	aeq1, aep0, aep1 }

00002a95 <subband_aec_mid_channel+0xc1>:
    2a95:	1baf04        	ae_roundsp16q48asym	aep0, aeq2
    2a98:	f86bf28d1f 	{ ae_sp16f.l.iu	aep0, a13, 2; ae_roundsp16q48asym	aep1, aeq1 }
    2a9d:	d4e2729d1f 	{ ae_sp16f.l.iu	aep1, a13, 2; ae_mulfq32sp16s.l	aeq1, aeq0, aep0 }
    2aa2:	0364d6        	bgez	a4, 2adc <subband_aec_mid_channel+0x108>
    2aa5:	d5e63e9a4f 	{ ae_slaasq56s	aeq1, aeq1, a10; ae_mulfq32sp16s.l	aeq2, aeq0, aep1 }
    2aaa:	058d           	mov.n	a8, a5
    2aac:	f86fbeaa8f 	{ ae_slaasq56s	aeq2, aeq2, a10; ae_roundsp24q48asym	aep0, aeq1 }
    2ab1:	f877d3f22f 	{ or	a15, a2, a2; ae_roundsp24q48asym	aep1, aeq2 }
    2ab6:	2217a6        	blti	a7, 1, 2adc <subband_aec_mid_channel+0x108>
    2ab9:	dc20ad150f 	{ ae_lp16x2f.i	aep1, a5, 0; ae_selp24.hl	aep0, aep0, aep1 }
    2abe:	1a8776        	loop	a7, 2adc <subband_aec_mid_channel+0x108>
    2ac1:	fd241aa6bf 	{ ae_lp16x2f.c	aep2, a6, a11; ae_cvtq48p24s.h	aeq1, aep1 }
    2ac6:	fe2c2d981f 	{ ae_lp16x2f.iu	aep1, a8, 4; ae_cvtq48p24s.l	aeq2, aep1 }
    2acb:	050a04        	ae_mulaafp24s.hh.ll	aeq1, aep0, aep2
    2ace:	058254        	ae_mulasfp24s.hl.lh	aeq2, aep0, aep2
    2ad1:	1b9f64        	ae_roundsp16q48asym	aep6, aeq1
    2ad4:	fb73f2ef1f 	{ ae_sp16f.l.iu	aep6, a15, 2; ae_roundsp16q48asym	aep7, aeq2 }
    2ad9:	42ff14        	ae_sp16f.l.iu	aep7, a15, 2
    2adc:	990b           	addi.n	a9, a9, -1
    2ade:	f8a956        	bnez	a9, 2a6c <subband_aec_mid_channel+0x98>
    2ae1:	fd24b0d37e 	{ l32i	a7, a3, 52; ae_zeroq56	aeq1 }
    2ae6:	f358           	l32i.n	a5, a3, 60
    2ae8:	c369           	s32i.n	a6, a3, 48
    2aea:	a20c           	movi.n	a2, 10
    2aec:	fe0c6d070f 	{ ae_lp16x2f.i	aep0, a7, 0; ae_movq56	aeq2, aeq1 }
    2af1:	fc0c6d150f 	{ ae_lp16x2f.i	aep1, a5, 0; ae_movq56	aeq0, aeq1 }
    2af6:	0c8276        	loop	a2, 2b06 <subband_aec_mid_channel+0x132>
    2af9:	058104        	ae_mulaafp24s.hh.ll	aeq2, aep0, aep1
    2afc:	ea202d951f 	{ ae_lp16x2f.iu	aep1, a5, 4; ae_mulasfp24s.hl.lh	aeq0, aep0, aep1 }
    2b01:	e2006d871f 	{ ae_lp16x2f.iu	aep0, a7, 4; ae_mulaafp24s.hh.ll	aeq1, aep0, aep0 }

00002b06 <subband_aec_mid_channel+0x132>:
    2b06:	35a134        	ae_sraiq56	aeq2, aeq2, 4
    2b09:	f877bb010f 	{ ae_sraiq56	aeq0, aeq0, 4; ae_roundsp24q48asym	aep0, aeq2 }
    2b0e:	f867fb114f 	{ ae_sraiq56	aeq1, aeq1, 4; ae_roundsp24q48asym	aep1, aeq0 }
    2b13:	fd2c7e011f 	{ ae_selp24.hl	aep0, aep0, aep1; ae_roundsq32asym	aeq1, aeq1 }
    2b18:	f1028000af 	{ movi	a10, 0; ae_mulzaafp24s.hh.ll	aeq2, aep0, aep0 }
    2b1d:	f55d21        	l32r	a2, 94 (680 <HIFI_sqrt>)
    2b20:	ff347f16ef 	{ ae_trunca32q48	a6, aeq1; ae_roundsq32asym	aeq3, aeq2 }
    2b25:	36bb04        	ae_trunca32q48	a11, aeq3
    2b28:	0002e0        	callx8	a2
    2b2b:	360b34        	ae_cvtq48a32s	aeq0, a11
    2b2e:	fc24fe8a0f 	{ ae_slaasq56s	aeq0, aeq0, a10; nop }
    2b33:	fc2453a33f 	{ or	a10, a3, a3; ae_roundsq32asym	aeq0, aeq0 }
    2b38:	368c04        	ae_trunca32q48	a12, aeq0
    2b3b:	f5a221        	l32r	a2, 1c4 (25f4 <common_x_pow>)
    2b3e:	06bd           	mov.n	a11, a6
    2b40:	0002e0        	callx8	a2
    2b43:	aa8c           	beqz.n	a10, 2b51 <subband_aec_mid_channel+0x17d>
    2b45:	f3a8           	l32i.n	a10, a3, 60
    2b47:	d3b8           	l32i.n	a11, a3, 52
    2b49:	f55921        	l32r	a2, b0 (9a58 <xt_memcpy>)
    2b4c:	4c1c           	movi.n	a12, 20
    2b4e:	0002e0        	callx8	a2

00002b51 <subband_aec_mid_channel+0x17d>:
    2b51:	2128           	l32i.n	a2, a1, 8
    2b53:	fc24a0d22e 	{ l16si	a2, a2, 26; ae_zeroq56	aeq0 }
    2b58:	1612a6        	blti	a2, 1, 2b72 <subband_aec_mid_channel+0x19e>
    2b5b:	119352        	l16si	a5, a3, 34
    2b5e:	b368           	l32i.n	a6, a3, 44
    2b60:	c05520        	sub	a5, a5, a2
    2b63:	a05560        	addx4	a5, a5, a6
    2b66:	fcc552        	addi	a5, a5, -4
    2b69:	058276        	loop	a2, 2b72 <subband_aec_mid_channel+0x19e>
    2b6c:	448514        	ae_lp16x2f.iu	aep0, a5, 4
    2b6f:	050004        	ae_mulaafp24s.hh.ll	aeq0, aep0, aep0

00002b72 <subband_aec_mid_channel+0x19e>:
    2b72:	3500b4        	ae_sraiq56	aeq0, aeq0, 2
    2b75:	fc247033ae 	{ l32i	a10, a3, 12; ae_roundsq32asym	aeq0, aeq0 }
    2b7a:	23b8           	l32i.n	a11, a3, 8
    2b7c:	f59021        	l32r	a2, 1bc (88fc <airoha_divide_limit_1>)
    2b7f:	368604        	ae_trunca32q48	a6, aeq0
    2b82:	0002e0        	callx8	a2
    2b85:	2198           	l32i.n	a9, a1, 8
    2b87:	ffa022        	movi	a2, 255
    2b8a:	2403f2        	l8ui	a15, a3, 36
    2b8d:	049952        	l16si	a5, a9, 8
    2b90:	7fd222        	addmi	a2, a2, 0x7f00
    2b93:	3170a0        	srai	a7, a10, 16
    2b96:	c02270        	sub	a2, a2, a7
    2b99:	532250        	max	a2, a2, a5
    2b9c:	07ef17        	bbsi	a15, 1, 2ba7 <subband_aec_mid_channel+0x1d3>
    2b9f:	105322        	s16i	a2, a3, 32
    2ba2:	000806        	j	2bc6 <subband_aec_mid_channel+0x1f2>

00002ba5 <subband_aec_mid_channel+0x1d1>:
	...

00002ba7 <subband_aec_mid_channel+0x1d3>:
    2ba7:	039952        	l16si	a5, a9, 6
    2baa:	09ad           	mov.n	a10, a9
    2bac:	03bd           	mov.n	a11, a3
    2bae:	822250        	mull	a2, a2, a5
    2bb1:	06cd           	mov.n	a12, a6
    2bb3:	40d222        	addmi	a2, a2, 0x4000
    2bb6:	412f20        	srli	a2, a2, 15
    2bb9:	105322        	s16i	a2, a3, 32
    2bbc:	f58321        	l32r	a2, 1c8 (265c <ref_gain_adapt>)
    2bbf:	04dd           	mov.n	a13, a4
    2bc1:	0002e0        	callx8	a2
    2bc4:	2198           	l32i.n	a9, a1, 8
    2bc6:	059922        	l16si	a2, a9, 10
    2bc9:	069952        	l16si	a5, a9, 12
    2bcc:	f57bf1        	l32r	a15, 1b8 (bab0 <immediate_num>)
    2bcf:	112200        	slli	a2, a2, 16
    2bd2:	49a267        	bge	a2, a6, 2c1f <subband_aec_mid_channel+0x24b>
    2bd5:	129322        	l16si	a2, a3, 36
    2bd8:	240c           	movi.n	a4, 2
    2bda:	11e500        	slli	a14, a5, 16
    2bdd:	202240        	or	a2, a2, a4
    2be0:	125322        	s16i	a2, a3, 36
    2be3:	18cf22        	addi	a2, a15, 24
    2be6:	05ae67        	bge	a14, a6, 2bef <subband_aec_mid_channel+0x21b>
    2be9:	400204        	ae_lp16f.i	aep0, a2, 0
    2bec:	000086        	j	2bf2 <subband_aec_mid_channel+0x21e>

00002bef <subband_aec_mid_channel+0x21b>:
    2bef:	400214        	ae_lp16f.i	aep0, a2, 2
    2bf2:	0d9952        	l16si	a5, a9, 26
    2bf5:	2615a6        	blti	a5, 1, 2c1f <subband_aec_mid_channel+0x24b>
    2bf8:	119322        	l16si	a2, a3, 34
    2bfb:	b348           	l32i.n	a4, a3, 44
    2bfd:	c02250        	sub	a2, a2, a5
    2c00:	a02240        	addx4	a2, a2, a4
    2c03:	441204        	ae_lp16x2f.i	aep1, a2, 0
    2c06:	fec242        	addi	a4, a2, -2
    2c09:	128576        	loop	a5, 2c1f <subband_aec_mid_channel+0x24b>
    2c0c:	011054        	ae_mulfp24s.hl	aeq0, aep1, aep0
    2c0f:	ea05ed921f 	{ ae_lp16x2f.iu	aep1, a2, 4; ae_mulfp24s.ll	aeq1, aep1, aep0 }
    2c14:	1b8f24        	ae_roundsp16q48asym	aep2, aeq0
    2c17:	fb6bf2a41f 	{ ae_sp16f.l.iu	aep2, a4, 2; ae_roundsp16q48asym	aep7, aeq1 }
    2c1c:	42f414        	ae_sp16f.l.iu	aep7, a4, 2

00002c1f <subband_aec_mid_channel+0x24b>:
    2c1f:	240322        	l8ui	a2, a3, 36
    2c22:	31c8           	l32i.n	a12, a1, 12
    2c24:	09ad           	mov.n	a10, a9
    2c26:	076207        	bbci	a2, 0, 2c31 <subband_aec_mid_channel+0x25d>
    2c29:	f56821        	l32r	a2, 1cc (26f4 <aec_post_calc>)
    2c2c:	03bd           	mov.n	a11, a3
    2c2e:	0002e0        	callx8	a2

00002c31 <subband_aec_mid_channel+0x25d>:
    2c31:	f01d           	retw.n

00002c33 <subband_aec_mid_channel+0x25f>:
	...

00002c34 <dt_detect>:
    2c34:	004136        	entry	a1, 32
    2c37:	0c9252        	l16si	a5, a2, 24
    2c3a:	179242        	l16si	a4, a2, 46
    2c3d:	189262        	l16si	a6, a2, 48
    2c40:	115500        	slli	a5, a5, 16
    2c43:	19a537        	bge	a5, a3, 2c60 <dt_detect+0x2c>
    2c46:	154c           	movi.n	a5, 65
    2c48:	142657        	blt	a6, a5, 2c60 <dt_detect+0x2c>
    2c4b:	169252        	l16si	a5, a2, 44
    2c4e:	0e9232        	l16si	a3, a2, 28
    2c51:	442b           	addi.n	a4, a4, 2
    2c53:	554b           	addi.n	a5, a5, 4
    2c55:	435530        	min	a5, a5, a3
    2c58:	165252        	s16i	a5, a2, 44
    2c5b:	855d           	ae_sext16	a5, a5
    2c5d:	000246        	j	2c6a <dt_detect+0x36>

00002c60 <dt_detect+0x2c>:
    2c60:	0e9232        	l16si	a3, a2, 28
    2c63:	050c           	movi.n	a5, 0
    2c65:	440b           	addi.n	a4, a4, -1
    2c67:	165252        	s16i	a5, a2, 44
    2c6a:	534450        	max	a4, a4, a5
    2c6d:	433430        	min	a3, a4, a3
    2c70:	175232        	s16i	a3, a2, 46
    2c73:	f01d           	retw.n

00002c75 <dt_detect+0x41>:
    2c75:	000000                                        ...

00002c78 <get_ECNR_SVN>:
    2c78:	004136        	entry	a1, 32
    2c7b:	1ca422        	movi	a2, 0x41c
    2c7e:	f01d           	retw.n

00002c80 <get_aec_nr_memsize>:
    2c80:	004136        	entry	a1, 32
    2c83:	71a022        	movi	a2, 113
    2c86:	112280        	slli	a2, a2, 8
    2c89:	f01d           	retw.n

00002c8b <get_aec_nr_memsize+0xb>:
	...

00002c8c <get_txnr_pitch_last>:
    2c8c:	004136        	entry	a1, 32
    2c8f:	f50221        	l32r	a2, 98 (c3d4 <p_ecnr_mem>)
    2c92:	f8a032        	movi	a3, 248
    2c95:	54d332        	addmi	a3, a3, 0x5400
    2c98:	0228           	l32i.n	a2, a2, 0
    2c9a:	0f0c           	movi.n	a15, 0
    2c9c:	1ad242        	addmi	a4, a2, 0x1a00
    2c9f:	161442        	l16ui	a4, a4, 44
    2ca2:	37d252        	addmi	a5, a2, 0x3700
    2ca5:	223a           	add.n	a2, a2, a3
    2ca7:	fec4e2        	addi	a14, a4, -2
    2caa:	8325e0        	moveqz	a2, a5, a14
    2cad:	0228           	l32i.n	a2, a2, 0
    2caf:	622f20        	saltu	a2, a15, a2
    2cb2:	f01d           	retw.n

00002cb4 <sb_ana_init>:
    2cb4:	004136        	entry	a1, 32
    2cb7:	a24b           	addi.n	a10, a2, 4
    2cb9:	02a9           	s32i.n	a10, a2, 0
    2cbb:	f4fb21        	l32r	a2, a8 (9a44 <xt_memset>)
    2cbe:	0b0c           	movi.n	a11, 0
    2cc0:	ec1c           	movi.n	a12, 30
    2cc2:	0002e0        	callx8	a2
    2cc5:	f01d           	retw.n

00002cc7 <sb_ana_init+0x13>:
	...

00002cc8 <sb_syn_init>:
    2cc8:	004136        	entry	a1, 32
    2ccb:	a24b           	addi.n	a10, a2, 4
    2ccd:	02a9           	s32i.n	a10, a2, 0
    2ccf:	f4f621        	l32r	a2, a8 (9a44 <xt_memset>)
    2cd2:	0b0c           	movi.n	a11, 0
    2cd4:	cc3c           	movi.n	a12, 60
    2cd6:	0002e0        	callx8	a2
    2cd9:	f01d           	retw.n

00002cdb <sb_syn_init+0x13>:
	...

00002cdc <AVC_init>:
    2cdc:	004136        	entry	a1, 32
    2cdf:	f4f331        	l32r	a3, ac (c3dc <aec_nr_para>)
    2ce2:	f47c           	movi.n	a4, -1
    2ce4:	014410        	slli	a4, a4, 31
    2ce7:	0338           	l32i.n	a3, a3, 0
    2ce9:	050c           	movi.n	a5, 0
    2ceb:	2259           	s32i.n	a5, a2, 8
    2ced:	1e13e2        	l16ui	a14, a3, 60
    2cf0:	1f9362        	l16si	a6, a3, 62
    2cf3:	209332        	l16si	a3, a3, 64
    2cf6:	11fe00        	slli	a15, a14, 16
    2cf9:	4e4a           	add.n	a4, a14, a4
    2cfb:	035232        	s16i	a3, a2, 6
    2cfe:	c034f0        	sub	a3, a4, a15
    2d01:	025262        	s16i	a6, a2, 4
    2d04:	0239           	s32i.n	a3, a2, 0
    2d06:	f01d           	retw.n

00002d08 <HP_coef_setup>:
    2d08:	004136        	entry	a1, 32
    2d0b:	f4e941        	l32r	a4, b0 (9a58 <xt_memcpy>)
    2d0e:	4c0c           	movi.n	a12, 4
    2d10:	02ad           	mov.n	a10, a2
    2d12:	03bd           	mov.n	a11, a3
    2d14:	0004e0        	callx8	a4
    2d17:	a2cb           	addi.n	a10, a2, 12
    2d19:	b38b           	addi.n	a11, a3, 8
    2d1b:	ac0c           	movi.n	a12, 10
    2d1d:	0004e0        	callx8	a4
    2d20:	24c2a2        	addi	a10, a2, 36
    2d23:	1cc3b2        	addi	a11, a3, 28
    2d26:	8c0c           	movi.n	a12, 8
    2d28:	0004e0        	callx8	a4
    2d2b:	1238           	l32i.n	a3, a2, 4
    2d2d:	72f8           	l32i.n	a15, a2, 28
    2d2f:	2239           	s32i.n	a3, a2, 8
    2d31:	82f9           	s32i.n	a15, a2, 32
    2d33:	f01d           	retw.n

00002d35 <HP_coef_setup+0x2d>:
    2d35:	000000                                        ...

00002d38 <main_err_alpha>:
    2d38:	004136        	entry	a1, 32
    2d3b:	f47c           	movi.n	a4, -1
    2d3d:	014410        	slli	a4, a4, 31
    2d40:	f4e351        	l32r	a5, cc (7fff0000 <_end+0x7ffe3c20>)
    2d43:	02e8           	l32i.n	a14, a2, 0
    2d45:	3228           	l32i.n	a2, a2, 12
    2d47:	116300        	slli	a6, a3, 16
    2d4a:	304340        	xor	a4, a3, a4
    2d4d:	c04460        	sub	a4, a4, a6
    2d50:	935430        	movnez	a5, a4, a3
    2d53:	af0c           	movi.n	a15, 10
    2d55:	fece32        	addi	a3, a14, -2
    2d58:	308554        	ae_cvtp24a16x2.lh	aep0, a5, a5
    2d5b:	409204        	ae_lp16f.iu	aep1, a2, 0
    2d5e:	108f76        	loop	a15, 2d72 <main_err_alpha+0x3a>
    2d61:	e820acf31f 	{ ae_lp16f.iu	aep7, a3, 2; ae_mulfp24s.hh	aeq0, aep0, aep1 }
    2d66:	010734        	ae_mulafp24s.ll	aeq0, aep0, aep7
    2d69:	1b8f14        	ae_roundsp16q48asym	aep1, aeq0
    2d6c:	421304        	ae_sp16f.l.i	aep1, a3, 0
    2d6f:	409214        	ae_lp16f.iu	aep1, a2, 2

00002d72 <main_err_alpha+0x3a>:
    2d72:	f01d           	retw.n

00002d74 <tx_ref_vad_init>:
    2d74:	004136        	entry	a1, 32
    2d77:	f4cc41        	l32r	a4, a8 (9a44 <xt_memset>)
    2d7a:	0b0c           	movi.n	a11, 0
    2d7c:	ec0c           	movi.n	a12, 14
    2d7e:	02ad           	mov.n	a10, a2
    2d80:	0004e0        	callx8	a4
    2d83:	c8a142        	movi	a4, 0x1c8
    2d86:	b34a           	add.n	a11, a3, a4
    2d88:	f4ca31        	l32r	a3, b0 (9a58 <xt_memcpy>)
    2d8b:	7c0c           	movi.n	a12, 7
    2d8d:	02ad           	mov.n	a10, a2
    2d8f:	0003e0        	callx8	a3
    2d92:	f01d           	retw.n

00002d94 <Voice_WB_TX_Init>:
    2d94:	006136        	entry	a1, 48
    2d97:	f4c071        	l32r	a7, 98 (c3d4 <p_ecnr_mem>)
    2d9a:	02ad           	mov.n	a10, a2
    2d9c:	05bd           	mov.n	a11, a5
    2d9e:	0749           	s32i.n	a4, a7, 0
    2da0:	f50c41        	l32r	a4, 1d0 (9900 <TX_ECNR_PARA_init>)
    2da3:	06cd           	mov.n	a12, a6
    2da5:	3139           	s32i.n	a3, a1, 12
    2da7:	0004e0        	callx8	a4
    2daa:	f4c031        	l32r	a3, ac (c3dc <aec_nr_para>)
    2dad:	0748           	l32i.n	a4, a7, 0
    2daf:	fda252        	movi	a5, 0x2fd
    2db2:	0368           	l32i.n	a6, a3, 0
    2db4:	1155d0        	slli	a5, a5, 3
    2db7:	a45a           	add.n	a10, a4, a5
    2db9:	08a1f2        	movi	a15, 0x108
    2dbc:	f50641        	l32r	a4, 1d4 (2d08 <HP_coef_setup>)
    2dbf:	b6fa           	add.n	a11, a6, a15
    2dc1:	0004e0        	callx8	a4
    2dc4:	0748           	l32i.n	a4, a7, 0
    2dc6:	07a652        	movi	a5, 0x607
    2dc9:	1155e0        	slli	a5, a5, 2
    2dcc:	a45a           	add.n	a10, a4, a5
    2dce:	f4b641        	l32r	a4, a8 (9a44 <xt_memset>)
    2dd1:	0b0c           	movi.n	a11, 0
    2dd3:	ac0c           	movi.n	a12, 10
    2dd5:	050c           	movi.n	a5, 0
    2dd7:	0004e0        	callx8	a4
    2dda:	0768           	l32i.n	a6, a7, 0
    2ddc:	0da682        	movi	a8, 0x60d
    2ddf:	1188e0        	slli	a8, a8, 2
    2de2:	a68a           	add.n	a10, a6, a8
    2de4:	0b0c           	movi.n	a11, 0
    2de6:	f0a0c2        	movi	a12, 240
    2de9:	f0a062        	movi	a6, 240
    2dec:	0004e0        	callx8	a4
    2def:	0788           	l32i.n	a8, a7, 0
    2df1:	c1a792        	movi	a9, 0x7c1
    2df4:	1199d0        	slli	a9, a9, 3
    2df7:	3ed8b2        	addmi	a11, a8, 0x3e00
    2dfa:	889a           	add.n	a8, a8, a9
    2dfc:	a84b           	addi.n	a10, a8, 4
    2dfe:	2ba9           	s32i.n	a10, a11, 8
    2e00:	0b0c           	movi.n	a11, 0
    2e02:	ec1c           	movi.n	a12, 30
    2e04:	0004e0        	callx8	a4
    2e07:	0788           	l32i.n	a8, a7, 0
    2e09:	c9a792        	movi	a9, 0x7c9
    2e0c:	1199d0        	slli	a9, a9, 3
    2e0f:	3ed8b2        	addmi	a11, a8, 0x3e00
    2e12:	889a           	add.n	a8, a8, a9
    2e14:	a84b           	addi.n	a10, a8, 4
    2e16:	126ba2        	s32i	a10, a11, 72
    2e19:	0b0c           	movi.n	a11, 0
    2e1b:	ec1c           	movi.n	a12, 30
    2e1d:	0004e0        	callx8	a4
    2e20:	0788           	l32i.n	a8, a7, 0
    2e22:	d9a792        	movi	a9, 0x7d9
    2e25:	1199d0        	slli	a9, a9, 3
    2e28:	3ed8b2        	addmi	a11, a8, 0x3e00
    2e2b:	889a           	add.n	a8, a8, a9
    2e2d:	a84b           	addi.n	a10, a8, 4
    2e2f:	326ba2        	s32i	a10, a11, 200
    2e32:	0b0c           	movi.n	a11, 0
    2e34:	cc3c           	movi.n	a12, 60
    2e36:	0004e0        	callx8	a4
    2e39:	0388           	l32i.n	a8, a3, 0
    2e3b:	0798           	l32i.n	a9, a7, 0
    2e3d:	c8a0a2        	movi	a10, 200
    2e40:	3398f2        	l16si	a15, a8, 102
    2e43:	18d922        	addmi	a2, a9, 0x1800
    2e46:	1852f2        	s16i	a15, a2, 48
    2e49:	3498f2        	l16si	a15, a8, 104
    2e4c:	1952f2        	s16i	a15, a2, 50
    2e4f:	bfa2f2        	movi	a15, 0x2bf
    2e52:	112fc0        	slli	a2, a15, 4
    2e55:	dda2f2        	movi	a15, 0x2dd
    2e58:	11ffc0        	slli	a15, a15, 4
    2e5b:	0888           	l32i.n	a8, a8, 0
    2e5d:	292a           	add.n	a2, a9, a2
    2e5f:	f9fa           	add.n	a15, a9, a15
    2e61:	1ad992        	addmi	a9, a9, 0x1a00
    2e64:	176922        	s32i	a2, a9, 92
    2e67:	b8a122        	movi	a2, 0x1b8
    2e6a:	282a           	add.n	a2, a8, a2
    2e6c:	18a1b2        	movi	a11, 0x118
    2e6f:	40a1c2        	movi	a12, 0x140
    2e72:	68a1d2        	movi	a13, 0x168
    2e75:	90a1e2        	movi	a14, 0x190
    2e78:	1869f2        	s32i	a15, a9, 96
    2e7b:	e0a1f2        	movi	a15, 0x1e0
    2e7e:	166922        	s32i	a2, a9, 88
    2e81:	f4d521        	l32r	a2, 1d8 (234c <SBAEC_INIT>)
    2e84:	a8aa           	add.n	a10, a8, a10
    2e86:	686a           	add.n	a6, a8, a6
    2e88:	b8ba           	add.n	a11, a8, a11
    2e8a:	c8ca           	add.n	a12, a8, a12
    2e8c:	d8da           	add.n	a13, a8, a13
    2e8e:	e8ea           	add.n	a14, a8, a14
    2e90:	f8fa           	add.n	a15, a8, a15
    2e92:	78c882        	addi	a8, a8, 120
    2e95:	e989           	s32i.n	a8, a9, 56
    2e97:	f9a9           	s32i.n	a10, a9, 60
    2e99:	106962        	s32i	a6, a9, 64
    2e9c:	1169b2        	s32i	a11, a9, 68
    2e9f:	1269c2        	s32i	a12, a9, 72
    2ea2:	1369d2        	s32i	a13, a9, 76
    2ea5:	1469e2        	s32i	a14, a9, 80
    2ea8:	1569f2        	s32i	a15, a9, 84
    2eab:	0002e0        	callx8	a2
    2eae:	f4cb21        	l32r	a2, 1dc (666c <WB_TX_NR_init>)
    2eb1:	0002e0        	callx8	a2
    2eb4:	0328           	l32i.n	a2, a3, 0
    2eb6:	0768           	l32i.n	a6, a7, 0
    2eb8:	fa7c           	movi.n	a10, -1
    2eba:	2092e2        	l16si	a14, a2, 64
    2ebd:	1f92d2        	l16si	a13, a2, 62
    2ec0:	1e1222        	l16ui	a2, a2, 60
    2ec3:	f4c781        	l32r	a8, 1e0 (c3d8 <avc_vol>)
    2ec6:	190c           	movi.n	a9, 1
    2ec8:	01aa10        	slli	a10, a10, 31
    2ecb:	30d6f2        	addmi	a15, a6, 0x3000
    2ece:	6f5fe2        	s16i	a14, a15, 222
    2ed1:	119930        	slli	a9, a9, 13
    2ed4:	a2aa           	add.n	a10, a2, a10
    2ed6:	112200        	slli	a2, a2, 16
    2ed9:	85a6e2        	movi	a14, 0x685
    2edc:	689d           	ae_s16i.n	a9, a8, 0
    2ede:	30d6c2        	addmi	a12, a6, 0x3000
    2ee1:	118ee0        	slli	a8, a14, 2
    2ee4:	c02a20        	sub	a2, a10, a2
    2ee7:	190c           	movi.n	a9, 1
    2ee9:	1ad6b2        	addmi	a11, a6, 0x1a00
    2eec:	7f0c           	movi.n	a15, 7
    2eee:	386c52        	s32i	a5, a12, 224
    2ef1:	185b92        	s16i	a9, a11, 48
    2ef4:	6e5cd2        	s16i	a13, a12, 220
    2ef7:	00a452        	movi	a5, 0x400
    2efa:	868a           	add.n	a8, a6, a8
    2efc:	366c22        	s32i	a2, a12, 216
    2eff:	038f76        	loop	a15, 2f06 <Voice_WB_TX_Init+0x172>
    2f02:	685d           	ae_s16i.n	a5, a8, 0
    2f04:	882b           	addi.n	a8, a8, 2

00002f06 <Voice_WB_TX_Init+0x172>:
    2f06:	ffa222        	movi	a2, 0x2ff
    2f09:	1122c0        	slli	a2, a2, 4
    2f0c:	a62a           	add.n	a10, a6, a2
    2f0e:	0b0c           	movi.n	a11, 0
    2f10:	0c5c           	movi.n	a12, 80
    2f12:	0004e0        	callx8	a4
    2f15:	0728           	l32i.n	a2, a7, 0
    2f17:	09a352        	movi	a5, 0x309
    2f1a:	1155c0        	slli	a5, a5, 4
    2f1d:	a25a           	add.n	a10, a2, a5
    2f1f:	0b0c           	movi.n	a11, 0
    2f21:	4c2c           	movi.n	a12, 36
    2f23:	0004e0        	callx8	a4
    2f26:	07a8           	l32i.n	a10, a7, 0
    2f28:	d1a752        	movi	a5, 0x7d1
    2f2b:	1155d0        	slli	a5, a5, 3
    2f2e:	1ada22        	addmi	a2, a10, 0x1a00
    2f31:	161222        	l16ui	a2, a2, 44
    2f34:	342266        	bnei	a2, 2, 2f6c <Voice_WB_TX_Init+0x1d8>
    2f37:	03a8           	l32i.n	a10, a3, 0
    2f39:	f4aa21        	l32r	a2, 1e4 (45e8 <TWO_MIC_WB_init>)
    2f3c:	0002e0        	callx8	a2
    2f3f:	0728           	l32i.n	a2, a7, 0
    2f41:	0b0c           	movi.n	a11, 0
    2f43:	ec1c           	movi.n	a12, 30
    2f45:	3ed262        	addmi	a6, a2, 0x3e00
    2f48:	225a           	add.n	a2, a2, a5
    2f4a:	a24b           	addi.n	a10, a2, 4
    2f4c:	2266a2        	s32i	a10, a6, 136
    2f4f:	0004e0        	callx8	a4
    2f52:	0728           	l32i.n	a2, a7, 0
    2f54:	454c           	movi.n	a5, 68
    2f56:	3fd552        	addmi	a5, a5, 0x3f00
    2f59:	3fd262        	addmi	a6, a2, 0x3f00
    2f5c:	225a           	add.n	a2, a2, a5
    2f5e:	a24b           	addi.n	a10, a2, 4
    2f60:	0b0c           	movi.n	a11, 0
    2f62:	cc3c           	movi.n	a12, 60
    2f64:	1166a2        	s32i	a10, a6, 68
    2f67:	0004e0        	callx8	a4
    2f6a:	07a8           	l32i.n	a10, a7, 0

00002f6c <Voice_WB_TX_Init+0x1d8>:
    2f6c:	f49f21        	l32r	a2, 1e8 (5eec <FLASH_REF_GAIN_Preload>)
    2f6f:	31b8           	l32i.n	a11, a1, 12
    2f71:	0002e0        	callx8	a2
    2f74:	0728           	l32i.n	a2, a7, 0
    2f76:	e4a052        	movi	a5, 228
    2f79:	70d552        	addmi	a5, a5, 0x7000
    2f7c:	225a           	add.n	a2, a2, a5
    2f7e:	0338           	l32i.n	a3, a3, 0
    2f80:	0b0c           	movi.n	a11, 0
    2f82:	ec0c           	movi.n	a12, 14
    2f84:	02ad           	mov.n	a10, a2
    2f86:	0004e0        	callx8	a4
    2f89:	c8a142        	movi	a4, 0x1c8
    2f8c:	b34a           	add.n	a11, a3, a4
    2f8e:	f44831        	l32r	a3, b0 (9a58 <xt_memcpy>)
    2f91:	7c0c           	movi.n	a12, 7
    2f93:	02ad           	mov.n	a10, a2
    2f95:	0003e0        	callx8	a3
    2f98:	f01d           	retw.n

00002f9a <Voice_WB_TX_Init+0x206>:
	...

00002f9c <mic240_delay>:
    2f9c:	004136        	entry	a1, 32
    2f9f:	f44461        	l32r	a6, b0 (9a58 <xt_memcpy>)
    2fa2:	02ad           	mov.n	a10, a2
    2fa4:	04bd           	mov.n	a11, a4
    2fa6:	05cd           	mov.n	a12, a5
    2fa8:	0006e0        	callx8	a6
    2fab:	f0a072        	movi	a7, 240
    2fae:	90a520        	addx2	a10, a5, a2
    2fb1:	c0c750        	sub	a12, a7, a5
    2fb4:	03bd           	mov.n	a11, a3
    2fb6:	1125f0        	slli	a2, a5, 1
    2fb9:	0006e0        	callx8	a6
    2fbc:	c02320        	sub	a2, a3, a2
    2fbf:	e0a1f2        	movi	a15, 0x1e0
    2fc2:	b2fa           	add.n	a11, a2, a15
    2fc4:	04ad           	mov.n	a10, a4
    2fc6:	05cd           	mov.n	a12, a5
    2fc8:	0006e0        	callx8	a6
    2fcb:	f01d           	retw.n

00002fcd <mic240_delay+0x31>:
    2fcd:	000000                                        ...

00002fd0 <tx_downsample_by2>:
    2fd0:	004136        	entry	a1, 32
    2fd3:	f48671        	l32r	a7, 1ec (bcc0 <wb_r01>)
    2fd6:	14a082        	movi	a8, 20
    2fd9:	fec222        	addi	a2, a2, -2
    2fdc:	fec332        	addi	a3, a3, -2
    2fdf:	600604        	ae_lq32f.i	aeq0, a6, 0
    2fe2:	440404        	ae_lp16x2f.i	aep0, a4, 0
    2fe5:	948876        	loop	a8, 307d <tx_downsample_by2+0xad>
    2fe8:	e2002f150f 	{ ae_lp24x2f.i	aep1, a5, 0; ae_mulaafp24s.hh.ll	aeq0, aep0, aep0 }
    2fed:	fd242c340f 	{ ae_lp16f.i	aep3, a4, 0; ae_cvtq48p24s.h	aeq1, aep1 }
    2ff2:	de2cb1273f 	{ ae_lp24.i	aep2, a7, 12; ae_selp24.hl	aep4, aep3, aep1 }
    2ff7:	e88874350f 	{ ae_sp24f.l.i	aep3, a5, 0; ae_mulasfp24s.hh.ll	aeq1, aep2, aep4 }
    2ffc:	ff2c2f251f 	{ ae_lp24x2f.i	aep2, a5, 8; ae_cvtq48p24s.l	aeq3, aep1 }
    3001:	fa6ff1674f 	{ ae_lp24.i	aep6, a7, 16; ae_roundsp24q48asym	aep5, aeq1 }
    3006:	df55f4551f 	{ ae_sp24f.l.i	aep5, a5, 4; ae_selp24.lh	aep7, aep5, aep2 }
    300b:	e9f871375f 	{ ae_lp24.i	aep3, a7, 20; ae_mulasfp24s.hh.ll	aeq3, aep6, aep7 }
    3010:	fe442c441f 	{ ae_lp16f.i	aep4, a4, 2; ae_cvtq48p24s.h	aeq2, aep2 }
    3015:	f87fed841f 	{ ae_lp16x2f.iu	aep0, a4, 4; ae_roundsp24q48asym	aep1, aeq3 }
    301a:	dd4634152f 	{ ae_sp24f.l.i	aep1, a5, 8; ae_selp24.ll	aep2, aep1, aep2 }
    301f:	05b244        	ae_mulasfp24s.hh.ll	aeq2, aep3, aep2
    3022:	1bad14        	ae_roundsp24q48asym	aep1, aeq2
    3025:	521534        	ae_sp24f.l.i	aep1, a5, 12
    3028:	5c6524        	ae_lp24x2f.i	aep6, a5, 16
    302b:	ffc431770f 	{ ae_lp24.i	aep7, a7, 0; ae_cvtq48p24s.h	aeq3, aep6 }
    3030:	ded0f4454f 	{ ae_sp24f.l.i	aep4, a5, 16; ae_selp24.hl	aep5, aep4, aep6 }
    3035:	e9bc6f253f 	{ ae_lp24x2f.i	aep2, a5, 24; ae_mulasfp24s.hh.ll	aeq3, aep7, aep5 }
    303a:	fecc31671f 	{ ae_lp24.i	aep6, a7, 4; ae_cvtq48p24s.l	aeq2, aep6 }
    303f:	fa7fbf18df 	{ ae_movap24s.l	a8, aep1; ae_roundsp24q48asym	aep4, aeq3 }
    3044:	df51f4455f 	{ ae_sp24f.l.i	aep4, a5, 20; ae_selp24.lh	aep7, aep4, aep2 }
    3049:	e9f831472f 	{ ae_lp24.i	aep4, a7, 8; ae_mulasfp24s.hh.ll	aeq2, aep6, aep7 }
    304e:	0aca84        	ae_cvtq48p24s.h	aeq3, aep2
    3051:	1bad34        	ae_roundsp24q48asym	aep3, aeq2
    3054:	dd4e34356f 	{ ae_sp24f.l.i	aep3, a5, 24; ae_selp24.ll	aep2, aep3, aep2 }
    3059:	05ca44        	ae_mulasfp24s.hh.ll	aeq3, aep4, aep2
    305c:	1bbd54        	ae_roundsp24q48asym	aep5, aeq3
    305f:	34d904        	ae_movap24s.l	a9, aep5
    3062:	a98a           	add.n	a10, a9, a8
    3064:	c08980        	sub	a8, a9, a8
    3067:	41f1a0        	srli	a15, a10, 1
    306a:	418180        	srli	a8, a8, 1
    306d:	39ef84        	ae_movpa24x2	aep6, a15, a8
    3070:	f9fab4557f 	{ ae_sp24f.l.i	aep5, a5, 28; ae_roundsp16asym	aep2, aep6 }
    3075:	df4972a31f 	{ ae_sp16f.l.iu	aep2, a3, 2; ae_selp24.hh	aep7, aep2, aep2 }
    307a:	42f214        	ae_sp16f.l.iu	aep7, a2, 2

0000307d <tx_downsample_by2+0xad>:
    307d:	060934        	ae_roundsq32asym	aeq0, aeq0
    3080:	620604        	ae_sq32f.i	aeq0, a6, 0
    3083:	f01d           	retw.n

00003085 <tx_downsample_by2+0xb5>:
    3085:	000000                                        ...

00003088 <tx_upsample_by2>:
    3088:	006136        	entry	a1, 48
    308b:	f45891        	l32r	a9, 1ec (bcc0 <wb_r01>)
    308e:	4a1c           	movi.n	a10, 20
    3090:	71eb           	addi.n	a7, a1, 14
    3092:	81cb           	addi.n	a8, a1, 12
    3094:	fcc442        	addi	a4, a4, -4
    3097:	600604        	ae_lq32f.i	aeq0, a6, 0
    309a:	401204        	ae_lp16f.i	aep1, a2, 0
    309d:	402304        	ae_lp16f.i	aep2, a3, 0
    30a0:	8f8a76        	loop	a10, 3133 <tx_upsample_by2+0xab>
    30a3:	dd46ef050f 	{ ae_lp24x2f.i	aep0, a5, 0; ae_subsp24s	aep3, aep1, aep2 }
    30a8:	fd0432381f 	{ ae_sp16f.l.i	aep3, a8, 2; ae_cvtq48p24s.h	aeq1, aep0 }
    30ad:	ff0c2c370f 	{ ae_lp16f.i	aep3, a7, 0; ae_cvtq48p24s.l	aeq3, aep0 }
    30b2:	de0cf1490f 	{ ae_lp24.i	aep4, a9, 0; ae_selp24.hl	aep5, aep3, aep0 }
    30b7:	e8b074350f 	{ ae_sp24f.l.i	aep3, a5, 0; ae_mulasfp24s.hh.ll	aeq1, aep4, aep5 }
    30bc:	d8452f351f 	{ ae_lp24x2f.i	aep3, a5, 8; ae_addsp24s	aep0, aep1, aep2 }
    30c1:	fa6fb1691f 	{ ae_lp24.i	aep6, a9, 4; ae_roundsp24q48asym	aep4, aeq1 }
    30c6:	df71f4451f 	{ ae_sp24f.l.i	aep4, a5, 4; ae_selp24.lh	aep7, aep4, aep3 }
    30cb:	e9f871592f 	{ ae_lp24.i	aep5, a9, 8; ae_mulasfp24s.hh.ll	aeq3, aep6, aep7 }
    30d0:	fe6432080f 	{ ae_sp16f.l.i	aep0, a8, 0; ae_cvtq48p24s.h	aeq2, aep3 }
    30d5:	fa7fac680f 	{ ae_lp16f.i	aep6, a8, 0; ae_roundsp24q48asym	aep4, aeq3 }
    30da:	dd7274452f 	{ ae_sp24f.l.i	aep4, a5, 8; ae_selp24.ll	aep3, aep4, aep3 }
    30df:	05d344        	ae_mulasfp24s.hh.ll	aeq2, aep5, aep3
    30e2:	1bad24        	ae_roundsp24q48asym	aep2, aeq2
    30e5:	e203b4253f 	{ ae_sp24f.l.i	aep2, a5, 12; ae_mulafp24s.ll	aeq0, aep0, aep0 }
    30ea:	5c1524        	ae_lp24x2f.i	aep1, a5, 16
    30ed:	ff2431493f 	{ ae_lp24.i	aep4, a9, 12; ae_cvtq48p24s.h	aeq3, aep1 }
    30f2:	df38f4654f 	{ ae_sp24f.l.i	aep6, a5, 16; ae_selp24.hl	aep7, aep6, aep1 }
    30f7:	e9f06f353f 	{ ae_lp24x2f.i	aep3, a5, 24; ae_mulasfp24s.hh.ll	aeq3, aep4, aep7 }
    30fc:	fe2c31694f 	{ ae_lp24.i	aep6, a9, 16; ae_cvtq48p24s.l	aeq2, aep1 }
    3101:	fa7fbf2adf 	{ ae_movap24s.l	a10, aep2; ae_roundsp24q48asym	aep4, aeq3 }
    3106:	df71f4455f 	{ ae_sp24f.l.i	aep4, a5, 20; ae_selp24.lh	aep7, aep4, aep3 }
    310b:	e9f831795f 	{ ae_lp24.i	aep7, a9, 20; ae_mulasfp24s.hh.ll	aeq2, aep6, aep7 }
    3110:	ff642c921f 	{ ae_lp16f.iu	aep1, a2, 2; ae_cvtq48p24s.h	aeq3, aep3 }
    3115:	fb77aca31f 	{ ae_lp16f.iu	aep2, a3, 2; ae_roundsp24q48asym	aep6, aeq2 }
    311a:	dd7a74656f 	{ ae_sp24f.l.i	aep6, a5, 24; ae_selp24.ll	aep3, aep6, aep3 }
    311f:	05fb44        	ae_mulasfp24s.hh.ll	aeq3, aep7, aep3
    3122:	1bbd64        	ae_roundsp24q48asym	aep6, aeq3
    3125:	34eb04        	ae_movap24s.l	a11, aep6
    3128:	39fab4        	ae_movpa24x2	aep7, a10, a11
    312b:	f9fef4657f 	{ ae_sp24f.l.i	aep6, a5, 28; ae_roundsp16asym	aep3, aep7 }
    3130:	46b414        	ae_sp16x2f.iu	aep3, a4, 4

00003133 <tx_upsample_by2+0xab>:
    3133:	060934        	ae_roundsq32asym	aeq0, aeq0
    3136:	620604        	ae_sq32f.i	aeq0, a6, 0
    3139:	f01d           	retw.n

0000313b <tx_upsample_by2+0xb3>:
	...

0000313c <emph_filter_N>:
    313c:	004136        	entry	a1, 32
    313f:	440404        	ae_lp16x2f.i	aep0, a4, 0
    3142:	3725a6        	blti	a5, 2, 317d <emph_filter_N+0x41>
    3145:	651b           	addi.n	a6, a5, 1
    3147:	b36550        	movgez	a6, a5, a5
    314a:	215160        	srai	a5, a6, 1
    314d:	441304        	ae_lp16x2f.i	aep1, a3, 0
    3150:	fec232        	addi	a3, a2, -2
    3153:	fcc222        	addi	a2, a2, -4
    3156:	238576        	loop	a5, 317d <emph_filter_N+0x41>
    3159:	44a214        	ae_lp16x2f.iu	aep2, a2, 4
    315c:	fc443e20cf 	{ ae_selp24.hh	aep3, aep2, aep0; ae_cvtq48p24s.h	aeq0, aep2 }
    3161:	0a4284        	ae_cvtq48p24s.l	aeq1, aep2
    3164:	011004        	ae_mulafp24s.hh	aeq0, aep1, aep0
    3167:	011a04        	ae_mulafp24s.hh	aeq1, aep1, aep2
    316a:	051004        	ae_mulaafp24s.hh.ll	aeq0, aep1, aep0
    316d:	051b04        	ae_mulaafp24s.hh.ll	aeq1, aep1, aep3
    3170:	1b8f04        	ae_roundsp16q48asym	aep0, aeq0
    3173:	f96bf2831f 	{ ae_sp16f.l.iu	aep0, a3, 2; ae_roundsp16q48asym	aep3, aeq1 }
    3178:	dc49b2b31f 	{ ae_sp16f.l.iu	aep3, a3, 2; ae_selp24.lh	aep0, aep2, aep2 }

0000317d <emph_filter_N+0x41>:
    317d:	460404        	ae_sp16x2f.i	aep0, a4, 0
    3180:	f01d           	retw.n

00003182 <emph_filter_N+0x46>:
	...

00003184 <deemph_filter_N>:
    3184:	004136        	entry	a1, 32
    3187:	600404        	ae_lq32f.i	aeq0, a4, 0
    318a:	604414        	ae_lq32f.i	aeq1, a4, 4
    318d:	2e15a6        	blti	a5, 1, 31bf <deemph_filter_N+0x3b>
    3190:	f40af1        	l32r	a15, 1b8 (bab0 <immediate_num>)
    3193:	ff0c6d030f 	{ ae_lp16x2f.i	aep0, a3, 0; ae_movq56	aeq3, aeq1 }
    3198:	99002c120f 	{ ae_lp16f.i	aep1, a2, 0; ae_mulzssfq32sp16s.hh	aeq2, aeq0, aep0, aeq0, aep0 }
    319d:	30cf32        	addi	a3, a15, 48
    31a0:	442304        	ae_lp16x2f.i	aep2, a3, 0
    31a3:	f03d           	nop.n
    31a5:	168576        	loop	a5, 31bf <deemph_filter_N+0x3b>
    31a8:	fb81bf017f 	{ ae_movq56	aeq1, aeq0; ae_mulsfq32sp16s.l	aeq2, aeq3, aep0 }
    31ad:	f1462c921f 	{ ae_lp16f.iu	aep1, a2, 2; ae_mulssfp24s.hh.ll	aeq2, aep1, aep2 }
    31b2:	fc347f11ff 	{ ae_movq56	aeq3, aeq1; ae_roundsq32asym	aeq0, aeq2 }
    31b7:	1b8f34        	ae_roundsp16q48asym	aep3, aeq0
    31ba:	99003232ff 	{ ae_sp16f.l.i	aep3, a2, -2; ae_mulzssfq32sp16s.hh	aeq2, aeq0, aep0, aeq0, aep0 }

000031bf <deemph_filter_N+0x3b>:
    31bf:	620404        	ae_sq32f.i	aeq0, a4, 0
    31c2:	621414        	ae_sq32f.i	aeq1, a4, 4
    31c5:	f01d           	retw.n

000031c7 <deemph_filter_N+0x43>:
	...

000031c8 <analy_3band>:
    31c8:	004136        	entry	a1, 32
    31cb:	f409b1        	l32r	a11, 1f0 (bce0 <sb_g10>)
    31ce:	f409c1        	l32r	a12, 1f4 (bd20 <sb_h2ir>)
    31d1:	a34b           	addi.n	a10, a3, 4
    31d3:	f3f6a0        	wur.ae_cbegin0	a10
    31d6:	03a8           	l32i.n	a10, a3, 0
    31d8:	40c3f2        	addi	a15, a3, 64
    31db:	a70c           	movi.n	a7, 10
    31dd:	480c           	movi.n	a8, 4
    31df:	790c           	movi.n	a9, 7
    31e1:	f3f7f0        	wur.ae_cend0	a15
    31e4:	fe248fc44e 	{ addi	a4, a4, -4; ae_zeroq56	aeq2 }
    31e9:	fec552        	addi	a5, a5, -2
    31ec:	fec662        	addi	a6, a6, -2
    31ef:	fccbb2        	addi	a11, a11, -4
    31f2:	fcccc2        	addi	a12, a12, -4
    31f5:	fcc222        	addi	a2, a2, -4

000031f8 <analy_3band+0x30>:
    31f8:	448214        	ae_lp16x2f.iu	aep0, a2, 4
    31fb:	fc14640a8f 	{ ae_sp16x2f.c	aep0, a10, a8; ae_movq56	aeq0, aeq2 }
    3200:	0bdd           	mov.n	a13, a11
    3202:	20ecc0        	or	a14, a12, a12
    3205:	fc24da8a8f 	{ ae_lp16x2f.c	aep0, a10, a8; nop }
    320a:	449d14        	ae_lp16x2f.iu	aep1, a13, 4
    320d:	ea05edfe1f 	{ ae_lp16x2f.iu	aep7, a14, 4; ae_mulfp24s.ll	aeq1, aep1, aep0 }
    3212:	01f874        	ae_mulfp24s.ll	aeq3, aep7, aep0
    3215:	278976        	loop	a9, 3240 <analy_3band+0x78>
    3218:	fc24da8a8f 	{ ae_lp16x2f.c	aep0, a10, a8; nop }
    321d:	449d14        	ae_lp16x2f.iu	aep1, a13, 4
    3220:	e2062dae1f 	{ ae_lp16x2f.iu	aep2, a14, 4; ae_mulafp24s.hh	aeq0, aep1, aep0 }
    3225:	e207daea8f 	{ ae_lp16x2f.c	aep6, a10, a8; ae_mulafp24s.ll	aeq1, aep1, aep0 }
    322a:	e30a2dbd1f 	{ ae_lp16x2f.iu	aep3, a13, 4; ae_mulafp24s.hh	aeq2, aep2, aep0 }
    322f:	e30bedfe1f 	{ ae_lp16x2f.iu	aep7, a14, 4; ae_mulafp24s.ll	aeq3, aep2, aep0 }
    3234:	013604        	ae_mulafp24s.hh	aeq0, aep3, aep6
    3237:	013e34        	ae_mulafp24s.ll	aeq1, aep3, aep6
    323a:	01f604        	ae_mulafp24s.hh	aeq2, aep7, aep6
    323d:	01fe34        	ae_mulafp24s.ll	aeq3, aep7, aep6

00003240 <analy_3band+0x78>:
    3240:	f87bcff77e 	{ addi	a7, a7, -1; ae_roundsp16q48asym	aep1, aeq3 }
    3245:	fb6a32961f 	{ ae_sp16f.l.iu	aep1, a6, 2; ae_addq56	aeq3, aeq1, aeq0 }
    324a:	f92afb30df 	{ ae_sraiq56	aeq3, aeq3, 1; ae_subq56	aeq1, aeq1, aeq0 }
    324f:	f873bb101f 	{ ae_sraiq56	aeq0, aeq1, 1; ae_roundsp16q48asym	aep0, aeq2 }
    3254:	fb7fb2861f 	{ ae_sp16f.l.iu	aep0, a6, 2; ae_roundsp24q48asym	aep6, aeq3 }
    3259:	fb63f4e41f 	{ ae_sp24f.l.iu	aep6, a4, 4; ae_roundsp16q48asym	aep7, aeq0 }
    325e:	fe24b2f51f 	{ ae_sp16f.l.iu	aep7, a5, 2; ae_zeroq56	aeq2 }
    3263:	f91756        	bnez	a7, 31f8 <analy_3band+0x30>
    3266:	03a9           	s32i.n	a10, a3, 0
    3268:	f01d           	retw.n

0000326a <analy_3band+0xa2>:
	...

0000326c <synth_3band>:
    326c:	004136        	entry	a1, 32
    326f:	c54b           	addi.n	a12, a5, 4
    3271:	f3f6c0        	wur.ae_cbegin0	a12
    3274:	f3df71        	l32r	a7, 1f0 (bce0 <sb_g10>)
    3277:	f3e081        	l32r	a8, 1f8 (bd60 <sb_h2ir_v2>)
    327a:	0025c2        	l32i	a12, a5, 0
    327d:	7cc5f2        	addi	a15, a5, 124
    3280:	0aa092        	movi	a9, 10
    3283:	fd248004af 	{ movi	a10, 4; ae_zeroq56	aeq1 }
    3288:	0fa0b2        	movi	a11, 15
    328b:	f3f7f0        	wur.ae_cend0	a15
    328e:	fc0c4fe22e 	{ addi	a2, a2, -2; ae_movq56	aeq0, aeq1 }
    3293:	fec332        	addi	a3, a3, -2
    3296:	fcc442        	addi	a4, a4, -4
    3299:	fec662        	addi	a6, a6, -2

0000329c <synth_3band+0x30>:
    329c:	408214        	ae_lp16f.iu	aep0, a2, 2
    329f:	409314        	ae_lp16f.iu	aep1, a3, 2
    32a2:	d9212df41f 	{ ae_lp16x2f.iu	aep7, a4, 4; ae_addsp24s	aep2, aep0, aep1 }
    32a7:	078184        	ae_subsp24s	aep0, aep0, aep1
    32aa:	1aa004        	ae_selp24.ll	aep0, aep2, aep0
    32ad:	fc24e40caf 	{ ae_sp16x2f.c	aep0, a12, a10; nop }
    32b2:	fc24e47caf 	{ ae_sp16x2f.c	aep7, a12, a10; nop }
    32b7:	441704        	ae_lp16x2f.i	aep1, a7, 0
    32ba:	440804        	ae_lp16x2f.i	aep0, a8, 0
    32bd:	168b76        	loop	a11, 32d7 <synth_3band+0x6b>
    32c0:	fc24daacaf 	{ ae_lp16x2f.c	aep2, a12, a10; nop }
    32c5:	e247dabcaf 	{ ae_lp16x2f.c	aep3, a12, a10; ae_mulafp24s.ll	aeq1, aep1, aep2 }
    32ca:	e2462d971f 	{ ae_lp16x2f.iu	aep1, a7, 4; ae_mulafp24s.hh	aeq0, aep1, aep2 }
    32cf:	010b94        	ae_mulsfp24s.hl	aeq1, aep0, aep3
    32d2:	e262ad881f 	{ ae_lp16x2f.iu	aep0, a8, 4; ae_mulafp24s.lh	aeq0, aep0, aep3 }

000032d7 <synth_3band+0x6b>:
    32d7:	f86b8ff99e 	{ addi	a9, a9, -1; ae_roundsp16q48asym	aep0, aeq1 }
    32dc:	f863f2861f 	{ ae_sp16f.l.iu	aep0, a6, 2; ae_roundsp16q48asym	aep1, aeq0 }
    32e1:	fd248c477e 	{ addi	a7, a7, -60; ae_zeroq56	aeq1 }
    32e6:	fc0c4c488e 	{ addi	a8, a8, -60; ae_movq56	aeq0, aeq1 }
    32eb:	429614        	ae_sp16f.l.iu	aep1, a6, 2
    32ee:	faa956        	bnez	a9, 329c <synth_3band+0x30>
    32f1:	05c9           	s32i.n	a12, a5, 0
    32f3:	f01d           	retw.n

000032f5 <synth_3band+0x89>:
    32f5:	000000                                        ...

000032f8 <biquad_2cascade_24bitTx>:
    32f8:	00a136        	entry	a1, 80
    32fb:	542304        	ae_lp24x2.i	aep2, a3, 0
    32fe:	541314        	ae_lp24x2.i	aep1, a3, 8
    3301:	540324        	ae_lp24x2.i	aep0, a3, 16
    3304:	6616a6        	blti	a6, 1, 336e <biquad_2cascade_24bitTx+0x76>
    3307:	18c472        	addi	a7, a4, 24
    330a:	543414        	ae_lp24x2.i	aep3, a4, 8
    330d:	545404        	ae_lp24x2.i	aep5, a4, 0
    3310:	546444        	ae_lp24x2.i	aep6, a4, 32
    3313:	547434        	ae_lp24x2.i	aep7, a4, 24
    3316:	563154        	ae_sp24x2s.i	aep3, a1, 40
    3319:	565144        	ae_sp24x2s.i	aep5, a1, 32
    331c:	545424        	ae_lp24x2.i	aep5, a4, 16
    331f:	543454        	ae_lp24x2.i	aep3, a4, 40
    3322:	566134        	ae_sp24x2s.i	aep6, a1, 24
    3325:	567124        	ae_sp24x2s.i	aep7, a1, 16
    3328:	fec542        	addi	a4, a5, -2
    332b:	fcc222        	addi	a2, a2, -4
    332e:	4c4764        	ae_lp24.i	aep4, a7, 24
    3331:	398676        	loop	a6, 336e <biquad_2cascade_24bitTx+0x76>
    3334:	547154        	ae_lp24x2.i	aep7, a1, 40
    3337:	f05eaee21f 	{ ae_lp24f.iu	aep6, a2, 4; ae_mulzaafp24s.hh.ll	aeq0, aep7, aep2 }
    333c:	dd59b0714f 	{ ae_lp24x2.i	aep7, a1, 32; ae_selp24.lh	aep2, aep6, aep2 }
    3341:	e25c30713f 	{ ae_lp24x2.i	aep7, a1, 24; ae_mulaafp24s.hh.ll	aeq0, aep7, aep2 }
    3346:	015184        	ae_mulsfp24s.hh	aeq0, aep5, aep1
    3349:	0551c4        	ae_mulssfp24s.hh.ll	aeq0, aep5, aep1
    334c:	f13ef0712f 	{ ae_lp24x2.i	aep7, a1, 16; ae_mulzaafp24s.hh.ll	aeq3, aep7, aep1 }
    3351:	1b8d64        	ae_roundsp24q48asym	aep6, aeq0
    3354:	1ae194        	ae_selp24.lh	aep1, aep6, aep1
    3357:	05f904        	ae_mulaafp24s.hh.ll	aeq3, aep7, aep1
    335a:	01b884        	ae_mulsfp24s.hh	aeq3, aep3, aep0
    335d:	05b8c4        	ae_mulssfp24s.hh.ll	aeq3, aep3, aep0
    3360:	1bbd64        	ae_roundsp24q48asym	aep6, aeq3
    3363:	f0d2be602f 	{ ae_selp24.lh	aep0, aep6, aep0; ae_mulzaafp24s.hh.ll	aeq0, aep4, aep6 }
    3368:	1b8f74        	ae_roundsp16q48asym	aep7, aeq0
    336b:	42f414        	ae_sp16f.l.iu	aep7, a4, 2

0000336e <biquad_2cascade_24bitTx+0x76>:
    336e:	562304        	ae_sp24x2s.i	aep2, a3, 0
    3371:	561314        	ae_sp24x2s.i	aep1, a3, 8
    3374:	560324        	ae_sp24x2s.i	aep0, a3, 16
    3377:	f01d           	retw.n

00003379 <biquad_2cascade_24bitTx+0x81>:
    3379:	000000                                        ...

0000337c <conv_24_to_16>:
    337c:	004136        	entry	a1, 32
    337f:	540c           	movi.n	a4, 5
    3381:	fcc332        	addi	a3, a3, -4
    3384:	f8c222        	addi	a2, a2, -8
    3387:	088476        	loop	a4, 3393 <conv_24_to_16+0x17>
    338a:	5c8214        	ae_lp24x2f.iu	aep0, a2, 8
    338d:	090184        	ae_roundsp16asym	aep0, aep0
    3390:	468314        	ae_sp16x2f.iu	aep0, a3, 4

00003393 <conv_24_to_16+0x17>:
    3393:	f01d           	retw.n

00003395 <conv_24_to_16+0x19>:
    3395:	000000                                        ...

00003398 <gain_after_ec>:
    3398:	00c136        	entry	a1, 96
    339b:	f33fb1        	l32r	a11, 98 (c3d4 <p_ecnr_mem>)
    339e:	3aa572        	movi	a7, 0x53a
    33a1:	05fd           	mov.n	a15, a5
    33a3:	0b88           	l32i.n	a8, a11, 0
    33a5:	04ed           	mov.n	a14, a4
    33a7:	a07770        	addx4	a7, a7, a7
    33aa:	fec342        	addi	a4, a3, -2
    33ad:	c169           	s32i.n	a6, a1, 48
    33af:	fece62        	addi	a6, a14, -2
    33b2:	410874        	ae_lp16f.x	aep0, a8, a7
    33b5:	fec592        	addi	a9, a5, -2
    33b8:	fec252        	addi	a5, a2, -2
    33bb:	b149           	s32i.n	a4, a1, 44
    33bd:	047d           	mov.n	a7, a4
    33bf:	a40c           	movi.n	a4, 10
    33c1:	d189           	s32i.n	a8, a1, 52
    33c3:	fec3c2        	addi	a12, a3, -2
    33c6:	fec2d2        	addi	a13, a2, -2
    33c9:	441e04        	ae_lp16x2f.i	aep1, a14, 0
    33cc:	e1e9           	s32i.n	a14, a1, 56
    33ce:	443f04        	ae_lp16x2f.i	aep3, a15, 0
    33d1:	0f61f2        	s32i	a15, a1, 60
    33d4:	20b990        	or	a11, a9, a9
    33d7:	20a660        	or	a10, a6, a6
    33da:	208550        	or	a8, a5, a5
    33dd:	598476        	loop	a4, 343a <gain_after_ec+0xa2>
    33e0:	eb21eccd1f 	{ ae_lp16f.iu	aep4, a13, 2; ae_mulfp24s.ll	aeq3, aep0, aep1 }
    33e5:	e820acac1f 	{ ae_lp16f.iu	aep2, a12, 2; ae_mulfp24s.hh	aeq0, aep0, aep1 }
    33ea:	ea61fab1cf 	{ ae_slliq56	aeq3, aeq3, 4; ae_mulfp24s.ll	aeq1, aep0, aep3 }
    33ef:	e960ba810f 	{ ae_slliq56	aeq0, aeq0, 4; ae_mulfp24s.hh	aeq2, aep0, aep3 }
    33f4:	eb81fa314f 	{ ae_sq56s.i	aeq3, a1, 32; ae_mulfp24s.ll	aeq3, aep0, aep4 }
    33f9:	ea41ba013f 	{ ae_sq56s.i	aeq0, a1, 24; ae_mulfp24s.ll	aeq0, aep0, aep2 }
    33fe:	355114        	ae_slliq56	aeq1, aeq1, 4
    3401:	631124        	ae_sq56s.i	aeq1, a1, 16
    3404:	357114        	ae_slliq56	aeq1, aeq3, 4
    3407:	61c134        	ae_lq56.i	aeq3, a1, 24
    340a:	fbfbbde14f 	{ ae_lq56.i	aeq3, a1, 32; ae_roundsp16q48sym	aep6, aeq3 }
    340f:	fbfbed9e1f 	{ ae_lp16x2f.iu	aep1, a14, 4; ae_roundsp16q48sym	aep7, aeq3 }
    3414:	fbebb2ea1f 	{ ae_sp16f.l.iu	aep6, a10, 2; ae_roundsp16q48sym	aep6, aeq1 }
    3419:	35a114        	ae_slliq56	aeq2, aeq2, 4
    341c:	faf3b2fa1f 	{ ae_sp16f.l.iu	aep7, a10, 2; ae_roundsp16q48sym	aep4, aeq2 }
    3421:	350114        	ae_slliq56	aeq0, aeq0, 4
    3424:	fbe3fde12f 	{ ae_lq56.i	aeq3, a1, 16; ae_roundsp16q48sym	aep7, aeq0 }
    3429:	fafbedbf1f 	{ ae_lp16x2f.iu	aep3, a15, 4; ae_roundsp16q48sym	aep5, aeq3 }
    342e:	42cb14        	ae_sp16f.l.iu	aep4, a11, 2
    3431:	42db14        	ae_sp16f.l.iu	aep5, a11, 2
    3434:	42e814        	ae_sp16f.l.iu	aep6, a8, 2
    3437:	42f714        	ae_sp16f.l.iu	aep7, a7, 2

0000343a <gain_after_ec+0xa2>:
    343a:	c178           	l32i.n	a7, a1, 48
    343c:	f188           	l32i.n	a8, a1, 60
    343e:	e1a8           	l32i.n	a10, a1, 56
    3440:	d1f8           	l32i.n	a15, a1, 52
    3442:	b148           	l32i.n	a4, a1, 44
    3444:	7c1766        	bnei	a7, 1, 34c4 <gain_after_ec+0x12c>
    3447:	45a3b2        	movi	a11, 0x345
    344a:	ac2c           	movi.n	a12, 42
    344c:	26a0d2        	movi	a13, 38
    344f:	89a6e2        	movi	a14, 0x689
    3452:	0aa072        	movi	a7, 10
    3455:	fec222        	addi	a2, a2, -2
    3458:	11bbd0        	slli	a11, a11, 3
    345b:	440a04        	ae_lp16x2f.i	aep0, a10, 0
    345e:	441804        	ae_lp16x2f.i	aep1, a8, 0
    3461:	1adcc2        	addmi	a12, a12, 0x1a00
    3464:	1addd2        	addmi	a13, a13, 0x1a00
    3467:	11eee0        	slli	a14, a14, 2
    346a:	fec332        	addi	a3, a3, -2
    346d:	538776        	loop	a7, 34c4 <gain_after_ec+0x12c>
    3470:	414fc4        	ae_lp16f.x	aep4, a15, a12
    3473:	e81099dfdf 	{ ae_lp16f.x	aep5, a15, a13; ae_mulfp24s.hh	aeq0, aep4, aep0 }
    3478:	ea11eca21f 	{ ae_lp16f.iu	aep2, a2, 2; ae_mulfp24s.ll	aeq1, aep4, aep0 }
    347d:	e934ba802f 	{ ae_slliq56	aeq0, aeq0, 2; ae_mulfp24s.hh	aeq2, aep5, aep1 }
    3482:	eb35fa906f 	{ ae_slliq56	aeq1, aeq1, 2; ae_mulfp24s.ll	aeq3, aep5, aep1 }
    3487:	fae3ecb31f 	{ ae_lp16f.iu	aep3, a3, 2; ae_roundsp16q48sym	aep5, aeq0 }
    348c:	fbebad8a1f 	{ ae_lp16x2f.iu	aep0, a10, 4; ae_roundsp16q48sym	aep6, aeq1 }
    3491:	42d614        	ae_sp16f.l.iu	aep5, a6, 2
    3494:	42e614        	ae_sp16f.l.iu	aep6, a6, 2
    3497:	35a094        	ae_slliq56	aeq2, aeq2, 2
    349a:	fbf3d9cfef 	{ ae_lp16f.x	aep4, a15, a14; ae_roundsp16q48sym	aep7, aeq2 }
    349f:	eb5199efbf 	{ ae_lp16f.x	aep6, a15, a11; ae_mulfp24s.ll	aeq2, aep4, aep2 }
    34a4:	eb79fab02f 	{ ae_slliq56	aeq0, aeq3, 2; ae_mulfp24s.ll	aeq3, aep6, aep3 }
    34a9:	fae3faa06f 	{ ae_slliq56	aeq1, aeq2, 2; ae_roundsp16q48sym	aep5, aeq0 }
    34ae:	fbebbab0ef 	{ ae_slliq56	aeq3, aeq3, 2; ae_roundsp16q48sym	aep6, aeq1 }
    34b3:	449814        	ae_lp16x2f.iu	aep1, a8, 4
    34b6:	fbfbf2f91f 	{ ae_sp16f.l.iu	aep7, a9, 2; ae_roundsp16q48sym	aep7, aeq3 }
    34bb:	42d914        	ae_sp16f.l.iu	aep5, a9, 2
    34be:	42e514        	ae_sp16f.l.iu	aep6, a5, 2
    34c1:	42f414        	ae_sp16f.l.iu	aep7, a4, 2

000034c4 <gain_after_ec+0x12c>:
    34c4:	f01d           	retw.n

000034c6 <gain_after_ec+0x12e>:
	...

000034c8 <adjust_phase>:
    34c8:	004136        	entry	a1, 32
    34cb:	300334        	ae_cvtp24a16x2.ll	aep0, a3, a3
    34ce:	360234        	ae_cvtq48a32s	aeq0, a2
    34d1:	a10004        	ae_mulzaafq32sp16s.ll	aeq0, aeq0, aep0, aeq0, aep0
    34d4:	1b8f04        	ae_roundsp16q48asym	aep0, aeq0
    34d7:	0002d4        	ae_cvta32p24.l	a2, aep0
    34da:	f01d           	retw.n

000034dc <adjust_bib_state>:
    34dc:	004136        	entry	a1, 32
    34df:	840c           	movi.n	a4, 8
    34e1:	fcc232        	addi	a3, a2, -4
    34e4:	600204        	ae_lq32f.i	aeq0, a2, 0
    34e7:	0a8476        	loop	a4, 34f5 <adjust_bib_state+0x19>
    34ea:	350074        	ae_sraiq56	aeq0, aeq0, 1
    34ed:	f867bd121f 	{ ae_lq32f.iu	aeq0, a2, 4; ae_roundsp24q48asym	aep0, aeq0 }
    34f2:	528314        	ae_sp24f.l.iu	aep0, a3, 4

000034f5 <adjust_bib_state+0x19>:
    34f5:	f01d           	retw.n

000034f7 <adjust_bib_state+0x1b>:
	...

000034f8 <aec_post_prcs>:
    34f8:	004136        	entry	a1, 32
    34fb:	4aa152        	movi	a5, 0x14a
    34fe:	4ca162        	movi	a6, 0x14c
    3501:	28c2f2        	addi	a15, a2, 40
    3504:	411254        	ae_lp16f.x	aep1, a2, a5
    3507:	412264        	ae_lp16f.x	aep2, a2, a6
    350a:	1512d2        	l16ui	a13, a2, 42
    350d:	ea458fffcf 	{ movi	a12, -1; ae_mulfp24s.ll	aeq0, aep1, aep2 }
    3512:	1492e2        	l16si	a14, a2, 40
    3515:	f867ec3f0f 	{ ae_lp16f.i	aep3, a15, 0; ae_roundsp24q48asym	aep1, aeq0 }
    351a:	302dd4        	ae_cvtp24a16x2.ll	aep2, a13, a13
    351d:	1552e2        	s16i	a14, a2, 42
    3520:	dd4ec0102f 	{ movi	a2, 16; ae_subsp24s	aep3, aep3, aep2 }
    3525:	4159c0        	srli	a5, a12, 9
    3528:	cd2c62055f 	{ ae_movpa24x2	aep0, a5, a5; ae_sraip24	aep3, aep3, 4 }
    352d:	0fa052        	movi	a5, 15
    3530:	fec442        	addi	a4, a4, -2
    3533:	404304        	ae_lp16f.i	aep4, a3, 0

00003536 <aec_post_prcs+0x3e>:
    3536:	07a324        	ae_addsp24s	aep2, aep2, aep3
    3539:	0782d4        	ae_subsp24s	aep5, aep0, aep2
    353c:	015174        	ae_mulfp24s.ll	aeq0, aep5, aep1
    353f:	350094        	ae_slliq56	aeq0, aeq0, 2
    3542:	060934        	ae_roundsq32asym	aeq0, aeq0
    3545:	128576        	loop	a5, 355b <aec_post_prcs+0x63>
    3548:	ea89ecf41f 	{ ae_lp16f.iu	aep7, a4, 2; ae_mulfp24s.ll	aeq1, aep2, aep4 }
    354d:	fd2c6cc31f 	{ ae_lp16f.iu	aep4, a3, 2; ae_roundsq32asym	aeq1, aeq1 }
    3552:	037814        	ae_mulafq32sp16s.l	aeq1, aeq0, aep7
    3555:	1b9f54        	ae_roundsp16q48asym	aep5, aeq1
    3558:	4253f4        	ae_sp16f.l.i	aep5, a3, -2

0000355b <aec_post_prcs+0x63>:
    355b:	220b           	addi.n	a2, a2, -1
    355d:	fd5256        	bnez	a2, 3536 <aec_post_prcs+0x3e>
    3560:	f01d           	retw.n

00003562 <aec_post_prcs+0x6a>:
	...

00003564 <AVC_prcs>:
    3564:	004136        	entry	a1, 32
    3567:	fc2480784f 	{ movi	a4, 120; ae_zeroq56	aeq0 }
    356c:	440304        	ae_lp16x2f.i	aep0, a3, 0
    356f:	048476        	loop	a4, 3577 <AVC_prcs+0x13>
    3572:	e2002d831f 	{ ae_lp16x2f.iu	aep0, a3, 4; ae_mulaafp24s.hh.ll	aeq0, aep0, aep0 }

00003577 <AVC_prcs+0x13>:
    3577:	3501f4        	ae_sraiq56	aeq0, aeq0, 7
    357a:	f32031        	l32r	a3, 1fc (11111 <_end+0x4d31>)
    357d:	fc2462033f 	{ ae_movpa24x2	aep0, a3, a3; ae_roundsq32asym	aeq0, aeq0 }
    3582:	f8800000af 	{ movi	a10, 0; ae_mulfq32sp24s.l	aeq0, aeq0, aep0 }
    3587:	f2c331        	l32r	a3, 94 (680 <HIFI_sqrt>)
    358a:	3501d4        	ae_slliq56	aeq0, aeq0, 7
    358d:	060934        	ae_roundsq32asym	aeq0, aeq0
    3590:	368b04        	ae_trunca32q48	a11, aeq0
    3593:	0003e0        	callx8	a3
    3596:	364b34        	ae_cvtq48a32s	aeq1, a11
    3599:	440204        	ae_lp16x2f.i	aep0, a2, 0
    359c:	600224        	ae_lq32f.i	aeq0, a2, 8
    359f:	fc24fe9a4f 	{ ae_slaasq56s	aeq1, aeq1, a10; nop }
    35a4:	0c0120223e 	{ l16si	a3, a2, 4; ae_mulzaafq32sp16s.lh	aeq0, aeq1, aep0, aeq0, aep0 }
    35a9:	060934        	ae_roundsq32asym	aeq0, aeq0
    35ac:	11b300        	slli	a11, a3, 16
    35af:	368a04        	ae_trunca32q48	a10, aeq0
    35b2:	f30331        	l32r	a3, 1c0 (87f4 <airoha_divide>)
    35b5:	22a9           	s32i.n	a10, a2, 8
    35b7:	0003e0        	callx8	a3
    35ba:	feca42        	addi	a4, a10, -2
    35bd:	360b34        	ae_cvtq48a32s	aeq0, a11
    35c0:	fc24fe840f 	{ ae_slaasq56s	aeq0, aeq0, a4; nop }
    35c5:	f86380013f 	{ movi	a3, 1; ae_roundsp16q48asym	aep0, aeq0 }
    35ca:	360f24        	ae_trunca16p24s.l	a15, aep0
    35cd:	039222        	l16si	a2, a2, 6
    35d0:	113330        	slli	a3, a3, 13
    35d3:	533f30        	max	a3, a15, a3
    35d6:	432320        	min	a2, a3, a2
    35d9:	f01d           	retw.n

000035db <AVC_prcs+0x77>:
	...

000035dc <gain_ref>:
    35dc:	004136        	entry	a1, 32
    35df:	2514a6        	blti	a4, 1, 3608 <gain_ref+0x2c>
    35e2:	fcc222        	addi	a2, a2, -4
    35e5:	300334        	ae_cvtp24a16x2.ll	aep0, a3, a3
    35e8:	449214        	ae_lp16x2f.iu	aep1, a2, 4
    35eb:	f03d           	nop.n
    35ed:	178476        	loop	a4, 3608 <gain_ref+0x2c>
    35f0:	011054        	ae_mulfp24s.hl	aeq0, aep1, aep0
    35f3:	ea05ed921f 	{ ae_lp16x2f.iu	aep1, a2, 4; ae_mulfp24s.ll	aeq1, aep1, aep0 }
    35f8:	350094        	ae_slliq56	aeq0, aeq0, 2
    35fb:	f963ba906f 	{ ae_slliq56	aeq1, aeq1, 2; ae_roundsp16q48asym	aep2, aeq0 }
    3600:	f96bf222ef 	{ ae_sp16f.l.i	aep2, a2, -4; ae_roundsp16q48asym	aep3, aeq1 }
    3605:	4232f4        	ae_sp16f.l.i	aep3, a2, -2

00003608 <gain_ref+0x2c>:
    3608:	f01d           	retw.n

0000360a <gain_ref+0x2e>:
	...

0000360c <TxRef_VAD>:
    360c:	006136        	entry	a1, 48
    360f:	f0a052        	movi	a5, 240
    3612:	00a042        	movi	a4, 0
    3615:	088576        	loop	a5, 3621 <TxRef_VAD+0x15>
    3618:	235d           	ae_l16si.n	a5, a3, 0
    361a:	332b           	addi.n	a3, a3, 2
    361c:	605150        	abs	a5, a5
    361f:	454a           	add.n	a4, a5, a4

00003621 <TxRef_VAD+0x15>:
    3621:	f57c           	movi.n	a5, -1
    3623:	015510        	slli	a5, a5, 31
    3626:	04bc           	beqz.n	a4, 365a <TxRef_VAD+0x4e>
    3628:	40e430        	nsa	a3, a4
    362b:	761c           	movi.n	a6, 23
    362d:	401300        	ssl	a3
    3630:	c0b630        	sub	a11, a6, a3
    3633:	f2d131        	l32r	a3, 178 (6d8 <Log2_norm>)
    3636:	a1a400        	sll	a10, a4
    3639:	0003e0        	callx8	a3
    363c:	d1a432        	movi	a3, 0x4d1
    363f:	1133c0        	slli	a3, a3, 4
    3642:	b26a30        	mulsh	a6, a10, a3
    3645:	823a30        	mull	a3, a10, a3
    3648:	d1a442        	movi	a4, 0x4d1
    364b:	1144f0        	slli	a4, a4, 1
    364e:	f35a           	add.n	a15, a3, a5
    3650:	464a           	add.n	a4, a6, a4
    3652:	623f30        	saltu	a3, a15, a3
    3655:	334a           	add.n	a3, a3, a4
    3657:	000046        	j	365c <TxRef_VAD+0x50>

0000365a <TxRef_VAD+0x4e>:
    365a:	030c           	movi.n	a3, 0
    365c:	039262        	l16si	a6, a2, 6
    365f:	049272        	l16si	a7, a2, 8
    3662:	029242        	l16si	a4, a2, 4
    3665:	11e600        	slli	a14, a6, 16
    3668:	11f700        	slli	a15, a7, 16
    366b:	306650        	xor	a6, a6, a5
    366e:	307750        	xor	a7, a7, a5
    3671:	533340        	max	a3, a3, a4
    3674:	c046e0        	sub	a4, a6, a14
    3677:	c067f0        	sub	a6, a7, a15
    367a:	2149           	s32i.n	a4, a1, 8
    367c:	3169           	s32i.n	a6, a1, 12
    367e:	418b           	addi.n	a4, a1, 8
    3680:	42a8           	l32i.n	a10, a2, 16
    3682:	f29861        	l32r	a6, e4 (49cc <siir_safr>)
    3685:	03bd           	mov.n	a11, a3
    3687:	04cd           	mov.n	a12, a4
    3689:	0006e0        	callx8	a6
    368c:	059272        	l16si	a7, a2, 10
    368f:	069282        	l16si	a8, a2, 12
    3692:	42a9           	s32i.n	a10, a2, 16
    3694:	119700        	slli	a9, a7, 16
    3697:	307750        	xor	a7, a7, a5
    369a:	30f850        	xor	a15, a8, a5
    369d:	118800        	slli	a8, a8, 16
    36a0:	52a8           	l32i.n	a10, a2, 20
    36a2:	c07790        	sub	a7, a7, a9
    36a5:	c05f80        	sub	a5, a15, a8
    36a8:	03bd           	mov.n	a11, a3
    36aa:	04cd           	mov.n	a12, a4
    36ac:	2179           	s32i.n	a7, a1, 8
    36ae:	3159           	s32i.n	a5, a1, 12
    36b0:	0006e0        	callx8	a6
    36b3:	4238           	l32i.n	a3, a2, 16
    36b5:	224d           	ae_l16si.n	a4, a2, 0
    36b7:	52a9           	s32i.n	a10, a2, 20
    36b9:	0c1272        	l16ui	a7, a2, 24
    36bc:	334a           	add.n	a3, a3, a4
    36be:	04a3a7        	bge	a3, a10, 36c6 <TxRef_VAD+0xba>
    36c1:	130c           	movi.n	a3, 1
    36c3:	000386        	j	36d5 <TxRef_VAD+0xc9>

000036c6 <TxRef_VAD+0xba>:
    36c6:	0d9242        	l16si	a4, a2, 26
    36c9:	073d           	mov.n	a3, a7
    36cb:	0b1766        	bnei	a7, 1, 36da <TxRef_VAD+0xce>
    36ce:	325d           	ae_l16si.n	a5, a2, 2
    36d0:	06a547        	bge	a5, a4, 36da <TxRef_VAD+0xce>
    36d3:	030c           	movi.n	a3, 0
    36d5:	6239           	s32i.n	a3, a2, 24
    36d7:	000106        	j	36df <TxRef_VAD+0xd3>

000036da <TxRef_VAD+0xce>:
    36da:	441b           	addi.n	a4, a4, 1
    36dc:	0d5242        	s16i	a4, a2, 26
    36df:	832d           	ae_sext16	a2, a3
    36e1:	f01d           	retw.n

000036e3 <TxRef_VAD+0xd7>:
	...

000036e4 <Voice_WB_TX_Prcs>:
    36e4:	02e136        	entry	a1, 0x170
    36e7:	f26cf1        	l32r	a15, 98 (c3d4 <p_ecnr_mem>)
    36ea:	176132        	s32i	a3, a1, 92
    36ed:	2a6152        	s32i	a5, a1, 168
    36f0:	0f78           	l32i.n	a7, a15, 0
    36f2:	f2bb51        	l32r	a5, 1e0 (c3d8 <avc_vol>)
    36f5:	166172        	s32i	a7, a1, 88
    36f8:	3dd732        	addmi	a3, a7, 0x3d00
    36fb:	681332        	l16ui	a3, a3, 208
    36fe:	70d792        	addmi	a9, a7, 0x7000
    3701:	bfa282        	movi	a8, 0x2bf
    3704:	13cc           	bnez.n	a3, 3709 <Voice_WB_TX_Prcs+0x25>
    3706:	0307c6        	j	4329 <Voice_WB_TX_Prcs+0xc45>
    3709:	721992        	l16ui	a9, a9, 228
    370c:	1158c0        	slli	a5, a8, 4
    370f:	1ad782        	addmi	a8, a7, 0x1a00
    3712:	182832        	l32i	a3, a8, 96
    3715:	172882        	l32i	a8, a8, 92
    3718:	575a           	add.n	a5, a7, a5
    371a:	a3a1f2        	movi	a15, 0x1a3
    371d:	376162        	s32i	a6, a1, 220
    3720:	116fc0        	slli	a6, a15, 4
    3723:	246182        	s32i	a8, a1, 144
    3726:	256132        	s32i	a3, a1, 148
    3729:	1f6152        	s32i	a5, a1, 124
    372c:	1e6122        	s32i	a2, a1, 120
    372f:	1d6142        	s32i	a4, a1, 116
    3732:	04b916        	beqz	a9, 3781 <Voice_WB_TX_Prcs+0x9d>
    3735:	e4a082        	movi	a8, 228
    3738:	70d882        	addmi	a8, a8, 0x7000
    373b:	a78a           	add.n	a10, a7, a8
    373d:	f2b081        	l32r	a8, 200 (360c <TxRef_VAD>)
    3740:	04bd           	mov.n	a11, a4
    3742:	0008e0        	callx8	a8
    3745:	f25471        	l32r	a7, 98 (c3d4 <p_ecnr_mem>)
    3748:	172152        	l32i	a5, a1, 92
    374b:	0788           	l32i.n	a8, a7, 0
    374d:	1ad892        	addmi	a9, a8, 0x1a00
    3750:	181992        	l16ui	a9, a9, 48
    3753:	486a           	add.n	a4, a8, a6
    3755:	89bd           	ae_sext16	a11, a9
    3757:	06ba16        	beqz	a10, 37c6 <Voice_WB_TX_Prcs+0xe2>

0000375a <Voice_WB_TX_Prcs+0x76>:
    375a:	89ad           	ae_sext16	a10, a9
    375c:	1c6c           	movi.n	a12, -31
    375e:	082ac7        	blt	a10, a12, 376a <Voice_WB_TX_Prcs+0x86>
    3761:	9b0b           	addi.n	a9, a11, -1
    3763:	fa7c           	movi.n	a10, -1
    3765:	4399a0        	min	a9, a9, a10
    3768:	649d           	ae_s16i.n	a9, a4, 0
    376a:	162122        	l32i	a2, a1, 88
    376d:	ffa1b2        	movi	a11, 0x1ff
    3770:	3cd222        	addmi	a2, a2, 0x3c00
    3773:	5c92a2        	l16si	a10, a2, 184
    3776:	5a2ba7        	blt	a11, a10, 37d4 <Voice_WB_TX_Prcs+0xf0>
    3779:	aa1b           	addi.n	a10, a10, 1
    377b:	5c52a2        	s16i	a10, a2, 184
    377e:	001486        	j	37d4 <Voice_WB_TX_Prcs+0xf0>

00003781 <Voice_WB_TX_Prcs+0x9d>:
    3781:	85a682        	movi	a8, 0x685
    3784:	172152        	l32i	a5, a1, 92
    3787:	1188e0        	slli	a8, a8, 2
    378a:	690c           	movi.n	a9, 6
    378c:	878a           	add.n	a8, a7, a8
    378e:	058976        	loop	a9, 3797 <Voice_WB_TX_Prcs+0xb3>
    3791:	389d           	ae_l16si.n	a9, a8, 2
    3793:	689d           	ae_s16i.n	a9, a8, 0
    3795:	882b           	addi.n	a8, a8, 2

00003797 <Voice_WB_TX_Prcs+0xb3>:
    3797:	162172        	l32i	a7, a1, 88
    379a:	ffa3c2        	movi	a12, 0x3ff
    379d:	1ad792        	addmi	a9, a7, 0x1a00
    37a0:	199992        	l16si	a9, a9, 50
    37a3:	70d7a2        	addmi	a10, a7, 0x7000
    37a6:	1ad7b2        	addmi	a11, a7, 0x1a00
    37a9:	119990        	slli	a9, a9, 7
    37ac:	689d           	ae_s16i.n	a9, a8, 0
    37ae:	361a82        	l16ui	a8, a10, 108
    37b1:	189bb2        	l16si	a11, a11, 48
    37b4:	476a           	add.n	a4, a7, a6
    37b6:	908870        	addx2	a8, a8, a7
    37b9:	1ad882        	addmi	a8, a8, 0x1a00
    37bc:	0a98f2        	l16si	a15, a8, 20
    37bf:	078d           	mov.n	a8, a7
    37c1:	0b9d           	mov.n	a9, a11
    37c3:	932cf7        	blt	a12, a15, 375a <Voice_WB_TX_Prcs+0x76>

000037c6 <Voice_WB_TX_Prcs+0xe2>:
    37c6:	89ad           	ae_sext16	a10, a9
    37c8:	08cae6        	bgei	a10, 32, 37d4 <Voice_WB_TX_Prcs+0xf0>
    37cb:	9b1b           	addi.n	a9, a11, 1
    37cd:	1a0c           	movi.n	a10, 1
    37cf:	5399a0        	max	a9, a9, a10
    37d2:	649d           	ae_s16i.n	a9, a4, 0
    37d4:	162172        	l32i	a7, a1, 88
    37d7:	91a722        	movi	a2, 0x791
    37da:	1122d0        	slli	a2, a2, 3
    37dd:	272a           	add.n	a2, a7, a2
    37df:	e5a642        	movi	a4, 0x6e5
    37e2:	236122        	s32i	a2, a1, 140
    37e5:	1124d0        	slli	a2, a4, 3
    37e8:	896d           	ae_sext16	a6, a9
    37ea:	272a           	add.n	a2, a7, a2
    37ec:	cda392        	movi	a9, 0x3cd
    37ef:	2c6122        	s32i	a2, a1, 176
    37f2:	1129c0        	slli	a2, a9, 4
    37f5:	d1a3d2        	movi	a13, 0x3d1
    37f8:	0da6b2        	movi	a11, 0x60d
    37fb:	272a           	add.n	a2, a7, a2
    37fd:	11ddc0        	slli	a13, a13, 4
    3800:	536162        	s32i	a6, a1, 0x14c
    3803:	3cd732        	addmi	a3, a7, 0x3c00
    3806:	060c           	movi.n	a6, 0
    3808:	3dd7e2        	addmi	a14, a7, 0x3d00
    380b:	d5a3a2        	movi	a10, 0x3d5
    380e:	11bbe0        	slli	a11, a11, 2
    3811:	516122        	s32i	a2, a1, 0x144
    3814:	1f2122        	l32i	a2, a1, 124
    3817:	119ac0        	slli	a9, a10, 4
    381a:	d9a3a2        	movi	a10, 0x3d9
    381d:	c8ba           	add.n	a12, a8, a11
    381f:	d7da           	add.n	a13, a7, a13
    3821:	70d8b2        	addmi	a11, a8, 0x7000
    3824:	3a6362        	s32i	a6, a3, 232
    3827:	3b6362        	s32i	a6, a3, 236
    382a:	ae69           	s32i.n	a6, a14, 40
    382c:	be69           	s32i.n	a6, a14, 44
    382e:	5a6362        	s32i	a6, a3, 0x168
    3831:	5b6362        	s32i	a6, a3, 0x16c
    3834:	3dd742        	addmi	a4, a7, 0x3d00
    3837:	6a6362        	s32i	a6, a3, 0x1a8
    383a:	6b6362        	s32i	a6, a3, 0x1ac
    383d:	3dd7f2        	addmi	a15, a7, 0x3d00
    3840:	336132        	s32i	a3, a1, 204
    3843:	5061d2        	s32i	a13, a1, 0x140
    3846:	371bd2        	l16ui	a13, a11, 110
    3849:	11aac0        	slli	a10, a10, 4
    384c:	f26e31        	l32r	a3, 204 (2f9c <mic240_delay>)
    384f:	1d21b2        	l32i	a11, a1, 116
    3852:	5261e2        	s32i	a14, a1, 0x148
    3855:	3461f2        	s32i	a15, a1, 208
    3858:	f7aa           	add.n	a15, a7, a10
    385a:	e79a           	add.n	a14, a7, a9
    385c:	02ad           	mov.n	a10, a2
    385e:	356142        	s32i	a4, a1, 212
    3861:	4f61e2        	s32i	a14, a1, 0x13c
    3864:	4e61f2        	s32i	a15, a1, 0x138
    3867:	0003e0        	callx8	a3
    386a:	f20f31        	l32r	a3, a8 (9a44 <xt_memset>)
    386d:	20c1a2        	addi	a10, a1, 32
    3870:	0b0c           	movi.n	a11, 0
    3872:	ac0c           	movi.n	a12, 10
    3874:	0003e0        	callx8	a3
    3877:	38d732        	addmi	a3, a7, 0x3800
    387a:	bda1b2        	movi	a11, 0x1bd
    387d:	28c142        	addi	a4, a1, 40
    3880:	8da3f2        	movi	a15, 0x38d
    3883:	91a382        	movi	a8, 0x391
    3886:	95a392        	movi	a9, 0x395
    3889:	99a3a2        	movi	a10, 0x399
    388c:	4d6142        	s32i	a4, a1, 0x134
    388f:	3fd7d2        	addmi	a13, a7, 0x3f00
    3892:	2cc1e2        	addi	a14, a1, 44
    3895:	114fc0        	slli	a4, a15, 4
    3898:	565362        	s16i	a6, a3, 172
    389b:	11bbb0        	slli	a11, a11, 5
    389e:	7da362        	movi	a6, 0x37d
    38a1:	1188c0        	slli	a8, a8, 4
    38a4:	1199c0        	slli	a9, a9, 4
    38a7:	11aac0        	slli	a10, a10, 4
    38aa:	f7a6c2        	movi	a12, 0x6f7
    38ad:	b1a3f2        	movi	a15, 0x3b1
    38b0:	4c61d2        	s32i	a13, a1, 0x130
    38b3:	9da3d2        	movi	a13, 0x39d
    38b6:	2961e2        	s32i	a14, a1, 164
    38b9:	a7a3e2        	movi	a14, 0x3a7
    38bc:	366132        	s32i	a3, a1, 216
    38bf:	1136c0        	slli	a3, a6, 4
    38c2:	674a           	add.n	a6, a7, a4
    38c4:	47ba           	add.n	a4, a7, a11
    38c6:	878a           	add.n	a8, a7, a8
    38c8:	979a           	add.n	a9, a7, a9
    38ca:	a7aa           	add.n	a10, a7, a10
    38cc:	426142        	s32i	a4, a1, 0x108
    38cf:	24c1b2        	addi	a11, a1, 36
    38d2:	48c142        	addi	a4, a1, 72
    38d5:	11ccd0        	slli	a12, a12, 3
    38d8:	11ddc0        	slli	a13, a13, 4
    38db:	11eec0        	slli	a14, a14, 4
    38de:	11ffc0        	slli	a15, a15, 4
    38e1:	4b6162        	s32i	a6, a1, 0x12c
    38e4:	67ca           	add.n	a6, a7, a12
    38e6:	4a6182        	s32i	a8, a1, 0x128
    38e9:	87da           	add.n	a8, a7, a13
    38eb:	496192        	s32i	a9, a1, 0x124
    38ee:	97ea           	add.n	a9, a7, a14
    38f0:	4861a2        	s32i	a10, a1, 0x120
    38f3:	a7fa           	add.n	a10, a7, a15
    38f5:	4761b2        	s32i	a11, a1, 0x11c
    38f8:	39d7c2        	addmi	a12, a7, 0x3900
    38fb:	39d7d2        	addmi	a13, a7, 0x3900
    38fe:	39d7e2        	addmi	a14, a7, 0x3900
    3901:	39d7f2        	addmi	a15, a7, 0x3900
    3904:	406142        	s32i	a4, a1, 0x100
    3907:	37d7b2        	addmi	a11, a7, 0x3700
    390a:	3bd742        	addmi	a4, a7, 0x3b00
    390d:	373a           	add.n	a3, a7, a3
    390f:	416162        	s32i	a6, a1, 0x104
    3912:	276182        	s32i	a8, a1, 156
    3915:	326192        	s32i	a9, a1, 200
    3918:	3161a2        	s32i	a10, a1, 196
    391b:	4661c2        	s32i	a12, a1, 0x118
    391e:	4561d2        	s32i	a13, a1, 0x114
    3921:	4461e2        	s32i	a14, a1, 0x110
    3924:	1961f2        	s32i	a15, a1, 100
    3927:	50c162        	addi	a6, a1, 80
    392a:	37d782        	addmi	a8, a7, 0x3700
    392d:	37d792        	addmi	a9, a7, 0x3700
    3930:	37d7a2        	addmi	a10, a7, 0x3700
    3933:	2161b2        	s32i	a11, a1, 132
    3936:	37d7c2        	addmi	a12, a7, 0x3700
    3939:	37d7d2        	addmi	a13, a7, 0x3700
    393c:	38d7e2        	addmi	a14, a7, 0x3800
    393f:	3ad7f2        	addmi	a15, a7, 0x3a00
    3942:	226142        	s32i	a4, a1, 136
    3945:	05a3b2        	movi	a11, 0x305
    3948:	1e2142        	l32i	a4, a1, 120
    394b:	386132        	s32i	a3, a1, 224
    394e:	3f6162        	s32i	a6, a1, 252
    3951:	3e6182        	s32i	a8, a1, 248
    3954:	3d6192        	s32i	a9, a1, 244
    3957:	3c61a2        	s32i	a10, a1, 240
    395a:	2b61c2        	s32i	a12, a1, 172
    395d:	2061d2        	s32i	a13, a1, 128
    3960:	3b61e2        	s32i	a14, a1, 236
    3963:	2861f2        	s32i	a15, a1, 160
    3966:	37d762        	addmi	a6, a7, 0x3700
    3969:	3bd782        	addmi	a8, a7, 0x3b00
    396c:	30c1a2        	addi	a10, a1, 48
    396f:	113bc0        	slli	a3, a11, 4
    3972:	0c0c           	movi.n	a12, 0
    3974:	0d0c           	movi.n	a13, 0
    3976:	0e0c           	movi.n	a14, 0
    3978:	0f0c           	movi.n	a15, 0
    397a:	070c           	movi.n	a7, 0
    397c:	306162        	s32i	a6, a1, 192
    397f:	2f6182        	s32i	a8, a1, 188
    3982:	3a6192        	s32i	a9, a1, 232
    3985:	3961a2        	s32i	a10, a1, 228
    3988:	266132        	s32i	a3, a1, 152
    398b:	1861c2        	s32i	a12, a1, 96
    398e:	1c61d2        	s32i	a13, a1, 112
    3991:	1a61e2        	s32i	a14, a1, 104
    3994:	1b61f2        	s32i	a15, a1, 108
    3997:	006606        	j	3b33 <Voice_WB_TX_Prcs+0x44f>

0000399a <Voice_WB_TX_Prcs+0x2b6>:
    399a:	189662        	l16si	a6, a6, 48
    399d:	070c           	movi.n	a7, 0
    399f:	3429c2        	l32i	a12, a9, 208
    39a2:	799dd2        	l16si	a13, a13, 242
    39a5:	21e9           	s32i.n	a14, a1, 8
    39a7:	1179           	s32i.n	a7, a1, 4
    39a9:	0169           	s32i.n	a6, a1, 0
    39ab:	0e91f2        	l16si	a15, a1, 28
    39ae:	2721b2        	l32i	a11, a1, 156
    39b1:	f22361        	l32r	a6, 240 (5568 <beam2_proc>)
    39b4:	8e1c           	movi.n	a14, 24
    39b6:	03ad           	mov.n	a10, a3
    39b8:	0006e0        	callx8	a6
    39bb:	182122        	l32i	a2, a1, 96
    39be:	2e2182        	l32i	a8, a1, 184
    39c1:	202152        	l32i	a5, a1, 128
    39c4:	2821e2        	l32i	a14, a1, 160
    39c7:	2d2192        	l32i	a9, a1, 180
    39ca:	1b21f2        	l32i	a15, a1, 108
    39cd:	228a           	add.n	a2, a2, a8
    39cf:	186122        	s32i	a2, a1, 96
    39d2:	29fa           	add.n	a2, a9, a15
    39d4:	ffa0f2        	movi	a15, 255
    39d7:	1e2ec2        	l32i	a12, a14, 120
    39da:	7b95d2        	l16si	a13, a5, 246
    39dd:	3221b2        	l32i	a11, a1, 200
    39e0:	380c           	movi.n	a8, 3
    39e2:	8e1c           	movi.n	a14, 24
    39e4:	03ad           	mov.n	a10, a3
    39e6:	7fdff2        	addmi	a15, a15, 0x7f00
    39e9:	091c           	movi.n	a9, 16
    39eb:	2189           	s32i.n	a8, a1, 8
    39ed:	1179           	s32i.n	a7, a1, 4
    39ef:	1b6122        	s32i	a2, a1, 108
    39f2:	0199           	s32i.n	a9, a1, 0
    39f4:	0006e0        	callx8	a6
    39f7:	222122        	l32i	a2, a1, 136
    39fa:	480c           	movi.n	a8, 4
    39fc:	7c95d2        	l16si	a13, a5, 248
    39ff:	62c8           	l32i.n	a12, a2, 24
    3a01:	2189           	s32i.n	a8, a1, 8
    3a03:	1179           	s32i.n	a7, a1, 4
    3a05:	067d           	mov.n	a7, a6
    3a07:	312162        	l32i	a6, a1, 196
    3a0a:	ffa0f2        	movi	a15, 255
    3a0d:	091c           	movi.n	a9, 16
    3a0f:	9e1c           	movi.n	a14, 25
    3a11:	03ad           	mov.n	a10, a3
    3a13:	06bd           	mov.n	a11, a6
    3a15:	7fdff2        	addmi	a15, a15, 0x7f00
    3a18:	0199           	s32i.n	a9, a1, 0
    3a1a:	0007e0        	callx8	a7
    3a1d:	ffa0f2        	movi	a15, 255
    3a20:	7c95d2        	l16si	a13, a5, 248
    3a23:	62c8           	l32i.n	a12, a2, 24
    3a25:	450c           	movi.n	a5, 4
    3a27:	a80c           	movi.n	a8, 10
    3a29:	9e1c           	movi.n	a14, 25
    3a2b:	03ad           	mov.n	a10, a3
    3a2d:	06bd           	mov.n	a11, a6
    3a2f:	7fdff2        	addmi	a15, a15, 0x7f00
    3a32:	091c           	movi.n	a9, 16
    3a34:	2159           	s32i.n	a5, a1, 8
    3a36:	1189           	s32i.n	a8, a1, 4
    3a38:	0199           	s32i.n	a9, a1, 0
    3a3a:	0007e0        	callx8	a7
    3a3d:	f20221        	l32r	a2, 248 (58e0 <beam1_mid_band>)
    3a40:	03ad           	mov.n	a10, a3
    3a42:	0002e0        	callx8	a2
    3a45:	2f2122        	l32i	a2, a1, 188
    3a48:	3a21e2        	l32i	a14, a1, 232
    3a4b:	0aa0f2        	movi	a15, 10
    3a4e:	2d2262        	l32i	a6, a2, 180
    3a51:	171e82        	l16ui	a8, a14, 46
    3a54:	300884        	ae_cvtp24a16x2.ll	aep0, a8, a8
    3a57:	fcc662        	addi	a6, a6, -4
    3a5a:	449614        	ae_lp16x2f.iu	aep1, a6, 4
    3a5d:	178f76        	loop	a15, 3a78 <Voice_WB_TX_Prcs+0x394>
    3a60:	011054        	ae_mulfp24s.hl	aeq0, aep1, aep0
    3a63:	ea05ed961f 	{ ae_lp16x2f.iu	aep1, a6, 4; ae_mulfp24s.ll	aeq1, aep1, aep0 }
    3a68:	350094        	ae_slliq56	aeq0, aeq0, 2
    3a6b:	f963ba906f 	{ ae_slliq56	aeq1, aeq1, 2; ae_roundsp16q48asym	aep2, aeq0 }
    3a70:	f96bf226ef 	{ ae_sp16f.l.i	aep2, a6, -4; ae_roundsp16q48asym	aep3, aeq1 }
    3a75:	4236f4        	ae_sp16f.l.i	aep3, a6, -2

00003a78 <Voice_WB_TX_Prcs+0x394>:
    3a78:	f1f521        	l32r	a2, 24c (5a30 <beam2_mid_band>)
    3a7b:	03ad           	mov.n	a10, a3
    3a7d:	0002e0        	callx8	a2
    3a80:	f18671        	l32r	a7, 98 (c3d4 <p_ecnr_mem>)
    3a83:	192122        	l32i	a2, a1, 100
    3a86:	282132        	l32i	a3, a1, 160
    3a89:	0768           	l32i.n	a6, a7, 0
    3a8b:	2f2152        	l32i	a5, a1, 188
    3a8e:	d9a7f2        	movi	a15, 0x7d9
    3a91:	1ad682        	addmi	a8, a6, 0x1a00
    3a94:	1628e2        	l32i	a14, a8, 88
    3a97:	118fd0        	slli	a8, a15, 3
    3a9a:	d68a           	add.n	a13, a6, a8
    3a9c:	3422a2        	l32i	a10, a2, 208
    3a9f:	1c23b2        	l32i	a11, a3, 112
    3aa2:	2c25c2        	l32i	a12, a5, 176
    3aa5:	f1df61        	l32r	a6, 224 (326c <synth_3band>)
    3aa8:	0006e0        	callx8	a6
    3aab:	07d8           	l32i.n	a13, a7, 0
    3aad:	4f4c           	movi.n	a15, 68
    3aaf:	3622a2        	l32i	a10, a2, 216
    3ab2:	1add82        	addmi	a8, a13, 0x1a00
    3ab5:	3fdf22        	addmi	a2, a15, 0x3f00
    3ab8:	1e23b2        	l32i	a11, a3, 120
    3abb:	2e25c2        	l32i	a12, a5, 184
    3abe:	1528e2        	l32i	a14, a8, 84
    3ac1:	dd2a           	add.n	a13, a13, a2
    3ac3:	0006e0        	callx8	a6
    3ac6:	0768           	l32i.n	a6, a7, 0
    3ac8:	222152        	l32i	a5, a1, 136
    3acb:	252132        	l32i	a3, a1, 148
    3ace:	05a322        	movi	a2, 0x305
    3ad1:	1ad682        	addmi	a8, a6, 0x1a00
    3ad4:	1122c0        	slli	a2, a2, 4
    3ad7:	45b8           	l32i.n	a11, a5, 16
    3ad9:	1628a2        	l32i	a10, a8, 88
    3adc:	2921e2        	l32i	a14, a1, 164
    3adf:	f1d271        	l32r	a7, 228 (3088 <tx_upsample_by2>)
    3ae2:	d62a           	add.n	a13, a6, a2
    3ae4:	03cd           	mov.n	a12, a3
    3ae6:	0007e0        	callx8	a7
    3ae9:	f16b21        	l32r	a2, 98 (c3d4 <p_ecnr_mem>)
    3aec:	07a3f2        	movi	a15, 0x307
    3aef:	65b8           	l32i.n	a11, a5, 24
    3af1:	0268           	l32i.n	a6, a2, 0
    3af3:	112fc0        	slli	a2, a15, 4
    3af6:	3921e2        	l32i	a14, a1, 228
    3af9:	1ad682        	addmi	a8, a6, 0x1a00
    3afc:	d62a           	add.n	a13, a6, a2
    3afe:	242162        	l32i	a6, a1, 144
    3b01:	1528a2        	l32i	a10, a8, 84
    3b04:	06cd           	mov.n	a12, a6
    3b06:	0007e0        	callx8	a7
    3b09:	1f2122        	l32i	a2, a1, 124

00003b0c <Voice_WB_TX_Prcs+0x428>:
    3b0c:	1d2172        	l32i	a7, a1, 116
    3b0f:	172152        	l32i	a5, a1, 92
    3b12:	50c332        	addi	a3, a3, 80
    3b15:	50c662        	addi	a6, a6, 80
    3b18:	14c772        	addi	a7, a7, 20
    3b1b:	78a0f2        	movi	a15, 120
    3b1e:	50c442        	addi	a4, a4, 80
    3b21:	50c552        	addi	a5, a5, 80
    3b24:	50c222        	addi	a2, a2, 80
    3b27:	256132        	s32i	a3, a1, 148
    3b2a:	246162        	s32i	a6, a1, 144
    3b2d:	0297f7        	bne	a7, a15, 3b33 <Voice_WB_TX_Prcs+0x44f>
    3b30:	0153c6        	j	4083 <Voice_WB_TX_Prcs+0x99f>
    3b33:	1d6172        	s32i	a7, a1, 116
    3b36:	f15871        	l32r	a7, 98 (c3d4 <p_ecnr_mem>)
    3b39:	07a6f2        	movi	a15, 0x607
    3b3c:	83a132        	movi	a3, 0x183
    3b3f:	0768           	l32i.n	a6, a7, 0
    3b41:	176152        	s32i	a5, a1, 92
    3b44:	115fe0        	slli	a5, a15, 2
    3b47:	1133c0        	slli	a3, a3, 4
    3b4a:	c65a           	add.n	a12, a6, a5
    3b4c:	f1af51        	l32r	a5, 208 (313c <emph_filter_N>)
    3b4f:	b63a           	add.n	a11, a6, a3
    3b51:	8d2c           	movi.n	a13, 40
    3b53:	04ad           	mov.n	a10, a4
    3b55:	0005e0        	callx8	a5
    3b58:	0768           	l32i.n	a6, a7, 0
    3b5a:	c1a0f2        	movi	a15, 193
    3b5d:	8d2c           	movi.n	a13, 40
    3b5f:	b63a           	add.n	a11, a6, a3
    3b61:	113fb0        	slli	a3, a15, 5
    3b64:	c63a           	add.n	a12, a6, a3
    3b66:	02ad           	mov.n	a10, a2
    3b68:	0005e0        	callx8	a5
    3b6b:	0768           	l32i.n	a6, a7, 0
    3b6d:	ffa232        	movi	a3, 0x2ff
    3b70:	1133c0        	slli	a3, a3, 4
    3b73:	1ad682        	addmi	a8, a6, 0x1a00
    3b76:	f8a8           	l32i.n	a10, a8, 60
    3b78:	1028b2        	l32i	a11, a8, 64
    3b7b:	1e6142        	s32i	a4, a1, 120
    3b7e:	04cd           	mov.n	a12, a4
    3b80:	f1a341        	l32r	a4, 20c (2fd0 <tx_downsample_by2>)
    3b83:	d63a           	add.n	a13, a6, a3
    3b85:	20c1e2        	addi	a14, a1, 32
    3b88:	0004e0        	callx8	a4
    3b8b:	0768           	l32i.n	a6, a7, 0
    3b8d:	01a332        	movi	a3, 0x301
    3b90:	1133c0        	slli	a3, a3, 4
    3b93:	1ad682        	addmi	a8, a6, 0x1a00
    3b96:	1328a2        	l32i	a10, a8, 76
    3b99:	1428b2        	l32i	a11, a8, 80
    3b9c:	4d21e2        	l32i	a14, a1, 0x134
    3b9f:	d63a           	add.n	a13, a6, a3
    3ba1:	02cd           	mov.n	a12, a2
    3ba3:	1f6122        	s32i	a2, a1, 124
    3ba6:	0004e0        	callx8	a4
    3ba9:	0768           	l32i.n	a6, a7, 0
    3bab:	352122        	l32i	a2, a1, 212
    3bae:	522152        	l32i	a5, a1, 0x148
    3bb1:	c1a732        	movi	a3, 0x7c1
    3bb4:	1ad692        	addmi	a9, a6, 0x1a00
    3bb7:	1133d0        	slli	a3, a3, 3
    3bba:	2122d2        	l32i	a13, a2, 132
    3bbd:	1125e2        	l32i	a14, a5, 68
    3bc0:	f9a8           	l32i.n	a10, a9, 60
    3bc2:	e9c8           	l32i.n	a12, a9, 56
    3bc4:	f19341        	l32r	a4, 210 (31c8 <analy_3band>)
    3bc7:	b63a           	add.n	a11, a6, a3
    3bc9:	0004e0        	callx8	a4
    3bcc:	0768           	l32i.n	a6, a7, 0
    3bce:	332132        	l32i	a3, a1, 204
    3bd1:	09a392        	movi	a9, 0x309
    3bd4:	1ad682        	addmi	a8, a6, 0x1a00
    3bd7:	fda2f2        	movi	a15, 0x2fd
    3bda:	1199c0        	slli	a9, a9, 4
    3bdd:	e8a8           	l32i.n	a10, a8, 56
    3bdf:	118fd0        	slli	a8, a15, 3
    3be2:	4123d2        	l32i	a13, a3, 0x104
    3be5:	b69a           	add.n	a11, a6, a9
    3be7:	c68a           	add.n	a12, a6, a8
    3be9:	f18a61        	l32r	a6, 214 (32f8 <biquad_2cascade_24bitTx>)
    3bec:	ae0c           	movi.n	a14, 10
    3bee:	0006e0        	callx8	a6
    3bf1:	0768           	l32i.n	a6, a7, 0
    3bf3:	c9a7f2        	movi	a15, 0x7c9
    3bf6:	2222d2        	l32i	a13, a2, 136
    3bf9:	1ad692        	addmi	a9, a6, 0x1a00
    3bfc:	112fd0        	slli	a2, a15, 3
    3bff:	1225e2        	l32i	a14, a5, 72
    3c02:	1329a2        	l32i	a10, a9, 76
    3c05:	e9c8           	l32i.n	a12, a9, 56
    3c07:	b62a           	add.n	a11, a6, a2
    3c09:	0004e0        	callx8	a4
    3c0c:	0768           	l32i.n	a6, a7, 0
    3c0e:	422382        	l32i	a8, a3, 0x108
    3c11:	520c           	movi.n	a2, 5
    3c13:	1ad662        	addmi	a6, a6, 0x1a00
    3c16:	e698           	l32i.n	a9, a6, 56
    3c18:	fcc862        	addi	a6, a8, -4
    3c1b:	207330        	or	a7, a3, a3
    3c1e:	f8c982        	addi	a8, a9, -8
    3c21:	088276        	loop	a2, 3c2d <Voice_WB_TX_Prcs+0x549>
    3c24:	5c8814        	ae_lp24x2f.iu	aep0, a8, 8
    3c27:	090184        	ae_roundsp16asym	aep0, aep0
    3c2a:	468614        	ae_sp16x2f.iu	aep0, a6, 4

00003c2d <Voice_WB_TX_Prcs+0x549>:
    3c2d:	232132        	l32i	a3, a1, 140
    3c30:	532122        	l32i	a2, a1, 0x14c
    3c33:	5121b2        	l32i	a11, a1, 0x144
    3c36:	f17841        	l32r	a4, 218 (2798 <subband_aec_block>)
    3c39:	ac0c           	movi.n	a12, 10
    3c3b:	1e0c           	movi.n	a14, 1
    3c3d:	03ad           	mov.n	a10, a3
    3c3f:	02dd           	mov.n	a13, a2
    3c41:	0004e0        	callx8	a4
    3c44:	4f21b2        	l32i	a11, a1, 0x13c
    3c47:	ac0c           	movi.n	a12, 10
    3c49:	3e0c           	movi.n	a14, 3
    3c4b:	03ad           	mov.n	a10, a3
    3c4d:	02dd           	mov.n	a13, a2
    3c4f:	0004e0        	callx8	a4
    3c52:	4e21b2        	l32i	a11, a1, 0x138
    3c55:	4c1c           	movi.n	a12, 20
    3c57:	4e0c           	movi.n	a14, 4
    3c59:	03ad           	mov.n	a10, a3
    3c5b:	02dd           	mov.n	a13, a2
    3c5d:	0004e0        	callx8	a4
    3c60:	5021b2        	l32i	a11, a1, 0x140
    3c63:	f16e41        	l32r	a4, 21c (29d4 <subband_aec_mid_channel>)
    3c66:	2d0c           	movi.n	a13, 2
    3c68:	03ad           	mov.n	a10, a3
    3c6a:	02cd           	mov.n	a12, a2
    3c6c:	0004e0        	callx8	a4
    3c6f:	352142        	l32i	a4, a1, 212
    3c72:	342162        	l32i	a6, a1, 208
    3c75:	4327a2        	l32i	a10, a7, 0x10c
    3c78:	2324b2        	l32i	a11, a4, 140
    3c7b:	3326c2        	l32i	a12, a6, 204
    3c7e:	1325d2        	l32i	a13, a5, 76
    3c81:	f16761        	l32r	a6, 220 (3398 <gain_after_ec>)
    3c84:	0e0c           	movi.n	a14, 0
    3c86:	0006e0        	callx8	a6
    3c89:	059d           	mov.n	a9, a5
    3c8b:	075d           	mov.n	a5, a7
    3c8d:	f10271        	l32r	a7, 98 (c3d4 <p_ecnr_mem>)
    3c90:	d9a7a2        	movi	a10, 0x7d9
    3c93:	11bad0        	slli	a11, a10, 3
    3c96:	0768           	l32i.n	a6, a7, 0
    3c98:	4325a2        	l32i	a10, a5, 0x10c
    3c9b:	1329c2        	l32i	a12, a9, 76
    3c9e:	1ad682        	addmi	a8, a6, 0x1a00
    3ca1:	161882        	l16ui	a8, a8, 44
    3ca4:	1ad6e2        	addmi	a14, a6, 0x1a00
    3ca7:	d6ba           	add.n	a13, a6, a11
    3ca9:	022826        	beqi	a8, 2, 3caf <Voice_WB_TX_Prcs+0x5cb>
    3cac:	006786        	j	3e4e <Voice_WB_TX_Prcs+0x76a>
    3caf:	09a642        	movi	a4, 0x609
    3cb2:	172152        	l32i	a5, a1, 92
    3cb5:	83a182        	movi	a8, 0x183
    3cb8:	1144e0        	slli	a4, a4, 2
    3cbb:	1188c0        	slli	a8, a8, 4
    3cbe:	c64a           	add.n	a12, a6, a4
    3cc0:	f15241        	l32r	a4, 208 (313c <emph_filter_N>)
    3cc3:	b68a           	add.n	a11, a6, a8
    3cc5:	8d2c           	movi.n	a13, 40
    3cc7:	05ad           	mov.n	a10, a5
    3cc9:	0004e0        	callx8	a4
    3ccc:	0768           	l32i.n	a6, a7, 0
    3cce:	03a342        	movi	a4, 0x303
    3cd1:	1144c0        	slli	a4, a4, 4
    3cd4:	1ad682        	addmi	a8, a6, 0x1a00
    3cd7:	d64a           	add.n	a13, a6, a4
    3cd9:	1128a2        	l32i	a10, a8, 68
    3cdc:	1228b2        	l32i	a11, a8, 72
    3cdf:	4721e2        	l32i	a14, a1, 0x11c
    3ce2:	f14a41        	l32r	a4, 20c (2fd0 <tx_downsample_by2>)
    3ce5:	05cd           	mov.n	a12, a5
    3ce7:	0004e0        	callx8	a4
    3cea:	0768           	l32i.n	a6, a7, 0
    3cec:	d1a742        	movi	a4, 0x7d1
    3cef:	1144d0        	slli	a4, a4, 3
    3cf2:	39d6e2        	addmi	a14, a6, 0x3900
    3cf5:	1ad692        	addmi	a9, a6, 0x1a00
    3cf8:	112ed2        	l32i	a13, a14, 68
    3cfb:	b64a           	add.n	a11, a6, a4
    3cfd:	1129a2        	l32i	a10, a9, 68
    3d00:	e9c8           	l32i.n	a12, a9, 56
    3d02:	312ee2        	l32i	a14, a14, 196
    3d05:	f14241        	l32r	a4, 210 (31c8 <analy_3band>)
    3d08:	0004e0        	callx8	a4
    3d0b:	0768           	l32i.n	a6, a7, 0
    3d0d:	15a642        	movi	a4, 0x615
    3d10:	1144d0        	slli	a4, a4, 3
    3d13:	fda2f2        	movi	a15, 0x2fd
    3d16:	1ad682        	addmi	a8, a6, 0x1a00
    3d19:	b64a           	add.n	a11, a6, a4
    3d1b:	39d692        	addmi	a9, a6, 0x3900
    3d1e:	114fd0        	slli	a4, a15, 3
    3d21:	c64a           	add.n	a12, a6, a4
    3d23:	e8a8           	l32i.n	a10, a8, 56
    3d25:	19d8           	l32i.n	a13, a9, 4
    3d27:	f13b41        	l32r	a4, 214 (32f8 <biquad_2cascade_24bitTx>)
    3d2a:	ae0c           	movi.n	a14, 10
    3d2c:	0004e0        	callx8	a4
    3d2f:	4b21b2        	l32i	a11, a1, 0x12c
    3d32:	f13941        	l32r	a4, 218 (2798 <subband_aec_block>)
    3d35:	ac0c           	movi.n	a12, 10
    3d37:	1e0c           	movi.n	a14, 1
    3d39:	03ad           	mov.n	a10, a3
    3d3b:	02dd           	mov.n	a13, a2
    3d3d:	0004e0        	callx8	a4
    3d40:	4a21b2        	l32i	a11, a1, 0x128
    3d43:	ac0c           	movi.n	a12, 10
    3d45:	3e0c           	movi.n	a14, 3
    3d47:	03ad           	mov.n	a10, a3
    3d49:	02dd           	mov.n	a13, a2
    3d4b:	0004e0        	callx8	a4
    3d4e:	4921b2        	l32i	a11, a1, 0x124
    3d51:	4c1c           	movi.n	a12, 20
    3d53:	4e0c           	movi.n	a14, 4
    3d55:	03ad           	mov.n	a10, a3
    3d57:	02dd           	mov.n	a13, a2
    3d59:	0004e0        	callx8	a4
    3d5c:	02cd           	mov.n	a12, a2
    3d5e:	4821b2        	l32i	a11, a1, 0x120
    3d61:	f12e21        	l32r	a2, 21c (29d4 <subband_aec_mid_channel>)
    3d64:	2d0c           	movi.n	a13, 2
    3d66:	03ad           	mov.n	a10, a3
    3d68:	0002e0        	callx8	a2
    3d6b:	462122        	l32i	a2, a1, 0x118
    3d6e:	452132        	l32i	a3, a1, 0x114
    3d71:	442142        	l32i	a4, a1, 0x110
    3d74:	192152        	l32i	a5, a1, 100
    3d77:	32a8           	l32i.n	a10, a2, 12
    3d79:	1323b2        	l32i	a11, a3, 76
    3d7c:	2324c2        	l32i	a12, a4, 140
    3d7f:	3325d2        	l32i	a13, a5, 204
    3d82:	f12761        	l32r	a6, 220 (3398 <gain_after_ec>)
    3d85:	1e0c           	movi.n	a14, 1
    3d87:	0006e0        	callx8	a6
    3d8a:	0768           	l32i.n	a6, a7, 0
    3d8c:	d9a7f2        	movi	a15, 0x7d9
    3d8f:	32a8           	l32i.n	a10, a2, 12
    3d91:	1ad682        	addmi	a8, a6, 0x1a00
    3d94:	370882        	l8ui	a8, a8, 55
    3d97:	1ad692        	addmi	a9, a6, 0x1a00
    3d9a:	112fd0        	slli	a2, a15, 3
    3d9d:	026867        	bbci	a8, 6, 3da3 <Voice_WB_TX_Prcs+0x6bf>
    3da0:	004406        	j	3eb4 <Voice_WB_TX_Prcs+0x7d0>
    3da3:	2c2132        	l32i	a3, a1, 176
    3da6:	f12121        	l32r	a2, 22c (4ab8 <prelim_filter>)
    3da9:	40c1b2        	addi	a11, a1, 64
    3dac:	1cc1c2        	addi	a12, a1, 28
    3daf:	03ad           	mov.n	a10, a3
    3db1:	0002e0        	callx8	a2
    3db4:	4221b2        	l32i	a11, a1, 0x108
    3db7:	4021d2        	l32i	a13, a1, 0x100
    3dba:	f11d21        	l32r	a2, 230 (4d3c <prelim_filter3>)
    3dbd:	3c0c           	movi.n	a12, 3
    3dbf:	03ad           	mov.n	a10, a3
    3dc1:	0002e0        	callx8	a2
    3dc4:	4121b2        	l32i	a11, a1, 0x104
    3dc7:	3f21d2        	l32i	a13, a1, 252
    3dca:	4c0c           	movi.n	a12, 4
    3dcc:	03ad           	mov.n	a10, a3
    3dce:	0002e0        	callx8	a2
    3dd1:	3e2122        	l32i	a2, a1, 248
    3dd4:	102182        	l32i	a8, a1, 64
    3dd7:	122192        	l32i	a9, a1, 72
    3dda:	3e1262        	l16ui	a6, a2, 124
    3ddd:	142152        	l32i	a5, a1, 80
    3de0:	3d2172        	l32i	a7, a1, 244
    3de3:	3c21b2        	l32i	a11, a1, 240
    3de6:	360834        	ae_cvtq48a32s	aeq0, a8
    3de9:	300664        	ae_cvtp24a16x2.ll	aep0, a6, a6
    3dec:	10003ec97f 	{ ae_cvtq48a32s	aeq1, a9; ae_mulzaafq32sp16s.ll	aeq0, aeq0, aep0, aeq0, aep0 }
    3df1:	1001fec5bf 	{ ae_cvtq48a32s	aeq2, a5; ae_mulzaafq32sp16s.ll	aeq1, aeq1, aep0, aeq1, aep0 }
    3df6:	13026247ae 	{ l16si	a10, a7, 72; ae_mulzaafq32sp16s.ll	aeq3, aeq2, aep0, aeq2, aep0 }
    3dfb:	f863e1ebce 	{ l16si	a12, a11, 60; ae_roundsp16q48asym	aep1, aeq0 }
    3e00:	fb6bbf1d5f 	{ ae_cvta32p24.l	a13, aep1; ae_roundsp16q48asym	aep6, aeq1 }
    3e05:	fb7bff6e5f 	{ ae_cvta32p24.l	a14, aep6; ae_roundsp16q48asym	aep7, aeq3 }
    3e0a:	007fd4        	ae_cvta32p24.l	a15, aep7
    3e0d:	1061d2        	s32i	a13, a1, 64
    3e10:	1261e2        	s32i	a14, a1, 72
    3e13:	1461f2        	s32i	a15, a1, 80
    3e16:	022ac7        	blt	a10, a12, 3e1c <Voice_WB_TX_Prcs+0x738>
    3e19:	003546        	j	3ef2 <Voice_WB_TX_Prcs+0x80e>
    3e1c:	40c162        	addi	a6, a1, 64
    3e1f:	3821b2        	l32i	a11, a1, 224
    3e22:	f10441        	l32r	a4, 234 (5008 <cali_power>)
    3e25:	03ad           	mov.n	a10, a3
    3e27:	06cd           	mov.n	a12, a6
    3e29:	0004e0        	callx8	a4
    3e2c:	f10341        	l32r	a4, 238 (4e84 <cali_module_short>)
    3e2f:	03ad           	mov.n	a10, a3
    3e31:	06bd           	mov.n	a11, a6
    3e33:	0004e0        	callx8	a4
    3e36:	202152        	l32i	a5, a1, 128
    3e39:	212142        	l32i	a4, a1, 132
    3e3c:	2b21f2        	l32i	a15, a1, 172
    3e3f:	7b15a2        	l16ui	a10, a5, 246
    3e42:	7c1592        	l16ui	a9, a5, 248
    3e45:	791482        	l16ui	a8, a4, 242
    3e48:	7d1f62        	l16ui	a6, a15, 250
    3e4b:	0030c6        	j	3f12 <Voice_WB_TX_Prcs+0x82e>

00003e4e <Voice_WB_TX_Prcs+0x76a>:
    3e4e:	2324b2        	l32i	a11, a4, 140
    3e51:	162ee2        	l32i	a14, a14, 88
    3e54:	f0f421        	l32r	a2, 224 (326c <synth_3band>)
    3e57:	0002e0        	callx8	a2
    3e5a:	4c2122        	l32i	a2, a1, 0x130
    3e5d:	1d2172        	l32i	a7, a1, 116
    3e60:	f08e31        	l32r	a3, 98 (c3d4 <p_ecnr_mem>)
    3e63:	f20262        	l8ui	a6, a2, 242
    3e66:	4325b2        	l32i	a11, a5, 0x10c
    3e69:	f09121        	l32r	a2, b0 (9a58 <xt_memcpy>)
    3e6c:	0e6617        	bbci	a6, 1, 3e7e <Voice_WB_TX_Prcs+0x79a>
    3e6f:	0368           	l32i.n	a6, a3, 0
    3e71:	ac0c           	movi.n	a12, 10
    3e73:	1ad662        	addmi	a6, a6, 0x1a00
    3e76:	1a2662        	l32i	a6, a6, 104
    3e79:	a67a           	add.n	a10, a6, a7
    3e7b:	0002e0        	callx8	a2
    3e7e:	f08661        	l32r	a6, 98 (c3d4 <p_ecnr_mem>)
    3e81:	342122        	l32i	a2, a1, 208
    3e84:	252132        	l32i	a3, a1, 148
    3e87:	0668           	l32i.n	a6, a6, 0
    3e89:	05a3f2        	movi	a15, 0x305
    3e8c:	3322b2        	l32i	a11, a2, 204
    3e8f:	1ad682        	addmi	a8, a6, 0x1a00
    3e92:	112fc0        	slli	a2, a15, 4
    3e95:	d62a           	add.n	a13, a6, a2
    3e97:	1628a2        	l32i	a10, a8, 88
    3e9a:	2921e2        	l32i	a14, a1, 164
    3e9d:	f0e221        	l32r	a2, 228 (3088 <tx_upsample_by2>)
    3ea0:	03cd           	mov.n	a12, a3
    3ea2:	0002e0        	callx8	a2
    3ea5:	172152        	l32i	a5, a1, 92
    3ea8:	242162        	l32i	a6, a1, 144
    3eab:	1f2122        	l32i	a2, a1, 124
    3eae:	1e2142        	l32i	a4, a1, 120
    3eb1:	ff1746        	j	3b12 <Voice_WB_TX_Prcs+0x42e>

00003eb4 <Voice_WB_TX_Prcs+0x7d0>:
    3eb4:	d62a           	add.n	a13, a6, a2
    3eb6:	1323b2        	l32i	a11, a3, 76
    3eb9:	3325c2        	l32i	a12, a5, 204
    3ebc:	1629e2        	l32i	a14, a9, 88
    3ebf:	f0d921        	l32r	a2, 224 (326c <synth_3band>)
    3ec2:	0002e0        	callx8	a2
    3ec5:	0768           	l32i.n	a6, a7, 0
    3ec7:	05a322        	movi	a2, 0x305
    3eca:	252132        	l32i	a3, a1, 148
    3ecd:	1ad682        	addmi	a8, a6, 0x1a00
    3ed0:	1122c0        	slli	a2, a2, 4
    3ed3:	d62a           	add.n	a13, a6, a2
    3ed5:	2324b2        	l32i	a11, a4, 140
    3ed8:	1628a2        	l32i	a10, a8, 88
    3edb:	2921e2        	l32i	a14, a1, 164
    3ede:	f0d221        	l32r	a2, 228 (3088 <tx_upsample_by2>)
    3ee1:	03cd           	mov.n	a12, a3
    3ee3:	0002e0        	callx8	a2
    3ee6:	242162        	l32i	a6, a1, 144
    3ee9:	1f2122        	l32i	a2, a1, 124
    3eec:	1e2142        	l32i	a4, a1, 120
    3eef:	ff0646        	j	3b0c <Voice_WB_TX_Prcs+0x428>

00003ef2 <Voice_WB_TX_Prcs+0x80e>:
    3ef2:	212142        	l32i	a4, a1, 132
    3ef5:	2b21f2        	l32i	a15, a1, 172
    3ef8:	202152        	l32i	a5, a1, 128
    3efb:	d87c           	movi.n	a8, -3
    3efd:	060c           	movi.n	a6, 0
    3eff:	f48080        	extui	a8, a8, 0, 16
    3f02:	795482        	s16i	a8, a4, 242
    3f05:	090c           	movi.n	a9, 0
    3f07:	0a0c           	movi.n	a10, 0
    3f09:	7d5f62        	s16i	a6, a15, 250
    3f0c:	7b5562        	s16i	a6, a5, 246
    3f0f:	7c5562        	s16i	a6, a5, 248
    3f12:	3b2172        	l32i	a7, a1, 236
    3f15:	862d           	ae_sext16	a2, a6
    3f17:	436122        	s32i	a2, a1, 0x10c
    3f1a:	6017b2        	l16ui	a11, a7, 192
    3f1d:	022c           	movi.n	a2, 32
    3f1f:	8aad           	ae_sext16	a10, a10
    3f21:	637b20        	minu	a7, a11, a2
    3f24:	c0b270        	sub	a11, a2, a7
    3f27:	899d           	ae_sext16	a9, a9
    3f29:	88dd           	ae_sext16	a13, a8
    3f2b:	192142        	l32i	a4, a1, 100
    3f2e:	829b90        	mull	a9, a11, a9
    3f31:	8287a0        	mull	a8, a7, a10
    3f34:	1a21e2        	l32i	a14, a1, 104
    3f37:	f98a           	add.n	a15, a9, a8
    3f39:	10cf82        	addi	a8, a15, 16
    3f3c:	3424c2        	l32i	a12, a4, 208
    3f3f:	2721b2        	l32i	a11, a1, 156
    3f42:	f0be21        	l32r	a2, 23c (53f4 <beam1_proc>)
    3f45:	7eaa           	add.n	a7, a14, a10
    3f47:	2d61f2        	s32i	a15, a1, 180
    3f4a:	418580        	srli	a8, a8, 5
    3f4d:	0e0c           	movi.n	a14, 0
    3f4f:	1f0c           	movi.n	a15, 1
    3f51:	03ad           	mov.n	a10, a3
    3f53:	1a6172        	s32i	a7, a1, 104
    3f56:	7c5582        	s16i	a8, a5, 248
    3f59:	2e61d2        	s32i	a13, a1, 184
    3f5c:	0002e0        	callx8	a2
    3f5f:	282172        	l32i	a7, a1, 160
    3f62:	7b95d2        	l16si	a13, a5, 246
    3f65:	3221b2        	l32i	a11, a1, 200
    3f68:	1e27c2        	l32i	a12, a7, 120
    3f6b:	0e0c           	movi.n	a14, 0
    3f6d:	0f0c           	movi.n	a15, 0
    3f6f:	03ad           	mov.n	a10, a3
    3f71:	0002e0        	callx8	a2
    3f74:	222162        	l32i	a6, a1, 136
    3f77:	312142        	l32i	a4, a1, 196
    3f7a:	7c95d2        	l16si	a13, a5, 248
    3f7d:	66c8           	l32i.n	a12, a6, 24
    3f7f:	0e0c           	movi.n	a14, 0
    3f81:	0f0c           	movi.n	a15, 0
    3f83:	03ad           	mov.n	a10, a3
    3f85:	04bd           	mov.n	a11, a4
    3f87:	0002e0        	callx8	a2
    3f8a:	66c8           	l32i.n	a12, a6, 24
    3f8c:	7c95d2        	l16si	a13, a5, 248
    3f8f:	ae0c           	movi.n	a14, 10
    3f91:	0f0c           	movi.n	a15, 0
    3f93:	03ad           	mov.n	a10, a3
    3f95:	04bd           	mov.n	a11, a4
    3f97:	0002e0        	callx8	a2
    3f9a:	1d2782        	l32i	a8, a7, 116
    3f9d:	302142        	l32i	a4, a1, 192
    3fa0:	520c           	movi.n	a2, 5
    3fa2:	fcc882        	addi	a8, a8, -4
    3fa5:	181492        	l16ui	a9, a4, 48
    3fa8:	300994        	ae_cvtp24a16x2.ll	aep0, a9, a9
    3fab:	449814        	ae_lp16x2f.iu	aep1, a8, 4
    3fae:	178276        	loop	a2, 3fc9 <Voice_WB_TX_Prcs+0x8e5>
    3fb1:	011054        	ae_mulfp24s.hl	aeq0, aep1, aep0
    3fb4:	ea05ed981f 	{ ae_lp16x2f.iu	aep1, a8, 4; ae_mulfp24s.ll	aeq1, aep1, aep0 }
    3fb9:	350094        	ae_slliq56	aeq0, aeq0, 2
    3fbc:	f963ba906f 	{ ae_slliq56	aeq1, aeq1, 2; ae_roundsp16q48asym	aep2, aeq0 }
    3fc1:	f96bf228ef 	{ ae_sp16f.l.i	aep2, a8, -4; ae_roundsp16q48asym	aep3, aeq1 }
    3fc6:	4238f4        	ae_sp16f.l.i	aep3, a8, -2

00003fc9 <Voice_WB_TX_Prcs+0x8e5>:
    3fc9:	222142        	l32i	a4, a1, 136
    3fcc:	3021e2        	l32i	a14, a1, 192
    3fcf:	1c2152        	l32i	a5, a1, 112
    3fd2:	5468           	l32i.n	a6, a4, 20
    3fd4:	432122        	l32i	a2, a1, 0x10c
    3fd7:	1e2142        	l32i	a4, a1, 120
    3fda:	fcc662        	addi	a6, a6, -4
    3fdd:	191e82        	l16ui	a8, a14, 50
    3fe0:	af0c           	movi.n	a15, 10
    3fe2:	552a           	add.n	a5, a5, a2
    3fe4:	300884        	ae_cvtp24a16x2.ll	aep0, a8, a8
    3fe7:	449614        	ae_lp16x2f.iu	aep1, a6, 4
    3fea:	178f76        	loop	a15, 4005 <Voice_WB_TX_Prcs+0x921>
    3fed:	011054        	ae_mulfp24s.hl	aeq0, aep1, aep0
    3ff0:	ea05ed961f 	{ ae_lp16x2f.iu	aep1, a6, 4; ae_mulfp24s.ll	aeq1, aep1, aep0 }
    3ff5:	350094        	ae_slliq56	aeq0, aeq0, 2
    3ff8:	f963ba906f 	{ ae_slliq56	aeq1, aeq1, 2; ae_roundsp16q48asym	aep2, aeq0 }
    3ffd:	f96bf226ef 	{ ae_sp16f.l.i	aep2, a6, -4; ae_roundsp16q48asym	aep3, aeq1 }
    4002:	4236f4        	ae_sp16f.l.i	aep3, a6, -2
    4005:	f02471        	l32r	a7, 98 (c3d4 <p_ecnr_mem>)
    4008:	1c6152        	s32i	a5, a1, 112
    400b:	192152        	l32i	a5, a1, 100
    400e:	0768           	l32i.n	a6, a7, 0
    4010:	f02821        	l32r	a2, b0 (9a58 <xt_memcpy>)
    4013:	ac0c           	movi.n	a12, 10
    4015:	1ad682        	addmi	a8, a6, 0x1a00
    4018:	1b2882        	l32i	a8, a8, 108
    401b:	2121d2        	l32i	a13, a1, 132
    401e:	192192        	l32i	a9, a1, 100
    4021:	06d882        	addmi	a8, a8, 0x600
    4024:	1e1882        	l16ui	a8, a8, 60
    4027:	1ad662        	addmi	a6, a6, 0x1a00
    402a:	1e0c           	movi.n	a14, 1
    402c:	96a816        	beqz	a8, 399a <Voice_WB_TX_Prcs+0x2b6>
    402f:	3725a2        	l32i	a10, a5, 220
    4032:	3425b2        	l32i	a11, a5, 208
    4035:	0002e0        	callx8	a2
    4038:	212122        	l32i	a2, a1, 132
    403b:	0768           	l32i.n	a6, a7, 0
    403d:	3425c2        	l32i	a12, a5, 208
    4040:	7992d2        	l16si	a13, a2, 242
    4043:	272122        	l32i	a2, a1, 156
    4046:	1ad662        	addmi	a6, a6, 0x1a00
    4049:	0e91f2        	l16si	a15, a1, 28
    404c:	1b0c           	movi.n	a11, 1
    404e:	0e0c           	movi.n	a14, 0
    4050:	f07c51        	l32r	a5, 240 (5568 <beam2_proc>)
    4053:	189662        	l16si	a6, a6, 48
    4056:	21b9           	s32i.n	a11, a1, 8
    4058:	11e9           	s32i.n	a14, a1, 4
    405a:	8e1c           	movi.n	a14, 24
    405c:	03ad           	mov.n	a10, a3
    405e:	02bd           	mov.n	a11, a2
    4060:	0169           	s32i.n	a6, a1, 0
    4062:	0005e0        	callx8	a5
    4065:	0768           	l32i.n	a6, a7, 0
    4067:	02ad           	mov.n	a10, a2
    4069:	f07621        	l32r	a2, 244 (2d38 <main_err_alpha>)
    406c:	1ad662        	addmi	a6, a6, 0x1a00
    406f:	1b2662        	l32i	a6, a6, 108
    4072:	070c           	movi.n	a7, 0
    4074:	06d662        	addmi	a6, a6, 0x600
    4077:	1d96b2        	l16si	a11, a6, 58
    407a:	056d           	mov.n	a6, a5
    407c:	0002e0        	callx8	a2
    407f:	fe4e06        	j	39bb <Voice_WB_TX_Prcs+0x2d7>

00004082 <Voice_WB_TX_Prcs+0x99e>:
	...

00004083 <Voice_WB_TX_Prcs+0x99f>:
    4083:	8138           	l32i.n	a3, a1, 32
    4085:	120c           	movi.n	a2, 1
    4087:	ffa262        	movi	a6, 0x2ff
    408a:	112220        	slli	a2, a2, 14
    408d:	1166c0        	slli	a6, a6, 4
    4090:	1f2237        	blt	a2, a3, 40b3 <Voice_WB_TX_Prcs+0x9cf>
    4093:	f00131        	l32r	a3, 98 (c3d4 <p_ecnr_mem>)
    4096:	eca0f2        	movi	a15, 236
    4099:	850c           	movi.n	a5, 8
    409b:	0348           	l32i.n	a4, a3, 0
    409d:	2fdf32        	addmi	a3, a15, 0x2f00
    40a0:	343a           	add.n	a3, a4, a3
    40a2:	603644        	ae_lq32f.xu	aeq0, a6, a4
    40a5:	0a8576        	loop	a5, 40b3 <Voice_WB_TX_Prcs+0x9cf>
    40a8:	350074        	ae_sraiq56	aeq0, aeq0, 1
    40ab:	f867bd161f 	{ ae_lq32f.iu	aeq0, a6, 4; ae_roundsp24q48asym	aep0, aeq0 }
    40b0:	528314        	ae_sp24f.l.iu	aep0, a3, 4

000040b3 <Voice_WB_TX_Prcs+0x9cf>:
    40b3:	b138           	l32i.n	a3, a1, 44
    40b5:	2a2172        	l32i	a7, a1, 168
    40b8:	2321a2        	l32i	a10, a1, 140
    40bb:	01a362        	movi	a6, 0x301
    40be:	1166c0        	slli	a6, a6, 4
    40c1:	272237        	blt	a2, a3, 40ec <Voice_WB_TX_Prcs+0xa08>
    40c4:	eff531        	l32r	a3, 98 (c3d4 <p_ecnr_mem>)
    40c7:	262182        	l32i	a8, a1, 152
    40ca:	cf4c           	movi.n	a15, 76
    40cc:	0348           	l32i.n	a4, a3, 0
    40ce:	30df32        	addmi	a3, a15, 0x3000
    40d1:	850c           	movi.n	a5, 8
    40d3:	603844        	ae_lq32f.xu	aeq0, a8, a4
    40d6:	266182        	s32i	a8, a1, 152
    40d9:	343a           	add.n	a3, a4, a3
    40db:	262142        	l32i	a4, a1, 152
    40de:	0a8576        	loop	a5, 40ec <Voice_WB_TX_Prcs+0xa08>
    40e1:	350074        	ae_sraiq56	aeq0, aeq0, 1
    40e4:	f867bd141f 	{ ae_lq32f.iu	aeq0, a4, 4; ae_roundsp24q48asym	aep0, aeq0 }
    40e9:	528314        	ae_sp24f.l.iu	aep0, a3, 4
    40ec:	efeb31        	l32r	a3, 98 (c3d4 <p_ecnr_mem>)
    40ef:	a148           	l32i.n	a4, a1, 40
    40f1:	c50c           	movi.n	a5, 12
    40f3:	0338           	l32i.n	a3, a3, 0
    40f5:	172247        	blt	a2, a4, 4110 <Voice_WB_TX_Prcs+0xa2c>
    40f8:	30d542        	addmi	a4, a5, 0x3000
    40fb:	850c           	movi.n	a5, 8
    40fd:	603634        	ae_lq32f.xu	aeq0, a6, a3
    4100:	434a           	add.n	a4, a3, a4
    4102:	0a8576        	loop	a5, 4110 <Voice_WB_TX_Prcs+0xa2c>
    4105:	350074        	ae_sraiq56	aeq0, aeq0, 1
    4108:	f867bd161f 	{ ae_lq32f.iu	aeq0, a6, 4; ae_roundsp24q48asym	aep0, aeq0 }
    410d:	528414        	ae_sp24f.l.iu	aep0, a4, 4
    4110:	1ad342        	addmi	a4, a3, 0x1a00
    4113:	161442        	l16ui	a4, a4, 44
    4116:	03a362        	movi	a6, 0x303
    4119:	1166c0        	slli	a6, a6, 4
    411c:	022426        	beqi	a4, 2, 4122 <Voice_WB_TX_Prcs+0xa3e>
    411f:	003346        	j	41f0 <Voice_WB_TX_Prcs+0xb0c>
    4122:	9148           	l32i.n	a4, a1, 36
    4124:	c52c           	movi.n	a5, 44
    4126:	30d582        	addmi	a8, a5, 0x3000
    4129:	162247        	blt	a2, a4, 4143 <Voice_WB_TX_Prcs+0xa5f>
    412c:	08a052        	movi	a5, 8
    412f:	603634        	ae_lq32f.xu	aeq0, a6, a3
    4132:	804380        	add	a4, a3, a8
    4135:	0a8576        	loop	a5, 4143 <Voice_WB_TX_Prcs+0xa5f>
    4138:	350074        	ae_sraiq56	aeq0, aeq0, 1
    413b:	f867bd161f 	{ ae_lq32f.iu	aeq0, a6, 4; ae_roundsp24q48asym	aep0, aeq0 }
    4140:	528414        	ae_sp24f.l.iu	aep0, a4, 4
    4143:	c148           	l32i.n	a4, a1, 48
    4145:	07a352        	movi	a5, 0x307
    4148:	1155c0        	slli	a5, a5, 4
    414b:	1c2247        	blt	a2, a4, 416b <Voice_WB_TX_Prcs+0xa87>
    414e:	6ca022        	movi	a2, 108
    4151:	30d222        	addmi	a2, a2, 0x3000
    4154:	08a042        	movi	a4, 8
    4157:	603534        	ae_lq32f.xu	aeq0, a5, a3
    415a:	802320        	add	a2, a3, a2
    415d:	0a8476        	loop	a4, 416b <Voice_WB_TX_Prcs+0xa87>
    4160:	350074        	ae_sraiq56	aeq0, aeq0, 1
    4163:	f867bd151f 	{ ae_lq32f.iu	aeq0, a5, 4; ae_roundsp24q48asym	aep0, aeq0 }
    4168:	528214        	ae_sp24f.l.iu	aep0, a2, 4
    416b:	162142        	l32i	a4, a1, 88
    416e:	1b21f2        	l32i	a15, a1, 108
    4171:	37d422        	addmi	a2, a4, 0x3700
    4174:	1b9222        	l16si	a2, a2, 54
    4177:	38d452        	addmi	a5, a4, 0x3800
    417a:	162162        	l32i	a6, a1, 88
    417d:	220b           	addi.n	a2, a2, -1
    417f:	923d           	ae_zext16	a3, a2
    4181:	10cf22        	addi	a2, a15, 16
    4184:	4b23f6        	bgeui	a3, 2, 41d3 <Voice_WB_TX_Prcs+0xaef>
    4187:	253d           	ae_l16si.n	a3, a5, 0
    4189:	362182        	l32i	a8, a1, 216
    418c:	150c           	movi.n	a5, 1
    418e:	4123a6        	blti	a3, 2, 41d3 <Voice_WB_TX_Prcs+0xaef>
    4191:	38d642        	addmi	a4, a6, 0x3800
    4194:	569832        	l16si	a3, a8, 172
    4197:	619442        	l16si	a4, a4, 194
    419a:	115510        	slli	a5, a5, 15
    419d:	1c0c           	movi.n	a12, 1
    419f:	d13430        	mul16s	a3, a4, a3
    41a2:	1821d2        	l32i	a13, a1, 96
    41a5:	1a21e2        	l32i	a14, a1, 104
    41a8:	535a           	add.n	a5, a3, a5
    41aa:	906330        	addx2	a6, a3, a3
    41ad:	114c00        	slli	a4, a12, 16
    41b0:	40d332        	addmi	a3, a3, 0x4000
    41b3:	1c21f2        	l32i	a15, a1, 112
    41b6:	464a           	add.n	a4, a6, a4
    41b8:	213f30        	srai	a3, a3, 15
    41bb:	315050        	srai	a5, a5, 16
    41be:	63da           	add.n	a6, a3, a13
    41c0:	35ea           	add.n	a3, a5, a14
    41c2:	314140        	srai	a4, a4, 17
    41c5:	1a6132        	s32i	a3, a1, 104
    41c8:	34fa           	add.n	a3, a4, a15
    41ca:	162142        	l32i	a4, a1, 88
    41cd:	186162        	s32i	a6, a1, 96
    41d0:	1c6132        	s32i	a3, a1, 112

000041d3 <Voice_WB_TX_Prcs+0xaef>:
    41d3:	212520        	srai	a2, a2, 5
    41d6:	1b6122        	s32i	a2, a1, 108
    41d9:	f01d21        	l32r	a2, 250 (5298 <mag_calibration>)
    41dc:	2c21a2        	l32i	a10, a1, 176
    41df:	0002e0        	callx8	a2
    41e2:	2321a2        	l32i	a10, a1, 140
    41e5:	37d422        	addmi	a2, a4, 0x3700
    41e8:	030c           	movi.n	a3, 0
    41ea:	1d6232        	s32i	a3, a2, 116
    41ed:	1e6232        	s32i	a3, a2, 120
    41f0:	162162        	l32i	a6, a1, 88
    41f3:	aaa022        	movi	a2, 170
    41f6:	b5a732        	movi	a3, 0x7b5
    41f9:	3cd222        	addmi	a2, a2, 0x3c00
    41fc:	1133d0        	slli	a3, a3, 3
    41ff:	602634        	ae_lq32f.x	aeq0, a6, a3
    4202:	418264        	ae_lp16f.xu	aep0, a2, a6
    4205:	d4e233314e 	{ l32i	a4, a1, 204; ae_mulfq32sp16s.l	aeq0, aeq0, aep0 }
    420a:	620174        	ae_sq32f.i	aeq0, a1, 28
    420d:	3a2442        	l32i	a4, a4, 232
    4210:	7138           	l32i.n	a3, a1, 28
    4212:	53b430        	max	a11, a4, a3
    4215:	f00f31        	l32r	a3, 254 (2c34 <dt_detect>)
    4218:	0003e0        	callx8	a3
    421b:	ef9f31        	l32r	a3, 98 (c3d4 <p_ecnr_mem>)
    421e:	3cd642        	addmi	a4, a6, 0x3c00
    4221:	459442        	l16si	a4, a4, 138
    4224:	0338           	l32i.n	a3, a3, 0
    4226:	aca0e2        	movi	a14, 172
    4229:	eca0f2        	movi	a15, 236
    422c:	1ad352        	addmi	a5, a3, 0x1a00
    422f:	189552        	l16si	a5, a5, 48
    4232:	efa681        	l32r	a8, cc (7fff0000 <_end+0x7ffe3c20>)
    4235:	360834        	ae_cvtq48a32s	aeq0, a8
    4238:	02a457        	bge	a4, a5, 423e <Voice_WB_TX_Prcs+0xb5a>
    423b:	000506        	j	4253 <Voice_WB_TX_Prcs+0xb6f>

0000423e <Voice_WB_TX_Prcs+0xb5a>:
    423e:	400204        	ae_lp16f.i	aep0, a2, 0
    4241:	3dde22        	addmi	a2, a14, 0x3d00
    4244:	602624        	ae_lq32f.x	aeq0, a6, a2
    4247:	030214        	ae_mulfq32sp16s.l	aeq0, aeq0, aep0
    424a:	3cdf22        	addmi	a2, a15, 0x3c00
    424d:	606624        	ae_lq32f.x	aeq1, a6, a2
    4250:	0110c4        	ae_maxq56s	aeq0, aeq0, aeq1
    4253:	f86383cb2f 	{ movi	a2, 0x3cb; ae_roundsp16q48asym	aep0, aeq0 }
    4258:	1122c0        	slli	a2, a2, 4
    425b:	1ad342        	addmi	a4, a3, 0x1a00
    425e:	430624        	ae_sp16f.l.x	aep0, a6, a2
    4261:	161442        	l16ui	a4, a4, 44
    4264:	3fa2f2        	movi	a15, 0x23f
    4267:	112fc0        	slli	a2, a15, 4
    426a:	442466        	bnei	a4, 2, 42b2 <Voice_WB_TX_Prcs+0xbce>
    426d:	1ad342        	addmi	a4, a3, 0x1a00
    4270:	1b2442        	l32i	a4, a4, 108
    4273:	1821c2        	l32i	a12, a1, 96
    4276:	1c2182        	l32i	a8, a1, 112
    4279:	1a21e2        	l32i	a14, a1, 104
    427c:	1b21f2        	l32i	a15, a1, 108
    427f:	38d652        	addmi	a5, a6, 0x3800
    4282:	74cd           	ae_s16i.n	a12, a4, 2
    4284:	025482        	s16i	a8, a4, 4
    4287:	0354e2        	s16i	a14, a4, 6
    428a:	0454f2        	s16i	a15, a4, 8
    428d:	255d           	ae_l16si.n	a5, a5, 0
    428f:	1ad3d2        	addmi	a13, a3, 0x1a00
    4292:	055452        	s16i	a5, a4, 10
    4295:	370d42        	l8ui	a4, a13, 55
    4298:	1ad392        	addmi	a9, a3, 0x1a00
    429b:	f0a0c2        	movi	a12, 240
    429e:	2be467        	bbsi	a4, 6, 42cd <Voice_WB_TX_Prcs+0xbe9>
    42a1:	1ad352        	addmi	a5, a3, 0x1a00
    42a4:	d32a           	add.n	a13, a3, a2
    42a6:	1725a2        	l32i	a10, a5, 92
    42a9:	1825b2        	l32i	a11, a5, 96
    42ac:	efeb31        	l32r	a3, 258 (770c <two_mic_WB_NR_proc>)
    42af:	000486        	j	42c5 <Voice_WB_TX_Prcs+0xbe1>

000042b2 <Voice_WB_TX_Prcs+0xbce>:
    42b2:	ffa052        	movi	a5, 255
    42b5:	1ad342        	addmi	a4, a3, 0x1a00
    42b8:	1155a0        	slli	a5, a5, 6
    42bb:	d32a           	add.n	a13, a3, a2
    42bd:	a35a           	add.n	a10, a3, a5
    42bf:	1824b2        	l32i	a11, a4, 96
    42c2:	efe631        	l32r	a3, 25c (65ec <WB_NR_frame_process>)
    42c5:	07cd           	mov.n	a12, a7
    42c7:	0003e0        	callx8	a3
    42ca:	000286        	j	42d8 <Voice_WB_TX_Prcs+0xbf4>

000042cd <Voice_WB_TX_Prcs+0xbe9>:
    42cd:	1829b2        	l32i	a11, a9, 96
    42d0:	ef7831        	l32r	a3, b0 (9a58 <xt_memcpy>)
    42d3:	07ad           	mov.n	a10, a7
    42d5:	0003e0        	callx8	a3
    42d8:	ef7061        	l32r	a6, 98 (c3d4 <p_ecnr_mem>)
    42db:	1ba642        	movi	a4, 0x61b
    42de:	1144d0        	slli	a4, a4, 3
    42e1:	0638           	l32i.n	a3, a6, 0
    42e3:	efbf51        	l32r	a5, 1e0 (c3d8 <avc_vol>)
    42e6:	a34a           	add.n	a10, a3, a4
    42e8:	b32a           	add.n	a11, a3, a2
    42ea:	efdd31        	l32r	a3, 260 (3564 <AVC_prcs>)
    42ed:	0003e0        	callx8	a3
    42f0:	0638           	l32i.n	a3, a6, 0
    42f2:	65ad           	ae_s16i.n	a10, a5, 0
    42f4:	2321a2        	l32i	a10, a1, 140
    42f7:	c32a           	add.n	a12, a3, a2
    42f9:	efda21        	l32r	a2, 264 (34f8 <aec_post_prcs>)
    42fc:	07bd           	mov.n	a11, a7
    42fe:	0002e0        	callx8	a2
    4301:	0628           	l32i.n	a2, a6, 0
    4303:	05a332        	movi	a3, 0x305
    4306:	83a142        	movi	a4, 0x183
    4309:	1133d0        	slli	a3, a3, 3
    430c:	1144c0        	slli	a4, a4, 4
    430f:	b24a           	add.n	a11, a2, a4
    4311:	c23a           	add.n	a12, a2, a3
    4313:	efd521        	l32r	a2, 268 (3184 <deemph_filter_N>)
    4316:	f0a0d2        	movi	a13, 240
    4319:	07ad           	mov.n	a10, a7
    431b:	0002e0        	callx8	a2
    431e:	0628           	l32i.n	a2, a6, 0
    4320:	372162        	l32i	a6, a1, 220
    4323:	166122        	s32i	a2, a1, 88
    4326:	0005c6        	j	4341 <Voice_WB_TX_Prcs+0xc5d>

00004329 <Voice_WB_TX_Prcs+0xc45>:
    4329:	140c           	movi.n	a4, 1
    432b:	2a2172        	l32i	a7, a1, 168
    432e:	114430        	slli	a4, a4, 13
    4331:	f0a032        	movi	a3, 240
    4334:	654d           	ae_s16i.n	a4, a5, 0
    4336:	078376        	loop	a3, 4341 <Voice_WB_TX_Prcs+0xc5d>
    4339:	223d           	ae_l16si.n	a3, a2, 0
    433b:	673d           	ae_s16i.n	a3, a7, 0
    433d:	222b           	addi.n	a2, a2, 2
    433f:	772b           	addi.n	a7, a7, 2

00004341 <Voice_WB_TX_Prcs+0xc5d>:
    4341:	162142        	l32i	a4, a1, 88
    4344:	3fd422        	addmi	a2, a4, 0x3f00
    4347:	1ad432        	addmi	a3, a4, 0x1a00
    434a:	779222        	l16si	a2, a2, 238
    434d:	161332        	l16ui	a3, a3, 44
    4350:	1ad472        	addmi	a7, a4, 0x1a00
    4353:	f8c222        	addi	a2, a2, -8
    4356:	1122b0        	slli	a2, a2, 5
    4359:	072366        	bnei	a3, 2, 4364 <Voice_WB_TX_Prcs+0xc80>
    435c:	1b2732        	l32i	a3, a7, 108
    435f:	069332        	l16si	a3, a3, 12
    4362:	232a           	add.n	a2, a3, a2

00004364 <Voice_WB_TX_Prcs+0xc80>:
    4364:	3cd432        	addmi	a3, a4, 0x3c00
    4367:	449332        	l16si	a3, a3, 136
    436a:	663d           	ae_s16i.n	a3, a6, 0
    436c:	25fd           	ae_l16si.n	a15, a5, 0
    436e:	762d           	ae_s16i.n	a2, a6, 2
    4370:	0256f2        	s16i	a15, a6, 4
    4373:	f01d           	retw.n

00004375 <Voice_WB_TX_Prcs+0xc91>:
    4375:	000000                                        ...

00004378 <conv_16_to_24_x2>:
    4378:	004136        	entry	a1, 32
    437b:	1014a6        	blti	a4, 1, 438f <conv_16_to_24_x2+0x17>
    437e:	fcc222        	addi	a2, a2, -4
    4381:	f8c332        	addi	a3, a3, -8
    4384:	f03d           	nop.n
    4386:	058476        	loop	a4, 438f <conv_16_to_24_x2+0x17>
    4389:	448214        	ae_lp16x2f.iu	aep0, a2, 4
    438c:	5e8314        	ae_sp24x2f.iu	aep0, a3, 8

0000438f <conv_16_to_24_x2+0x17>:
    438f:	f01d           	retw.n

00004391 <conv_16_to_24_x2+0x19>:
    4391:	000000                                        ...

00004394 <Voice_NB_RX_Prcs>:
    4394:	004136        	entry	a1, 32
    4397:	ef4031        	l32r	a3, 98 (c3d4 <p_ecnr_mem>)
    439a:	03a8           	l32i.n	a10, a3, 0
    439c:	3dda42        	addmi	a4, a10, 0x3d00
    439f:	681442        	l16ui	a4, a4, 208
    43a2:	848c           	beqz.n	a4, 43ae <Voice_NB_RX_Prcs+0x1a>
    43a4:	efb241        	l32r	a4, 26c (6894 <NB_RX_NR_frame_process>)
    43a7:	02ad           	mov.n	a10, a2
    43a9:	0004e0        	callx8	a4
    43ac:	03a8           	l32i.n	a10, a3, 0

000043ae <Voice_NB_RX_Prcs+0x1a>:
    43ae:	5bda32        	addmi	a3, a10, 0x5b00
    43b1:	1ada42        	addmi	a4, a10, 0x1a00
    43b4:	239332        	l16si	a3, a3, 70
    43b7:	195432        	s16i	a3, a4, 50
    43ba:	370432        	l8ui	a3, a4, 55
    43bd:	3ca052        	movi	a5, 60
    43c0:	f8ca42        	addi	a4, a10, -8
    43c3:	256357        	bbci	a3, 5, 43ec <Voice_NB_RX_Prcs+0x58>
    43c6:	fcc232        	addi	a3, a2, -4
    43c9:	058576        	loop	a5, 43d2 <Voice_NB_RX_Prcs+0x3e>
    43cc:	448314        	ae_lp16x2f.iu	aep0, a3, 4
    43cf:	5e8414        	ae_sp24x2f.iu	aep0, a4, 8

000043d2 <Voice_NB_RX_Prcs+0x3e>:
    43d2:	c3a032        	movi	a3, 195
    43d5:	842c           	movi.n	a4, 40
    43d7:	1133a0        	slli	a3, a3, 6
    43da:	70d442        	addmi	a4, a4, 0x7000
    43dd:	ba3a           	add.n	a11, a10, a3
    43df:	ef8d31        	l32r	a3, 214 (32f8 <biquad_2cascade_24bitTx>)
    43e2:	ca4a           	add.n	a12, a10, a4
    43e4:	78a0e2        	movi	a14, 120
    43e7:	02dd           	mov.n	a13, a2
    43e9:	0003e0        	callx8	a3

000043ec <Voice_NB_RX_Prcs+0x58>:
    43ec:	f01d           	retw.n

000043ee <Voice_NB_RX_Prcs+0x5a>:
	...

000043f0 <Voice_WB_RX_Prcs>:
    43f0:	004136        	entry	a1, 32
    43f3:	ef2931        	l32r	a3, 98 (c3d4 <p_ecnr_mem>)
    43f6:	03a8           	l32i.n	a10, a3, 0
    43f8:	3dda42        	addmi	a4, a10, 0x3d00
    43fb:	681442        	l16ui	a4, a4, 208
    43fe:	848c           	beqz.n	a4, 440a <Voice_WB_RX_Prcs+0x1a>
    4400:	ef9c41        	l32r	a4, 270 (6594 <WB_RX_NR_frame_process>)
    4403:	02ad           	mov.n	a10, a2
    4405:	0004e0        	callx8	a4
    4408:	03a8           	l32i.n	a10, a3, 0

0000440a <Voice_WB_RX_Prcs+0x1a>:
    440a:	5bda32        	addmi	a3, a10, 0x5b00
    440d:	1ada42        	addmi	a4, a10, 0x1a00
    4410:	239332        	l16si	a3, a3, 70
    4413:	195432        	s16i	a3, a4, 50
    4416:	370432        	l8ui	a3, a4, 55
    4419:	78a052        	movi	a5, 120
    441c:	f8ca42        	addi	a4, a10, -8
    441f:	256357        	bbci	a3, 5, 4448 <Voice_WB_RX_Prcs+0x58>
    4422:	fcc232        	addi	a3, a2, -4
    4425:	058576        	loop	a5, 442e <Voice_WB_RX_Prcs+0x3e>
    4428:	448314        	ae_lp16x2f.iu	aep0, a3, 4
    442b:	5e8414        	ae_sp24x2f.iu	aep0, a4, 8

0000442e <Voice_WB_RX_Prcs+0x3e>:
    442e:	c3a032        	movi	a3, 195
    4431:	842c           	movi.n	a4, 40
    4433:	1133a0        	slli	a3, a3, 6
    4436:	70d442        	addmi	a4, a4, 0x7000
    4439:	ba3a           	add.n	a11, a10, a3
    443b:	ef7631        	l32r	a3, 214 (32f8 <biquad_2cascade_24bitTx>)
    443e:	ca4a           	add.n	a12, a10, a4
    4440:	f0a0e2        	movi	a14, 240
    4443:	02dd           	mov.n	a13, a2
    4445:	0003e0        	callx8	a3

00004448 <Voice_WB_RX_Prcs+0x58>:
    4448:	f01d           	retw.n

0000444a <Voice_WB_RX_Prcs+0x5a>:
	...

0000444c <EC_REF_GAIN_READBACK>:
    444c:	004136        	entry	a1, 32
    444f:	ef1231        	l32r	a3, 98 (c3d4 <p_ecnr_mem>)
    4452:	040c           	movi.n	a4, 0
    4454:	0338           	l32i.n	a3, a3, 0
    4456:	3cd352        	addmi	a5, a3, 0x3c00
    4459:	3dd372        	addmi	a7, a3, 0x3d00
    445c:	3dd382        	addmi	a8, a3, 0x3d00
    445f:	711552        	l16ui	a5, a5, 226
    4462:	111762        	l16ui	a6, a7, 34
    4465:	311772        	l16ui	a7, a7, 98
    4468:	511882        	l16ui	a8, a8, 162
    446b:	625d           	ae_s16i.n	a5, a2, 0
    446d:	726d           	ae_s16i.n	a6, a2, 2
    446f:	025272        	s16i	a7, a2, 4
    4472:	1ad3f2        	addmi	a15, a3, 0x1a00
    4475:	035282        	s16i	a8, a2, 6
    4478:	161f82        	l16ui	a8, a15, 44
    447b:	050c           	movi.n	a5, 0
    447d:	060c           	movi.n	a6, 0
    447f:	070c           	movi.n	a7, 0
    4481:	142866        	bnei	a8, 2, 4499 <EC_REF_GAIN_READBACK+0x4d>
    4484:	38d342        	addmi	a4, a3, 0x3800
    4487:	39d362        	addmi	a6, a3, 0x3900
    448a:	39d3f2        	addmi	a15, a3, 0x3900
    448d:	711442        	l16ui	a4, a4, 226
    4490:	511652        	l16ui	a5, a6, 162
    4493:	111662        	l16ui	a6, a6, 34
    4496:	311f72        	l16ui	a7, a15, 98

00004499 <EC_REF_GAIN_READBACK+0x4d>:
    4499:	045242        	s16i	a4, a2, 8
    449c:	055252        	s16i	a5, a2, 10
    449f:	065262        	s16i	a6, a2, 12
    44a2:	075272        	s16i	a7, a2, 14
    44a5:	f01d           	retw.n

000044a7 <EC_REF_GAIN_READBACK+0x5b>:
	...

000044a8 <EC_PreLim_Coef_READBACK>:
    44a8:	004136        	entry	a1, 32
    44ab:	eefb31        	l32r	a3, 98 (c3d4 <p_ecnr_mem>)
    44ae:	c54c           	movi.n	a5, 76
    44b0:	37d552        	addmi	a5, a5, 0x3700
    44b3:	0338           	l32i.n	a3, a3, 0
    44b5:	360c           	movi.n	a6, 3
    44b7:	024d           	mov.n	a4, a2
    44b9:	535a           	add.n	a5, a3, a5
    44bb:	078676        	loop	a6, 44c6 <EC_PreLim_Coef_READBACK+0x1e>
    44be:	556d           	ae_l16ui.n	a6, a5, 2
    44c0:	646d           	ae_s16i.n	a6, a4, 0
    44c2:	554b           	addi.n	a5, a5, 4
    44c4:	442b           	addi.n	a4, a4, 2

000044c6 <EC_PreLim_Coef_READBACK+0x1e>:
    44c6:	a4a052        	movi	a5, 164
    44c9:	37d552        	addmi	a5, a5, 0x3700
    44cc:	360c           	movi.n	a6, 3
    44ce:	426b           	addi.n	a4, a2, 6
    44d0:	535a           	add.n	a5, a3, a5
    44d2:	078676        	loop	a6, 44dd <EC_PreLim_Coef_READBACK+0x35>
    44d5:	556d           	ae_l16ui.n	a6, a5, 2
    44d7:	646d           	ae_s16i.n	a6, a4, 0
    44d9:	554b           	addi.n	a5, a5, 4
    44db:	442b           	addi.n	a4, a4, 2
    44dd:	bca042        	movi	a4, 188
    44e0:	37d442        	addmi	a4, a4, 0x3700
    44e3:	350c           	movi.n	a5, 3
    44e5:	334a           	add.n	a3, a3, a4
    44e7:	22cb           	addi.n	a2, a2, 12
    44e9:	078576        	loop	a5, 44f4 <EC_PreLim_Coef_READBACK+0x4c>
    44ec:	534d           	ae_l16ui.n	a4, a3, 2
    44ee:	624d           	ae_s16i.n	a4, a2, 0
    44f0:	334b           	addi.n	a3, a3, 4
    44f2:	222b           	addi.n	a2, a2, 2
    44f4:	f01d           	retw.n

000044f6 <EC_PreLim_Coef_READBACK+0x4e>:
	...

000044f8 <DaulMIC_power_Coef_READBACK>:
    44f8:	004136        	entry	a1, 32
    44fb:	eee721        	l32r	a2, 98 (c3d4 <p_ecnr_mem>)
    44fe:	0228           	l32i.n	a2, a2, 0
    4500:	38d222        	addmi	a2, a2, 0x3800
    4503:	589222        	l16si	a2, a2, 176
    4506:	f01d           	retw.n

00004508 <find_phase>:
    4508:	004136        	entry	a1, 32
    450b:	344030        	extui	a4, a3, 0, 4
    450e:	0e34a6        	blti	a4, 3, 4520 <find_phase+0x18>
    4511:	1954e6        	bgei	a4, 5, 452e <find_phase+0x26>
    4514:	253426        	beqi	a4, 3, 453d <find_phase+0x35>
    4517:	374466        	bnei	a4, 4, 4552 <find_phase+0x4a>
    451a:	600214        	ae_lq32f.i	aeq0, a2, 4
    451d:	000586        	j	4537 <find_phase+0x2f>

00004520 <find_phase+0x18>:
    4520:	f49c           	beqz.n	a4, 4543 <find_phase+0x3b>
    4522:	3b1426        	beqi	a4, 1, 4561 <find_phase+0x59>
    4525:	292466        	bnei	a4, 2, 4552 <find_phase+0x4a>
    4528:	600224        	ae_lq32f.i	aeq0, a2, 8
    452b:	000d46        	j	4564 <find_phase+0x5c>

0000452e <find_phase+0x26>:
    452e:	175426        	beqi	a4, 5, 4549 <find_phase+0x41>
    4531:	1d6466        	bnei	a4, 6, 4552 <find_phase+0x4a>
    4534:	600224        	ae_lq32f.i	aeq0, a2, 8
    4537:	604204        	ae_lq32f.i	aeq1, a2, 0
    453a:	000746        	j	455b <find_phase+0x53>

0000453d <find_phase+0x35>:
    453d:	600214        	ae_lq32f.i	aeq0, a2, 4
    4540:	000206        	j	454c <find_phase+0x44>

00004543 <find_phase+0x3b>:
    4543:	600204        	ae_lq32f.i	aeq0, a2, 0
    4546:	000686        	j	4564 <find_phase+0x5c>

00004549 <find_phase+0x41>:
    4549:	600224        	ae_lq32f.i	aeq0, a2, 8
    454c:	604204        	ae_lq32f.i	aeq1, a2, 0
    454f:	000506        	j	4567 <find_phase+0x5f>

00004552 <find_phase+0x4a>:
    4552:	600224        	ae_lq32f.i	aeq0, a2, 8
    4555:	604214        	ae_lq32f.i	aeq1, a2, 4
    4558:	0b7426        	beqi	a4, 7, 4567 <find_phase+0x5f>
    455b:	060824        	ae_negq56	aeq0, aeq0
    455e:	000146        	j	4567 <find_phase+0x5f>

00004561 <find_phase+0x59>:
    4561:	600214        	ae_lq32f.i	aeq0, a2, 4
    4564:	064b34        	ae_movq56	aeq1, aeq0
    4567:	0118c4        	ae_addq56	aeq0, aeq1, aeq0
    456a:	350074        	ae_sraiq56	aeq0, aeq0, 1
    456d:	026347        	bbci	a3, 4, 4573 <find_phase+0x6b>
    4570:	060824        	ae_negq56	aeq0, aeq0
    4573:	060934        	ae_roundsq32asym	aeq0, aeq0
    4576:	368204        	ae_trunca32q48	a2, aeq0
    4579:	f01d           	retw.n

0000457b <find_phase+0x73>:
	...

0000457c <memset_S16>:
    457c:	004136        	entry	a1, 32
    457f:	0614a6        	blti	a4, 1, 4589 <memset_S16+0xd>
    4582:	038476        	loop	a4, 4589 <memset_S16+0xd>
    4585:	623d           	ae_s16i.n	a3, a2, 0
    4587:	222b           	addi.n	a2, a2, 2

00004589 <memset_S16+0xd>:
    4589:	f01d           	retw.n

0000458b <memset_S16+0xf>:
	...

0000458c <beam2_setup>:
    458c:	004136        	entry	a1, 32
    458f:	140c           	movi.n	a4, 1
    4591:	014440        	slli	a4, a4, 28
    4594:	c50c           	movi.n	a5, 12
    4596:	1f0c           	movi.n	a15, 1
    4598:	1c5232        	s16i	a3, a2, 56
    459b:	a249           	s32i.n	a4, a2, 40
    459d:	113f40        	slli	a3, a15, 12
    45a0:	40c222        	addi	a2, a2, 64
    45a3:	038576        	loop	a5, 45aa <beam2_setup+0x1e>
    45a6:	623d           	ae_s16i.n	a3, a2, 0
    45a8:	222b           	addi.n	a2, a2, 2

000045aa <beam2_setup+0x1e>:
    45aa:	f01d           	retw.n

000045ac <cal_vad_thrd_x1>:
    45ac:	004136        	entry	a1, 32
    45af:	ef0251        	l32r	a5, 1b8 (bab0 <immediate_num>)
    45b2:	440304        	ae_lp16x2f.i	aep0, a3, 0
    45b5:	441204        	ae_lp16x2f.i	aep1, a2, 0
    45b8:	dd056d257f 	{ ae_lp16x2f.i	aep2, a5, 28; ae_selp24.hh	aep3, aep1, aep0 }
    45bd:	f06abe103f 	{ ae_selp24.ll	aep0, aep1, aep0; ae_mulzaafp24s.hh.ll	aeq0, aep2, aep3 }
    45c2:	042804        	ae_mulzaafp24s.hh.ll	aeq1, aep2, aep0
    45c5:	1b8f64        	ae_roundsp16q48asym	aep6, aeq0
    45c8:	fb6bf2640f 	{ ae_sp16f.l.i	aep6, a4, 0; ae_roundsp16q48asym	aep7, aeq1 }
    45cd:	427414        	ae_sp16f.l.i	aep7, a4, 2
    45d0:	f01d           	retw.n

000045d2 <cal_vad_thrd_x1+0x26>:
	...

000045d4 <CH13_cb_setup>:
    45d4:	004136        	entry	a1, 32
    45d7:	90a032        	movi	a3, 144
    45da:	18c242        	addi	a4, a2, 24
    45dd:	323a           	add.n	a3, a2, a3
    45df:	4249           	s32i.n	a4, a2, 16
    45e1:	166232        	s32i	a3, a2, 88
    45e4:	f01d           	retw.n

000045e6 <CH13_cb_setup+0x12>:
	...

000045e8 <TWO_MIC_WB_init>:
    45e8:	008136        	entry	a1, 64
    45eb:	eeab61        	l32r	a6, 98 (c3d4 <p_ecnr_mem>)
    45ee:	e5a632        	movi	a3, 0x6e5
    45f1:	91a742        	movi	a4, 0x791
    45f4:	0678           	l32i.n	a7, a6, 0
    45f6:	1133d0        	slli	a3, a3, 3
    45f9:	1144d0        	slli	a4, a4, 3
    45fc:	a73a           	add.n	a10, a7, a3
    45fe:	eeaa31        	l32r	a3, a8 (9a44 <xt_memset>)
    4601:	f74a           	add.n	a15, a7, a4
    4603:	0b0c           	movi.n	a11, 0
    4605:	b0a2c2        	movi	a12, 0x2b0
    4608:	71a9           	s32i.n	a10, a1, 28
    460a:	41f9           	s32i.n	a15, a1, 16
    460c:	0003e0        	callx8	a3
    460f:	3dd752        	addmi	a5, a7, 0x3d00
    4612:	7695a2        	l16si	a10, a5, 236
    4615:	7795b2        	l16si	a11, a5, 238
    4618:	7895c2        	l16si	a12, a5, 240
    461b:	7995d2        	l16si	a13, a5, 242
    461e:	3dd742        	addmi	a4, a7, 0x3d00
    4621:	abaa           	add.n	a10, a11, a10
    4623:	06b8           	l32i.n	a11, a6, 0
    4625:	95a392        	movi	a9, 0x395
    4628:	ccda           	add.n	a12, a12, a13
    462a:	a1a4f2        	movi	a15, 0x4a1
    462d:	8da332        	movi	a3, 0x38d
    4630:	91a382        	movi	a8, 0x391
    4633:	a7a1e2        	movi	a14, 0x1a7
    4636:	99a3d2        	movi	a13, 0x399
    4639:	1199c0        	slli	a9, a9, 4
    463c:	aaca           	add.n	a10, a10, a12
    463e:	11ffd0        	slli	a15, a15, 3
    4641:	116dc0        	slli	a6, a13, 4
    4644:	1133c0        	slli	a3, a3, 4
    4647:	d79a           	add.n	a13, a7, a9
    4649:	9bfa           	add.n	a9, a11, a15
    464b:	1188c0        	slli	a8, a8, 4
    464e:	11eec0        	slli	a14, a14, 4
    4651:	a0fab0        	addx4	a15, a10, a11
    4654:	676a           	add.n	a6, a7, a6
    4656:	c78a           	add.n	a12, a7, a8
    4658:	373a           	add.n	a3, a7, a3
    465a:	ffea           	add.n	a15, a15, a14
    465c:	eed481        	l32r	a8, 1ac (2574 <Fill_CH_MEM_WB>)
    465f:	41e8           	l32i.n	a14, a1, 16
    4661:	03ad           	mov.n	a10, a3
    4663:	06bd           	mov.n	a11, a6
    4665:	3169           	s32i.n	a6, a1, 12
    4667:	51c9           	s32i.n	a12, a1, 20
    4669:	61d9           	s32i.n	a13, a1, 24
    466b:	0199           	s32i.n	a9, a1, 0
    466d:	0008e0        	callx8	a8
    4670:	ee8a81        	l32r	a8, 98 (c3d4 <p_ecnr_mem>)
    4673:	39d792        	addmi	a9, a7, 0x3900
    4676:	7695b2        	l16si	a11, a5, 236
    4679:	0888           	l32i.n	a8, a8, 0
    467b:	1a92c2        	l16si	a12, a2, 52
    467e:	eecc61        	l32r	a6, 1b0 (2558 <Fill_sbco>)
    4681:	1ad882        	addmi	a8, a8, 0x1a00
    4684:	1228a2        	l32i	a10, a8, 72
    4687:	2169a2        	s32i	a10, a9, 132
    468a:	142882        	l32i	a8, a8, 80
    468d:	0d0c           	movi.n	a13, 0
    468f:	03ad           	mov.n	a10, a3
    4691:	226982        	s32i	a8, a9, 136
    4694:	0006e0        	callx8	a6
    4697:	779532        	l16si	a3, a5, 238
    469a:	1b92c2        	l16si	a12, a2, 54
    469d:	31a8           	l32i.n	a10, a1, 12
    469f:	531b           	addi.n	a5, a3, 1
    46a1:	b35330        	movgez	a5, a3, a3
    46a4:	21b150        	srai	a11, a5, 1
    46a7:	0d0c           	movi.n	a13, 0
    46a9:	0006e0        	callx8	a6
    46ac:	7894b2        	l16si	a11, a4, 240
    46af:	1c92c2        	l16si	a12, a2, 56
    46b2:	51a8           	l32i.n	a10, a1, 20
    46b4:	0d0c           	movi.n	a13, 0
    46b6:	0006e0        	callx8	a6
    46b9:	7994b2        	l16si	a11, a4, 242
    46bc:	1d92c2        	l16si	a12, a2, 58
    46bf:	61a8           	l32i.n	a10, a1, 24
    46c1:	0d0c           	movi.n	a13, 0
    46c3:	0006e0        	callx8	a6
    46c6:	3dd782        	addmi	a8, a7, 0x3d00
    46c9:	39d742        	addmi	a4, a7, 0x3900
    46cc:	2838           	l32i.n	a3, a8, 8
    46ce:	6d3c           	movi.n	a13, 54
    46d0:	2439           	s32i.n	a3, a4, 8
    46d2:	39d7a2        	addmi	a10, a7, 0x3900
    46d5:	2228f2        	l32i	a15, a8, 136
    46d8:	37dd42        	addmi	a4, a13, 0x3700
    46db:	7da392        	movi	a9, 0x37d
    46de:	b4a0e2        	movi	a14, 180
    46e1:	126af2        	s32i	a15, a10, 72
    46e4:	a74a           	add.n	a10, a7, a4
    46e6:	39d762        	addmi	a6, a7, 0x3900
    46e9:	1228c2        	l32i	a12, a8, 72
    46ec:	ee7141        	l32r	a4, b0 (9a58 <xt_memcpy>)
    46ef:	1199c0        	slli	a9, a9, 4
    46f2:	3266c2        	s32i	a12, a6, 200
    46f5:	b2ea           	add.n	a11, a2, a14
    46f7:	4c0c           	movi.n	a12, 4
    46f9:	379a           	add.n	a3, a7, a9
    46fb:	0004e0        	callx8	a4
    46fe:	5e1252        	l16ui	a5, a2, 188
    4701:	c0a0f2        	movi	a15, 192
    4704:	37d762        	addmi	a6, a7, 0x3700
    4707:	348050        	extui	a8, a5, 0, 4
    470a:	049d           	mov.n	a9, a4
    470c:	1f5682        	s16i	a8, a6, 62
    470f:	03ad           	mov.n	a10, a3
    4711:	3cd742        	addmi	a4, a7, 0x3c00
    4714:	415850        	srli	a5, a5, 8
    4717:	5f92e2        	l16si	a14, a2, 190
    471a:	38d762        	addmi	a6, a7, 0x3800
    471d:	b2fa           	add.n	a11, a2, a15
    471f:	4c0c           	movi.n	a12, 4
    4721:	0456e2        	s16i	a14, a6, 8
    4724:	415452        	s16i	a5, a4, 130
    4727:	093d           	mov.n	a3, a9
    4729:	0009e0        	callx8	a9
    472c:	bfa182        	movi	a8, 0x1bf
    472f:	1188b0        	slli	a8, a8, 5
    4732:	c8a052        	movi	a5, 200
    4735:	b25a           	add.n	a11, a2, a5
    4737:	a78a           	add.n	a10, a7, a8
    4739:	8c0c           	movi.n	a12, 8
    473b:	0003e0        	callx8	a3
    473e:	6e9252        	l16si	a5, a2, 220
    4741:	6c92a2        	l16si	a10, a2, 216
    4744:	425452        	s16i	a5, a4, 132
    4747:	4054a2        	s16i	a10, a4, 128
    474a:	a4a1f2        	movi	a15, 0x1a4
    474d:	6f92c2        	l16si	a12, a2, 222
    4750:	37d752        	addmi	a5, a7, 0x3700
    4753:	71a8           	l32i.n	a10, a1, 28
    4755:	7855c2        	s16i	a12, a5, 240
    4758:	6d9282        	l16si	a8, a2, 218
    475b:	7092d2        	l16si	a13, a2, 224
    475e:	b2fa           	add.n	a11, a2, a15
    4760:	6c0c           	movi.n	a12, 6
    4762:	3f5582        	s16i	a8, a5, 126
    4765:	1a55d2        	s16i	a13, a5, 52
    4768:	0003e0        	callx8	a3
    476b:	c4a042        	movi	a4, 196
    476e:	38d442        	addmi	a4, a4, 0x3800
    4771:	06a282        	movi	a8, 0x206
    4774:	b28a           	add.n	a11, a2, a8
    4776:	a74a           	add.n	a10, a7, a4
    4778:	3c0c           	movi.n	a12, 3
    477a:	0003e0        	callx8	a3
    477d:	d7a742        	movi	a4, 0x7d7
    4780:	0144d0        	slli	a4, a4, 19
    4783:	3f0c           	movi.n	a15, 3
    4785:	416542        	s32i	a4, a5, 0x104
    4788:	014f50        	slli	a4, a15, 27
    478b:	3b0c           	movi.n	a11, 3
    478d:	286642        	s32i	a4, a6, 160
    4790:	114b30        	slli	a4, a11, 13
    4793:	1d0c           	movi.n	a13, 1
    4795:	3e5542        	s16i	a4, a5, 124
    4798:	014d20        	slli	a4, a13, 30
    479b:	38d7f2        	addmi	a15, a7, 0x3800
    479e:	1e0c           	movi.n	a14, 1
    47a0:	d649           	s32i.n	a4, a6, 52
    47a2:	eeb491        	l32r	a9, 274 (d330000 <_end+0xd323c20>)
    47a5:	77a162        	movi	a6, 0x177
    47a8:	eda6b2        	movi	a11, 0x6ed
    47ab:	676592        	s32i	a9, a5, 0x19c
    47ae:	015eb0        	slli	a5, a14, 21
    47b1:	37d782        	addmi	a8, a7, 0x3700
    47b4:	146f42        	s32i	a4, a15, 80
    47b7:	1d6f42        	s32i	a4, a15, 116
    47ba:	646842        	s32i	a4, a8, 0x190
    47bd:	1146c0        	slli	a4, a6, 4
    47c0:	116bd0        	slli	a6, a11, 3
    47c3:	7ba3c2        	movi	a12, 0x37b
    47c6:	f9a6d2        	movi	a13, 0x6f9
    47c9:	d95842        	s16i	a4, a8, 0x1b2
    47cc:	114dd0        	slli	a4, a13, 3
    47cf:	206852        	s32i	a5, a8, 128
    47d2:	115cc0        	slli	a5, a12, 4
    47d5:	676a           	add.n	a6, a7, a6
    47d7:	07a7e2        	movi	a14, 0x707
    47da:	eea7a1        	l32r	a10, 278 (e390000 <_end+0xe383c20>)
    47dd:	236862        	s32i	a6, a8, 140
    47e0:	116ed0        	slli	a6, a14, 3
    47e3:	575a           	add.n	a5, a7, a5
    47e5:	474a           	add.n	a4, a7, a4
    47e7:	c90c           	movi.n	a9, 12
    47e9:	1f0c           	movi.n	a15, 1
    47eb:	286852        	s32i	a5, a8, 160
    47ee:	2268a2        	s32i	a10, a8, 136
    47f1:	2e6842        	s32i	a4, a8, 184
    47f4:	115f20        	slli	a5, a15, 14
    47f7:	676a           	add.n	a6, a7, a6
    47f9:	038976        	loop	a9, 4800 <TWO_MIC_WB_init+0x218>
    47fc:	665d           	ae_s16i.n	a5, a6, 0
    47fe:	662b           	addi.n	a6, a6, 2

00004800 <TWO_MIC_WB_init+0x218>:
    4800:	3ad7b2        	addmi	a11, a7, 0x3a00
    4803:	e32b42        	l32i	a4, a11, 0x38c
    4806:	1e6b42        	s32i	a4, a11, 120
    4809:	0248           	l32i.n	a4, a2, 0
    480b:	729252        	l16si	a5, a2, 228
    480e:	39d7c2        	addmi	a12, a7, 0x3900
    4811:	205b52        	s16i	a5, a11, 64
    4814:	132c92        	l32i	a9, a12, 76
    4817:	3cc4d2        	addi	a13, a4, 60
    481a:	f32b52        	l32i	a5, a11, 0x3cc
    481d:	3bd7f2        	addmi	a15, a7, 0x3b00
    4820:	1c6bd2        	s32i	a13, a11, 112
    4823:	1d6b92        	s32i	a9, a11, 116
    4826:	6f59           	s32i.n	a5, a15, 24
    4828:	232c52        	l32i	a5, a12, 140
    482b:	6f9262        	l16si	a6, a2, 222
    482e:	5f59           	s32i.n	a5, a15, 20
    4830:	932f52        	l32i	a5, a15, 0x24c
    4833:	39d7d2        	addmi	a13, a7, 0x3900
    4836:	50c4a2        	addi	a10, a4, 80
    4839:	2e6f52        	s32i	a5, a15, 184
    483c:	332d52        	l32i	a5, a13, 204
    483f:	3dd7e2        	addmi	a14, a7, 0x3d00
    4842:	4fa9           	s32i.n	a10, a15, 16
    4844:	2d6f52        	s32i	a5, a15, 180
    4847:	2c6f42        	s32i	a4, a15, 176
    484a:	c61b           	addi.n	a12, a6, 1
    484c:	3e58           	l32i.n	a5, a14, 12
    484e:	28c4a2        	addi	a10, a4, 40
    4851:	366d52        	s32i	a5, a13, 216
    4854:	39d7f2        	addmi	a15, a7, 0x3900
    4857:	3d58           	l32i.n	a5, a13, 12
    4859:	64c442        	addi	a4, a4, 100
    485c:	49a7d2        	movi	a13, 0x749
    485f:	1b0c           	movi.n	a11, 1
    4861:	b3c660        	movgez	a12, a6, a6
    4864:	356f52        	s32i	a5, a15, 212
    4867:	346fa2        	s32i	a10, a15, 208
    486a:	376f42        	s32i	a4, a15, 220
    486d:	1e0c           	movi.n	a14, 1
    486f:	37d782        	addmi	a8, a7, 0x3700
    4872:	4141c0        	srli	a4, a12, 1
    4875:	3ad7a2        	addmi	a10, a7, 0x3a00
    4878:	015b40        	slli	a5, a11, 28
    487b:	119dd0        	slli	a9, a13, 3
    487e:	cf0c           	movi.n	a15, 12
    4880:	7a5842        	s16i	a4, a8, 244
    4883:	116e40        	slli	a6, a14, 12
    4886:	879a           	add.n	a8, a7, a9
    4888:	ca59           	s32i.n	a5, a10, 48
    488a:	038f76        	loop	a15, 4891 <TWO_MIC_WB_init+0x2a9>
    488d:	686d           	ae_s16i.n	a6, a8, 0
    488f:	882b           	addi.n	a8, a8, 2
    4891:	749242        	l16si	a4, a2, 232
    4894:	5da7f2        	movi	a15, 0x75d
    4897:	3ad792        	addmi	a9, a7, 0x3a00
    489a:	705942        	s16i	a4, a9, 224
    489d:	114fd0        	slli	a4, a15, 3
    48a0:	ca0c           	movi.n	a10, 12
    48a2:	874a           	add.n	a8, a7, a4
    48a4:	346952        	s32i	a5, a9, 208
    48a7:	038a76        	loop	a10, 48ae <TWO_MIC_WB_init+0x2c6>
    48aa:	686d           	ae_s16i.n	a6, a8, 0
    48ac:	882b           	addi.n	a8, a8, 2
    48ae:	759242        	l16si	a4, a2, 234
    48b1:	71a7f2        	movi	a15, 0x771
    48b4:	3bd792        	addmi	a9, a7, 0x3b00
    48b7:	405942        	s16i	a4, a9, 128
    48ba:	114fd0        	slli	a4, a15, 3
    48bd:	ca0c           	movi.n	a10, 12
    48bf:	808740        	add	a8, a7, a4
    48c2:	1c6952        	s32i	a5, a9, 112
    48c5:	038a76        	loop	a10, 48cc <TWO_MIC_WB_init+0x2e4>
    48c8:	686d           	ae_s16i.n	a6, a8, 0
    48ca:	882b           	addi.n	a8, a8, 2
    48cc:	739242        	l16si	a4, a2, 230
    48cf:	85a7e2        	movi	a14, 0x785
    48d2:	3cd792        	addmi	a9, a7, 0x3c00
    48d5:	095942        	s16i	a4, a9, 18
    48d8:	114ed0        	slli	a4, a14, 3
    48db:	cf0c           	movi.n	a15, 12
    48dd:	5959           	s32i.n	a5, a9, 20
    48df:	574a           	add.n	a5, a7, a4
    48e1:	038f76        	loop	a15, 48e8 <TWO_MIC_WB_init+0x300>
    48e4:	656d           	ae_s16i.n	a6, a5, 0
    48e6:	552b           	addi.n	a5, a5, 2
    48e8:	3da752        	movi	a5, 0x73d
    48eb:	1155d0        	slli	a5, a5, 3
    48ee:	39d742        	addmi	a4, a7, 0x3900
    48f1:	575a           	add.n	a5, a7, a5
    48f3:	51a7f2        	movi	a15, 0x751
    48f6:	386452        	s32i	a5, a4, 224
    48f9:	115fd0        	slli	a5, a15, 3
    48fc:	dda192        	movi	a9, 0x1dd
    48ff:	3bd762        	addmi	a6, a7, 0x3b00
    4902:	3ad7e2        	addmi	a14, a7, 0x3a00
    4905:	575a           	add.n	a5, a7, a5
    4907:	65a732        	movi	a3, 0x765
    490a:	1149b0        	slli	a4, a9, 5
    490d:	7da392        	movi	a9, 0x37d
    4910:	326e62        	s32i	a6, a14, 200
    4913:	1183d0        	slli	a8, a3, 3
    4916:	bfa132        	movi	a3, 0x1bf
    4919:	206e52        	s32i	a5, a14, 128
    491c:	ee27e1        	l32r	a14, 1b8 (bab0 <immediate_num>)
    491f:	1199c0        	slli	a9, a9, 4
    4922:	1133b0        	slli	a3, a3, 5
    4925:	d3a1c2        	movi	a12, 0x1d3
    4928:	451794        	ae_lp16x2f.x	aep1, a7, a9
    492b:	452734        	ae_lp16x2f.x	aep2, a7, a3
    492e:	116cb0        	slli	a6, a12, 5
    4931:	dd454779cf 	{ movi	a12, 0x779; ae_selp24.hh	aep3, aep1, aep2 }
    4936:	dc466d0e7f 	{ ae_lp16x2f.i	aep0, a14, 28; ae_selp24.ll	aep1, aep1, aep2 }
    493b:	115cd0        	slli	a5, a12, 3
    493e:	f06290575f 	{ add	a5, a7, a5; ae_mulzaafp24s.hh.ll	aeq0, aep0, aep3 }
    4943:	3bd7b2        	addmi	a11, a7, 0x3b00
    4946:	f022c6fbff 	{ movi	a15, 0x6fb; ae_mulzaafp24s.hh.ll	aeq1, aep0, aep1 }
    494b:	2f6b52        	s32i	a5, a11, 188
    494e:	115fd0        	slli	a5, a15, 3
    4951:	f963d0474f 	{ add	a4, a7, a4; ae_roundsp16q48asym	aep3, aeq0 }
    4956:	3bd7a2        	addmi	a10, a7, 0x3b00
    4959:	fa6b8634bf 	{ movi	a11, 0x634; ae_roundsp16q48asym	aep4, aeq1 }
    495e:	43b574        	ae_sp16f.l.xu	aep3, a5, a7
    4961:	fca7c2        	movi	a12, 0x7fc
    4964:	1a6a42        	s32i	a4, a10, 104
    4967:	a78a           	add.n	a10, a7, a8
    4969:	f04cc0        	subx8	a4, a12, a12
    496c:	424514        	ae_sp16f.l.i	aep4, a5, 2
    496f:	b08bb0        	addx8	a8, a11, a11
    4972:	3ad7d2        	addmi	a13, a7, 0x3a00
    4975:	676a           	add.n	a6, a7, a6
    4977:	455784        	ae_lp16x2f.x	aep5, a7, a8
    497a:	452744        	ae_lp16x2f.x	aep2, a7, a4
    497d:	df5514ad6f 	{ s32i.n	a6, a13, 40; ae_selp24.hh	aep6, aep5, aep2 }
    4982:	dc5640f1df 	{ movi	a13, 241; ae_selp24.ll	aep1, aep5, aep2 }
    4987:	113da0        	slli	a3, a13, 6
    498a:	f1c280dcdf 	{ movi	a13, 220; ae_mulzaafp24s.hh.ll	aeq2, aep0, aep6 }
    498f:	f122c0b4ef 	{ movi	a14, 180; ae_mulzaafp24s.hh.ll	aeq3, aep0, aep1 }
    4994:	3cd792        	addmi	a9, a7, 0x3c00
    4997:	fb73d0373f 	{ add	a3, a7, a3; ae_roundsp16q48asym	aep7, aeq2 }
    499c:	37dd52        	addmi	a5, a13, 0x3700
    499f:	3bd762        	addmi	a6, a7, 0x3b00
    49a2:	2939           	s32i.n	a3, a9, 8
    49a4:	f87bc194ff 	{ movi	a15, 0x194; ae_roundsp16q48asym	aep1, aeq3 }
    49a9:	38de42        	addmi	a4, a14, 0x3800
    49ac:	edc131        	l32r	a3, b0 (9a58 <xt_memcpy>)
    49af:	86a9           	s32i.n	a10, a6, 32
    49b1:	43f574        	ae_sp16f.l.xu	aep7, a5, a7
    49b4:	b2fa           	add.n	a11, a2, a15
    49b6:	a74a           	add.n	a10, a7, a4
    49b8:	8c0c           	movi.n	a12, 8
    49ba:	421514        	ae_sp16f.l.i	aep1, a5, 2
    49bd:	0003e0        	callx8	a3
    49c0:	ee2f31        	l32r	a3, 27c (69e0 <two_mic_WB_NR_init>)
    49c3:	02ad           	mov.n	a10, a2
    49c5:	0003e0        	callx8	a3
    49c8:	f01d           	retw.n

000049ca <TWO_MIC_WB_init+0x3e2>:
	...

000049cc <siir_safr>:
    49cc:	004136        	entry	a1, 32
    49cf:	05a237        	bge	a2, a3, 49d8 <siir_safr+0xc>
    49d2:	440404        	ae_lp16x2f.i	aep0, a4, 0
    49d5:	000086        	j	49db <siir_safr+0xf>

000049d8 <siir_safr+0xc>:
    49d8:	440414        	ae_lp16x2f.i	aep0, a4, 4
    49db:	360234        	ae_cvtq48a32s	aeq0, a2
    49de:	364334        	ae_cvtq48a32s	aeq1, a3
    49e1:	c10014        	ae_mulzaafq32sp16s.lh	aeq0, aeq0, aep0, aeq1, aep0
    49e4:	060934        	ae_roundsq32asym	aeq0, aeq0
    49e7:	368204        	ae_trunca32q48	a2, aeq0
    49ea:	f01d           	retw.n

000049ec <take_min_four>:
    49ec:	004136        	entry	a1, 32
    49ef:	224d           	ae_l16si.n	a4, a2, 0
    49f1:	5023a6        	blti	a3, 2, 4a45 <take_min_four+0x59>
    49f4:	ffa052        	movi	a5, 255
    49f7:	7fd552        	addmi	a5, a5, 0x7f00
    49fa:	630b           	addi.n	a6, a3, -1
    49fc:	222b           	addi.n	a2, a2, 2
    49fe:	048d           	mov.n	a8, a4
    4a00:	053d           	mov.n	a3, a5
    4a02:	207550        	or	a7, a5, a5
    4a05:	318676        	loop	a6, 4a3a <take_min_four+0x4e>
    4a08:	22ad           	ae_l16si.n	a10, a2, 0
    4a0a:	086d           	mov.n	a6, a8
    4a0c:	079d           	mov.n	a9, a7
    4a0e:	0a4d           	mov.n	a4, a10
    4a10:	1c2a87        	blt	a10, a8, 4a30 <take_min_four+0x44>
    4a13:	084d           	mov.n	a4, a8
    4a15:	0a6d           	mov.n	a6, a10
    4a17:	079d           	mov.n	a9, a7
    4a19:	132a77        	blt	a10, a7, 4a30 <take_min_four+0x44>
    4a1c:	084d           	mov.n	a4, a8
    4a1e:	076d           	mov.n	a6, a7
    4a20:	0a9d           	mov.n	a9, a10
    4a22:	0a2a37        	blt	a10, a3, 4a30 <take_min_four+0x44>
    4a25:	4355a0        	min	a5, a5, a10
    4a28:	039d           	mov.n	a9, a3
    4a2a:	084d           	mov.n	a4, a8
    4a2c:	076d           	mov.n	a6, a7
    4a2e:	053d           	mov.n	a3, a5

00004a30 <take_min_four+0x44>:
    4a30:	035d           	mov.n	a5, a3
    4a32:	222b           	addi.n	a2, a2, 2
    4a34:	093d           	mov.n	a3, a9
    4a36:	067d           	mov.n	a7, a6
    4a38:	048d           	mov.n	a8, a4

00004a3a <take_min_four+0x4e>:
    4a3a:	249a           	add.n	a2, a4, a9
    4a3c:	365a           	add.n	a3, a6, a5
    4a3e:	223a           	add.n	a2, a2, a3
    4a40:	112220        	slli	a2, a2, 14
    4a43:	f01d           	retw.n

00004a45 <take_min_four+0x59>:
    4a45:	ffa062        	movi	a6, 255
    4a48:	7fd662        	addmi	a6, a6, 0x7f00
    4a4b:	069d           	mov.n	a9, a6
    4a4d:	065d           	mov.n	a5, a6
    4a4f:	fff9c6        	j	4a3a <take_min_four+0x4e>

00004a52 <take_min_four+0x66>:
	...

00004a54 <take_max_four>:
    4a54:	004136        	entry	a1, 32
    4a57:	224d           	ae_l16si.n	a4, a2, 0
    4a59:	4e23a6        	blti	a3, 2, 4aab <take_max_four+0x57>
    4a5c:	f57c           	movi.n	a5, -1
    4a5e:	115510        	slli	a5, a5, 15
    4a61:	630b           	addi.n	a6, a3, -1
    4a63:	222b           	addi.n	a2, a2, 2
    4a65:	048d           	mov.n	a8, a4
    4a67:	053d           	mov.n	a3, a5
    4a69:	057d           	mov.n	a7, a5
    4a6b:	318676        	loop	a6, 4aa0 <take_max_four+0x4c>
    4a6e:	22ad           	ae_l16si.n	a10, a2, 0
    4a70:	086d           	mov.n	a6, a8
    4a72:	079d           	mov.n	a9, a7
    4a74:	0a4d           	mov.n	a4, a10
    4a76:	1c28a7        	blt	a8, a10, 4a96 <take_max_four+0x42>
    4a79:	084d           	mov.n	a4, a8
    4a7b:	0a6d           	mov.n	a6, a10
    4a7d:	079d           	mov.n	a9, a7
    4a7f:	1327a7        	blt	a7, a10, 4a96 <take_max_four+0x42>
    4a82:	084d           	mov.n	a4, a8
    4a84:	076d           	mov.n	a6, a7
    4a86:	0a9d           	mov.n	a9, a10
    4a88:	0a23a7        	blt	a3, a10, 4a96 <take_max_four+0x42>
    4a8b:	5355a0        	max	a5, a5, a10
    4a8e:	039d           	mov.n	a9, a3
    4a90:	084d           	mov.n	a4, a8
    4a92:	076d           	mov.n	a6, a7
    4a94:	053d           	mov.n	a3, a5

00004a96 <take_max_four+0x42>:
    4a96:	035d           	mov.n	a5, a3
    4a98:	222b           	addi.n	a2, a2, 2
    4a9a:	093d           	mov.n	a3, a9
    4a9c:	067d           	mov.n	a7, a6
    4a9e:	048d           	mov.n	a8, a4

00004aa0 <take_max_four+0x4c>:
    4aa0:	249a           	add.n	a2, a4, a9
    4aa2:	365a           	add.n	a3, a6, a5
    4aa4:	223a           	add.n	a2, a2, a3
    4aa6:	112220        	slli	a2, a2, 14
    4aa9:	f01d           	retw.n

00004aab <take_max_four+0x57>:
    4aab:	f67c           	movi.n	a6, -1
    4aad:	116610        	slli	a6, a6, 15
    4ab0:	069d           	mov.n	a9, a6
    4ab2:	065d           	mov.n	a5, a6
    4ab4:	fffa06        	j	4aa0 <take_max_four+0x4c>

00004ab7 <take_max_four+0x63>:
	...

00004ab8 <prelim_filter>:
    4ab8:	012136        	entry	a1, 144
    4abb:	40c262        	addi	a6, a2, 64
    4abe:	46c2c2        	addi	a12, a2, 70
    4ac1:	f3f7c0        	wur.ae_cend0	a12
    4ac4:	f3f660        	wur.ae_cbegin0	a6
    4ac7:	22c2f2        	addi	a15, a2, 34
    4aca:	e149           	s32i.n	a4, a1, 56
    4acc:	ab22d2        	l32i	a13, a2, 0x2ac
    4acf:	ac22e2        	l32i	a14, a2, 0x2b0
    4ad2:	aa2272        	l32i	a7, a2, 0x2a8
    4ad5:	192252        	l32i	a5, a2, 100
    4ad8:	24c242        	addi	a4, a2, 36
    4adb:	c129           	s32i.n	a2, a1, 48
    4add:	ed7221        	l32r	a2, a8 (9a44 <xt_memset>)
    4ae0:	400f04        	ae_lp16f.i	aep0, a15, 0
    4ae3:	60c1a2        	addi	a10, a1, 96
    4ae6:	0b0c           	movi.n	a11, 0
    4ae8:	6c0c           	movi.n	a12, 6
    4aea:	d139           	s32i.n	a3, a1, 52
    4aec:	21d9           	s32i.n	a13, a1, 8
    4aee:	b1e9           	s32i.n	a14, a1, 44
    4af0:	41f9           	s32i.n	a15, a1, 16
    4af2:	560134        	ae_sp24x2s.i	aep0, a1, 24
    4af5:	0002e0        	callx8	a2
    4af8:	21e8           	l32i.n	a14, a1, 8
    4afa:	b1f8           	l32i.n	a15, a1, 44
    4afc:	ede181        	l32r	a8, 280 (ccccc <_end+0xc08ec>)
    4aff:	5cc122        	addi	a2, a1, 92
    4b02:	40c192        	addi	a9, a1, 64
    4b05:	39a884        	ae_movpa24x2	aep2, a8, a8
    4b08:	f129           	s32i.n	a2, a1, 60
    4b0a:	541134        	ae_lp24x2.i	aep1, a1, 24
    4b0d:	0aa062        	movi	a6, 10
    4b10:	02a032        	movi	a3, 2
    4b13:	fd248feeae 	{ addi	a10, a14, -2; ae_zeroq56	aeq1 }
    4b18:	fec772        	addi	a7, a7, -2
    4b1b:	fecf22        	addi	a2, a15, -2
    4b1e:	03a0b2        	movi	a11, 3
    4b21:	fec9c2        	addi	a12, a9, -2
    4b24:	562144        	ae_sp24x2s.i	aep2, a1, 32

00004b27 <prelim_filter+0x6f>:
    4b27:	408a14        	ae_lp16f.iu	aep0, a10, 2
    4b2a:	0b61a2        	s32i	a10, a1, 44
    4b2d:	608404        	ae_lq32f.i	aeq2, a4, 0
    4b30:	fc0c62853f 	{ ae_sp16f.l.c	aep0, a5, a3; ae_movq56	aeq0, aeq1 }
    4b35:	0c8b76        	loop	a11, 4b45 <prelim_filter+0x8d>
    4b38:	fc24d9053f 	{ ae_lp16f.c	aep0, a5, a3; nop }
    4b3d:	f682fd541f 	{ ae_lq32f.iu	aeq2, a4, 4; ae_mulafq32sp16s.l	aeq1, aeq2, aep0 }
    4b42:	010034        	ae_mulafp24s.ll	aeq0, aep0, aep0

00004b45 <prelim_filter+0x8d>:
    4b45:	ff2c3a909f 	{ ae_slliq56	aeq2, aeq1, 1; ae_cvtq48p24s.l	aeq3, aep1 }
    4b4a:	f9763b002f 	{ ae_sraiq56	aeq0, aeq0, 2; ae_addq56	aeq1, aeq2, aeq1 }
    4b4f:	fc244001af 	{ movi	a10, 1; ae_roundsq32asym	aeq0, aeq0 }
    4b54:	f93eff08ef 	{ ae_trunca32q48	a8, aeq0; ae_subq56	aeq1, aeq3, aeq1 }
    4b59:	f86bb2971f 	{ ae_sp16f.l.iu	aep1, a7, 2; ae_roundsp16q48asym	aep0, aeq1 }
    4b5e:	0009d4        	ae_cvta32p24.l	a9, aep0
    4b61:	11aa20        	slli	a10, a10, 14
    4b64:	53b8a0        	max	a11, a8, a10
    4b67:	ed9681        	l32r	a8, 1c0 (87f4 <airoha_divide>)
    4b6a:	428c14        	ae_sp16f.l.iu	aep0, a12, 2
    4b6d:	21a690        	srai	a10, a9, 6
    4b70:	21c9           	s32i.n	a12, a1, 8
    4b72:	0008e0        	callx8	a8
    4b75:	360b34        	ae_cvtq48a32s	aeq0, a11
    4b78:	f188           	l32i.n	a8, a1, 60
    4b7a:	fc24fe8a0f 	{ ae_slaasq56s	aeq0, aeq0, a10; nop }
    4b7f:	3b0c           	movi.n	a11, 3
    4b81:	f8678f044e 	{ addi	a4, a4, -16; ae_roundsp24q48asym	aep0, aeq0 }
    4b86:	542144        	ae_lp24x2.i	aep2, a1, 32
    4b89:	1a8b76        	loop	a11, 4ba7 <prelim_filter+0xef>
    4b8c:	601414        	ae_lq32f.iu	aeq0, a4, 4
    4b8f:	fc24d9153f 	{ ae_lp16f.c	aep1, a5, a3; nop }
    4b94:	e223bd381f 	{ ae_lq32f.iu	aeq1, a8, 4; ae_mulafp24s.ll	aeq0, aep0, aep1 }
    4b99:	060934        	ae_roundsq32asym	aeq0, aeq0
    4b9c:	f4caf9840f 	{ ae_sq32f.i	aeq0, a4, 0; ae_mulafq32sp24s.l	aeq1, aeq0, aep2 }
    4ba1:	06d934        	ae_roundsq32asym	aeq3, aeq1
    4ba4:	623804        	ae_sq32f.i	aeq3, a8, 0
    4ba7:	b1a8           	l32i.n	a10, a1, 44
    4ba9:	21c8           	l32i.n	a12, a1, 8
    4bab:	660b           	addi.n	a6, a6, -1
    4bad:	fd248f844e 	{ addi	a4, a4, -8; ae_zeroq56	aeq1 }
    4bb2:	409214        	ae_lp16f.iu	aep1, a2, 2
    4bb5:	f6e656        	bnez	a6, 4b27 <prelim_filter+0x6f>
    4bb8:	fc24b0c16e 	{ l32i	a6, a1, 48; ae_zeroq56	aeq0 }
    4bbd:	042122        	l32i	a2, a1, 16
    4bc0:	edb141        	l32r	a4, 284 (393e4b <_end+0x387a6b>)
    4bc3:	fe0444013e 	{ addi	a3, a1, 64; ae_movq56	aeq2, aeq0 }
    4bc8:	421204        	ae_sp16f.l.i	aep1, a2, 0
    4bcb:	aa2622        	l32i	a2, a6, 0x2a8
    4bce:	0aa0f2        	movi	a15, 10
    4bd1:	398444        	ae_movpa24x2	aep0, a4, a4
    4bd4:	196652        	s32i	a5, a6, 100
    4bd7:	401304        	ae_lp16f.i	aep1, a3, 0
    4bda:	fec242        	addi	a4, a2, -2
    4bdd:	158f76        	loop	a15, 4bf6 <prelim_filter+0x13e>
    4be0:	ea21ece41f 	{ ae_lp16f.iu	aep6, a4, 2; ae_mulfp24s.ll	aeq1, aep0, aep1 }
    4be5:	ebc1ec931f 	{ ae_lp16f.iu	aep1, a3, 2; ae_mulfp24s.ll	aeq3, aep0, aep6 }
    4bea:	1b9d24        	ae_roundsp24q48asym	aep2, aeq1
    4bed:	1bbd74        	ae_roundsp24q48asym	aep7, aeq3
    4bf0:	012234        	ae_mulafp24s.ll	aeq0, aep2, aep2
    4bf3:	01f734        	ae_mulafp24s.ll	aeq2, aep7, aep7
    4bf6:	fd2440014f 	{ movi	a4, 1; ae_roundsq32asym	aeq1, aeq0 }
    4bfb:	114400        	slli	a4, a4, 16
    4bfe:	fc147ec4ff 	{ ae_cvtq48a32s	aeq3, a4; ae_movq56	aeq0, aeq2 }
    4c03:	ed6d31        	l32r	a3, 1b8 (bab0 <immediate_num>)
    4c06:	fe2445c65e 	{ addi	a5, a6, 92; ae_roundsq32asym	aeq2, aeq0 }
    4c0b:	f8aafa312f 	{ ae_sq56s.i	aeq3, a1, 16; ae_subq56	aeq0, aeq1, aeq2 }
    4c10:	60c504        	ae_lq32f.i	aeq3, a5, 0
    4c13:	633114        	ae_sq56s.i	aeq3, a1, 8
    4c16:	61c124        	ae_lq56.i	aeq3, a1, 16
    4c19:	d6c42d037f 	{ ae_lp16x2f.i	aep0, a3, 28; ae_ltq56s	b0, aeq3, aeq0 }
    4c1e:	6005f4        	ae_lq32f.i	aeq0, a5, -4
    4c21:	0e003de11f 	{ ae_lq56.i	aeq3, a1, 8; ae_mulzaafq32sp16s.lh	aeq0, aeq2, aep0, aeq0, aep0 }
    4c26:	0c03c000ef 	{ movi	a14, 0; ae_mulzaafq32sp16s.lh	aeq1, aeq1, aep0, aeq3, aep0 }
    4c2b:	fc244001ff 	{ movi	a15, 1; ae_roundsq32asym	aeq0, aeq0 }
    4c30:	fd2c56ef0f 	{ movt	a14, a15, b0; ae_roundsq32asym	aeq1, aeq1 }
    4c35:	621504        	ae_sq32f.i	aeq1, a5, 0
    4c38:	6205f4        	ae_sq32f.i	aeq0, a5, -4
    4c3b:	5eac           	beqz.n	a14, 4c64 <prelim_filter+0x1ac>
    4c3d:	40c132        	addi	a3, a1, 64
    4c40:	80a042        	movi	a4, 128
    4c43:	5f0c           	movi.n	a15, 5
    4c45:	398444        	ae_movpa24x2	aep0, a4, a4
    4c48:	fcc222        	addi	a2, a2, -4
    4c4b:	441304        	ae_lp16x2f.i	aep1, a3, 0
    4c4e:	128f76        	loop	a15, 4c64 <prelim_filter+0x1ac>
    4c51:	cc04eda21f 	{ ae_lp16x2f.iu	aep2, a2, 4; ae_sraip24	aep1, aep1, 1 }
    4c56:	0f20a4        	ae_sraip24	aep2, aep2, 1
    4c59:	d9292d931f 	{ ae_lp16x2f.iu	aep1, a3, 4; ae_addsp24s	aep2, aep2, aep1 }
    4c5e:	07a024        	ae_addsp24s	aep2, aep2, aep0
    4c61:	4623f4        	ae_sp16x2f.i	aep2, a3, -4

00004c64 <prelim_filter+0x1ac>:
    4c64:	ed8921        	l32r	a2, 288 (155555 <_end+0x149175>)
    4c67:	4cc632        	addi	a3, a6, 76
    4c6a:	0b9652        	l16si	a5, a6, 22
    4c6d:	398224        	ae_movpa24x2	aep0, a2, a2
    4c70:	600304        	ae_lq32f.i	aeq0, a3, 0
    4c73:	f6c2b1664e 	{ l32i	a4, a6, 88; ae_mulafq32sp24s.l	aeq0, aeq2, aep0 }
    4c78:	11f520        	slli	a15, a5, 14
    4c7b:	fc247176ae 	{ l32i	a10, a6, 92; ae_roundsq32asym	aeq0, aeq0 }
    4c80:	ed4f21        	l32r	a2, 1bc (88fc <airoha_divide_limit_1>)
    4c83:	53b4f0        	max	a11, a4, a15
    4c86:	620304        	ae_sq32f.i	aeq0, a3, 0
    4c89:	0002e0        	callx8	a2
    4c8c:	ed8041        	l32r	a4, 28c (175e97 <_end+0x169ab7>)
    4c8f:	379aa4        	ae_truncp24a32x2	aep1, a10, a10
    4c92:	f8e6e2044f 	{ ae_movpa24x2	aep0, a4, a4; ae_roundsp16asym	aep1, aep1 }
    4c97:	ab2642        	l32i	a4, a6, 0x2ac
    4c9a:	20c652        	addi	a5, a6, 32
    4c9d:	421504        	ae_sp16f.l.i	aep1, a5, 0
    4ca0:	af0c           	movi.n	a15, 10
    4ca2:	600314        	ae_lq32f.i	aeq0, a3, 4
    4ca5:	401404        	ae_lp16f.i	aep1, a4, 0
    4ca8:	0a8f76        	loop	a15, 4cb6 <prelim_filter+0x1fe>
    4cab:	ea21ec941f 	{ ae_lp16f.iu	aep1, a4, 2; ae_mulfp24s.ll	aeq1, aep0, aep1 }
    4cb0:	1b9d24        	ae_roundsp24q48asym	aep2, aeq1
    4cb3:	012234        	ae_mulafp24s.ll	aeq0, aep2, aep2

00004cb6 <prelim_filter+0x1fe>:
    4cb6:	fc2462b6be 	{ l16si	a11, a6, 86; ae_roundsq32asym	aeq0, aeq0 }
    4cbb:	620314        	ae_sq32f.i	aeq0, a3, 4
    4cbe:	ed7431        	l32r	a3, 290 (4508 <find_phase>)
    4cc1:	60c1a2        	addi	a10, a1, 96
    4cc4:	0003e0        	callx8	a3
    4cc7:	1626f2        	l32i	a15, a6, 88
    4cca:	ffa042        	movi	a4, 255
    4ccd:	00a472        	movi	a7, 0x400
    4cd0:	0a5d           	mov.n	a5, a10
    4cd2:	068d           	mov.n	a8, a6
    4cd4:	7fd442        	addmi	a4, a4, 0x7f00
    4cd7:	030c           	movi.n	a3, 0
    4cd9:	502f77        	blt	a15, a7, 4d2d <prelim_filter+0x275>
    4cdc:	109832        	l16si	a3, a8, 32
    4cdf:	089862        	l16si	a6, a8, 16
    4ce2:	0998b2        	l16si	a11, a8, 18
    4ce5:	c0a360        	sub	a10, a3, a6
    4ce8:	130c           	movi.n	a3, 1
    4cea:	3f1aa6        	blti	a10, 1, 4d2d <prelim_filter+0x275>
    4ced:	086d           	mov.n	a6, a8
    4cef:	1baab7        	bge	a10, a11, 4d0e <prelim_filter+0x256>
    4cf2:	40c142        	addi	a4, a1, 64
    4cf5:	0002e0        	callx8	a2
    4cf8:	a20c           	movi.n	a2, 10
    4cfa:	378aa4        	ae_truncp24a32x2	aep0, a10, a10
    4cfd:	401404        	ae_lp16f.i	aep1, a4, 0
    4d00:	0a8276        	loop	a2, 4d0e <prelim_filter+0x256>
    4d03:	ea05ac941f 	{ ae_lp16f.iu	aep1, a4, 2; ae_mulfp24s.ll	aeq0, aep1, aep0 }
    4d08:	1b8f24        	ae_roundsp16q48asym	aep2, aeq0
    4d0b:	4224f4        	ae_sp16f.l.i	aep2, a4, -2

00004d0e <prelim_filter+0x256>:
    4d0e:	aa2642        	l32i	a4, a6, 0x2a8
    4d11:	40c122        	addi	a2, a1, 64
    4d14:	05a0f2        	movi	a15, 5
    4d17:	440204        	ae_lp16x2f.i	aep0, a2, 0
    4d1a:	fcc442        	addi	a4, a4, -4
    4d1d:	0a8f76        	loop	a15, 4d2b <prelim_filter+0x273>
    4d20:	449414        	ae_lp16x2f.iu	aep1, a4, 4
    4d23:	dc06ed821f 	{ ae_lp16x2f.iu	aep0, a2, 4; ae_subsp24s	aep1, aep1, aep0 }
    4d28:	461404        	ae_sp16x2f.i	aep1, a4, 0

00004d2b <prelim_filter+0x273>:
    4d2b:	040c           	movi.n	a4, 0

00004d2d <prelim_filter+0x275>:
    4d2d:	d128           	l32i.n	a2, a1, 52
    4d2f:	e1f8           	l32i.n	a15, a1, 56
    4d31:	0259           	s32i.n	a5, a2, 0
    4d33:	1239           	s32i.n	a3, a2, 4
    4d35:	6f4d           	ae_s16i.n	a4, a15, 0
    4d37:	f01d           	retw.n

00004d39 <prelim_filter+0x281>:
    4d39:	000000                                        ...

00004d3c <prelim_filter3>:
    4d3c:	00a136        	entry	a1, 80
    4d3f:	8159           	s32i.n	a5, a1, 32
    4d41:	2b1252        	l16ui	a5, a2, 86
    4d44:	1c3466        	bnei	a4, 3, 4d64 <prelim_filter3+0x28>
    4d47:	170c           	movi.n	a7, 1
    4d49:	854d           	ae_sext16	a4, a5
    4d4b:	50a362        	movi	a6, 0x350
    4d4e:	117740        	slli	a7, a7, 12
    4d51:	2f0c           	movi.n	a15, 2
    4d53:	4ca3e2        	movi	a14, 0x34c
    4d56:	626a           	add.n	a6, a2, a6
    4d58:	a90c           	movi.n	a9, 10
    4d5a:	3179           	s32i.n	a7, a1, 12
    4d5c:	22ea           	add.n	a2, a2, a14
    4d5e:	214540        	srai	a4, a4, 5
    4d61:	000646        	j	4d7e <prelim_filter3+0x42>

00004d64 <prelim_filter3+0x28>:
    4d64:	170c           	movi.n	a7, 1
    4d66:	854d           	ae_sext16	a4, a5
    4d68:	f0a362        	movi	a6, 0x3f0
    4d6b:	117720        	slli	a7, a7, 14
    4d6e:	5f0c           	movi.n	a15, 5
    4d70:	eca3e2        	movi	a14, 0x3ec
    4d73:	626a           	add.n	a6, a2, a6
    4d75:	491c           	movi.n	a9, 20
    4d77:	3179           	s32i.n	a7, a1, 12
    4d79:	22ea           	add.n	a2, a2, a14
    4d7b:	214a40        	srai	a4, a4, 10
    4d7e:	51f9           	s32i.n	a15, a1, 20
    4d80:	0288           	l32i.n	a8, a2, 0
    4d82:	0668           	l32i.n	a6, a6, 0
    4d84:	0358           	l32i.n	a5, a3, 0
    4d86:	16c3a2        	addi	a10, a3, 22
    4d89:	10c3f2        	addi	a15, a3, 16
    4d8c:	734b           	addi.n	a7, a3, 4
    4d8e:	4149           	s32i.n	a4, a1, 16
    4d90:	7139           	s32i.n	a3, a1, 28
    4d92:	240c           	movi.n	a4, 2
    4d94:	3b0c           	movi.n	a11, 3
    4d96:	f3f6f0        	wur.ae_cbegin0	a15
    4d99:	f3f7a0        	wur.ae_cend0	a10
    4d9c:	61a9           	s32i.n	a10, a1, 24
    4d9e:	fc24ac0a0f 	{ ae_lp16f.i	aep0, a10, 0; ae_zeroq56	aeq0 }
    4da3:	093d           	mov.n	a3, a9
    4da5:	fec622        	addi	a2, a6, -2
    4da8:	fec882        	addi	a8, a8, -2
    4dab:	9179           	s32i.n	a7, a1, 36
    4dad:	a199           	s32i.n	a9, a1, 40
    4daf:	409814        	ae_lp16f.iu	aep1, a8, 2
    4db2:	0b6182        	s32i	a8, a1, 44
    4db5:	608704        	ae_lq32f.i	aeq2, a7, 0
    4db8:	fd0462954f 	{ ae_sp16f.l.c	aep1, a5, a4; ae_movq56	aeq1, aeq0 }
    4dbd:	0c8b76        	loop	a11, 4dcd <prelim_filter3+0x91>
    4dc0:	fc24d9154f 	{ ae_lp16f.c	aep1, a5, a4; nop }
    4dc5:	f686fd571f 	{ ae_lq32f.iu	aeq2, a7, 4; ae_mulafq32sp16s.l	aeq1, aeq2, aep1 }
    4dca:	011134        	ae_mulafp24s.ll	aeq0, aep1, aep1

00004dcd <prelim_filter3+0x91>:
    4dcd:	ff0c3a909f 	{ ae_slliq56	aeq2, aeq1, 1; ae_cvtq48p24s.l	aeq3, aep0 }
    4dd2:	f97630518e 	{ l32i	a8, a1, 20; ae_addq56	aeq1, aeq2, aeq1 }
    4dd7:	f93efb002f 	{ ae_sraiq56	aeq0, aeq0, 2; ae_subq56	aeq1, aeq3, aeq1 }
    4ddc:	1b9f74        	ae_roundsp16q48asym	aep7, aeq1
    4ddf:	fc247f7f5f 	{ ae_cvta32p24.l	a15, aep7; ae_roundsq32asym	aeq0, aeq0 }
    4de4:	400800        	ssr	a8
    4de7:	368b04        	ae_trunca32q48	a11, aeq0
    4dea:	ecf481        	l32r	a8, 1bc (88fc <airoha_divide_limit_1>)
    4ded:	b1a0f0        	sra	a10, a15
    4df0:	0008e0        	callx8	a8
    4df3:	3b0c           	movi.n	a11, 3
    4df5:	f4c782        	addi	a8, a7, -12
    4df8:	6007d4        	ae_lq32f.i	aeq0, a7, -12
    4dfb:	378aa4        	ae_truncp24a32x2	aep0, a10, a10
    4dfe:	108b76        	loop	a11, 4e12 <prelim_filter3+0xd6>
    4e01:	fc24d9154f 	{ ae_lp16f.c	aep1, a5, a4; nop }
    4e06:	010134        	ae_mulafp24s.ll	aeq0, aep0, aep1
    4e09:	060934        	ae_roundsq32asym	aeq0, aeq0
    4e0c:	620804        	ae_sq32f.i	aeq0, a8, 0
    4e0f:	601814        	ae_lq32f.iu	aeq0, a8, 4
    4e12:	fc248f487e 	{ addi	a7, a8, -12; ae_zeroq56	aeq0 }
    4e17:	a198           	l32i.n	a9, a1, 40
    4e19:	b188           	l32i.n	a8, a1, 44
    4e1b:	330b           	addi.n	a3, a3, -1
    4e1d:	408214        	ae_lp16f.iu	aep0, a2, 2
    4e20:	f8b356        	bnez	a3, 4daf <prelim_filter3+0x73>
    4e23:	7128           	l32i.n	a2, a1, 28
    4e25:	61e8           	l32i.n	a14, a1, 24
    4e27:	41f190        	srli	a15, a9, 1
    4e2a:	006252        	s32i	a5, a2, 0
    4e2d:	fc24b20e0f 	{ ae_sp16f.l.i	aep0, a14, 0; ae_zeroq56	aeq0 }
    4e32:	440604        	ae_lp16x2f.i	aep0, a6, 0
    4e35:	048f76        	loop	a15, 4e3d <prelim_filter3+0x101>
    4e38:	e2002d861f 	{ ae_lp16x2f.iu	aep0, a6, 4; ae_mulaafp24s.hh.ll	aeq0, aep0, aep0 }
    4e3d:	fc2470313e 	{ l32i	a3, a1, 12; ae_roundsq32asym	aeq0, aeq0 }
    4e42:	368204        	ae_trunca32q48	a2, aeq0
    4e45:	91a8           	l32i.n	a10, a1, 36
    4e47:	41b8           	l32i.n	a11, a1, 16
    4e49:	722320        	salt	a2, a3, a2
    4e4c:	ed1131        	l32r	a3, 290 (4508 <find_phase>)
    4e4f:	0003e0        	callx8	a3
    4e52:	8138           	l32i.n	a3, a1, 32
    4e54:	1329           	s32i.n	a2, a3, 4
    4e56:	03a9           	s32i.n	a10, a3, 0
    4e58:	f01d           	retw.n

00004e5a <prelim_filter3+0x11e>:
	...

00004e5c <cm_short_vad>:
    4e5c:	004136        	entry	a1, 32
    4e5f:	235d           	ae_l16si.n	a5, a3, 0
    4e61:	024d           	mov.n	a4, a2
    4e63:	420c           	movi.n	a2, 4
    4e65:	192547        	blt	a5, a4, 4e82 <cm_short_vad+0x26>
    4e68:	335d           	ae_l16si.n	a5, a3, 2
    4e6a:	220c           	movi.n	a2, 2
    4e6c:	029362        	l16si	a6, a3, 4
    4e6f:	0f2547        	blt	a5, a4, 4e82 <cm_short_vad+0x26>
    4e72:	020c           	movi.n	a2, 0
    4e74:	0a2647        	blt	a6, a4, 4e82 <cm_short_vad+0x26>
    4e77:	039322        	l16si	a2, a3, 6
    4e7a:	cf7c           	movi.n	a15, -4
    4e7c:	722240        	salt	a2, a2, a4
    4e7f:	9022f0        	addx2	a2, a2, a15

00004e82 <cm_short_vad+0x26>:
    4e82:	f01d           	retw.n

00004e84 <cali_module_short>:
    4e84:	004136        	entry	a1, 32
    4e87:	ec8441        	l32r	a4, 98 (c3d4 <p_ecnr_mem>)
    4e8a:	050c           	movi.n	a5, 0
    4e8c:	0448           	l32i.n	a4, a4, 0
    4e8e:	1ad442        	addmi	a4, a4, 0x1a00
    4e91:	189442        	l16si	a4, a4, 48
    4e94:	4b24a6        	blti	a4, 2, 4ee3 <cali_module_short+0x5f>
    4e97:	1348           	l32i.n	a4, a3, 4
    4e99:	0378           	l32i.n	a7, a3, 0
    4e9b:	2b0c           	movi.n	a11, 2
    4e9d:	5014a6        	blti	a4, 1, 4ef1 <cali_module_short+0x6d>
    4ea0:	559282        	l16si	a8, a2, 170
    4ea3:	669262        	l16si	a6, a2, 204
    4ea6:	317070        	srai	a7, a7, 16
    4ea9:	47a877        	bge	a8, a7, 4ef4 <cali_module_short+0x70>
    4eac:	549252        	l16si	a5, a2, 168
    4eaf:	649292        	l16si	a9, a2, 200
    4eb2:	6c92a2        	l16si	a10, a2, 216
    4eb5:	727570        	salt	a7, a5, a7
    4eb8:	9057b0        	addx2	a5, a7, a11
    4ebb:	773b           	addi.n	a7, a7, 3
    4ebd:	676a           	add.n	a6, a7, a6
    4ebf:	436690        	min	a6, a6, a9
    4ec2:	6b2ae6        	bgei	a10, 2, 4f31 <cali_module_short+0xad>
    4ec5:	6b9272        	l16si	a7, a2, 214
    4ec8:	05d292        	addmi	a9, a2, 0x500
    4ecb:	2c99a2        	l16si	a10, a9, 88
    4ece:	871b           	addi.n	a8, a7, 1
    4ed0:	887d           	ae_sext16	a7, a8
    4ed2:	6b5282        	s16i	a8, a2, 214
    4ed5:	38c7a6        	blti	a7, 32, 4f11 <cali_module_short+0x8d>
    4ed8:	00a282        	movi	a8, 0x200
    4edb:	4d9787        	bne	a7, a8, 4f2c <cali_module_short+0xa8>
    4ede:	270c           	movi.n	a7, 2
    4ee0:	001286        	j	4f2e <cali_module_short+0xaa>

00004ee3 <cali_module_short+0x5f>:
    4ee3:	040c           	movi.n	a4, 0
    4ee5:	655242        	s16i	a4, a2, 202
    4ee8:	695242        	s16i	a4, a2, 210
    4eeb:	675242        	s16i	a4, a2, 206
    4eee:	003a46        	j	4fdb <cali_module_short+0x157>

00004ef1 <cali_module_short+0x6d>:
    4ef1:	000fc6        	j	4f34 <cali_module_short+0xb0>

00004ef4 <cali_module_short+0x70>:
    4ef4:	569282        	l16si	a8, a2, 172
    4ef7:	050c           	movi.n	a5, 0
    4ef9:	579292        	l16si	a9, a2, 174
    4efc:	312877        	blt	a8, a7, 4f31 <cali_module_short+0xad>
    4eff:	f9c652        	addi	a5, a6, -7
    4f02:	1ca977        	bge	a9, a7, 4f22 <cali_module_short+0x9e>
    4f05:	560b           	addi.n	a5, a6, -1
    4f07:	0f0c           	movi.n	a15, 0
    4f09:	5365f0        	max	a6, a5, a15
    4f0c:	e57c           	movi.n	a5, -2
    4f0e:	0007c6        	j	4f31 <cali_module_short+0xad>

00004f11 <cali_module_short+0x8d>:
    4f11:	162282        	l32i	a8, a2, 88
    4f14:	117a60        	slli	a7, a10, 10
    4f17:	0b0c           	movi.n	a11, 0
    4f19:	14a877        	bge	a8, a7, 4f31 <cali_module_short+0xad>
    4f1c:	6b52b2        	s16i	a11, a2, 214
    4f1f:	000386        	j	4f31 <cali_module_short+0xad>

00004f22 <cali_module_short+0x9e>:
    4f22:	0f0c           	movi.n	a15, 0
    4f24:	5365f0        	max	a6, a5, a15
    4f27:	c57c           	movi.n	a5, -4
    4f29:	000106        	j	4f31 <cali_module_short+0xad>

00004f2c <cali_module_short+0xa8>:
    4f2c:	170c           	movi.n	a7, 1
    4f2e:	6c5272        	s16i	a7, a2, 216
    4f31:	665262        	s16i	a6, a2, 204
    4f34:	3368           	l32i.n	a6, a3, 12
    4f36:	655252        	s16i	a5, a2, 202
    4f39:	070c           	movi.n	a7, 0
    4f3b:	6716a6        	blti	a6, 1, 4fa6 <cali_module_short+0x122>
    4f3e:	2368           	l32i.n	a6, a3, 8
    4f40:	5c9282        	l16si	a8, a2, 184
    4f43:	450c           	movi.n	a5, 4
    4f45:	317060        	srai	a7, a6, 16
    4f48:	1a2877        	blt	a8, a7, 4f66 <cali_module_short+0xe2>
    4f4b:	5d9282        	l16si	a8, a2, 186
    4f4e:	250c           	movi.n	a5, 2
    4f50:	5e9292        	l16si	a9, a2, 188
    4f53:	0f2877        	blt	a8, a7, 4f66 <cali_module_short+0xe2>
    4f56:	050c           	movi.n	a5, 0
    4f58:	0a2977        	blt	a9, a7, 4f66 <cali_module_short+0xe2>
    4f5b:	5f9252        	l16si	a5, a2, 190
    4f5e:	cf7c           	movi.n	a15, -4
    4f60:	725570        	salt	a5, a5, a7
    4f63:	9055f0        	addx2	a5, a5, a15
    4f66:	675252        	s16i	a5, a2, 206
    4f69:	3c14a6        	blti	a4, 1, 4fa9 <cali_module_short+0x125>
    4f6c:	ec9341        	l32r	a4, 1b8 (bab0 <immediate_num>)
    4f6f:	0358           	l32i.n	a5, a3, 0
    4f71:	378564        	ae_truncp24a32x2	aep0, a5, a6
    4f74:	441474        	ae_lp16x2f.i	aep1, a4, 28
    4f77:	f006a582fe 	{ l16si	a15, a2, 176; ae_mulzaafp24s.hh.ll	aeq0, aep1, aep0 }
    4f7c:	450c           	movi.n	a5, 4
    4f7e:	f863a5926e 	{ l16si	a6, a2, 178; ae_roundsp16q48asym	aep0, aeq0 }
    4f83:	360424        	ae_trunca16p24s.l	a4, aep0
    4f86:	5a9272        	l16si	a7, a2, 180
    4f89:	1c2f47        	blt	a15, a4, 4fa9 <cali_module_short+0x125>
    4f8c:	844d           	ae_sext16	a4, a4
    4f8e:	250c           	movi.n	a5, 2
    4f90:	152647        	blt	a6, a4, 4fa9 <cali_module_short+0x125>
    4f93:	050c           	movi.n	a5, 0
    4f95:	102747        	blt	a7, a4, 4fa9 <cali_module_short+0x125>
    4f98:	5b9252        	l16si	a5, a2, 182
    4f9b:	cf7c           	movi.n	a15, -4
    4f9d:	724540        	salt	a4, a5, a4
    4fa0:	9054f0        	addx2	a5, a4, a15
    4fa3:	000086        	j	4fa9 <cali_module_short+0x125>

00004fa6 <cali_module_short+0x122>:
    4fa6:	675272        	s16i	a7, a2, 206
    4fa9:	5368           	l32i.n	a6, a3, 20
    4fab:	040c           	movi.n	a4, 0
    4fad:	695252        	s16i	a5, a2, 210
    4fb0:	2716a6        	blti	a6, 1, 4fdb <cali_module_short+0x157>
    4fb3:	4338           	l32i.n	a3, a3, 16
    4fb5:	609252        	l16si	a5, a2, 192
    4fb8:	440c           	movi.n	a4, 4
    4fba:	313030        	srai	a3, a3, 16
    4fbd:	1a2537        	blt	a5, a3, 4fdb <cali_module_short+0x157>
    4fc0:	619252        	l16si	a5, a2, 194
    4fc3:	240c           	movi.n	a4, 2
    4fc5:	629262        	l16si	a6, a2, 196
    4fc8:	0f2537        	blt	a5, a3, 4fdb <cali_module_short+0x157>
    4fcb:	040c           	movi.n	a4, 0
    4fcd:	0a2637        	blt	a6, a3, 4fdb <cali_module_short+0x157>
    4fd0:	639242        	l16si	a4, a2, 198
    4fd3:	cf7c           	movi.n	a15, -4
    4fd5:	723430        	salt	a3, a4, a3
    4fd8:	9043f0        	addx2	a4, a3, a15
    4fdb:	685242        	s16i	a4, a2, 208
    4fde:	f01d           	retw.n

00004fe0 <LH_34_1_setup>:
    4fe0:	004136        	entry	a1, 32
    4fe3:	0348           	l32i.n	a4, a3, 0
    4fe5:	13d8           	l32i.n	a13, a3, 4
    4fe7:	02e8           	l32i.n	a14, a2, 0
    4fe9:	315040        	srai	a5, a4, 16
    4fec:	f8d552        	addmi	a5, a5, 0xfffff800
    4fef:	a55d           	ae_clamps16	a5, a5
    4ff1:	82f8           	l32i.n	a15, a2, 32
    4ff3:	fecd32        	addi	a3, a13, -2
    4ff6:	115500        	slli	a5, a5, 16
    4ff9:	835430        	moveqz	a5, a4, a3
    4ffc:	533e50        	max	a3, a14, a5
    4fff:	434f50        	min	a4, a15, a5
    5002:	0239           	s32i.n	a3, a2, 0
    5004:	8249           	s32i.n	a4, a2, 32
    5006:	f01d           	retw.n

00005008 <cali_power>:
    5008:	006136        	entry	a1, 48
    500b:	ec2351        	l32r	a5, 98 (c3d4 <p_ecnr_mem>)
    500e:	0a0c           	movi.n	a10, 0
    5010:	0558           	l32i.n	a5, a5, 0
    5012:	1ad552        	addmi	a5, a5, 0x1a00
    5015:	fd24a1855e 	{ l16si	a5, a5, 48; ae_zeroq56	aeq1 }
    501a:	0225e6        	bgei	a5, 2, 5020 <cali_power+0x18>
    501d:	009b86        	j	528f <cali_power+0x287>
    5020:	1448           	l32i.n	a4, a4, 4
    5022:	0214e6        	bgei	a4, 1, 5028 <cali_power+0x20>
    5025:	009986        	j	528f <cali_power+0x287>
    5028:	1c1342        	l16ui	a4, a3, 56
    502b:	721352        	l16ui	a5, a3, 228
    502e:	300454        	ae_cvtp24a16x2.ll	aep0, a4, a5
    5031:	e800a6c3ee 	{ l16si	a14, a3, 216; ae_mulfp24s.hh	aeq0, aep0, aep0 }
    5036:	ab22f2        	l32i	a15, a2, 0x2ac
    5039:	d4e23ac22e 	{ l32i	a2, a2, 0x2b0; ae_mulfq32sp16s.l	aeq0, aeq0, aep0 }
    503e:	4e1b           	addi.n	a4, a14, 1
    5040:	644040        	extui	a4, a4, 0, 7
    5043:	f86380056f 	{ movi	a6, 5; ae_roundsp16q48asym	aep0, aeq0 }
    5048:	6c5342        	s16i	a4, a3, 216
    504b:	fc0c77011f 	{ ae_sp24x2s.i	aep0, a1, 8; ae_movq56	aeq0, aeq1 }
    5050:	fccf42        	addi	a4, a15, -4
    5053:	440204        	ae_lp16x2f.i	aep0, a2, 0
    5056:	098676        	loop	a6, 5063 <cali_power+0x5b>
    5059:	e2002d941f 	{ ae_lp16x2f.iu	aep1, a4, 4; ae_mulaafp24s.hh.ll	aeq0, aep0, aep0 }
    505e:	e2246d821f 	{ ae_lp16x2f.iu	aep0, a2, 4; ae_mulaafp24s.hh.ll	aeq1, aep1, aep1 }

00005063 <cali_power+0x5b>:
    5063:	739322        	l16si	a2, a3, 230
    5066:	140c           	movi.n	a4, 1
    5068:	114410        	slli	a4, a4, 15
    506b:	3500b4        	ae_sraiq56	aeq0, aeq0, 2
    506e:	fc2440c45f 	{ movi	a5, 196; ae_roundsq32asym	aeq0, aeq0 }
    5073:	c04420        	sub	a4, a4, a2
    5076:	3550b4        	ae_sraiq56	aeq1, aeq1, 2
    5079:	fd2c40c86f 	{ movi	a6, 200; ae_roundsq32asym	aeq1, aeq1 }
    507e:	60b534        	ae_lq32f.xu	aeq2, a5, a3
    5081:	300244        	ae_cvtp24a16x2.ll	aep0, a2, a4
    5084:	0e003c663f 	{ ae_lq32f.xu	aeq3, a6, a3; ae_mulzaafq32sp16s.lh	aeq0, aeq2, aep0, aeq0, aep0 }
    5089:	0e01c001ef 	{ movi	a14, 1; ae_mulzaafq32sp16s.lh	aeq1, aeq3, aep0, aeq1, aep0 }
    508e:	060934        	ae_roundsq32asym	aeq0, aeq0
    5091:	fd2c79850f 	{ ae_sq32f.i	aeq0, a5, 0; ae_roundsq32asym	aeq1, aeq1 }
    5096:	621604        	ae_sq32f.i	aeq1, a6, 0
    5099:	312352        	l32i	a5, a3, 196
    509c:	3223f2        	l32i	a15, a3, 200
    509f:	112e40        	slli	a2, a14, 12
    50a2:	21a350        	srai	a10, a5, 3
    50a5:	ec4551        	l32r	a5, 1bc (88fc <airoha_divide_limit_1>)
    50a8:	53b2f0        	max	a11, a2, a15
    50ab:	0005e0        	callx8	a5
    50ae:	212342        	l32i	a4, a3, 132
    50b1:	292372        	l32i	a7, a3, 164
    50b4:	6c1392        	l16ui	a9, a3, 216
    50b7:	5384a0        	max	a8, a4, a10
    50ba:	4347a0        	min	a4, a7, a10
    50bd:	0a2d           	mov.n	a2, a10
    50bf:	216382        	s32i	a8, a3, 132
    50c2:	296342        	s32i	a4, a3, 164
    50c5:	052956        	bnez	a9, 511b <cali_power+0x113>
    50c8:	6d9372        	l16si	a7, a3, 218
    50cb:	378884        	ae_truncp24a32x2	aep0, a8, a8
    50ce:	f8e2ab944f 	{ ae_truncp24a32x2	aep1, a4, a4; ae_roundsp16asym	aep0, aep0 }
    50d3:	f8e6c088df 	{ movi	a13, 136; ae_roundsp16asym	aep1, aep1 }
    50d8:	a8a0e2        	movi	a14, 168
    50db:	ec6e81        	l32r	a8, 294 (4a54 <take_max_four>)
    50de:	a3da           	add.n	a10, a3, a13
    50e0:	11f7f0        	slli	a15, a7, 1
    50e3:	cb0c           	movi.n	a11, 12
    50e5:	43ea           	add.n	a4, a3, a14
    50e7:	430af4        	ae_sp16f.l.x	aep0, a10, a15
    50ea:	4314f4        	ae_sp16f.l.x	aep1, a4, a15
    50ed:	0008e0        	callx8	a8
    50f0:	ec6a81        	l32r	a8, 298 (49ec <take_min_four>)
    50f3:	2863a2        	s32i	a10, a3, 160
    50f6:	cb0c           	movi.n	a11, 12
    50f8:	04ad           	mov.n	a10, a4
    50fa:	0008e0        	callx8	a8
    50fd:	ec6741        	l32r	a4, 29c (c0010000 <_end+0xc0003c20>)
    5100:	ad0c           	movi.n	a13, 10
    5102:	216342        	s32i	a4, a3, 132
    5105:	724d70        	salt	a4, a13, a7
    5108:	e71b           	addi.n	a14, a7, 1
    510a:	0f0c           	movi.n	a15, 0
    510c:	ec6581        	l32r	a8, 2a0 (3fff0000 <_end+0x3ffe3c20>)
    510f:	83fe40        	moveqz	a15, a14, a4
    5112:	3063a2        	s32i	a10, a3, 192
    5115:	296382        	s32i	a8, a3, 164
    5118:	6d53f2        	s16i	a15, a3, 218

0000511b <cali_power+0x113>:
    511b:	0648           	l32i.n	a4, a6, 0
    511d:	1f0c           	movi.n	a15, 1
    511f:	10df62        	addmi	a6, a15, 0x1000
    5122:	02a467        	bge	a4, a6, 5128 <cali_power+0x120>
    5125:	0027c6        	j	51c8 <cali_power+0x1c0>
    5128:	36c234        	ae_cvtq48a32s	aeq3, a2
    512b:	540114        	ae_lp24x2.i	aep0, a1, 8
    512e:	d6e300c04f 	{ movi	a4, 192; ae_mulfq32sp16s.l	aeq0, aeq3, aep0 }
    5133:	606344        	ae_lq32f.x	aeq1, a3, a4
    5136:	d6440000ff 	{ movi	a15, 0; ae_ltq56s	b0, aeq1, aeq0 }
    513b:	160c           	movi.n	a6, 1
    513d:	ec1e41        	l32r	a4, 1b8 (bab0 <immediate_num>)
    5140:	d3f600        	movt	a15, a6, b0
    5143:	8fac           	beqz.n	a15, 516f <cali_power+0x167>
    5145:	fc2440d06f 	{ movi	a6, 208; ae_roundsq32asym	aeq0, aeq0 }
    514a:	cca0f2        	movi	a15, 204
    514d:	38c442        	addi	a4, a4, 56
    5150:	440404        	ae_lp16x2f.i	aep0, a4, 0
    5153:	607634        	ae_lq32f.xu	aeq1, a6, a3
    5156:	0c03ed142f 	{ ae_lp16x2f.i	aep1, a4, 8; ae_mulzaafq32sp16s.lh	aeq1, aeq1, aep0, aeq3, aep0 }
    515b:	60bf34        	ae_lq32f.xu	aeq2, a15, a3
    515e:	c11184        	ae_mulzaafq32sp16s.lh	aeq0, aeq2, aep1, aeq0, aep1
    5161:	065934        	ae_roundsq32asym	aeq1, aeq1
    5164:	fc2479960f 	{ ae_sq32f.i	aeq1, a6, 0; ae_roundsq32asym	aeq0, aeq0 }
    5169:	620f04        	ae_sq32f.i	aeq0, a15, 0
    516c:	001606        	j	51c8 <cali_power+0x1c0>

0000516f <cali_power+0x167>:
    516f:	a0a042        	movi	a4, 160
    5172:	602344        	ae_lq32f.x	aeq0, a3, a4
    5175:	d4e20000ff 	{ movi	a15, 0; ae_mulfq32sp16s.l	aeq0, aeq0, aep0 }
    517a:	160c           	movi.n	a6, 1
    517c:	d6c430011f 	{ ae_lp24x2.i	aep0, a1, 8; ae_ltq56s	b0, aeq3, aeq0 }
    5181:	000bd4        	ae_cvta32p24.l	a11, aep0
    5184:	ec0f41        	l32r	a4, 1c0 (87f4 <airoha_divide>)
    5187:	d3f600        	movt	a15, a6, b0
    518a:	afbc           	beqz.n	a15, 51c8 <cali_power+0x1c0>
    518c:	02ad           	mov.n	a10, a2
    518e:	633114        	ae_sq56s.i	aeq3, a1, 8
    5191:	0004e0        	callx8	a4
    5194:	ec0941        	l32r	a4, 1b8 (bab0 <immediate_num>)
    5197:	360b34        	ae_cvtq48a32s	aeq0, a11
    519a:	d0a062        	movi	a6, 208
    519d:	fc24fe8a0f 	{ ae_slaasq56s	aeq0, aeq0, a10; nop }
    51a2:	fc2440cc7f 	{ movi	a7, 204; ae_roundsq32asym	aeq0, aeq0 }
    51a7:	38c442        	addi	a4, a4, 56
    51aa:	607634        	ae_lq32f.xu	aeq1, a6, a3
    51ad:	441414        	ae_lp16x2f.i	aep1, a4, 4
    51b0:	0c253c473f 	{ ae_lq32f.xu	aeq2, a7, a3; ae_mulzaafq32sp16s.lh	aeq0, aeq1, aep1, aeq0, aep1 }
    51b5:	440404        	ae_lp16x2f.i	aep0, a4, 0
    51b8:	fc247de11f 	{ ae_lq56.i	aeq3, a1, 8; ae_roundsq32asym	aeq0, aeq0 }
    51bd:	0f02b9860f 	{ ae_sq32f.i	aeq0, a6, 0; ae_mulzaafq32sp16s.lh	aeq2, aeq2, aep0, aeq3, aep0 }
    51c2:	06e934        	ae_roundsq32asym	aeq3, aeq2
    51c5:	623704        	ae_sq32f.i	aeq3, a7, 0
    51c8:	332342        	l32i	a4, a3, 204
    51cb:	342362        	l32i	a6, a3, 208
    51ce:	c02240        	sub	a2, a2, a4
    51d1:	c0b640        	sub	a11, a6, a4
    51d4:	21a120        	srai	a10, a2, 1
    51d7:	0005e0        	callx8	a5
    51da:	761322        	l16ui	a2, a3, 236
    51dd:	f550a0        	extui	a5, a10, 16, 16
    51e0:	7413d2        	l16ui	a13, a3, 232
    51e3:	824d           	ae_sext16	a4, a2
    51e5:	112400        	slli	a2, a4, 16
    51e8:	33aa27        	bge	a10, a2, 521f <cali_power+0x217>
    51eb:	6f9342        	l16si	a4, a3, 222
    51ee:	852c           	movi.n	a5, 40
    51f0:	7513c2        	l16ui	a12, a3, 234
    51f3:	441b           	addi.n	a4, a4, 1
    51f5:	844d           	ae_sext16	a4, a4
    51f7:	434450        	min	a4, a4, a5
    51fa:	3004c4        	ae_cvtp24a16x2.ll	aep0, a4, a12
    51fd:	ea0080d4df 	{ movi	a13, 212; ae_mulfp24s.hl	aeq0, aep0, aep0 }
    5202:	6063d4        	ae_lq32f.x	aeq1, a3, a13
    5205:	360294        	ae_sllisq56s	aeq0, aeq0, 10
    5208:	f82ac000ff 	{ movi	a15, 0; ae_subq56	aeq0, aeq1, aeq0 }
    520d:	060934        	ae_roundsq32asym	aeq0, aeq0
    5210:	368e04        	ae_trunca32q48	a14, aeq0
    5213:	6f5342        	s16i	a4, a3, 222
    5216:	534ef0        	max	a4, a14, a15
    5219:	356342        	s32i	a4, a3, 212
    521c:	000a46        	j	5249 <cali_power+0x241>

0000521f <cali_power+0x217>:
    521f:	c04540        	sub	a4, a5, a4
    5222:	3004d4        	ae_cvtp24a16x2.ll	aep0, a4, a13
    5225:	e80080d4ef 	{ movi	a14, 212; ae_mulfp24s.hh	aeq0, aep0, aep0 }
    522a:	d4e20000ff 	{ movi	a15, 0; ae_mulfq32sp16s.l	aeq0, aeq0, aep0 }
    522f:	6f53f2        	s16i	a15, a3, 222
    5232:	3603d4        	ae_sllisq56s	aeq0, aeq0, 15
    5235:	fc247c2e3f 	{ ae_lq32f.xu	aeq1, a14, a3; ae_roundsq32asym	aeq0, aeq0 }
    523a:	350174        	ae_sraiq56	aeq0, aeq0, 5
    523d:	0118c4        	ae_addq56	aeq0, aeq1, aeq0
    5240:	060934        	ae_roundsq32asym	aeq0, aeq0
    5243:	620e04        	ae_sq32f.i	aeq0, a14, 0
    5246:	352342        	l32i	a4, a3, 212
    5249:	150c           	movi.n	a5, 1
    524b:	015520        	slli	a5, a5, 30
    524e:	214140        	srai	a4, a4, 1
    5251:	445a           	add.n	a4, a4, a5
    5253:	378a44        	ae_truncp24a32x2	aep0, a10, a4
    5256:	e801bec27f 	{ ae_cvtq48a32s	aeq1, a2; ae_mulfp24s.lh	aeq0, aep0, aep0 }
    525b:	0e0c           	movi.n	a14, 0
    525d:	350054        	ae_slliq56	aeq0, aeq0, 1
    5260:	d5440001ff 	{ movi	a15, 1; ae_leq56s	b0, aeq1, aeq0 }
    5265:	060c           	movi.n	a6, 0
    5267:	140c           	movi.n	a4, 1
    5269:	d3ef00        	movt	a14, a15, b0
    526c:	6e8c           	beqz.n	a14, 5276 <cali_power+0x26e>
    526e:	6e9322        	l16si	a2, a3, 220
    5271:	224b           	addi.n	a2, a2, 4
    5273:	000546        	j	528c <cali_power+0x284>

00005276 <cali_power+0x26e>:
    5276:	779322        	l16si	a2, a3, 238
    5279:	6e9352        	l16si	a5, a3, 220
    527c:	112200        	slli	a2, a2, 16
    527f:	364234        	ae_cvtq48a32s	aeq1, a2
    5282:	d6480fc52e 	{ addi	a2, a5, -4; ae_ltq56s	b0, aeq0, aeq1 }
    5287:	d36400        	movt	a6, a4, b0
    528a:	168c           	beqz.n	a6, 528f <cali_power+0x287>
    528c:	6e5322        	s16i	a2, a3, 220
    528f:	3120a0        	srai	a2, a10, 16
    5292:	705322        	s16i	a2, a3, 224
    5295:	f01d           	retw.n

00005297 <cali_power+0x28f>:
	...

00005298 <mag_calibration>:
    5298:	004136        	entry	a1, 32
    529b:	ebc731        	l32r	a3, 1b8 (bab0 <immediate_num>)
    529e:	e4a042        	movi	a4, 228
    52a1:	4cc2e2        	addi	a14, a2, 76
    52a4:	28c362        	addi	a6, a3, 40
    52a7:	603424        	ae_lq32f.xu	aeq0, a4, a2
    52aa:	440604        	ae_lp16x2f.i	aep0, a6, 0
    52ad:	604e04        	ae_lq32f.i	aeq1, a14, 0
    52b0:	0c0080e8ff 	{ movi	a15, 232; ae_mulzaafq32sp16s.lh	aeq0, aeq0, aep0, aeq1, aep0 }
    52b5:	608e14        	ae_lq32f.i	aeq2, a14, 4
    52b8:	fc247c6f2f 	{ ae_lq32f.xu	aeq3, a15, a2; ae_roundsq32asym	aeq0, aeq0 }
    52bd:	0e0379840f 	{ ae_sq32f.i	aeq0, a4, 0; ae_mulzaafq32sp16s.lh	aeq1, aeq3, aep0, aeq2, aep0 }
    52c2:	3922b2        	l32i	a11, a2, 228
    52c5:	ff2c40015f 	{ movi	a5, 1; ae_roundsq32asym	aeq3, aeq1 }
    52ca:	10d552        	addmi	a5, a5, 0x1000
    52cd:	623f04        	ae_sq32f.i	aeq3, a15, 0
    52d0:	02ab57        	bge	a11, a5, 52d6 <mag_calibration+0x3e>
    52d3:	004646        	j	53f0 <mag_calibration+0x158>
    52d6:	3a2242        	l32i	a4, a2, 232
    52d9:	8aa152        	movi	a5, 0x18a
    52dc:	21a240        	srai	a10, a4, 2
    52df:	ebb741        	l32r	a4, 1bc (88fc <airoha_divide_limit_1>)
    52e2:	0004e0        	callx8	a4
    52e5:	6a9242        	l16si	a4, a2, 212
    52e8:	378aa4        	ae_truncp24a32x2	aep0, a10, a10
    52eb:	f8e2b3b26e 	{ l32i	a6, a2, 236; ae_roundsp16asym	aep0, aep0 }
    52f0:	441b           	addi.n	a4, a4, 1
    52f2:	94fd           	ae_zext16	a15, a4
    52f4:	430254        	ae_sp16f.l.x	aep0, a2, a5
    52f7:	6a5242        	s16i	a4, a2, 212
    52fa:	02cf26        	beqi	a15, 32, 5300 <mag_calibration+0x68>
    52fd:	003686        	j	53db <mag_calibration+0x143>
    5300:	719262        	l16si	a6, a2, 226
    5303:	f0a072        	movi	a7, 240
    5306:	a27a           	add.n	a10, a2, a7
    5308:	040c           	movi.n	a4, 0
    530a:	771252        	l16ui	a5, a2, 238
    530d:	9066a0        	addx2	a6, a6, a10
    5310:	6a5242        	s16i	a4, a2, 212
    5313:	665d           	ae_s16i.n	a5, a6, 0
    5315:	ebdf51        	l32r	a5, 294 (4a54 <take_max_four>)
    5318:	cb0c           	movi.n	a11, 12
    531a:	0005e0        	callx8	a5
    531d:	719272        	l16si	a7, a2, 226
    5320:	10a182        	movi	a8, 0x110
    5323:	4262a2        	s32i	a10, a2, 0x108
    5326:	a28a           	add.n	a10, a2, a8
    5328:	871252        	l16ui	a5, a2, 0x10e
    532b:	9077a0        	addx2	a7, a7, a10
    532e:	675d           	ae_s16i.n	a5, a7, 0
    5330:	ebda51        	l32r	a5, 298 (49ec <take_min_four>)
    5333:	cb0c           	movi.n	a11, 12
    5335:	08a162        	movi	a6, 0x108
    5338:	0005e0        	callx8	a5
    533b:	e0a052        	movi	a5, 224
    533e:	418524        	ae_lp16f.xu	aep0, a5, a2
    5341:	ea01fb926f 	{ ae_lq32f.x	aeq0, a2, a6; ae_mulfp24s.ll	aeq1, aep0, aep0 }
    5346:	4a62a2        	s32i	a10, a2, 0x128
    5349:	f86b8128ef 	{ movi	a14, 0x128; ae_roundsp16q48asym	aep0, aeq1 }
    534e:	d5e23bb2ef 	{ ae_lq32f.x	aeq1, a2, a14; ae_mulfq32sp16s.l	aeq2, aeq0, aep0 }
    5353:	0f0c           	movi.n	a15, 0
    5355:	d65400017f 	{ movi	a7, 1; ae_ltq56s	b0, aeq1, aeq2 }
    535a:	cda062        	movi	a6, 205
    535d:	6cd662        	addmi	a6, a6, 0x6c00
    5360:	d3f700        	movt	a15, a7, b0
    5363:	6fac           	beqz.n	a15, 538d <mag_calibration+0xf5>
    5365:	fe3458866f 	{ ae_cvtp24a16x2.ll	aep0, a6, a6; ae_roundsq32asym	aeq2, aeq2 }
    536a:	d7e20000ff 	{ movi	a15, 0; ae_mulfq32sp16s.l	aeq2, aeq2, aep0 }
    536f:	170c           	movi.n	a7, 1
    5371:	d6c800dc6f 	{ movi	a6, 220; ae_ltq56s	b0, aeq2, aeq1 }
    5376:	2cc332        	addi	a3, a3, 44
    5379:	d3f700        	movt	a15, a7, b0
    537c:	df8c           	beqz.n	a15, 538d <mag_calibration+0xf5>
    537e:	440304        	ae_lp16x2f.i	aep0, a3, 0
    5381:	607624        	ae_lq32f.xu	aeq1, a6, a2
    5384:	c10044        	ae_mulzaafq32sp16s.lh	aeq0, aeq1, aep0, aeq0, aep0
    5387:	060934        	ae_roundsq32asym	aeq0, aeq0
    538a:	620604        	ae_sq32f.i	aeq0, a6, 0

0000538d <mag_calibration+0xf5>:
    538d:	3722b2        	l32i	a11, a2, 220
    5390:	eb4131        	l32r	a3, 94 (680 <HIFI_sqrt>)
    5393:	0a0c           	movi.n	a10, 0
    5395:	0003e0        	callx8	a3
    5398:	360b34        	ae_cvtq48a32s	aeq0, a11
    539b:	fc24fe8a0f 	{ ae_slaasq56s	aeq0, aeq0, a10; nop }
    53a0:	fc246c050f 	{ ae_lp16f.i	aep0, a5, 0; ae_roundsq32asym	aeq0, aeq0 }
    53a5:	d4e22712de 	{ l16si	a13, a2, 226; ae_mulfq32sp16s.l	aeq0, aeq0, aep0 }
    53aa:	5ca532        	movi	a3, 0x55c
    53ad:	c592c2        	l16si	a12, a2, 0x18a
    53b0:	411234        	ae_lp16f.x	aep1, a2, a3
    53b3:	d4e6001d3e 	{ addi	a3, a13, 1; ae_mulfq32sp16s.l	aeq0, aeq0, aep1 }
    53b8:	115c00        	slli	a5, a12, 16
    53bb:	83ed           	ae_sext16	a14, a3
    53bd:	b60c           	movi.n	a6, 11
    53bf:	350054        	ae_slliq56	aeq0, aeq0, 1
    53c2:	3b6252        	s32i	a5, a2, 236
    53c5:	436252        	s32i	a5, a2, 0x10c
    53c8:	7256e0        	salt	a5, a6, a14
    53cb:	933450        	movnez	a3, a4, a5
    53ce:	fb63c542fe 	{ addi	a15, a2, 84; ae_roundsp16q48asym	aep7, aeq0 }
    53d3:	715232        	s16i	a3, a2, 226
    53d6:	427f04        	ae_sp16f.l.i	aep7, a15, 0
    53d9:	f01d           	retw.n

000053db <mag_calibration+0x143>:
    53db:	c59232        	l16si	a3, a2, 0x18a
    53de:	432252        	l32i	a5, a2, 0x10c
    53e1:	113300        	slli	a3, a3, 16
    53e4:	534630        	max	a4, a6, a3
    53e7:	433530        	min	a3, a5, a3
    53ea:	3b6242        	s32i	a4, a2, 236
    53ed:	436232        	s32i	a3, a2, 0x10c
    53f0:	f01d           	retw.n

000053f2 <mag_calibration+0x15a>:
	...

000053f4 <beam1_proc>:
    53f4:	008136        	entry	a1, 64
    53f7:	5169           	s32i.n	a6, a1, 20
    53f9:	fc2491664f 	{ addx2	a6, a6, a4; ae_zeroq56	aeq0 }
    53fe:	3b15a6        	blti	a5, 1, 543d <beam1_proc+0x49>
    5401:	05a0f2        	movi	a15, 5
    5404:	046172        	s32i	a7, a1, 16
    5407:	440604        	ae_lp16x2f.i	aep0, a6, 0
    540a:	204660        	or	a4, a6, a6
    540d:	048f76        	loop	a15, 5415 <beam1_proc+0x21>
    5410:	e2002d841f 	{ ae_lp16x2f.iu	aep0, a4, 4; ae_mulaafp24s.hh.ll	aeq0, aep0, aep0 }

00005415 <beam1_proc+0x21>:
    5415:	3500b4        	ae_sraiq56	aeq0, aeq0, 2
    5418:	fc2440014f 	{ movi	a4, 1; ae_roundsq32asym	aeq0, aeq0 }
    541d:	1a0c           	movi.n	a10, 1
    541f:	270c           	movi.n	a7, 2
    5421:	014470        	slli	a4, a4, 25
    5424:	01aab0        	slli	a10, a10, 21
    5427:	727750        	salt	a7, a7, a5
    542a:	93a470        	movnez	a10, a4, a7
    542d:	368b04        	ae_trunca32q48	a11, aeq0
    5430:	eb6441        	l32r	a4, 1c0 (87f4 <airoha_divide>)
    5433:	0004e0        	callx8	a4
    5436:	4178           	l32i.n	a7, a1, 16
    5438:	71a9           	s32i.n	a10, a1, 28
    543a:	ffffc6        	j	543d <beam1_proc+0x49>

0000543d <beam1_proc+0x49>:
    543d:	18c342        	addi	a4, a3, 24
    5440:	28c3a2        	addi	a10, a3, 40
    5443:	fec6c2        	addi	a12, a6, -2
    5446:	14c362        	addi	a6, a3, 20
    5449:	4398           	l32i.n	a9, a3, 16
    544b:	1388           	l32i.n	a8, a3, 4
    544d:	4139           	s32i.n	a3, a1, 16
    544f:	6c9232        	l16si	a3, a2, 216
    5452:	0d0c           	movi.n	a13, 0
    5454:	6169           	s32i.n	a6, a1, 24
    5456:	400604        	ae_lp16f.i	aep0, a6, 0
    5459:	5168           	l32i.n	a6, a1, 20
    545b:	627d70        	saltu	a7, a13, a7
    545e:	723d30        	salt	a3, a13, a3
    5461:	103730        	and	a3, a7, a3
    5464:	030470        	rsr.br	a7
    5467:	908680        	addx2	a8, a6, a8
    546a:	0a0370        	depbits	a7, a3, 0, 1
    546d:	130470        	wsr.br	a7
    5470:	0e0c           	movi.n	a14, 0
    5472:	1f0c           	movi.n	a15, 1
    5474:	fec862        	addi	a6, a8, -2
    5477:	360b34        	ae_cvtq48a32s	aeq0, a11
    547a:	f3f640        	wur.ae_cbegin0	a4
    547d:	fd0c16ef0f 	{ movt	a14, a15, b0; ae_cvtq48p24s.l	aeq1, aep0 }
    5482:	2b0c           	movi.n	a11, 2
    5484:	870c           	movi.n	a7, 8
    5486:	f3f7a0        	wur.ae_cend0	a10
    5489:	204aa0        	or	a4, a10, a10
    548c:	20f660        	or	a15, a6, a6
    548f:	409c14        	ae_lp16f.iu	aep1, a12, 2
    5492:	fc24e299bf 	{ ae_sp16f.l.c	aep1, a9, a11; nop }
    5497:	400404        	ae_lp16f.i	aep0, a4, 0
    549a:	208440        	or	a8, a4, a4
    549d:	098776        	loop	a7, 54aa <beam1_proc+0xb6>
    54a0:	fc24d919bf 	{ ae_lp16f.c	aep1, a9, a11; nop }
    54a5:	ee21ec881f 	{ ae_lp16f.iu	aep0, a8, 2; ae_mulsfp24s.ll	aeq1, aep0, aep1 }

000054aa <beam1_proc+0xb6>:
    54aa:	f86bec8f1f 	{ ae_lp16f.iu	aep0, a15, 2; ae_roundsp16q48asym	aep1, aeq1 }
    54af:	0914a4        	ae_movp48	aep2, aep1
    54b2:	1eac           	beqz.n	a14, 54d7 <beam1_proc+0xe3>
    54b4:	402204        	ae_lp16f.i	aep2, a2, 0
    54b7:	eb29bd227f 	{ ae_lq32f.i	aeq1, a2, 28; ae_mulfp24s.ll	aeq2, aep2, aep1 }
    54bc:	407224        	ae_lp16f.i	aep7, a2, 4
    54bf:	35a094        	ae_slliq56	aeq2, aeq2, 2
    54c2:	f59fac321f 	{ ae_lp16f.i	aep3, a2, 2; ae_mulafq32sp16s.l	aeq2, aeq1, aep7 }
    54c7:	60c264        	ae_lq32f.i	aeq3, a2, 24
    54ca:	f78fb9b27f 	{ ae_sq32f.i	aeq3, a2, 28; ae_mulafq32sp16s.l	aeq2, aeq3, aep3 }
    54cf:	06a934        	ae_roundsq32asym	aeq2, aeq2
    54d2:	f973b9a26f 	{ ae_sq32f.i	aeq2, a2, 24; ae_roundsp16q48asym	aep2, aeq2 }

000054d7 <beam1_proc+0xe3>:
    54d7:	d4e672a61f 	{ ae_sp16f.l.iu	aep2, a6, 2; ae_mulfq32sp16s.l	aeq1, aeq0, aep1 }
    54dc:	f0c842        	addi	a4, a8, -16
    54df:	2815a6        	blti	a5, 1, 550b <beam1_proc+0x117>
    54e2:	0430d0        	extui	a3, a13, 0, 1
    54e5:	23ec           	bnez.n	a3, 550b <beam1_proc+0x117>
    54e7:	7138           	l32i.n	a3, a1, 28
    54e9:	fc24fe934f 	{ ae_slaasq56s	aeq1, aeq1, a3; nop }
    54ee:	f86fec288f 	{ ae_lp16f.i	aep2, a8, -16; ae_roundsp24q48asym	aep1, aeq1 }
    54f3:	f03d           	nop.n
    54f5:	0f8776        	loop	a7, 5508 <beam1_proc+0x114>
    54f8:	fd4c1979bf 	{ ae_lp16f.c	aep7, a9, a11; ae_cvtq48p24s.l	aeq1, aep2 }
    54fd:	e2e7eca41f 	{ ae_lp16f.iu	aep2, a4, 2; ae_mulafp24s.ll	aeq1, aep1, aep7 }
    5502:	1b9f34        	ae_roundsp16q48asym	aep3, aeq1
    5505:	4234f4        	ae_sp16f.l.i	aep3, a4, -2

00005508 <beam1_proc+0x114>:
    5508:	f0c442        	addi	a4, a4, -16

0000550b <beam1_proc+0x117>:
    550b:	fd0c001dde 	{ addi	a13, a13, 1; ae_cvtq48p24s.l	aeq1, aep0 }
    5510:	029d26        	beqi	a13, 10, 5516 <beam1_proc+0x122>
    5513:	ffde06        	j	548f <beam1_proc+0x9b>
    5516:	4158           	l32i.n	a5, a1, 16
    5518:	6168           	l32i.n	a6, a1, 24
    551a:	440c           	movi.n	a4, 4
    551c:	fc2482853e 	{ addi	a3, a5, 40; ae_zeroq56	aeq0 }
    5521:	420604        	ae_sp16f.l.i	aep0, a6, 0
    5524:	440304        	ae_lp16x2f.i	aep0, a3, 0
    5527:	203aa0        	or	a3, a10, a10
    552a:	046592        	s32i	a9, a5, 16
    552d:	048476        	loop	a4, 5535 <beam1_proc+0x141>
    5530:	e2002d831f 	{ ae_lp16x2f.iu	aep0, a3, 4; ae_mulaafp24s.hh.ll	aeq0, aep0, aep0 }

00005535 <beam1_proc+0x141>:
    5535:	f863a0622e 	{ l16si	a2, a2, 12; ae_roundsp16q48asym	aep0, aeq0 }
    553a:	360324        	ae_trunca16p24s.l	a3, aep0
    553d:	0b5532        	s16i	a3, a5, 22
    5540:	faa042        	movi	a4, 250
    5543:	1ca237        	bge	a2, a3, 5563 <beam1_proc+0x16f>
    5546:	7ed422        	addmi	a2, a4, 0x7e00
    5549:	830c           	movi.n	a3, 8
    554b:	300224        	ae_cvtp24a16x2.ll	aep0, a2, a2
    554e:	401a04        	ae_lp16f.i	aep1, a10, 0
    5551:	f03d           	nop.n
    5553:	f03d           	nop.n
    5555:	0a8376        	loop	a3, 5563 <beam1_proc+0x16f>
    5558:	ea21ac9a1f 	{ ae_lp16f.iu	aep1, a10, 2; ae_mulfp24s.ll	aeq0, aep0, aep1 }
    555d:	1b8f24        	ae_roundsp16q48asym	aep2, aeq0
    5560:	422af4        	ae_sp16f.l.i	aep2, a10, -2

00005563 <beam1_proc+0x16f>:
    5563:	f01d           	retw.n

00005565 <beam1_proc+0x171>:
    5565:	000000                                        ...

00005568 <beam2_proc>:
    5568:	010136        	entry	a1, 128
    556b:	ec7c           	movi.n	a12, -2
    556d:	03ed           	mov.n	a14, a3
    556f:	72b5c0        	salt	a11, a5, a12
    5572:	fd248090cf 	{ movi	a12, 144; ae_zeroq56	aeq1 }
    5577:	852b           	addi.n	a8, a5, 2
    5579:	8f7c           	movi.n	a15, -8
    557b:	aa7c           	movi.n	a10, -6
    557d:	93af80        	movnez	a10, a15, a8
    5580:	c3ca           	add.n	a12, a3, a12
    5582:	a0a092        	movi	a9, 160
    5585:	80d7f2        	addmi	a15, a7, 0xffff8000
    5588:	02dd           	mov.n	a13, a2
    558a:	b27c           	movi.n	a2, -5
    558c:	f3f6c0        	wur.ae_cbegin0	a12
    558f:	c39a           	add.n	a12, a3, a9
    5591:	a169           	s32i.n	a6, a1, 40
    5593:	fec632        	addi	a3, a6, -2
    5596:	6f1b           	addi.n	a6, a15, 1
    5598:	190c           	movi.n	a9, 1
    559a:	303774        	ae_cvtp24a16x2.ll	aep3, a7, a7
    559d:	832ab0        	moveqz	a2, a10, a11
    55a0:	91b9           	s32i.n	a11, a1, 36
    55a2:	2f9eb2        	l16si	a11, a14, 94
    55a5:	f3f7c0        	wur.ae_cend0	a12
    55a8:	6276f0        	saltu	a7, a6, a15
    55ab:	72c590        	salt	a12, a5, a9
    55ae:	106c70        	and	a6, a12, a7
    55b1:	2121c2        	l32i	a12, a1, 132
    55b4:	182ea2        	l32i	a10, a14, 96
    55b7:	1ef8           	l32i.n	a15, a14, 4
    55b9:	0e98           	l32i.n	a9, a14, 0
    55bb:	11bb10        	slli	a11, a11, 15
    55be:	727ab0        	salt	a7, a10, a11
    55c1:	90acf0        	addx2	a10, a12, a15
    55c4:	90bc90        	addx2	a11, a12, a9
    55c7:	2221f2        	l32i	a15, a1, 136
    55ca:	202192        	l32i	a9, a1, 128
    55cd:	e1f9           	s32i.n	a15, a1, 56
    55cf:	c199           	s32i.n	a9, a1, 48
    55d1:	c97c           	movi.n	a9, -4
    55d3:	a1f8           	l32i.n	a15, a1, 40
    55d5:	839580        	moveqz	a9, a5, a8
    55d8:	9188           	l32i.n	a8, a1, 36
    55da:	833f70        	moveqz	a3, a15, a7
    55dd:	070c           	movi.n	a7, 0
    55df:	939780        	movnez	a9, a7, a8
    55e2:	232a           	add.n	a2, a3, a2
    55e4:	904c40        	addx2	a4, a12, a4
    55e7:	5ecec2        	addi	a12, a14, 94
    55ea:	d159           	s32i.n	a5, a1, 52
    55ec:	fecb52        	addi	a5, a11, -2
    55ef:	b39a           	add.n	a11, a3, a9
    55f1:	069d           	mov.n	a9, a6
    55f3:	126122        	s32i	a2, a1, 72
    55f6:	05dd62        	addmi	a6, a13, 0x500
    55f9:	162e22        	l32i	a2, a14, 88
    55fc:	fcc332        	addi	a3, a3, -4
    55ff:	106162        	s32i	a6, a1, 64
    5602:	38ce62        	addi	a6, a14, 56
    5605:	64ce82        	addi	a8, a14, 100
    5608:	81c9           	s32i.n	a12, a1, 32
    560a:	404cf4        	ae_lp16f.i	aep4, a12, -2
    560d:	fec4c2        	addi	a12, a4, -2
    5610:	040c           	movi.n	a4, 0
    5612:	fecaf2        	addi	a15, a10, -2
    5615:	1461b2        	s32i	a11, a1, 80
    5618:	116132        	s32i	a3, a1, 68
    561b:	270c           	movi.n	a7, 2
    561d:	030c           	movi.n	a3, 0
    561f:	b149           	s32i.n	a4, a1, 44
    5621:	136182        	s32i	a8, a1, 76
    5624:	f169           	s32i.n	a6, a1, 60
    5626:	1761d2        	s32i	a13, a1, 92
    5629:	1661e2        	s32i	a14, a1, 88
    562c:	563124        	ae_sp24x2s.i	aep3, a1, 16
    562f:	156192        	s32i	a9, a1, 84
    5632:	000506        	j	564a <beam2_proc+0xe2>

00005635 <beam2_proc+0xcd>:
	...

00005636 <beam2_proc+0xce>:
    5636:	408c14        	ae_lp16f.iu	aep0, a12, 2
    5639:	fa62b2c51f 	{ ae_sp16f.l.iu	aep4, a5, 2; ae_movp48	aep4, aep0 }
    563e:	064d           	mov.n	a4, a6
    5640:	331b           	addi.n	a3, a3, 1
    5642:	046d           	mov.n	a6, a4
    5644:	029366        	bnei	a3, 10, 564a <beam2_proc+0xe2>
    5647:	0044c6        	j	575e <beam2_proc+0x1f6>
    564a:	6c1d42        	l16ui	a4, a13, 216
    564d:	408f14        	ae_lp16f.iu	aep0, a15, 2
    5650:	fc24a2827f 	{ ae_sp16f.l.c	aep0, a2, a7; ae_zeroq56	aeq0 }
    5655:	fdd416        	beqz	a4, 5636 <beam2_proc+0xce>
    5658:	840c           	movi.n	a4, 8
    565a:	500604        	ae_lp24f.i	aep0, a6, 0
    565d:	098476        	loop	a4, 566a <beam2_proc+0x102>
    5660:	fc24d9127f 	{ ae_lp16f.c	aep1, a2, a7; nop }
    5665:	e223ae861f 	{ ae_lp24f.iu	aep0, a6, 4; ae_mulafp24s.ll	aeq0, aep0, aep1 }

0000566a <beam2_proc+0x102>:
    566a:	f867bf446f 	{ ae_trunca16p24s.l	a4, aep4; ae_roundsp24q48asym	aep0, aeq0 }
    566f:	0ac484        	ae_cvtq48p24s.l	aeq3, aep4
    5672:	058bc4        	ae_mulssfp24s.hh.ll	aeq3, aep0, aep3
    5675:	604140        	abs	a4, a4
    5678:	1bbf04        	ae_roundsp16q48asym	aep0, aeq3
    567b:	360824        	ae_trunca16p24s.l	a8, aep0
    567e:	608180        	abs	a8, a8
    5681:	02a487        	bge	a4, a8, 5687 <beam2_proc+0x11f>
    5684:	094484        	ae_movp48	aep0, aep4

00005687 <beam2_proc+0x11f>:
    5687:	40cc14        	ae_lp16f.iu	aep4, a12, 2
    568a:	e0c642        	addi	a4, a6, -32
    568d:	428514        	ae_sp16f.l.iu	aep0, a5, 2
    5690:	fac916        	beqz	a9, 5640 <beam2_proc+0xd8>
    5693:	025326        	beqi	a3, 5, 5699 <beam2_proc+0x131>
    5696:	096356        	bnez	a3, 5730 <beam2_proc+0x1c8>
    5699:	fc2499027f 	{ ae_lp16f.c	aep0, a2, a7; ae_zeroq56	aeq0 }
    569e:	fc24d9027f 	{ ae_lp16f.c	aep0, a2, a7; nop }
    56a3:	fc24d9027f 	{ ae_lp16f.c	aep0, a2, a7; nop }
    56a8:	fc24d9027f 	{ ae_lp16f.c	aep0, a2, a7; nop }
    56ad:	e20380048f 	{ movi	a8, 4; ae_mulafp24s.ll	aeq0, aep0, aep0 }
    56b2:	0020f0        	nop
    56b5:	078876        	loop	a8, 56c0 <beam2_proc+0x158>
    56b8:	fc24d9027f 	{ ae_lp16f.c	aep0, a2, a7; nop }
    56bd:	010034        	ae_mulafp24s.ll	aeq0, aep0, aep0

000056c0 <beam2_proc+0x158>:
    56c0:	132182        	l32i	a8, a1, 76
    56c3:	3500b4        	ae_sraiq56	aeq0, aeq0, 2
    56c6:	564134        	ae_sp24x2s.i	aep4, a1, 24
    56c9:	604804        	ae_lq32f.i	aeq1, a8, 0
    56cc:	f96a1491ff 	{ s32i.n	a15, a1, 36; ae_addq56	aeq1, aeq1, aeq0 }
    56d1:	fc2454a1cf 	{ s32i.n	a12, a1, 40; ae_roundsq32asym	aeq0, aeq0 }
    56d6:	ff2c79880f 	{ ae_sq32f.i	aeq0, a8, 0; ae_roundsq32asym	aeq3, aeq1 }
    56db:	669d92        	l16si	a9, a13, 204
    56de:	36bb04        	ae_trunca32q48	a11, aeq3
    56e1:	142182        	l32i	a8, a1, 80
    56e4:	1a6eb2        	s32i	a11, a14, 104
    56e7:	2019a6        	blti	a9, 1, 570b <beam2_proc+0x1a3>
    56ea:	180c           	movi.n	a8, 1
    56ec:	55a592        	movi	a9, 0x555
    56ef:	b189           	s32i.n	a8, a1, 44
    56f1:	122182        	l32i	a8, a1, 72
    56f4:	909990        	addx2	a9, a9, a9
    56f7:	1029b7        	blt	a9, a11, 570b <beam2_proc+0x1a3>
    56fa:	102182        	l32i	a8, a1, 64
    56fd:	112192        	l32i	a9, a1, 68
    5700:	0f0c           	movi.n	a15, 0
    5702:	2d1882        	l16ui	a8, a8, 90
    5705:	c08980        	sub	a8, a9, a8
    5708:	5388f0        	max	a8, a8, a15

0000570b <beam2_proc+0x1a3>:
    570b:	401800        	ssl	a8
    570e:	1f0c           	movi.n	a15, 1
    5710:	eaac81        	l32r	a8, 1c0 (87f4 <airoha_divide>)
    5713:	a1af00        	sll	a10, a15
    5716:	0008e0        	callx8	a8
    5719:	fd24b171de 	{ l32i	a13, a1, 92; ae_zeroq56	aeq1 }
    571e:	1621e2        	l32i	a14, a1, 88
    5721:	152192        	l32i	a9, a1, 84
    5724:	0a21c2        	l32i	a12, a1, 40
    5727:	0921f2        	l32i	a15, a1, 36
    572a:	543124        	ae_lp24x2.i	aep3, a1, 16
    572d:	544134        	ae_lp24x2.i	aep4, a1, 24
    5730:	400504        	ae_lp16f.i	aep0, a5, 0
    5733:	360b34        	ae_cvtq48a32s	aeq0, a11
    5736:	d4e200088f 	{ movi	a8, 8; ae_mulfq32sp16s.l	aeq0, aeq0, aep0 }
    573b:	fc24fe8a0f 	{ ae_slaasq56s	aeq0, aeq0, a10; nop }
    5740:	f867ae168f 	{ ae_lp24f.i	aep1, a6, -32; ae_roundsp24q48asym	aep0, aeq0 }
    5745:	0f8876        	loop	a8, 5758 <beam2_proc+0x1f0>
    5748:	fc2c19727f 	{ ae_lp16f.c	aep7, a2, a7; ae_cvtq48p24s.l	aeq0, aep1 }
    574d:	e2e3ae941f 	{ ae_lp24f.iu	aep1, a4, 4; ae_mulafp24s.ll	aeq0, aep0, aep7 }
    5752:	1b8d24        	ae_roundsp24q48asym	aep2, aeq0
    5755:	5224f4        	ae_sp24f.l.i	aep2, a4, -4

00005758 <beam2_proc+0x1f0>:
    5758:	e0c442        	addi	a4, a4, -32
    575b:	ffb846        	j	5640 <beam2_proc+0xd8>

0000575e <beam2_proc+0x1f6>:
    575e:	8168           	l32i.n	a6, a1, 32
    5760:	f178           	l32i.n	a7, a1, 60
    5762:	430c           	movi.n	a3, 4
    5764:	166e22        	s32i	a2, a14, 88
    5767:	4246f4        	ae_sp16f.l.i	aep4, a6, -2
    576a:	5c0e74        	ae_lp24x2f.i	aep0, a14, 56
    576d:	072d           	mov.n	a2, a7
    576f:	048376        	loop	a3, 5777 <beam2_proc+0x20f>
    5772:	e2006f821f 	{ ae_lp24x2f.iu	aep0, a2, 8; ae_mulaafp24s.hh.ll	aeq1, aep0, aep0 }

00005777 <beam2_proc+0x20f>:
    5777:	f86bb0d13e 	{ l32i	a3, a1, 52; ae_roundsp16q48asym	aep0, aeq1 }
    577c:	d27c           	movi.n	a2, -3
    577e:	420604        	ae_sp16f.l.i	aep0, a6, 0
    5781:	02a237        	bge	a2, a3, 5787 <beam2_proc+0x21f>
    5784:	002406        	j	5818 <beam2_proc+0x2b0>
    5787:	661d22        	l16ui	a2, a13, 204
    578a:	08a256        	bnez	a2, 5818 <beam2_proc+0x2b0>
    578d:	399e22        	l16si	a2, a14, 114
    5790:	2f9e42        	l16si	a4, a14, 94
    5793:	1b2e52        	l32i	a5, a14, 108
    5796:	221b           	addi.n	a2, a2, 1
    5798:	823d           	ae_sext16	a3, a2
    579a:	395e22        	s16i	a2, a14, 114
    579d:	53c3a6        	blti	a3, 32, 57f4 <beam2_proc+0x28c>
    57a0:	1b2e32        	l32i	a3, a14, 108
    57a3:	3a9e52        	l16si	a5, a14, 116
    57a6:	78cea2        	addi	a10, a14, 120
    57a9:	10c332        	addi	a3, a3, 16
    57ac:	020c           	movi.n	a2, 0
    57ae:	9055a0        	addx2	a5, a5, a10
    57b1:	413530        	srli	a3, a3, 5
    57b4:	2f9e42        	l16si	a4, a14, 94
    57b7:	395e22        	s16i	a2, a14, 114
    57ba:	653d           	ae_s16i.n	a3, a5, 0
    57bc:	3a9e32        	l16si	a3, a14, 116
    57bf:	0d6d           	mov.n	a6, a13
    57c1:	bd0c           	movi.n	a13, 11
    57c3:	331b           	addi.n	a3, a3, 1
    57c5:	83fd           	ae_sext16	a15, a3
    57c7:	1b6e42        	s32i	a4, a14, 108
    57ca:	724df0        	salt	a4, a13, a15
    57cd:	933240        	movnez	a3, a2, a4
    57d0:	eab221        	l32r	a2, 298 (49ec <take_min_four>)
    57d3:	cb0c           	movi.n	a11, 12
    57d5:	3a5e32        	s16i	a3, a14, 116
    57d8:	0e3d           	mov.n	a3, a14
    57da:	0002e0        	callx8	a2
    57dd:	182322        	l32i	a2, a3, 96
    57e0:	03ed           	mov.n	a14, a3
    57e2:	ea7531        	l32r	a3, 1b8 (bab0 <immediate_num>)
    57e5:	13a2a7        	bge	a2, a10, 57fc <beam2_proc+0x294>
    57e8:	ea7431        	l32r	a3, 1b8 (bab0 <immediate_num>)
    57eb:	20c332        	addi	a3, a3, 32
    57ee:	440304        	ae_lp16x2f.i	aep0, a3, 0
    57f1:	000346        	j	5802 <beam2_proc+0x29a>

000057f4 <beam2_proc+0x28c>:
    57f4:	254a           	add.n	a2, a5, a4
    57f6:	1b6e22        	s32i	a2, a14, 108
    57f9:	0006c6        	j	5818 <beam2_proc+0x2b0>

000057fc <beam2_proc+0x294>:
    57fc:	20c332        	addi	a3, a3, 32
    57ff:	440314        	ae_lp16x2f.i	aep0, a3, 4
    5802:	360234        	ae_cvtq48a32s	aeq0, a2
    5805:	364a34        	ae_cvtq48a32s	aeq1, a10
    5808:	0c0093d66f 	{ or	a13, a6, a6; ae_mulzaafq32sp16s.lh	aeq0, aeq0, aep0, aeq1, aep0 }
    580d:	8168           	l32i.n	a6, a1, 32
    580f:	060934        	ae_roundsq32asym	aeq0, aeq0
    5812:	368f04        	ae_trunca32q48	a15, aeq0
    5815:	186ef2        	s32i	a15, a14, 96
    5818:	1a2e22        	l32i	a2, a14, 104
    581b:	130c           	movi.n	a3, 1
    581d:	10d332        	addmi	a3, a3, 0x1000
    5820:	772237        	blt	a2, a3, 589b <beam2_proc+0x333>
    5823:	c138           	l32i.n	a3, a1, 48
    5825:	d43c           	movi.n	a4, 61
    5827:	d7a052        	movi	a5, 215
    582a:	1723e6        	bgei	a3, 2, 5845 <beam2_proc+0x2dd>
    582d:	66a032        	movi	a3, 102
    5830:	b43c           	movi.n	a4, 59
    5832:	46d332        	addmi	a3, a3, 0x4600
    5835:	114480        	slli	a4, a4, 8
    5838:	ff3c           	movi.n	a15, 63
    583a:	300434        	ae_cvtp24a16x2.ll	aep0, a4, a3
    583d:	113f70        	slli	a3, a15, 9
    5840:	000346        	j	5851 <beam2_proc+0x2e9>

00005843 <beam2_proc+0x2db>:
	...

00005845 <beam2_proc+0x2dd>:
    5845:	389e32        	l16si	a3, a14, 112
    5848:	4ad442        	addmi	a4, a4, 0x4a00
    584b:	43d552        	addmi	a5, a5, 0x4300
    584e:	300544        	ae_cvtp24a16x2.ll	aep0, a5, a4
    5851:	2f9e42        	l16si	a4, a14, 94
    5854:	182e52        	l32i	a5, a14, 96
    5857:	364534        	ae_cvtq48a32s	aeq1, a5
    585a:	114410        	slli	a4, a4, 15
    585d:	d5633ec43f 	{ ae_cvtq48a32s	aeq0, a4; ae_mulfq32sp16s.h	aeq2, aeq1, aep0 }
    5862:	d4e34000ef 	{ movi	a14, 0; ae_mulfq32sp16s.l	aeq1, aeq1, aep0 }
    5867:	d6c00001ff 	{ movi	a15, 1; ae_ltq56s	b0, aeq2, aeq0 }
    586c:	d54840004f 	{ movi	a4, 0; ae_leq56s	b1, aeq0, aeq1 }
    5871:	150c           	movi.n	a5, 1
    5873:	d3ef00        	movt	a14, a15, b0
    5876:	1eac           	beqz.n	a14, 589b <beam2_proc+0x333>
    5878:	d34510        	movt	a4, a5, b1
    587b:	448c           	beqz.n	a4, 5883 <beam2_proc+0x31b>
    587d:	aea032        	movi	a3, 174
    5880:	7fd332        	addmi	a3, a3, 0x7f00
    5883:	840c           	movi.n	a4, 8
    5885:	300334        	ae_cvtp24a16x2.ll	aep0, a3, a3
    5888:	501704        	ae_lp24f.i	aep1, a7, 0
    588b:	073d           	mov.n	a3, a7
    588d:	0a8476        	loop	a4, 589b <beam2_proc+0x333>
    5890:	ea21ae931f 	{ ae_lp24f.iu	aep1, a3, 4; ae_mulfp24s.ll	aeq0, aep0, aep1 }
    5895:	1b8d24        	ae_roundsp24q48asym	aep2, aeq0
    5898:	5223f4        	ae_sp24f.l.i	aep2, a3, -4

0000589b <beam2_proc+0x333>:
    589b:	e138           	l32i.n	a3, a1, 56
    589d:	b148           	l32i.n	a4, a1, 44
    589f:	381366        	bnei	a3, 1, 58db <beam2_proc+0x373>
    58a2:	54bc           	beqz.n	a4, 58db <beam2_proc+0x373>
    58a4:	ce1d32        	l16ui	a3, a13, 0x19c
    58a7:	cf1d42        	l16ui	a4, a13, 0x19e
    58aa:	d09d52        	l16si	a5, a13, 0x1a0
    58ad:	a3ac           	beqz.n	a3, 58db <beam2_proc+0x373>
    58af:	114480        	slli	a4, a4, 8
    58b2:	25a247        	bge	a2, a4, 58db <beam2_proc+0x373>
    58b5:	262d           	ae_l16si.n	a2, a6, 0
    58b7:	140c           	movi.n	a4, 1
    58b9:	016490        	slli	a6, a4, 23
    58bc:	1b2257        	blt	a2, a5, 58db <beam2_proc+0x373>
    58bf:	1133c0        	slli	a3, a3, 4
    58c2:	c02630        	sub	a2, a6, a3
    58c5:	8f0c           	movi.n	a15, 8
    58c7:	501704        	ae_lp24f.i	aep1, a7, 0
    58ca:	398224        	ae_movpa24x2	aep0, a2, a2
    58cd:	0a8f76        	loop	a15, 58db <beam2_proc+0x373>
    58d0:	ea21ae971f 	{ ae_lp24f.iu	aep1, a7, 4; ae_mulfp24s.ll	aeq0, aep0, aep1 }
    58d5:	1b8d24        	ae_roundsp24q48asym	aep2, aeq0
    58d8:	5227f4        	ae_sp24f.l.i	aep2, a7, -4
    58db:	f01d           	retw.n

000058dd <beam2_proc+0x375>:
    58dd:	000000                                        ...

000058e0 <beam1_mid_band>:
    58e0:	006136        	entry	a1, 48
    58e3:	fc24a6923e 	{ l16si	a3, a2, 210; ae_zeroq56	aeq0 }
    58e8:	04d242        	addmi	a4, a2, 0x400
    58eb:	3b13a6        	blti	a3, 1, 592a <beam1_mid_band+0x4a>
    58ee:	242452        	l32i	a5, a4, 144
    58f1:	a60c           	movi.n	a6, 10
    58f3:	440504        	ae_lp16x2f.i	aep0, a5, 0
    58f6:	048676        	loop	a6, 58fe <beam1_mid_band+0x1e>
    58f9:	e2002d851f 	{ ae_lp16x2f.iu	aep0, a5, 4; ae_mulaafp24s.hh.ll	aeq0, aep0, aep0 }

000058fe <beam1_mid_band+0x1e>:
    58fe:	3500b4        	ae_sraiq56	aeq0, aeq0, 2
    5901:	fc2440015f 	{ movi	a5, 1; ae_roundsq32asym	aeq0, aeq0 }
    5906:	368804        	ae_trunca32q48	a8, aeq0
    5909:	160c           	movi.n	a6, 1
    590b:	1a0c           	movi.n	a10, 1
    590d:	270c           	movi.n	a7, 2
    590f:	115550        	slli	a5, a5, 11
    5912:	53b850        	max	a11, a8, a5
    5915:	016670        	slli	a6, a6, 25
    5918:	01aab0        	slli	a10, a10, 21
    591b:	727730        	salt	a7, a7, a3
    591e:	ea2851        	l32r	a5, 1c0 (87f4 <airoha_divide>)
    5921:	93a670        	movnez	a10, a6, a7
    5924:	0005e0        	callx8	a5
    5927:	ffffc6        	j	592a <beam1_mid_band+0x4a>

0000592a <beam1_mid_band+0x4a>:
    592a:	04d272        	addmi	a7, a2, 0x400
    592d:	242442        	l32i	a4, a4, 144
    5930:	2327f2        	l32i	a15, a7, 140
    5933:	a0a452        	movi	a5, 0x4a0
    5936:	c0a462        	movi	a6, 0x4c0
    5939:	98a4e2        	movi	a14, 0x498
    593c:	2527c2        	l32i	a12, a7, 148
    593f:	525a           	add.n	a5, a2, a5
    5941:	626a           	add.n	a6, a2, a6
    5943:	458e24        	ae_lp16x2f.xu	aep0, a14, a2
    5946:	360b34        	ae_cvtq48a32s	aeq0, a11
    5949:	21e9           	s32i.n	a14, a1, 8
    594b:	fcc4d2        	addi	a13, a4, -4
    594e:	fccfe2        	addi	a14, a15, -4
    5951:	080c           	movi.n	a8, 0
    5953:	490c           	movi.n	a9, 4
    5955:	8b0c           	movi.n	a11, 8
    5957:	3179           	s32i.n	a7, a1, 12
    5959:	f3f650        	wur.ae_cbegin0	a5
    595c:	f3f760        	wur.ae_cend0	a6
    595f:	064d           	mov.n	a4, a6
    5961:	fe040feffe 	{ addi	a15, a15, -2; ae_cvtq48p24s.h	aeq2, aep0 }
    5966:	fd0c2d9d1f 	{ ae_lp16x2f.iu	aep1, a13, 4; ae_cvtq48p24s.l	aeq1, aep0 }
    596b:	fc24e41c9f 	{ ae_sp16x2f.c	aep1, a12, a9; nop }
    5970:	440404        	ae_lp16x2f.i	aep0, a4, 0
    5973:	045d           	mov.n	a5, a4
    5975:	0c8b76        	loop	a11, 5985 <beam1_mid_band+0xa5>
    5978:	fc24da9c9f 	{ ae_lp16x2f.c	aep1, a12, a9; nop }
    597d:	0581c4        	ae_mulssfp24s.hh.ll	aeq2, aep0, aep1
    5980:	ee206d851f 	{ ae_lp16x2f.iu	aep0, a5, 4; ae_mulsafp24s.hl.lh	aeq1, aep0, aep1 }

00005985 <beam1_mid_band+0xa5>:
    5985:	f873ed8e1f 	{ ae_lp16x2f.iu	aep0, a14, 4; ae_roundsp16q48asym	aep1, aeq2 }
    598a:	f96bb29f1f 	{ ae_sp16f.l.iu	aep1, a15, 2; ae_roundsp16q48asym	aep2, aeq1 }
    598f:	d5ea0e054e 	{ addi	a4, a5, -32; ae_mulfq32sp16s.l	aeq2, aeq0, aep2 }
    5994:	d4e672af1f 	{ ae_sp16f.l.iu	aep2, a15, 2; ae_mulfq32sp16s.l	aeq1, aeq0, aep1 }
    5999:	3a13a6        	blti	a3, 1, 59d7 <beam1_mid_band+0xf7>
    599c:	047080        	extui	a7, a8, 0, 1
    599f:	47fc           	bnez.n	a7, 59d7 <beam1_mid_band+0xf7>
    59a1:	442584        	ae_lp16x2f.i	aep2, a5, -32
    59a4:	fc24feaa8f 	{ ae_slaasq56s	aeq2, aeq2, a10; nop }
    59a9:	f977fe9a4f 	{ ae_slaasq56s	aeq1, aeq1, a10; ae_roundsp24q48asym	aep3, aeq2 }
    59ae:	fb6fcfe45e 	{ addi	a5, a4, -2; ae_roundsp24q48asym	aep7, aeq1 }
    59b3:	1afb14        	ae_selp24.hl	aep1, aep7, aep3
    59b6:	1a8b76        	loop	a11, 59d4 <beam1_mid_band+0xf4>
    59b9:	fd441aec9f 	{ ae_lp16x2f.c	aep6, a12, a9; ae_cvtq48p24s.h	aeq1, aep2 }
    59be:	fe4c2da41f 	{ ae_lp16x2f.iu	aep2, a4, 4; ae_cvtq48p24s.l	aeq2, aep2 }
    59c3:	051e04        	ae_mulaafp24s.hh.ll	aeq1, aep1, aep6
    59c6:	059654        	ae_mulasfp24s.hl.lh	aeq2, aep1, aep6
    59c9:	1b9f34        	ae_roundsp16q48asym	aep3, aeq1
    59cc:	fb73f2b51f 	{ ae_sp16f.l.iu	aep3, a5, 2; ae_roundsp16q48asym	aep7, aeq2 }
    59d1:	42f514        	ae_sp16f.l.iu	aep7, a5, 2
    59d4:	e0c442        	addi	a4, a4, -32

000059d7 <beam1_mid_band+0xf7>:
    59d7:	fe0400188e 	{ addi	a8, a8, 1; ae_cvtq48p24s.h	aeq2, aep0 }
    59dc:	869866        	bnei	a8, 10, 5966 <beam1_mid_band+0x86>
    59df:	2158           	l32i.n	a5, a1, 8
    59e1:	3138           	l32i.n	a3, a1, 12
    59e3:	8f0c           	movi.n	a15, 8
    59e5:	fc24b3050f 	{ ae_sp16x2f.i	aep0, a5, 0; ae_zeroq56	aeq0 }
    59ea:	440404        	ae_lp16x2f.i	aep0, a4, 0
    59ed:	2563c2        	s32i	a12, a3, 148
    59f0:	048f76        	loop	a15, 59f8 <beam1_mid_band+0x118>
    59f3:	e2002d841f 	{ ae_lp16x2f.iu	aep0, a4, 4; ae_mulaafp24s.hh.ll	aeq0, aep0, aep0 }

000059f8 <beam1_mid_band+0x118>:
    59f8:	3500b4        	ae_sraiq56	aeq0, aeq0, 2
    59fb:	f863a0624e 	{ l16si	a4, a2, 12; ae_roundsp16q48asym	aep0, aeq0 }
    5a00:	360524        	ae_trunca16p24s.l	a5, aep0
    5a03:	04d232        	addmi	a3, a2, 0x400
    5a06:	4e5352        	s16i	a5, a3, 156
    5a09:	1ea457        	bge	a4, a5, 5a2b <beam1_mid_band+0x14b>
    5a0c:	faa032        	movi	a3, 250
    5a0f:	7ed332        	addmi	a3, a3, 0x7e00
    5a12:	c0a452        	movi	a5, 0x4c0
    5a15:	041c           	movi.n	a4, 16
    5a17:	411254        	ae_lp16f.x	aep1, a2, a5
    5a1a:	300334        	ae_cvtp24a16x2.ll	aep0, a3, a3
    5a1d:	0a8476        	loop	a4, 5a2b <beam1_mid_band+0x14b>
    5a20:	ea21ac961f 	{ ae_lp16f.iu	aep1, a6, 2; ae_mulfp24s.ll	aeq0, aep0, aep1 }
    5a25:	1b8f24        	ae_roundsp16q48asym	aep2, aeq0
    5a28:	4226f4        	ae_sp16f.l.i	aep2, a6, -2

00005a2b <beam1_mid_band+0x14b>:
    5a2b:	f01d           	retw.n

00005a2d <beam1_mid_band+0x14d>:
    5a2d:	000000                                        ...

00005a30 <beam2_mid_band>:
    5a30:	00e136        	entry	a1, 112
    5a33:	02cd           	mov.n	a12, a2
    5a35:	04d272        	addmi	a7, a2, 0x400
    5a38:	749762        	l16si	a6, a7, 232
    5a3b:	3b2782        	l32i	a8, a7, 236
    5a3e:	88a4d2        	movi	a13, 0x488
    5a41:	116610        	slli	a6, a6, 15
    5a44:	a2da           	add.n	a10, a2, a13
    5a46:	90a052        	movi	a5, 144
    5a49:	5a5a           	add.n	a5, a10, a5
    5a4b:	641c           	movi.n	a4, 22
    5a4d:	831c           	movi.n	a3, 24
    5a4f:	726860        	salt	a6, a8, a6
    5a52:	6992b2        	l16si	a11, a2, 210
    5a55:	933460        	movnez	a3, a4, a6
    5a58:	b0a092        	movi	a9, 176
    5a5b:	f3f650        	wur.ae_cbegin0	a5
    5a5e:	232722        	l32i	a2, a7, 140
    5a61:	382762        	l32i	a6, a7, 224
    5a64:	242742        	l32i	a4, a7, 144
    5a67:	222752        	l32i	a5, a7, 136
    5a6a:	5ccaf2        	addi	a15, a10, 92
    5a6d:	da9a           	add.n	a13, a10, a9
    5a6f:	1e0c           	movi.n	a14, 1
    5a71:	443f04        	ae_lp16x2f.i	aep3, a15, 0
    5a74:	f3f7d0        	wur.ae_cend0	a13
    5a77:	b1f9           	s32i.n	a15, a1, 44
    5a79:	071be6        	bgei	a11, 1, 5a84 <beam2_mid_band+0x54>
    5a7c:	6c1c72        	l16ui	a7, a12, 216
    5a7f:	180c           	movi.n	a8, 1
    5a81:	62e780        	saltu	a14, a7, a8

00005a84 <beam2_mid_band+0x54>:
    5a84:	fe24858a7e 	{ addi	a7, a10, 88; ae_zeroq56	aeq2 }
    5a89:	9179           	s32i.n	a7, a1, 36
    5a8b:	60caf2        	addi	a15, a10, 96
    5a8e:	04dc72        	addmi	a7, a12, 0x400
    5a91:	fcc382        	addi	a8, a3, -4
    5a94:	05dc92        	addmi	a9, a12, 0x500
    5a97:	61a9           	s32i.n	a10, a1, 24
    5a99:	51f9           	s32i.n	a15, a1, 20
    5a9b:	fcc2f2        	addi	a15, a2, -4
    5a9e:	fcc4a2        	addi	a10, a4, -4
    5aa1:	a179           	s32i.n	a7, a1, 40
    5aa3:	e77c           	movi.n	a7, -2
    5aa5:	e189           	s32i.n	a8, a1, 56
    5aa7:	d199           	s32i.n	a9, a1, 52
    5aa9:	2b2b           	addi.n	a2, a11, 2
    5aab:	c47c           	movi.n	a4, -4
    5aad:	887c           	movi.n	a8, -8
    5aaf:	a97c           	movi.n	a9, -6
    5ab1:	939820        	movnez	a9, a8, a2
    5ab4:	834b20        	moveqz	a4, a11, a2
    5ab7:	020c           	movi.n	a2, 0
    5ab9:	727b70        	salt	a7, a11, a7
    5abc:	c1b9           	s32i.n	a11, a1, 48
    5abe:	bb7c           	movi.n	a11, -5
    5ac0:	934270        	movnez	a4, a2, a7
    5ac3:	83b970        	moveqz	a11, a9, a7
    5ac6:	73ba           	add.n	a7, a3, a11
    5ac8:	434a           	add.n	a4, a3, a4
    5aca:	880c           	movi.n	a8, 8
    5acc:	0a9d           	mov.n	a9, a10
    5ace:	106142        	s32i	a4, a1, 64
    5ad1:	fcc552        	addi	a5, a5, -4
    5ad4:	420c           	movi.n	a2, 4
    5ad6:	f179           	s32i.n	a7, a1, 60
    5ad8:	f86e80004f 	{ movi	a4, 0; ae_movp48	aep0, aep3 }
    5add:	71d9           	s32i.n	a13, a1, 28
    5adf:	0d3d           	mov.n	a3, a13
    5ae1:	08dd           	mov.n	a13, a8
    5ae3:	81c9           	s32i.n	a12, a1, 32
    5ae5:	1161e2        	s32i	a14, a1, 68
    5ae8:	003b06        	j	5bd8 <beam2_mid_band+0x1a8>

00005aeb <beam2_mid_band+0xbb>:
    5aeb:	000000                                        ...

00005aee <beam2_mid_band+0xbe>:
    5aee:	080c           	movi.n	a8, 0
    5af0:	f8e28e073e 	{ addi	a3, a7, -32; ae_roundsp16asym	aep0, aep0 }
    5af5:	468514        	ae_sp16x2f.iu	aep0, a5, 4
    5af8:	0d4e56        	bnez	a14, 5bd0 <beam2_mid_band+0x1a0>
    5afb:	025426        	beqi	a4, 5, 5b01 <beam2_mid_band+0xd1>
    5afe:	08d456        	bnez	a4, 5b8f <beam2_mid_band+0x15f>
    5b01:	fc249a862f 	{ ae_lp16x2f.c	aep0, a6, a2; ae_zeroq56	aeq0 }
    5b06:	fc24da862f 	{ ae_lp16x2f.c	aep0, a6, a2; nop }
    5b0b:	fc24da862f 	{ ae_lp16x2f.c	aep0, a6, a2; nop }
    5b10:	fc24da862f 	{ ae_lp16x2f.c	aep0, a6, a2; nop }
    5b15:	e2000004ef 	{ movi	a14, 4; ae_mulaafp24s.hh.ll	aeq0, aep0, aep0 }
    5b1a:	126192        	s32i	a9, a1, 72
    5b1d:	078e76        	loop	a14, 5b28 <beam2_mid_band+0xf8>
    5b20:	fc24da862f 	{ ae_lp16x2f.c	aep0, a6, a2; nop }
    5b25:	050004        	ae_mulaafp24s.hh.ll	aeq0, aep0, aep0

00005b28 <beam2_mid_band+0xf8>:
    5b28:	f0a492        	movi	a9, 0x4f0
    5b2b:	606c94        	ae_lq32f.x	aeq1, a12, a9
    5b2e:	3500b4        	ae_sraiq56	aeq0, aeq0, 2
    5b31:	f96a266cae 	{ l16si	a10, a12, 204; ae_addq56	aeq1, aeq1, aeq0 }
    5b36:	1361f2        	s32i	a15, a1, 76
    5b39:	fc2470a1fe 	{ l32i	a15, a1, 40; ae_roundsq32asym	aeq0, aeq0 }
    5b3e:	fd2c784c9f 	{ ae_sq32f.x	aeq0, a12, a9; ae_roundsq32asym	aeq1, aeq1 }
    5b43:	369b04        	ae_trunca32q48	a11, aeq1
    5b46:	102192        	l32i	a9, a1, 64
    5b49:	563114        	ae_sp24x2s.i	aep3, a1, 8
    5b4c:	3d6fb2        	s32i	a11, a15, 244
    5b4f:	161aa6        	blti	a10, 1, 5b69 <beam2_mid_band+0x139>
    5b52:	f198           	l32i.n	a9, a1, 60
    5b54:	ffa7a2        	movi	a10, 0x7ff
    5b57:	0e2ab7        	blt	a10, a11, 5b69 <beam2_mid_band+0x139>
    5b5a:	d198           	l32i.n	a9, a1, 52
    5b5c:	e1a8           	l32i.n	a10, a1, 56
    5b5e:	0f0c           	movi.n	a15, 0
    5b60:	2d1992        	l16ui	a9, a9, 90
    5b63:	c09a90        	sub	a9, a10, a9
    5b66:	5399f0        	max	a9, a9, a15

00005b69 <beam2_mid_band+0x139>:
    5b69:	fec9a2        	addi	a10, a9, -2
    5b6c:	83a980        	moveqz	a10, a9, a8
    5b6f:	401a00        	ssl	a10
    5b72:	1f0c           	movi.n	a15, 1
    5b74:	e99381        	l32r	a8, 1c0 (87f4 <airoha_divide>)
    5b77:	a1af00        	sll	a10, a15
    5b7a:	0008e0        	callx8	a8
    5b7d:	81c8           	l32i.n	a12, a1, 32
    5b7f:	fe24b111ee 	{ l32i	a14, a1, 68; ae_zeroq56	aeq2 }
    5b84:	1321f2        	l32i	a15, a1, 76
    5b87:	122192        	l32i	a9, a1, 72
    5b8a:	543114        	ae_lp24x2.i	aep3, a1, 8
    5b8d:	8d0c           	movi.n	a13, 8
    5b8f:	440504        	ae_lp16x2f.i	aep0, a5, 0
    5b92:	360b34        	ae_cvtq48a32s	aeq0, a11
    5b95:	d4626d178f 	{ ae_lp16x2f.i	aep1, a7, -32; ae_mulfq32sp16s.h	aeq1, aeq0, aep0 }
    5b9a:	d4e20fe37e 	{ addi	a7, a3, -2; ae_mulfq32sp16s.l	aeq0, aeq0, aep0 }
    5b9f:	fc24fe9a4f 	{ ae_slaasq56s	aeq1, aeq1, a10; nop }
    5ba4:	fb6ffe8a0f 	{ ae_slaasq56s	aeq0, aeq0, a10; ae_roundsp24q48asym	aep7, aeq1 }
    5ba9:	1b8d24        	ae_roundsp24q48asym	aep2, aeq0
    5bac:	1afa04        	ae_selp24.hl	aep0, aep7, aep2
    5baf:	1a8d76        	loop	a13, 5bcd <beam2_mid_band+0x19d>
    5bb2:	fc241ae62f 	{ ae_lp16x2f.c	aep6, a6, a2; ae_cvtq48p24s.h	aeq0, aep1 }
    5bb7:	fd2c2d931f 	{ ae_lp16x2f.iu	aep1, a3, 4; ae_cvtq48p24s.l	aeq1, aep1 }
    5bbc:	050604        	ae_mulaafp24s.hh.ll	aeq0, aep0, aep6
    5bbf:	050e54        	ae_mulasfp24s.hl.lh	aeq1, aep0, aep6
    5bc2:	1b8f24        	ae_roundsp16q48asym	aep2, aeq0
    5bc5:	fb6bf2a71f 	{ ae_sp16f.l.iu	aep2, a7, 2; ae_roundsp16q48asym	aep7, aeq1 }
    5bca:	42f714        	ae_sp16f.l.iu	aep7, a7, 2

00005bcd <beam2_mid_band+0x19d>:
    5bcd:	e0c332        	addi	a3, a3, -32

00005bd0 <beam2_mid_band+0x1a0>:
    5bd0:	f86e80144e 	{ addi	a4, a4, 1; ae_movp48	aep0, aep3 }
    5bd5:	4d9426        	beqi	a4, 10, 5c26 <beam2_mid_band+0x1f6>
    5bd8:	fc24ad9f1f 	{ ae_lp16x2f.iu	aep1, a15, 4; ae_zeroq56	aeq0 }
    5bdd:	fd0464162f 	{ ae_sp16x2f.c	aep1, a6, a2; ae_movq56	aeq1, aeq0 }
    5be2:	441304        	ae_lp16x2f.i	aep1, a3, 0
    5be5:	037d           	mov.n	a7, a3
    5be7:	0c8d76        	loop	a13, 5bf7 <beam2_mid_band+0x1c7>
    5bea:	fc24daa62f 	{ ae_lp16x2f.c	aep2, a6, a2; nop }
    5bef:	051204        	ae_mulaafp24s.hh.ll	aeq0, aep1, aep2
    5bf2:	ea446d971f 	{ ae_lp16x2f.iu	aep1, a7, 4; ae_mulasfp24s.hl.lh	aeq1, aep1, aep2 }

00005bf7 <beam2_mid_band+0x1c7>:
    5bf7:	f96f80003f 	{ movi	a3, 0; ae_roundsp24q48asym	aep2, aeq1 }
    5bfc:	f867c0018f 	{ movi	a8, 1; ae_roundsp24q48asym	aep1, aeq0 }
    5c01:	f002fe12bf 	{ ae_selp24.ll	aep2, aep1, aep2; ae_mulzaafp24s.hh.ll	aeq1, aep0, aep0 }
    5c06:	dc42edb91f 	{ ae_lp16x2f.iu	aep3, a9, 4; ae_subsp24s	aep1, aep0, aep2 }
    5c0b:	079284        	ae_subsp24s	aep0, aep1, aep2
    5c0e:	090184        	ae_roundsp16asym	aep0, aep0
    5c11:	048804        	ae_mulzaafp24s.hh.ll	aeq3, aep0, aep0
    5c14:	09b104        	ae_ltq56s	b0, aeq1, aeq3
    5c17:	d33800        	movt	a3, a8, b0
    5c1a:	ed0316        	beqz	a3, 5aee <beam2_mid_band+0xbe>
    5c1d:	f86680018f 	{ movi	a8, 1; ae_movp48	aep0, aep1 }
    5c22:	ffb286        	j	5af0 <beam2_mid_band+0xc0>

00005c25 <beam2_mid_band+0x1f5>:
	...

00005c26 <beam2_mid_band+0x1f6>:
    5c26:	9188           	l32i.n	a8, a1, 36
    5c28:	b128           	l32i.n	a2, a1, 44
    5c2a:	6178           	l32i.n	a7, a1, 24
    5c2c:	0869           	s32i.n	a6, a8, 0
    5c2e:	7168           	l32i.n	a6, a1, 28
    5c30:	b0a052        	movi	a5, 176
    5c33:	830c           	movi.n	a3, 8
    5c35:	463204        	ae_sp16x2f.i	aep3, a2, 0
    5c38:	450754        	ae_lp16x2f.x	aep0, a7, a5
    5c3b:	062d           	mov.n	a2, a6
    5c3d:	048376        	loop	a3, 5c45 <beam2_mid_band+0x215>
    5c40:	e3002d821f 	{ ae_lp16x2f.iu	aep0, a2, 4; ae_mulaafp24s.hh.ll	aeq2, aep0, aep0 }

00005c45 <beam2_mid_band+0x215>:
    5c45:	5198           	l32i.n	a9, a1, 20
    5c47:	c138           	l32i.n	a3, a1, 48
    5c49:	3520b4        	ae_sraiq56	aeq0, aeq2, 2
    5c4c:	f8638ffd2f 	{ movi	a2, -3; ae_roundsp16q48asym	aep0, aeq0 }
    5c51:	420904        	ae_sp16f.l.i	aep0, a9, 0
    5c54:	02a237        	bge	a2, a3, 5c5a <beam2_mid_band+0x22a>
    5c57:	0026c6        	j	5cf6 <beam2_mid_band+0x2c6>
    5c5a:	661c22        	l16ui	a2, a12, 204
    5c5d:	04dca2        	addmi	a10, a12, 0x400
    5c60:	29bd           	ae_l16si.n	a11, a9, 0
    5c62:	090256        	bnez	a2, 5cf6 <beam2_mid_band+0x2c6>
    5c65:	04dc22        	addmi	a2, a12, 0x400
    5c68:	7e9232        	l16si	a3, a2, 252
    5c6b:	04dcf2        	addmi	a15, a12, 0x400
    5c6e:	3e2fd2        	l32i	a13, a15, 248
    5c71:	331b           	addi.n	a3, a3, 1
    5c73:	834d           	ae_sext16	a4, a3
    5c75:	7e5232        	s16i	a3, a2, 252
    5c78:	50c4a6        	blti	a4, 32, 5ccc <beam2_mid_band+0x29c>
    5c7b:	7f9f72        	l16si	a7, a15, 254
    5c7e:	030c           	movi.n	a3, 0
    5c80:	7e5232        	s16i	a3, a2, 252
    5c83:	10cd22        	addi	a2, a13, 16
    5c86:	05dca2        	addmi	a10, a12, 0x500
    5c89:	9077a0        	addx2	a7, a7, a10
    5c8c:	412520        	srli	a2, a2, 5
    5c8f:	295d           	ae_l16si.n	a5, a9, 0
    5c91:	672d           	ae_s16i.n	a2, a7, 0
    5c93:	7f9f22        	l16si	a2, a15, 254
    5c96:	03dc62        	addmi	a6, a12, 0x300
    5c99:	be0c           	movi.n	a14, 11
    5c9b:	3e6f52        	s32i	a5, a15, 248
    5c9e:	221b           	addi.n	a2, a2, 1
    5ca0:	82fd           	ae_sext16	a15, a2
    5ca2:	724ef0        	salt	a4, a14, a15
    5ca5:	932340        	movnez	a2, a3, a4
    5ca8:	ff5622        	s16i	a2, a6, 0x1fe
    5cab:	e97b21        	l32r	a2, 298 (49ec <take_min_four>)
    5cae:	cb0c           	movi.n	a11, 12
    5cb0:	0002e0        	callx8	a2
    5cb3:	9188           	l32i.n	a8, a1, 36
    5cb5:	e94031        	l32r	a3, 1b8 (bab0 <immediate_num>)
    5cb8:	e94071        	l32r	a7, 1b8 (bab0 <immediate_num>)
    5cbb:	3828           	l32i.n	a2, a8, 12
    5cbd:	20c332        	addi	a3, a3, 32
    5cc0:	20c742        	addi	a4, a7, 32
    5cc3:	10a2a7        	bge	a2, a10, 5cd7 <beam2_mid_band+0x2a7>
    5cc6:	440404        	ae_lp16x2f.i	aep0, a4, 0
    5cc9:	000346        	j	5cda <beam2_mid_band+0x2aa>

00005ccc <beam2_mid_band+0x29c>:
    5ccc:	3e2a42        	l32i	a4, a10, 248
    5ccf:	24ba           	add.n	a2, a4, a11
    5cd1:	3e6a22        	s32i	a2, a10, 248
    5cd4:	000786        	j	5cf6 <beam2_mid_band+0x2c6>

00005cd7 <beam2_mid_band+0x2a7>:
    5cd7:	440314        	ae_lp16x2f.i	aep0, a3, 4
    5cda:	360234        	ae_cvtq48a32s	aeq0, a2
    5cdd:	364a34        	ae_cvtq48a32s	aeq1, a10
    5ce0:	0c00b081ce 	{ l32i	a12, a1, 32; ae_mulzaafq32sp16s.lh	aeq0, aeq0, aep0, aeq1, aep0 }
    5ce5:	7168           	l32i.n	a6, a1, 28
    5ce7:	fc2470617e 	{ l32i	a7, a1, 24; ae_roundsq32asym	aeq0, aeq0 }
    5cec:	5198           	l32i.n	a9, a1, 20
    5cee:	368f04        	ae_trunca32q48	a15, aeq0
    5cf1:	b0a052        	movi	a5, 176
    5cf4:	38f9           	s32i.n	a15, a8, 12
    5cf6:	a128           	l32i.n	a2, a1, 40
    5cf8:	130c           	movi.n	a3, 1
    5cfa:	10d332        	addmi	a3, a3, 0x1000
    5cfd:	3d2222        	l32i	a2, a2, 244
    5d00:	da3c           	movi.n	a10, 61
    5d02:	1b0c           	movi.n	a11, 1
    5d04:	552237        	blt	a2, a3, 5d5d <beam2_mid_band+0x32d>
    5d07:	294d           	ae_l16si.n	a4, a9, 0
    5d09:	4ada22        	addmi	a2, a10, 0x4a00
    5d0c:	113b20        	slli	a3, a11, 14
    5d0f:	604834        	ae_lq32f.i	aeq1, a8, 12
    5d12:	300324        	ae_cvtp24a16x2.ll	aep0, a3, a2
    5d15:	11d410        	slli	a13, a4, 15
    5d18:	d5633ecd3f 	{ ae_cvtq48a32s	aeq0, a13; ae_mulfq32sp16s.h	aeq2, aeq1, aep0 }
    5d1d:	d4e34000ef 	{ movi	a14, 0; ae_mulfq32sp16s.l	aeq1, aeq1, aep0 }
    5d22:	d6c00001ff 	{ movi	a15, 1; ae_ltq56s	b0, aeq2, aeq0 }
    5d27:	d64440002f 	{ movi	a2, 0; ae_ltq56s	b1, aeq1, aeq0 }
    5d2c:	130c           	movi.n	a3, 1
    5d2e:	d3ef00        	movt	a14, a15, b0
    5d31:	8eac           	beqz.n	a14, 5d5d <beam2_mid_band+0x32d>
    5d33:	d32310        	movt	a2, a3, b1
    5d36:	728c           	beqz.n	a2, 5d41 <beam2_mid_band+0x311>
    5d38:	04dc22        	addmi	a2, a12, 0x400
    5d3b:	751222        	l16ui	a2, a2, 234
    5d3e:	000146        	j	5d47 <beam2_mid_band+0x317>

00005d41 <beam2_mid_band+0x311>:
    5d41:	aea022        	movi	a2, 174
    5d44:	7fd222        	addmi	a2, a2, 0x7f00
    5d47:	0f1c           	movi.n	a15, 16
    5d49:	300224        	ae_cvtp24a16x2.ll	aep0, a2, a2
    5d4c:	411754        	ae_lp16f.x	aep1, a7, a5
    5d4f:	0a8f76        	loop	a15, 5d5d <beam2_mid_band+0x32d>
    5d52:	ea21ac961f 	{ ae_lp16f.iu	aep1, a6, 2; ae_mulfp24s.ll	aeq0, aep0, aep1 }
    5d57:	1b8f24        	ae_roundsp16q48asym	aep2, aeq0
    5d5a:	4226f4        	ae_sp16f.l.i	aep2, a6, -2

00005d5d <beam2_mid_band+0x32d>:
    5d5d:	f01d           	retw.n

00005d5f <beam2_mid_band+0x32f>:
	...

00005d60 <TWO_MIC_WB_Preload>:
    5d60:	004136        	entry	a1, 32
    5d63:	e8cd31        	l32r	a3, 98 (c3d4 <p_ecnr_mem>)
    5d66:	e1a042        	movi	a4, 225
    5d69:	114490        	slli	a4, a4, 7
    5d6c:	0358           	l32i.n	a5, a3, 0
    5d6e:	e8ce61        	l32r	a6, a8 (9a44 <xt_memset>)
    5d71:	0b0c           	movi.n	a11, 0
    5d73:	a54a           	add.n	a10, a5, a4
    5d75:	2c3c           	movi.n	a12, 50
    5d77:	0006e0        	callx8	a6
    5d7a:	e8cc61        	l32r	a6, ac (c3dc <aec_nr_para>)
    5d7d:	aaa072        	movi	a7, 170
    5d80:	55d772        	addmi	a7, a7, 0x5500
    5d83:	0668           	l32i.n	a6, a6, 0
    5d85:	093c           	movi.n	a9, 48
    5d87:	824b           	addi.n	a8, a2, 4
    5d89:	049662        	l16si	a6, a6, 8
    5d8c:	001696        	bltz	a6, 5d91 <TWO_MIC_WB_Preload+0x31>

00005d8f <TWO_MIC_WB_Preload+0x2f>:
    5d8f:	f01d           	retw.n

00005d91 <TWO_MIC_WB_Preload+0x31>:
    5d91:	426d           	ae_l16ui.n	a6, a2, 0
    5d93:	f89677        	bne	a6, a7, 5d8f <TWO_MIC_WB_Preload+0x2f>
    5d96:	526d           	ae_l16ui.n	a6, a2, 2
    5d98:	070c           	movi.n	a7, 0
    5d9a:	058976        	loop	a9, 5da3 <TWO_MIC_WB_Preload+0x43>
    5d9d:	289d           	ae_l16si.n	a9, a8, 0
    5d9f:	882b           	addi.n	a8, a8, 2
    5da1:	797a           	add.n	a7, a9, a7

00005da3 <TWO_MIC_WB_Preload+0x43>:
    5da3:	977d           	ae_zext16	a7, a7
    5da5:	e69677        	bne	a6, a7, 5d8f <TWO_MIC_WB_Preload+0x2f>
    5da8:	029262        	l16si	a6, a2, 4
    5dab:	089282        	l16si	a8, a2, 16
    5dae:	0992d2        	l16si	a13, a2, 18
    5db1:	116600        	slli	a6, a6, 16
    5db4:	38d5c2        	addmi	a12, a5, 0x3800
    5db7:	118800        	slli	a8, a8, 16
    5dba:	3fa7f2        	movi	a15, 0x73f
    5dbd:	1c69           	s32i.n	a6, a12, 4
    5dbf:	286c82        	s32i	a8, a12, 160
    5dc2:	118fd0        	slli	a8, a15, 3
    5dc5:	e8ba61        	l32r	a6, b0 (9a58 <xt_memcpy>)
    5dc8:	38d5e2        	addmi	a14, a5, 0x3800
    5dcb:	117d00        	slli	a7, a13, 16
    5dce:	14c2b2        	addi	a11, a2, 20
    5dd1:	a58a           	add.n	a10, a5, a8
    5dd3:	8c0c           	movi.n	a12, 8
    5dd5:	276e72        	s32i	a7, a14, 156
    5dd8:	0006e0        	callx8	a6
    5ddb:	7da772        	movi	a7, 0x77d
    5dde:	1177d0        	slli	a7, a7, 3
    5de1:	24c2b2        	addi	a11, a2, 36
    5de4:	a57a           	add.n	a10, a5, a7
    5de6:	0c1c           	movi.n	a12, 16
    5de8:	0006e0        	callx8	a6
    5deb:	53a772        	movi	a7, 0x753
    5dee:	1177d0        	slli	a7, a7, 3
    5df1:	44c2b2        	addi	a11, a2, 68
    5df4:	a57a           	add.n	a10, a5, a7
    5df6:	8c0c           	movi.n	a12, 8
    5df8:	0006e0        	callx8	a6
    5dfb:	67a772        	movi	a7, 0x767
    5dfe:	1177d0        	slli	a7, a7, 3
    5e01:	54c2b2        	addi	a11, a2, 84
    5e04:	a57a           	add.n	a10, a5, a7
    5e06:	8c0c           	movi.n	a12, 8
    5e08:	0006e0        	callx8	a6
    5e0b:	0338           	l32i.n	a3, a3, 0
    5e0d:	38d552        	addmi	a5, a5, 0x3800
    5e10:	170c           	movi.n	a7, 1
    5e12:	a34a           	add.n	a10, a3, a4
    5e14:	2c3c           	movi.n	a12, 50
    5e16:	02bd           	mov.n	a11, a2
    5e18:	657d           	ae_s16i.n	a7, a5, 0
    5e1a:	0006e0        	callx8	a6
    5e1d:	f01d           	retw.n

00005e1f <TWO_MIC_WB_Preload+0xbf>:
	...

00005e20 <TWO_MIC_WB_Write_FLASH>:
    5e20:	004136        	entry	a1, 32
    5e23:	e89df1        	l32r	a15, 98 (c3d4 <p_ecnr_mem>)
    5e26:	023d           	mov.n	a3, a2
    5e28:	0f48           	l32i.n	a4, a15, 0
    5e2a:	1ad422        	addmi	a2, a4, 0x1a00
    5e2d:	161252        	l16ui	a5, a2, 44
    5e30:	020c           	movi.n	a2, 0
    5e32:	38d462        	addmi	a6, a4, 0x3800
    5e35:	022526        	beqi	a5, 2, 5e3b <TWO_MIC_WB_Write_FLASH+0x1b>
    5e38:	002b06        	j	5ee8 <TWO_MIC_WB_Write_FLASH+0xc8>
    5e3b:	465d           	ae_l16ui.n	a5, a6, 0
    5e3d:	1ad462        	addmi	a6, a4, 0x1a00
    5e40:	e1a072        	movi	a7, 225
    5e43:	022526        	beqi	a5, 2, 5e49 <TWO_MIC_WB_Write_FLASH+0x29>
    5e46:	002186        	j	5ed0 <TWO_MIC_WB_Write_FLASH+0xb0>
    5e49:	aaa062        	movi	a6, 170
    5e4c:	38d472        	addmi	a7, a4, 0x3800
    5e4f:	55d662        	addmi	a6, a6, 0x5500
    5e52:	031772        	l16ui	a7, a7, 6
    5e55:	050c           	movi.n	a5, 0
    5e57:	636d           	ae_s16i.n	a6, a3, 0
    5e59:	025372        	s16i	a7, a3, 4
    5e5c:	38d4e2        	addmi	a14, a4, 0x3800
    5e5f:	035352        	s16i	a5, a3, 6
    5e62:	045352        	s16i	a5, a3, 8
    5e65:	055352        	s16i	a5, a3, 10
    5e68:	065352        	s16i	a5, a3, 12
    5e6b:	075352        	s16i	a5, a3, 14
    5e6e:	3fa7f2        	movi	a15, 0x73f
    5e71:	4f1e62        	l16ui	a6, a14, 158
    5e74:	117fd0        	slli	a7, a15, 3
    5e77:	095362        	s16i	a6, a3, 18
    5e7a:	e88d61        	l32r	a6, b0 (9a58 <xt_memcpy>)
    5e7d:	511e82        	l16ui	a8, a14, 162
    5e80:	14c3a2        	addi	a10, a3, 20
    5e83:	b47a           	add.n	a11, a4, a7
    5e85:	8c0c           	movi.n	a12, 8
    5e87:	234b           	addi.n	a2, a3, 4
    5e89:	085382        	s16i	a8, a3, 16
    5e8c:	0006e0        	callx8	a6
    5e8f:	7da772        	movi	a7, 0x77d
    5e92:	1177d0        	slli	a7, a7, 3
    5e95:	24c3a2        	addi	a10, a3, 36
    5e98:	b47a           	add.n	a11, a4, a7
    5e9a:	0c1c           	movi.n	a12, 16
    5e9c:	0006e0        	callx8	a6
    5e9f:	53a772        	movi	a7, 0x753
    5ea2:	1177d0        	slli	a7, a7, 3
    5ea5:	44c3a2        	addi	a10, a3, 68
    5ea8:	b47a           	add.n	a11, a4, a7
    5eaa:	8c0c           	movi.n	a12, 8
    5eac:	0006e0        	callx8	a6
    5eaf:	67a772        	movi	a7, 0x767
    5eb2:	1177d0        	slli	a7, a7, 3
    5eb5:	54c3a2        	addi	a10, a3, 84
    5eb8:	b47a           	add.n	a11, a4, a7
    5eba:	8c0c           	movi.n	a12, 8
    5ebc:	0006e0        	callx8	a6
    5ebf:	043c           	movi.n	a4, 48
    5ec1:	058476        	loop	a4, 5eca <TWO_MIC_WB_Write_FLASH+0xaa>
    5ec4:	224d           	ae_l16si.n	a4, a2, 0
    5ec6:	222b           	addi.n	a2, a2, 2
    5ec8:	545a           	add.n	a5, a4, a5

00005eca <TWO_MIC_WB_Write_FLASH+0xaa>:
    5eca:	735d           	ae_s16i.n	a5, a3, 2
    5ecc:	120c           	movi.n	a2, 1
    5ece:	f01d           	retw.n

00005ed0 <TWO_MIC_WB_Write_FLASH+0xb0>:
    5ed0:	141566        	bnei	a5, 1, 5ee8 <TWO_MIC_WB_Write_FLASH+0xc8>
    5ed3:	1b9652        	l16si	a5, a6, 54
    5ed6:	118790        	slli	a8, a7, 7
    5ed9:	b48a           	add.n	a11, a4, a8
    5edb:	0095d6        	bgez	a5, 5ee8 <TWO_MIC_WB_Write_FLASH+0xc8>
    5ede:	e87441        	l32r	a4, b0 (9a58 <xt_memcpy>)
    5ee1:	2c3c           	movi.n	a12, 50
    5ee3:	03ad           	mov.n	a10, a3
    5ee5:	0004e0        	callx8	a4
    5ee8:	f01d           	retw.n

00005eea <TWO_MIC_WB_Write_FLASH+0xca>:
	...

00005eec <FLASH_REF_GAIN_Preload>:
    5eec:	004136        	entry	a1, 32
    5eef:	1ad242        	addmi	a4, a2, 0x1a00
    5ef2:	3dd252        	addmi	a5, a2, 0x3d00
    5ef5:	161462        	l16ui	a6, a4, 44
    5ef8:	d60552        	l8ui	a5, a5, 214
    5efb:	03ad           	mov.n	a10, a3
    5efd:	052666        	bnei	a6, 2, 5f06 <FLASH_REF_GAIN_Preload+0x1a>
    5f00:	e8e961        	l32r	a6, 2a4 (5d60 <TWO_MIC_WB_Preload>)
    5f03:	0006e0        	callx8	a6

00005f06 <FLASH_REF_GAIN_Preload+0x1a>:
    5f06:	360c           	movi.n	a6, 3
    5f08:	028657        	bany	a6, a5, 5f0e <FLASH_REF_GAIN_Preload+0x22>
    5f0b:	003946        	j	5ff4 <FLASH_REF_GAIN_Preload+0x108>
    5f0e:	146050        	extui	a6, a5, 0, 2
    5f11:	07a7f2        	movi	a15, 0x707
    5f14:	115fc0        	slli	a5, a15, 4
    5f17:	311666        	bnei	a6, 1, 5f4c <FLASH_REF_GAIN_Preload+0x60>
    5f1a:	3c1362        	l16ui	a6, a3, 120
    5f1d:	a75c           	movi.n	a7, 90
    5f1f:	5ad772        	addmi	a7, a7, 0x5a00
    5f22:	269677        	bne	a6, a7, 5f4c <FLASH_REF_GAIN_Preload+0x60>
    5f25:	3d1362        	l16ui	a6, a3, 122
    5f28:	7cc3b2        	addi	a11, a3, 124
    5f2b:	880c           	movi.n	a8, 8
    5f2d:	030c           	movi.n	a3, 0
    5f2f:	0b7d           	mov.n	a7, a11
    5f31:	058876        	loop	a8, 5f3a <FLASH_REF_GAIN_Preload+0x4e>
    5f34:	278d           	ae_l16si.n	a8, a7, 0
    5f36:	772b           	addi.n	a7, a7, 2
    5f38:	383a           	add.n	a3, a8, a3

00005f3a <FLASH_REF_GAIN_Preload+0x4e>:
    5f3a:	933d           	ae_zext16	a3, a3
    5f3c:	0c9637        	bne	a6, a3, 5f4c <FLASH_REF_GAIN_Preload+0x60>
    5f3f:	e85c31        	l32r	a3, b0 (9a58 <xt_memcpy>)
    5f42:	a25a           	add.n	a10, a2, a5
    5f44:	8c0c           	movi.n	a12, 8
    5f46:	0003e0        	callx8	a3
    5f49:	000ac6        	j	5f78 <FLASH_REF_GAIN_Preload+0x8c>

00005f4c <FLASH_REF_GAIN_Preload+0x60>:
    5f4c:	3dd272        	addmi	a7, a2, 0x3d00
    5f4f:	d707e2        	l8ui	a14, a7, 215
    5f52:	1ad262        	addmi	a6, a2, 0x1a00
    5f55:	360662        	l8ui	a6, a6, 54
    5f58:	325a           	add.n	a3, a2, a5
    5f5a:	10ce52        	addi	a5, a14, 16
    5f5d:	118580        	slli	a8, a5, 8
    5f60:	a05550        	addx4	a5, a5, a5
    5f63:	046360        	extui	a6, a6, 3, 1
    5f66:	1155b0        	slli	a5, a5, 5
    5f69:	935860        	movnez	a5, a8, a6
    5f6c:	8f0c           	movi.n	a15, 8
    5f6e:	415450        	srli	a5, a5, 4
    5f71:	038f76        	loop	a15, 5f78 <FLASH_REF_GAIN_Preload+0x8c>
    5f74:	635d           	ae_s16i.n	a5, a3, 0
    5f76:	332b           	addi.n	a3, a3, 2

00005f78 <FLASH_REF_GAIN_Preload+0x8c>:
    5f78:	70d232        	addmi	a3, a2, 0x7000
    5f7b:	389352        	l16si	a5, a3, 112
    5f7e:	3993b2        	l16si	a11, a3, 114
    5f81:	3a93d2        	l16si	a13, a3, 116
    5f84:	3b9332        	l16si	a3, a3, 118
    5f87:	115500        	slli	a5, a5, 16
    5f8a:	161442        	l16ui	a4, a4, 44
    5f8d:	3cd262        	addmi	a6, a2, 0x3c00
    5f90:	386652        	s32i	a5, a6, 224
    5f93:	117b00        	slli	a7, a11, 16
    5f96:	3dd2c2        	addmi	a12, a2, 0x3d00
    5f99:	396652        	s32i	a5, a6, 228
    5f9c:	486672        	s32i	a7, a6, 0x120
    5f9f:	116d00        	slli	a6, a13, 16
    5fa2:	113300        	slli	a3, a3, 16
    5fa5:	9c79           	s32i.n	a7, a12, 36
    5fa7:	186c62        	s32i	a6, a12, 96
    5faa:	196c62        	s32i	a6, a12, 100
    5fad:	296c32        	s32i	a3, a12, 164
    5fb0:	286c32        	s32i	a3, a12, 160
    5fb3:	3d2466        	bnei	a4, 2, 5ff4 <FLASH_REF_GAIN_Preload+0x108>
    5fb6:	70d232        	addmi	a3, a2, 0x7000
    5fb9:	3d9342        	l16si	a4, a3, 122
    5fbc:	3c9332        	l16si	a3, a3, 120
    5fbf:	70d2c2        	addmi	a12, a2, 0x7000
    5fc2:	39d262        	addmi	a6, a2, 0x3900
    5fc5:	114400        	slli	a4, a4, 16
    5fc8:	296642        	s32i	a4, a6, 164
    5fcb:	3f9c62        	l16si	a6, a12, 126
    5fce:	3e9ce2        	l16si	a14, a12, 124
    5fd1:	38d252        	addmi	a5, a2, 0x3800
    5fd4:	113300        	slli	a3, a3, 16
    5fd7:	386532        	s32i	a3, a5, 224
    5fda:	396532        	s32i	a3, a5, 228
    5fdd:	113e00        	slli	a3, a14, 16
    5fe0:	39d2d2        	addmi	a13, a2, 0x3900
    5fe3:	116600        	slli	a6, a6, 16
    5fe6:	686542        	s32i	a4, a5, 0x1a0
    5fe9:	9d39           	s32i.n	a3, a13, 36
    5feb:	486532        	s32i	a3, a5, 0x120
    5fee:	596562        	s32i	a6, a5, 0x164
    5ff1:	186d62        	s32i	a6, a13, 96

00005ff4 <FLASH_REF_GAIN_Preload+0x108>:
    5ff4:	f01d           	retw.n

00005ff6 <FLASH_REF_GAIN_Preload+0x10a>:
	...

00005ff8 <AEC_NR_Write_FLASH>:
    5ff8:	008136        	entry	a1, 64
    5ffb:	e83b31        	l32r	a3, e8 (9a30 <memset>)
    5ffe:	ffa0b2        	movi	a11, 255
    6001:	a0a0c2        	movi	a12, 160
    6004:	02ad           	mov.n	a10, a2
    6006:	0003e0        	callx8	a3
    6009:	e8a731        	l32r	a3, 2a8 (5e20 <TWO_MIC_WB_Write_FLASH>)
    600c:	02ad           	mov.n	a10, a2
    600e:	0003e0        	callx8	a3
    6011:	e82131        	l32r	a3, 98 (c3d4 <p_ecnr_mem>)
    6014:	3f0c           	movi.n	a15, 3
    6016:	e80951        	l32r	a5, 3c (444c <EC_REF_GAIN_READBACK>)
    6019:	0348           	l32i.n	a4, a3, 0
    601b:	060c           	movi.n	a6, 0
    601d:	3dd442        	addmi	a4, a4, 0x3d00
    6020:	d60472        	l8ui	a7, a4, 214
    6023:	10c142        	addi	a4, a1, 16
    6026:	028f77        	bany	a15, a7, 602c <AEC_NR_Write_FLASH+0x34>
    6029:	002bc6        	j	60dc <AEC_NR_Write_FLASH+0xe4>
    602c:	31a9           	s32i.n	a10, a1, 12
    602e:	04ad           	mov.n	a10, a4
    6030:	0005e0        	callx8	a5
    6033:	03c8           	l32i.n	a12, a3, 0
    6035:	07a782        	movi	a8, 0x707
    6038:	050c           	movi.n	a5, 0
    603a:	1188c0        	slli	a8, a8, 4
    603d:	030c           	movi.n	a3, 0
    603f:	060c           	movi.n	a6, 0
    6041:	6de727        	bbsi	a7, 2, 60b2 <AEC_NR_Write_FLASH+0xba>
    6044:	470c           	movi.n	a7, 4
    6046:	3c8a           	add.n	a3, a12, a8
    6048:	090c           	movi.n	a9, 0
    604a:	5a1c           	movi.n	a10, 21
    604c:	060c           	movi.n	a6, 0
    604e:	1f8776        	loop	a7, 6071 <AEC_NR_Write_FLASH+0x79>
    6051:	247d           	ae_l16si.n	a7, a4, 0
    6053:	23bd           	ae_l16si.n	a11, a3, 0
    6055:	40e7d0        	nsa	a13, a7
    6058:	c0bb70        	sub	a11, a11, a7
    605b:	c0dad0        	sub	a13, a10, a13
    605e:	60b1b0        	abs	a11, a11
    6061:	53dd90        	max	a13, a13, a9
    6064:	05adb7        	bge	a13, a11, 606d <AEC_NR_Write_FLASH+0x75>
    6067:	976d           	ae_zext16	a6, a7
    6069:	636d           	ae_s16i.n	a6, a3, 0
    606b:	160c           	movi.n	a6, 1

0000606d <AEC_NR_Write_FLASH+0x75>:
    606d:	332b           	addi.n	a3, a3, 2
    606f:	442b           	addi.n	a4, a4, 2

00006071 <AEC_NR_Write_FLASH+0x79>:
    6071:	1adc32        	addmi	a3, a12, 0x1a00
    6074:	161342        	l16ui	a4, a3, 44
    6077:	030c           	movi.n	a3, 0
    6079:	78a072        	movi	a7, 120
    607c:	322466        	bnei	a4, 2, 60b2 <AEC_NR_Write_FLASH+0xba>
    607f:	70d772        	addmi	a7, a7, 0x7000
    6082:	4d0c           	movi.n	a13, 4
    6084:	18c142        	addi	a4, a1, 24
    6087:	090c           	movi.n	a9, 0
    6089:	5a1c           	movi.n	a10, 21
    608b:	030c           	movi.n	a3, 0
    608d:	bc7a           	add.n	a11, a12, a7
    608f:	1f8d76        	loop	a13, 60b2 <AEC_NR_Write_FLASH+0xba>
    6092:	247d           	ae_l16si.n	a7, a4, 0
    6094:	2bdd           	ae_l16si.n	a13, a11, 0
    6096:	40e7e0        	nsa	a14, a7
    6099:	c0dd70        	sub	a13, a13, a7
    609c:	c0eae0        	sub	a14, a10, a14
    609f:	60d1d0        	abs	a13, a13
    60a2:	53ee90        	max	a14, a14, a9
    60a5:	05aed7        	bge	a14, a13, 60ae <AEC_NR_Write_FLASH+0xb6>
    60a8:	973d           	ae_zext16	a3, a7
    60aa:	6b3d           	ae_s16i.n	a3, a11, 0
    60ac:	130c           	movi.n	a3, 1

000060ae <AEC_NR_Write_FLASH+0xb6>:
    60ae:	bb2b           	addi.n	a11, a11, 2
    60b0:	442b           	addi.n	a4, a4, 2

000060b2 <AEC_NR_Write_FLASH+0xba>:
    60b2:	a75c           	movi.n	a7, 90
    60b4:	5ad772        	addmi	a7, a7, 0x5a00
    60b7:	7cc242        	addi	a4, a2, 124
    60ba:	3c5272        	s16i	a7, a2, 120
    60bd:	e7fc71        	l32r	a7, b0 (9a58 <xt_memcpy>)
    60c0:	bc8a           	add.n	a11, a12, a8
    60c2:	8c0c           	movi.n	a12, 8
    60c4:	04ad           	mov.n	a10, a4
    60c6:	0007e0        	callx8	a7
    60c9:	870c           	movi.n	a7, 8
    60cb:	058776        	loop	a7, 60d4 <AEC_NR_Write_FLASH+0xdc>
    60ce:	247d           	ae_l16si.n	a7, a4, 0
    60d0:	442b           	addi.n	a4, a4, 2
    60d2:	575a           	add.n	a5, a7, a5

000060d4 <AEC_NR_Write_FLASH+0xdc>:
    60d4:	31a8           	l32i.n	a10, a1, 12
    60d6:	3d5252        	s16i	a5, a2, 122
    60d9:	000046        	j	60de <AEC_NR_Write_FLASH+0xe6>

000060dc <AEC_NR_Write_FLASH+0xe4>:
    60dc:	030c           	movi.n	a3, 0
    60de:	2023a0        	or	a2, a3, a10
    60e1:	202260        	or	a2, a2, a6
    60e4:	f01d           	retw.n

000060e6 <AEC_NR_Write_FLASH+0xee>:
	...

000060e8 <fill_vad_thrd_Nbands>:
    60e8:	004136        	entry	a1, 32
    60eb:	1a14a6        	blti	a4, 1, 6109 <fill_vad_thrd_Nbands+0x21>
    60ee:	944d           	ae_zext16	a4, a4
    60f0:	158476        	loop	a4, 6109 <fill_vad_thrd_Nbands+0x21>
    60f3:	234d           	ae_l16si.n	a4, a3, 0
    60f5:	332b           	addi.n	a3, a3, 2
    60f7:	745840        	extui	a5, a4, 8, 8
    60fa:	744040        	extui	a4, a4, 0, 8
    60fd:	115590        	slli	a5, a5, 7
    6100:	114490        	slli	a4, a4, 7
    6103:	625d           	ae_s16i.n	a5, a2, 0
    6105:	724d           	ae_s16i.n	a4, a2, 2
    6107:	224b           	addi.n	a2, a2, 4

00006109 <fill_vad_thrd_Nbands+0x21>:
    6109:	f01d           	retw.n

0000610b <fill_vad_thrd_Nbands+0x23>:
	...

0000610c <fill_EQ_gain>:
    610c:	004136        	entry	a1, 32
    610f:	0a14a6        	blti	a4, 1, 611d <fill_EQ_gain+0x11>
    6112:	078476        	loop	a4, 611d <fill_EQ_gain+0x11>
    6115:	234d           	ae_l16si.n	a4, a3, 0
    6117:	624d           	ae_s16i.n	a4, a2, 0
    6119:	332b           	addi.n	a3, a3, 2
    611b:	222b           	addi.n	a2, a2, 2

0000611d <fill_EQ_gain+0x11>:
    611d:	f01d           	retw.n

0000611f <fill_EQ_gain+0x13>:
	...

00006120 <complement_para>:
    6120:	004136        	entry	a1, 32
    6123:	f47c           	movi.n	a4, -1
    6125:	114410        	slli	a4, a4, 15
    6128:	c0f430        	sub	a15, a4, a3
    612b:	623d           	ae_s16i.n	a3, a2, 0
    612d:	72fd           	ae_s16i.n	a15, a2, 2
    612f:	f01d           	retw.n

00006131 <complement_para+0x11>:
    6131:	000000                                        ...

00006134 <Mel_init>:
    6134:	006136        	entry	a1, 48
    6137:	e7d841        	l32r	a4, 98 (c3d4 <p_ecnr_mem>)
    613a:	9aa362        	movi	a6, 0x39a
    613d:	a06660        	addx4	a6, a6, a6
    6140:	0458           	l32i.n	a5, a4, 0
    6142:	14d242        	addmi	a4, a2, 0x1400
    6145:	51a272        	movi	a7, 0x251
    6148:	10d5a2        	addmi	a10, a5, 0x1000
    614b:	656a           	add.n	a6, a5, a6
    614d:	3c64a2        	s32i	a10, a4, 240
    6150:	3d6462        	s32i	a6, a4, 244
    6153:	513326        	beqi	a3, 3, 61a8 <Mel_init+0x74>
    6156:	022366        	bnei	a3, 2, 615c <Mel_init+0x28>
    6159:	002406        	j	61ed <Mel_init+0xb9>
    615c:	021326        	beqi	a3, 1, 6162 <Mel_init+0x2e>
    615f:	003446        	j	6234 <Mel_init+0x100>
    6162:	81a262        	movi	a6, 0x281
    6165:	1137d0        	slli	a3, a7, 3
    6168:	1166d0        	slli	a6, a6, 3
    616b:	f56a           	add.n	a15, a5, a6
    616d:	353a           	add.n	a3, a5, a3
    616f:	e84fb1        	l32r	a11, 2ac (af80 <Norm_gain_64>)
    6172:	e7cf51        	l32r	a5, b0 (9a58 <xt_memcpy>)
    6175:	11d262        	addmi	a6, a2, 0x1100
    6178:	01a1c2        	movi	a12, 0x101
    617b:	fe6632        	s32i	a3, a6, 0x3f8
    617e:	ff66f2        	s32i	a15, a6, 0x3fc
    6181:	0005e0        	callx8	a5
    6184:	3d24a2        	l32i	a10, a4, 244
    6187:	e84ab1        	l32r	a11, 2b0 (ae70 <Index_64>)
    618a:	3c4c           	movi.n	a12, 67
    618c:	0005e0        	callx8	a5
    618f:	e84931        	l32r	a3, 2b4 (a950 <Coef_64>)
    6192:	fe26a2        	l32i	a10, a6, 0x3f8
    6195:	c0a0c2        	movi	a12, 192
    6198:	03bd           	mov.n	a11, a3
    619a:	0005e0        	callx8	a5
    619d:	254c           	movi.n	a5, 66
    619f:	0215a6        	blti	a5, 1, 61a5 <Mel_init+0x71>
    61a2:	002506        	j	623a <Mel_init+0x106>
    61a5:	0046c6        	j	62c4 <Mel_init+0x190>

000061a8 <Mel_init+0x74>:
    61a8:	45a232        	movi	a3, 0x245
    61ab:	660c           	movi.n	a6, 6
    61ad:	1133d0        	slli	a3, a3, 3
    61b0:	14d662        	addmi	a6, a6, 0x1400
    61b3:	f56a           	add.n	a15, a5, a6
    61b5:	353a           	add.n	a3, a5, a3
    61b7:	e843b1        	l32r	a11, 2c4 (b3a0 <Norm_gain_16>)
    61ba:	e7bd51        	l32r	a5, b0 (9a58 <xt_memcpy>)
    61bd:	11d262        	addmi	a6, a2, 0x1100
    61c0:	01a1c2        	movi	a12, 0x101
    61c3:	fe6632        	s32i	a3, a6, 0x3f8
    61c6:	ff66f2        	s32i	a15, a6, 0x3fc
    61c9:	0005e0        	callx8	a5
    61cc:	3d24a2        	l32i	a10, a4, 244
    61cf:	e83eb1        	l32r	a11, 2c8 (af50 <Index_16>)
    61d2:	3c1c           	movi.n	a12, 19
    61d4:	0005e0        	callx8	a5
    61d7:	e83d31        	l32r	a3, 2cc (ac90 <Coef_16>)
    61da:	fe26a2        	l32i	a10, a6, 0x3f8
    61dd:	efa0c2        	movi	a12, 239
    61e0:	03bd           	mov.n	a11, a3
    61e2:	0005e0        	callx8	a5
    61e5:	251c           	movi.n	a5, 18
    61e7:	4f15e6        	bgei	a5, 1, 623a <Mel_init+0x106>
    61ea:	003586        	j	62c4 <Mel_init+0x190>

000061ed <Mel_init+0xb9>:
    61ed:	49a232        	movi	a3, 0x249
    61f0:	660c           	movi.n	a6, 6
    61f2:	1133d0        	slli	a3, a3, 3
    61f5:	14d662        	addmi	a6, a6, 0x1400
    61f8:	f56a           	add.n	a15, a5, a6
    61fa:	353a           	add.n	a3, a5, a3
    61fc:	e82fb1        	l32r	a11, 2b8 (b190 <Norm_gain_32>)
    61ff:	e7ac51        	l32r	a5, b0 (9a58 <xt_memcpy>)
    6202:	11d262        	addmi	a6, a2, 0x1100
    6205:	01a1c2        	movi	a12, 0x101
    6208:	fe6632        	s32i	a3, a6, 0x3f8
    620b:	ff66f2        	s32i	a15, a6, 0x3fc
    620e:	0005e0        	callx8	a5
    6211:	3d24a2        	l32i	a10, a4, 244
    6214:	e82ab1        	l32r	a11, 2bc (af00 <Index_32>)
    6217:	3c2c           	movi.n	a12, 35
    6219:	0005e0        	callx8	a5
    621c:	e82931        	l32r	a3, 2c0 (aad0 <Coef_32>)
    621f:	fe26a2        	l32i	a10, a6, 0x3f8
    6222:	dfa0c2        	movi	a12, 223
    6225:	03bd           	mov.n	a11, a3
    6227:	0005e0        	callx8	a5
    622a:	252c           	movi.n	a5, 34
    622c:	0a15e6        	bgei	a5, 1, 623a <Mel_init+0x106>
    622f:	002446        	j	62c4 <Mel_init+0x190>

00006232 <Mel_init+0xfe>:
	...

00006234 <Mel_init+0x100>:
    6234:	0215e6        	bgei	a5, 1, 623a <Mel_init+0x106>
    6237:	002246        	j	62c4 <Mel_init+0x190>
    623a:	11d282        	addmi	a8, a2, 0x1100
    623d:	fd20fff88e 	{ l32i	a8, a8, 0x3fc; ae_zerop48	aep3 }
    6242:	3d2492        	l32i	a9, a4, 244
    6245:	00a162        	movi	a6, 0x100
    6248:	00a272        	movi	a7, 0x200
    624b:	e821a1        	l32r	a10, 2d0 (7fff00 <_end+0x7f3b20>)
    624e:	398664        	ae_movpa24x2	aep0, a6, a6
    6251:	399774        	ae_movpa24x2	aep1, a7, a7
    6254:	020c           	movi.n	a2, 0
    6256:	41cb           	addi.n	a4, a1, 12
    6258:	39aaa4        	ae_movpa24x2	aep2, a10, a10
    625b:	160c           	movi.n	a6, 1
    625d:	fec972        	addi	a7, a9, -2
    6260:	fec882        	addi	a8, a8, -2
    6263:	000fc6        	j	62a6 <Mel_init+0x172>

00006266 <Mel_init+0x132>:
    6266:	d3a600        	movt	a10, a6, b0
    6269:	5afc           	bnez.n	a10, 62a2 <Mel_init+0x16e>
    626b:	de32b2a81f 	{ ae_sp16f.l.iu	aep2, a8, 2; ae_subsp24s	aep4, aep4, aep1 }
    6270:	424404        	ae_sp16f.l.i	aep4, a4, 0
    6273:	069192        	l16si	a9, a1, 12
    6276:	028996        	bltz	a9, 62a2 <Mel_init+0x16e>
    6279:	a91b           	addi.n	a10, a9, 1
    627b:	53ba60        	max	a11, a10, a6
    627e:	90a230        	addx2	a10, a2, a3
    6281:	0e8b76        	loop	a11, 6293 <Mel_init+0x15f>
    6284:	90c230        	addx2	a12, a2, a3
    6287:	404c04        	ae_lp16f.i	aep4, a12, 0
    628a:	0abd           	mov.n	a11, a10
    628c:	221b           	addi.n	a2, a2, 1
    628e:	aa2b           	addi.n	a10, a10, 2
    6290:	42c814        	ae_sp16f.l.iu	aep4, a8, 2

00006293 <Mel_init+0x15f>:
    6293:	01c9a2        	addi	a10, a9, 1
    6296:	02cb92        	addi	a9, a11, 2
    6299:	058a76        	loop	a10, 62a2 <Mel_init+0x16e>
    629c:	40c9f4        	ae_lp16f.iu	aep4, a9, -2
    629f:	42c814        	ae_sp16f.l.iu	aep4, a8, 2

000062a2 <Mel_init+0x16e>:
    62a2:	550b           	addi.n	a5, a5, -1
    62a4:	c59c           	beqz.n	a5, 62c4 <Mel_init+0x190>

000062a6 <Mel_init+0x172>:
    62a6:	40c714        	ae_lp16f.iu	aep4, a7, 2
    62a9:	405714        	ae_lp16f.i	aep5, a7, 2
    62ac:	de9680009f 	{ movi	a9, 0; ae_subsp24s	aep4, aep5, aep4 }
    62b1:	d2100000af 	{ movi	a10, 0; ae_eqp24	b0:b1, aep4, aep0 }
    62b6:	d27016960f 	{ movt	a9, a6, b0; ae_eqp24	b0:b1, aep4, aep3 }
    62bb:	fa7916        	beqz	a9, 6266 <Mel_init+0x132>
    62be:	42a814        	ae_sp16f.l.iu	aep2, a8, 2
    62c1:	fff746        	j	62a2 <Mel_init+0x16e>

000062c4 <Mel_init+0x190>:
    62c4:	f01d           	retw.n

000062c6 <Mel_init+0x192>:
	...

000062c8 <WB_NR_init>:
    62c8:	004136        	entry	a1, 32
    62cb:	51a1c2        	movi	a12, 0x151
    62ce:	e77671        	l32r	a7, a8 (9a44 <xt_memset>)
    62d1:	11ccd0        	slli	a12, a12, 3
    62d4:	0b0c           	movi.n	a11, 0
    62d6:	02ad           	mov.n	a10, a2
    62d8:	0007e0        	callx8	a7
    62db:	e76f51        	l32r	a5, 98 (c3d4 <p_ecnr_mem>)
    62de:	f67c           	movi.n	a6, -1
    62e0:	116610        	slli	a6, a6, 15
    62e3:	09e316        	beqz	a3, 6385 <WB_NR_init+0xbd>
    62e6:	4d9432        	l16si	a3, a4, 154
    62e9:	429482        	l16si	a8, a4, 132
    62ec:	439492        	l16si	a9, a4, 134
    62ef:	4494d2        	l16si	a13, a4, 136
    62f2:	105232        	s16i	a3, a2, 32
    62f5:	025282        	s16i	a8, a2, 4
    62f8:	115292        	s16i	a9, a2, 34
    62fb:	0352d2        	s16i	a13, a2, 6
    62fe:	252432        	l32i	a3, a4, 148
    6301:	7239           	s32i.n	a3, a2, 28
    6303:	4c9432        	l16si	a3, a4, 152
    6306:	0bd2e2        	addmi	a14, a2, 0xb00
    6309:	8aa0f2        	movi	a15, 138
    630c:	7a5e32        	s16i	a3, a14, 244
    630f:	c03630        	sub	a3, a6, a3
    6312:	5a0c           	movi.n	a10, 5
    6314:	7b5e32        	s16i	a3, a14, 246
    6317:	328b           	addi.n	a3, a2, 8
    6319:	84fa           	add.n	a8, a4, a15
    631b:	158a76        	loop	a10, 6334 <WB_NR_init+0x6c>
    631e:	289d           	ae_l16si.n	a9, a8, 0
    6320:	882b           	addi.n	a8, a8, 2
    6322:	74a890        	extui	a10, a9, 8, 8
    6325:	749090        	extui	a9, a9, 0, 8
    6328:	11aa90        	slli	a10, a10, 7
    632b:	119990        	slli	a9, a9, 7
    632e:	63ad           	ae_s16i.n	a10, a3, 0
    6330:	739d           	ae_s16i.n	a9, a3, 2
    6332:	334b           	addi.n	a3, a3, 4

00006334 <WB_NR_init+0x6c>:
    6334:	384c           	movi.n	a8, 67
    6336:	1188a0        	slli	a8, a8, 6
    6339:	12a232        	movi	a3, 0x212
    633c:	00a192        	movi	a9, 0x100
    633f:	343a           	add.n	a3, a4, a3
    6341:	828a           	add.n	a8, a2, a8
    6343:	078976        	loop	a9, 634e <WB_NR_init+0x86>
    6346:	239d           	ae_l16si.n	a9, a3, 0
    6348:	689d           	ae_s16i.n	a9, a8, 0
    634a:	332b           	addi.n	a3, a3, 2
    634c:	882b           	addi.n	a8, a8, 2
    634e:	05d8           	l32i.n	a13, a5, 0
    6350:	320292        	l8ui	a9, a2, 50
    6353:	14d232        	addmi	a3, a2, 0x1400
    6356:	e7e181        	l32r	a8, 2dc (c0a0 <win_rx_512_v3>)
    6359:	3b6382        	s32i	a8, a3, 236
    635c:	1c0c           	movi.n	a12, 1
    635e:	83a3e2        	movi	a14, 0x383
    6361:	4e94f2        	l16si	a15, a4, 156
    6364:	70dd82        	addmi	a8, a13, 0x7000
    6367:	2039c0        	or	a3, a9, a12
    636a:	119eb0        	slli	a9, a14, 5
    636d:	2e58f2        	s16i	a15, a8, 92
    6370:	324232        	s8i	a3, a2, 50
    6373:	4f9432        	l16si	a3, a4, 158
    6376:	ad9a           	add.n	a10, a13, a9
    6378:	0b0c           	movi.n	a11, 0
    637a:	6c0c           	movi.n	a12, 6
    637c:	2f5832        	s16i	a3, a8, 94
    637f:	0007e0        	callx8	a7
    6382:	002d46        	j	643b <WB_NR_init+0x173>

00006385 <WB_NR_init+0xbd>:
    6385:	0538           	l32i.n	a3, a5, 0
    6387:	2d9482        	l16si	a8, a4, 90
    638a:	229492        	l16si	a9, a4, 68
    638d:	2394a2        	l16si	a10, a4, 70
    6390:	2494b2        	l16si	a11, a4, 72
    6393:	170c           	movi.n	a7, 1
    6395:	1ad332        	addmi	a3, a3, 0x1a00
    6398:	175372        	s16i	a7, a3, 46
    639b:	105282        	s16i	a8, a2, 32
    639e:	025292        	s16i	a9, a2, 4
    63a1:	1152a2        	s16i	a10, a2, 34
    63a4:	0352b2        	s16i	a11, a2, 6
    63a7:	152432        	l32i	a3, a4, 84
    63aa:	7239           	s32i.n	a3, a2, 28
    63ac:	2c9432        	l16si	a3, a4, 88
    63af:	0bd2c2        	addmi	a12, a2, 0xb00
    63b2:	e194d2        	l16si	a13, a4, 0x1c2
    63b5:	e294e2        	l16si	a14, a4, 0x1c4
    63b8:	7a5c32        	s16i	a3, a12, 244
    63bb:	c03630        	sub	a3, a6, a3
    63be:	5f0c           	movi.n	a15, 5
    63c0:	7b5c32        	s16i	a3, a12, 246
    63c3:	4ac432        	addi	a3, a4, 74
    63c6:	728b           	addi.n	a7, a2, 8
    63c8:	1252d2        	s16i	a13, a2, 36
    63cb:	1352e2        	s16i	a14, a2, 38
    63ce:	158f76        	loop	a15, 63e7 <WB_NR_init+0x11f>
    63d1:	238d           	ae_l16si.n	a8, a3, 0
    63d3:	332b           	addi.n	a3, a3, 2
    63d5:	749880        	extui	a9, a8, 8, 8
    63d8:	748080        	extui	a8, a8, 0, 8
    63db:	119990        	slli	a9, a9, 7
    63de:	118890        	slli	a8, a8, 7
    63e1:	679d           	ae_s16i.n	a9, a7, 0
    63e3:	778d           	ae_s16i.n	a8, a7, 2
    63e5:	774b           	addi.n	a7, a7, 4

000063e7 <WB_NR_init+0x11f>:
    63e7:	374c           	movi.n	a7, 67
    63e9:	1177a0        	slli	a7, a7, 6
    63ec:	12a232        	movi	a3, 0x212
    63ef:	00a182        	movi	a8, 0x100
    63f2:	343a           	add.n	a3, a4, a3
    63f4:	727a           	add.n	a7, a2, a7
    63f6:	078876        	loop	a8, 6401 <WB_NR_init+0x139>
    63f9:	238d           	ae_l16si.n	a8, a3, 0
    63fb:	678d           	ae_s16i.n	a8, a7, 0
    63fd:	332b           	addi.n	a3, a3, 2
    63ff:	772b           	addi.n	a7, a7, 2
    6401:	11d232        	addmi	a3, a2, 0x1100
    6404:	5f9392        	l16si	a9, a3, 190
    6407:	1292b2        	l16si	a11, a2, 36
    640a:	e7b281        	l32r	a8, 2d4 (be80 <win_512_v3>)
    640d:	f93b           	addi.n	a15, a9, 3
    640f:	b3f990        	movgez	a15, a9, a9
    6412:	fb6382        	s32i	a8, a3, 0x3ec
    6415:	4172f0        	srli	a7, a15, 2
    6418:	5f5372        	s16i	a7, a3, 190
    641b:	6b8c           	beqz.n	a11, 6425 <WB_NR_init+0x15d>
    641d:	e7ae31        	l32r	a3, 2d8 (6134 <Mel_init>)
    6420:	02ad           	mov.n	a10, a2
    6422:	0003e0        	callx8	a3

00006425 <WB_NR_init+0x15d>:
    6425:	041432        	l16ui	a3, a4, 8
    6428:	670c           	movi.n	a7, 6
    642a:	280c           	movi.n	a8, 2
    642c:	103370        	and	a3, a3, a7
    642f:	082366        	bnei	a3, 2, 643b <WB_NR_init+0x173>
    6432:	320232        	l8ui	a3, a2, 50
    6435:	203380        	or	a3, a3, a8
    6438:	324232        	s8i	a3, a2, 50
    643b:	08a3a2        	movi	a10, 0x308
    643e:	4ca4b2        	movi	a11, 0x44c
    6441:	0e9272        	l16si	a7, a2, 28
    6444:	15d282        	addmi	a8, a2, 0x1500
    6447:	119292        	l16si	a9, a2, 34
    644a:	7e7c           	movi.n	a14, -9
    644c:	7f1c           	movi.n	a15, 23
    644e:	065872        	s16i	a7, a8, 12
    6451:	075892        	s16i	a9, a8, 14
    6454:	930c           	movi.n	a3, 9
    6456:	017e50        	slli	a7, a14, 27
    6459:	118f50        	slli	a8, a15, 11
    645c:	c90c           	movi.n	a9, 12
    645e:	a2aa           	add.n	a10, a2, a10
    6460:	b2ba           	add.n	a11, a2, a11
    6462:	0acd           	mov.n	a12, a10
    6464:	0b79           	s32i.n	a7, a11, 0
    6466:	038976        	loop	a9, 646d <WB_NR_init+0x1a5>
    6469:	6c8d           	ae_s16i.n	a8, a12, 0
    646b:	cc2b           	addi.n	a12, a12, 2

0000646d <WB_NR_init+0x1a5>:
    646d:	330b           	addi.n	a3, a3, -1
    646f:	18caa2        	addi	a10, a10, 24
    6472:	bb4b           	addi.n	a11, a11, 4
    6474:	fea356        	bnez	a3, 6462 <WB_NR_init+0x19a>
    6477:	ffa772        	movi	a7, 0x7ff
    647a:	1177b0        	slli	a7, a7, 5
    647d:	0ad282        	addmi	a8, a2, 0xa00
    6480:	2e94a2        	l16si	a10, a4, 92
    6483:	ff5872        	s16i	a7, a8, 0x1fe
    6486:	986c           	movi.n	a8, -23
    6488:	f47080        	extui	a7, a8, 0, 16
    648b:	0bd292        	addmi	a9, a2, 0xb00
    648e:	7d5972        	s16i	a7, a9, 250
    6491:	c076a0        	sub	a7, a6, a10
    6494:	7059a2        	s16i	a10, a9, 224
    6497:	715972        	s16i	a7, a9, 226
    649a:	2f9432        	l16si	a3, a4, 94
    649d:	725932        	s16i	a3, a9, 228
    64a0:	c03630        	sub	a3, a6, a3
    64a3:	735932        	s16i	a3, a9, 230
    64a6:	309432        	l16si	a3, a4, 96
    64a9:	745932        	s16i	a3, a9, 232
    64ac:	e78df1        	l32r	a15, 2e0 (ee09 <_end+0x2a29>)
    64af:	c03630        	sub	a3, a6, a3
    64b2:	755932        	s16i	a3, a9, 234
    64b5:	319432        	l16si	a3, a4, 98
    64b8:	765932        	s16i	a3, a9, 236
    64bb:	15d2a2        	addmi	a10, a2, 0x1500
    64be:	c03630        	sub	a3, a6, a3
    64c1:	775932        	s16i	a3, a9, 238
    64c4:	329432        	l16si	a3, a4, 100
    64c7:	785932        	s16i	a3, a9, 240
    64ca:	1a52f2        	s16i	a15, a2, 52
    64cd:	c03630        	sub	a3, a6, a3
    64d0:	795932        	s16i	a3, a9, 242
    64d3:	809482        	l16si	a8, a4, 0x100
    64d6:	055a82        	s16i	a8, a10, 10
    64d9:	04a8           	l32i.n	a10, a4, 0
    64db:	f7a1b2        	movi	a11, 0x1f7
    64de:	02a9           	s32i.n	a10, a2, 0
    64e0:	117bd0        	slli	a7, a11, 3
    64e3:	0558           	l32i.n	a5, a5, 0
    64e5:	7894f2        	l16si	a15, a4, 240
    64e8:	7fa2c2        	movi	a12, 0x27f
    64eb:	14d262        	addmi	a6, a2, 0x1400
    64ee:	7a7a           	add.n	a7, a10, a7
    64f0:	f7a3d2        	movi	a13, 0x3f7
    64f3:	113cc0        	slli	a3, a12, 4
    64f6:	e6f591        	l32r	a9, cc (7fff0000 <_end+0x7ffe3c20>)
    64f9:	396672        	s32i	a7, a6, 228
    64fc:	117de0        	slli	a7, a13, 2
    64ff:	353a           	add.n	a3, a5, a3
    6501:	7a7a           	add.n	a7, a10, a7
    6503:	406692        	s32i	a9, a6, 0x100
    6506:	416692        	s32i	a9, a6, 0x104
    6509:	9f0b           	addi.n	a9, a15, -1
    650b:	3a6672        	s32i	a7, a6, 232
    650e:	386632        	s32i	a3, a6, 224
    6511:	481c           	movi.n	a8, 20
    6513:	996d           	ae_zext16	a6, a9
    6515:	1e0c           	movi.n	a14, 1
    6517:	623860        	saltu	a3, a8, a6
    651a:	cb0c           	movi.n	a11, 12
    651c:	00a152        	movi	a5, 0x100
    651f:	83bf30        	moveqz	a11, a15, a3
    6522:	15d2c2        	addmi	a12, a2, 0x1500
    6525:	70a4d2        	movi	a13, 0x470
    6528:	1852e2        	s16i	a14, a2, 48
    652b:	1e0c           	movi.n	a14, 1
    652d:	eea0f2        	movi	a15, 238
    6530:	013e20        	slli	a3, a14, 30
    6533:	42da           	add.n	a4, a2, a13
    6535:	155252        	s16i	a5, a2, 42
    6538:	045cb2        	s16i	a11, a12, 8
    653b:	038f76        	loop	a15, 6542 <WB_NR_init+0x27a>
    653e:	0439           	s32i.n	a3, a4, 0
    6540:	444b           	addi.n	a4, a4, 4
    6542:	320222        	l8ui	a2, a2, 50
    6545:	056217        	bbci	a2, 1, 654e <WB_NR_init+0x286>
    6548:	e76721        	l32r	a2, 2e4 (734 <PD_INIT>)
    654b:	0002e0        	callx8	a2

0000654e <WB_NR_init+0x286>:
    654e:	f01d           	retw.n

00006550 <WB_RX_NR_init>:
    6550:	004136        	entry	a1, 32
    6553:	e6d151        	l32r	a5, 98 (c3d4 <p_ecnr_mem>)
    6556:	0a0c           	movi.n	a10, 0
    6558:	03bd           	mov.n	a11, a3
    655a:	0529           	s32i.n	a2, a5, 0
    655c:	e76321        	l32r	a2, 2e8 (998c <RX_ECNR_PARA_init>)
    655f:	04cd           	mov.n	a12, a4
    6561:	0002e0        	callx8	a2
    6564:	e6d221        	l32r	a2, ac (c3dc <aec_nr_para>)
    6567:	0538           	l32i.n	a3, a5, 0
    6569:	842c           	movi.n	a4, 40
    656b:	0268           	l32i.n	a6, a2, 0
    656d:	70d442        	addmi	a4, a4, 0x7000
    6570:	a34a           	add.n	a10, a3, a4
    6572:	34a1f2        	movi	a15, 0x134
    6575:	e71731        	l32r	a3, 1d4 (2d08 <HP_coef_setup>)
    6578:	b6fa           	add.n	a11, a6, a15
    657a:	0003e0        	callx8	a3
    657d:	0538           	l32i.n	a3, a5, 0
    657f:	841c           	movi.n	a4, 24
    6581:	5bd442        	addmi	a4, a4, 0x5b00
    6584:	02c8           	l32i.n	a12, a2, 0
    6586:	e75921        	l32r	a2, 2ec (62c8 <WB_NR_init>)
    6589:	a34a           	add.n	a10, a3, a4
    658b:	1b0c           	movi.n	a11, 1
    658d:	0002e0        	callx8	a2
    6590:	f01d           	retw.n

00006592 <WB_RX_NR_init+0x42>:
	...

00006594 <WB_RX_NR_frame_process>:
    6594:	004136        	entry	a1, 32
    6597:	e6c031        	l32r	a3, 98 (c3d4 <p_ecnr_mem>)
    659a:	c55c           	movi.n	a5, 92
    659c:	83a362        	movi	a6, 0x383
    659f:	0348           	l32i.n	a4, a3, 0
    65a1:	70d552        	addmi	a5, a5, 0x7000
    65a4:	1166b0        	slli	a6, a6, 5
    65a7:	b45a           	add.n	a11, a4, a5
    65a9:	c46a           	add.n	a12, a4, a6
    65ab:	e71741        	l32r	a4, 208 (313c <emph_filter_N>)
    65ae:	f0a0d2        	movi	a13, 240
    65b1:	02ad           	mov.n	a10, a2
    65b3:	0004e0        	callx8	a4
    65b6:	0348           	l32i.n	a4, a3, 0
    65b8:	861c           	movi.n	a6, 24
    65ba:	3fa272        	movi	a7, 0x23f
    65bd:	5bd662        	addmi	a6, a6, 0x5b00
    65c0:	1177c0        	slli	a7, a7, 4
    65c3:	a46a           	add.n	a10, a4, a6
    65c5:	d47a           	add.n	a13, a4, a7
    65c7:	e72541        	l32r	a4, 25c (65ec <WB_NR_frame_process>)
    65ca:	02bd           	mov.n	a11, a2
    65cc:	02cd           	mov.n	a12, a2
    65ce:	0004e0        	callx8	a4
    65d1:	0338           	l32i.n	a3, a3, 0
    65d3:	64a042        	movi	a4, 100
    65d6:	70d442        	addmi	a4, a4, 0x7000
    65d9:	b35a           	add.n	a11, a3, a5
    65db:	c34a           	add.n	a12, a3, a4
    65dd:	e72231        	l32r	a3, 268 (3184 <deemph_filter_N>)
    65e0:	f0a0d2        	movi	a13, 240
    65e3:	02ad           	mov.n	a10, a2
    65e5:	0003e0        	callx8	a3
    65e8:	f01d           	retw.n

000065ea <WB_RX_NR_frame_process+0x56>:
	...

000065ec <WB_NR_frame_process>:
    65ec:	004136        	entry	a1, 32
    65ef:	320262        	l8ui	a6, a2, 50
    65f2:	056617        	bbci	a6, 1, 65fb <WB_NR_frame_process+0xf>
    65f5:	e73e61        	l32r	a6, 2f0 (1a84 <PD_TD_prcs>)
    65f8:	0006e0        	callx8	a6

000065fb <WB_NR_frame_process+0xf>:
    65fb:	e73e61        	l32r	a6, 2f4 (7900 <fft_wo>)
    65fe:	02ad           	mov.n	a10, a2
    6600:	03bd           	mov.n	a11, a3
    6602:	0006e0        	callx8	a6
    6605:	320232        	l8ui	a3, a2, 50
    6608:	00a2b2        	movi	a11, 0x200
    660b:	02ad           	mov.n	a10, a2
    660d:	056317        	bbci	a3, 1, 6616 <WB_NR_frame_process+0x2a>
    6610:	e73a31        	l32r	a3, 2f8 (1ad4 <pitch_by_harmonic>)
    6613:	0003e0        	callx8	a3
    6616:	e73931        	l32r	a3, 2fc (7a98 <NR_vad1>)
    6619:	02ad           	mov.n	a10, a2
    661b:	0003e0        	callx8	a3
    661e:	e73831        	l32r	a3, 300 (7bd0 <NR_vad2>)
    6621:	02ad           	mov.n	a10, a2
    6623:	0003e0        	callx8	a3
    6626:	e73731        	l32r	a3, 304 (7f14 <NR_NoiseEstimate>)
    6629:	02ad           	mov.n	a10, a2
    662b:	0003e0        	callx8	a3
    662e:	e73631        	l32r	a3, 308 (8068 <NR_NoiseWithGain>)
    6631:	02ad           	mov.n	a10, a2
    6633:	0003e0        	callx8	a3
    6636:	e73531        	l32r	a3, 30c (82e0 <NR_WienerFilter>)
    6639:	02ad           	mov.n	a10, a2
    663b:	0003e0        	callx8	a3
    663e:	320232        	l8ui	a3, a2, 50
    6641:	0b0c           	movi.n	a11, 0
    6643:	00a4c2        	movi	a12, 0x400
    6646:	0ce307        	bbsi	a3, 0, 6656 <WB_NR_frame_process+0x6a>
    6649:	e73131        	l32r	a3, 310 (5b0 <comfort_noise_gen_wb>)
    664c:	02ad           	mov.n	a10, a2
    664e:	05bd           	mov.n	a11, a5
    6650:	0003e0        	callx8	a3
    6653:	0001c6        	j	665e <WB_NR_frame_process+0x72>

00006656 <WB_NR_frame_process+0x6a>:
    6656:	e6a431        	l32r	a3, e8 (9a30 <memset>)
    6659:	05ad           	mov.n	a10, a5
    665b:	0003e0        	callx8	a3
    665e:	e72d31        	l32r	a3, 314 (8644 <ifft_wo>)
    6661:	02ad           	mov.n	a10, a2
    6663:	04bd           	mov.n	a11, a4
    6665:	05cd           	mov.n	a12, a5
    6667:	0003e0        	callx8	a3
    666a:	f01d           	retw.n

0000666c <WB_TX_NR_init>:
    666c:	004136        	entry	a1, 32
    666f:	e68a21        	l32r	a2, 98 (c3d4 <p_ecnr_mem>)
    6672:	e68e31        	l32r	a3, ac (c3dc <aec_nr_para>)
    6675:	ffa042        	movi	a4, 255
    6678:	0228           	l32i.n	a2, a2, 0
    667a:	1144a0        	slli	a4, a4, 6
    667d:	03c8           	l32i.n	a12, a3, 0
    667f:	a24a           	add.n	a10, a2, a4
    6681:	e71a21        	l32r	a2, 2ec (62c8 <WB_NR_init>)
    6684:	0b0c           	movi.n	a11, 0
    6686:	0002e0        	callx8	a2
    6689:	f01d           	retw.n

0000668b <WB_TX_NR_init+0x1f>:
	...

0000668c <WB_TX_NR_frame_process>:
    668c:	004136        	entry	a1, 32
    668f:	e68231        	l32r	a3, 98 (c3d4 <p_ecnr_mem>)
    6692:	ffa042        	movi	a4, 255
    6695:	3fa252        	movi	a5, 0x23f
    6698:	0338           	l32i.n	a3, a3, 0
    669a:	1144a0        	slli	a4, a4, 6
    669d:	1155c0        	slli	a5, a5, 4
    66a0:	a34a           	add.n	a10, a3, a4
    66a2:	d35a           	add.n	a13, a3, a5
    66a4:	e6ee31        	l32r	a3, 25c (65ec <WB_NR_frame_process>)
    66a7:	02bd           	mov.n	a11, a2
    66a9:	02cd           	mov.n	a12, a2
    66ab:	0003e0        	callx8	a3
    66ae:	f01d           	retw.n

000066b0 <NB_NR_init>:
    66b0:	004136        	entry	a1, 32
    66b3:	51a1c2        	movi	a12, 0x151
    66b6:	e67c61        	l32r	a6, a8 (9a44 <xt_memset>)
    66b9:	11ccd0        	slli	a12, a12, 3
    66bc:	0b0c           	movi.n	a11, 0
    66be:	02ad           	mov.n	a10, a2
    66c0:	0006e0        	callx8	a6
    66c3:	e67a51        	l32r	a5, ac (c3dc <aec_nr_para>)
    66c6:	f37c           	movi.n	a3, -1
    66c8:	113310        	slli	a3, a3, 15
    66cb:	0578           	l32i.n	a7, a5, 0
    66cd:	0bd242        	addmi	a4, a2, 0xb00
    66d0:	3e97c2        	l16si	a12, a7, 124
    66d3:	359792        	l16si	a9, a7, 106
    66d6:	3f9782        	l16si	a8, a7, 126
    66d9:	c0f3c0        	sub	a15, a3, a12
    66dc:	3697a2        	l16si	a10, a7, 108
    66df:	3797b2        	l16si	a11, a7, 110
    66e2:	3c97d2        	l16si	a13, a7, 120
    66e5:	3d97e2        	l16si	a14, a7, 122
    66e8:	7a54c2        	s16i	a12, a4, 244
    66eb:	7b54f2        	s16i	a15, a4, 246
    66ee:	025292        	s16i	a9, a2, 4
    66f1:	15d2c2        	addmi	a12, a2, 0x1500
    66f4:	4f0c           	movi.n	a15, 4
    66f6:	105282        	s16i	a8, a2, 32
    66f9:	075ca2        	s16i	a10, a12, 14
    66fc:	1152a2        	s16i	a10, a2, 34
    66ff:	0352b2        	s16i	a11, a2, 6
    6702:	065cd2        	s16i	a13, a12, 12
    6705:	08c242        	addi	a4, a2, 8
    6708:	70c782        	addi	a8, a7, 112
    670b:	0e52d2        	s16i	a13, a2, 28
    670e:	0f52e2        	s16i	a14, a2, 30
    6711:	158f76        	loop	a15, 672a <NB_NR_init+0x7a>
    6714:	289d           	ae_l16si.n	a9, a8, 0
    6716:	882b           	addi.n	a8, a8, 2
    6718:	74a890        	extui	a10, a9, 8, 8
    671b:	749090        	extui	a9, a9, 0, 8
    671e:	11aa90        	slli	a10, a10, 7
    6721:	119990        	slli	a9, a9, 7
    6724:	64ad           	ae_s16i.n	a10, a4, 0
    6726:	749d           	ae_s16i.n	a9, a4, 2
    6728:	444b           	addi.n	a4, a4, 4

0000672a <NB_NR_init+0x7a>:
    672a:	384c           	movi.n	a8, 67
    672c:	1188a0        	slli	a8, a8, 6
    672f:	12a242        	movi	a4, 0x212
    6732:	80a092        	movi	a9, 128
    6735:	474a           	add.n	a4, a7, a4
    6737:	828a           	add.n	a8, a2, a8
    6739:	078976        	loop	a9, 6744 <NB_NR_init+0x94>
    673c:	249d           	ae_l16si.n	a9, a4, 0
    673e:	689d           	ae_s16i.n	a9, a8, 0
    6740:	442b           	addi.n	a4, a4, 2
    6742:	882b           	addi.n	a8, a8, 2
    6744:	14d242        	addmi	a4, a2, 0x1400
    6747:	e6f481        	l32r	a8, 318 (c2c0 <win_rx_256_v3>)
    674a:	3b6482        	s32i	a8, a4, 236
    674d:	e65241        	l32r	a4, 98 (c3d4 <p_ecnr_mem>)
    6750:	320292        	l8ui	a9, a2, 50
    6753:	83a3c2        	movi	a12, 0x383
    6756:	04b8           	l32i.n	a11, a4, 0
    6758:	4097d2        	l16si	a13, a7, 128
    675b:	1a0c           	movi.n	a10, 1
    675d:	70dbe2        	addmi	a14, a11, 0x7000
    6760:	118cb0        	slli	a8, a12, 5
    6763:	2e5ed2        	s16i	a13, a14, 92
    6766:	2099a0        	or	a9, a9, a10
    6769:	4197f2        	l16si	a15, a7, 130
    676c:	ab8a           	add.n	a10, a11, a8
    676e:	0b0c           	movi.n	a11, 0
    6770:	6c0c           	movi.n	a12, 6
    6772:	324292        	s8i	a9, a2, 50
    6775:	2f5ef2        	s16i	a15, a14, 94
    6778:	0006e0        	callx8	a6
    677b:	08a3a2        	movi	a10, 0x308
    677e:	4ca4b2        	movi	a11, 0x44c
    6781:	777c           	movi.n	a7, -9
    6783:	781c           	movi.n	a8, 23
    6785:	760c           	movi.n	a6, 7
    6787:	017750        	slli	a7, a7, 27
    678a:	118850        	slli	a8, a8, 11
    678d:	c90c           	movi.n	a9, 12
    678f:	a2aa           	add.n	a10, a2, a10
    6791:	b2ba           	add.n	a11, a2, a11

00006793 <NB_NR_init+0xe3>:
    6793:	0acd           	mov.n	a12, a10
    6795:	0b79           	s32i.n	a7, a11, 0
    6797:	038976        	loop	a9, 679e <NB_NR_init+0xee>
    679a:	6c8d           	ae_s16i.n	a8, a12, 0
    679c:	cc2b           	addi.n	a12, a12, 2

0000679e <NB_NR_init+0xee>:
    679e:	660b           	addi.n	a6, a6, -1
    67a0:	18caa2        	addi	a10, a10, 24
    67a3:	bb4b           	addi.n	a11, a11, 4
    67a5:	fea656        	bnez	a6, 6793 <NB_NR_init+0xe3>
    67a8:	0558           	l32i.n	a5, a5, 0
    67aa:	ffa762        	movi	a6, 0x7ff
    67ad:	1166b0        	slli	a6, a6, 5
    67b0:	2e95e2        	l16si	a14, a5, 92
    67b3:	0ad272        	addmi	a7, a2, 0xa00
    67b6:	9c6c           	movi.n	a12, -23
    67b8:	ff5762        	s16i	a6, a7, 0x1fe
    67bb:	f460c0        	extui	a6, a12, 0, 16
    67be:	fd5762        	s16i	a6, a7, 0x1fa
    67c1:	c063e0        	sub	a6, a3, a14
    67c4:	f057e2        	s16i	a14, a7, 0x1e0
    67c7:	f15762        	s16i	a6, a7, 0x1e2
    67ca:	2f9562        	l16si	a6, a5, 94
    67cd:	f25762        	s16i	a6, a7, 0x1e4
    67d0:	c06360        	sub	a6, a3, a6
    67d3:	f35762        	s16i	a6, a7, 0x1e6
    67d6:	309562        	l16si	a6, a5, 96
    67d9:	f45762        	s16i	a6, a7, 0x1e8
    67dc:	7d0c           	movi.n	a13, 7
    67de:	c06360        	sub	a6, a3, a6
    67e1:	f55762        	s16i	a6, a7, 0x1ea
    67e4:	319562        	l16si	a6, a5, 98
    67e7:	f65762        	s16i	a6, a7, 0x1ec
    67ea:	c06360        	sub	a6, a3, a6
    67ed:	f75762        	s16i	a6, a7, 0x1ee
    67f0:	329562        	l16si	a6, a5, 100
    67f3:	f85762        	s16i	a6, a7, 0x1f0
    67f6:	e63581        	l32r	a8, cc (7fff0000 <_end+0x7ffe3c20>)
    67f9:	c0c360        	sub	a12, a3, a6
    67fc:	78dd62        	addmi	a6, a13, 0x7800
    67ff:	1a5262        	s16i	a6, a2, 52
    6802:	0558           	l32i.n	a5, a5, 0
    6804:	0259           	s32i.n	a5, a2, 0
    6806:	14d292        	addmi	a9, a2, 0x1400
    6809:	416982        	s32i	a8, a9, 0x104
    680c:	f7a182        	movi	a8, 0x1f7
    680f:	0448           	l32i.n	a4, a4, 0
    6811:	f957c2        	s16i	a12, a7, 0x1f2
    6814:	1e0c           	movi.n	a14, 1
    6816:	00a1f2        	movi	a15, 0x100
    6819:	1188d0        	slli	a8, a8, 3
    681c:	70a4a2        	movi	a10, 0x470
    681f:	f7a3b2        	movi	a11, 0x3f7
    6822:	7fa2d2        	movi	a13, 0x27f
    6825:	c58a           	add.n	a12, a5, a8
    6827:	1852e2        	s16i	a14, a2, 48
    682a:	1552f2        	s16i	a15, a2, 42
    682d:	32aa           	add.n	a3, a2, a10
    682f:	112be0        	slli	a2, a11, 2
    6832:	118dc0        	slli	a8, a13, 4
    6835:	552a           	add.n	a5, a5, a2
    6837:	1e0c           	movi.n	a14, 1
    6839:	448a           	add.n	a4, a4, a8
    683b:	78a0f2        	movi	a15, 120
    683e:	012e20        	slli	a2, a14, 30
    6841:	3969c2        	s32i	a12, a9, 228
    6844:	3a6952        	s32i	a5, a9, 232
    6847:	386942        	s32i	a4, a9, 224
    684a:	038f76        	loop	a15, 6851 <NB_NR_init+0x1a1>
    684d:	0329           	s32i.n	a2, a3, 0
    684f:	334b           	addi.n	a3, a3, 4
    6851:	f01d           	retw.n

00006853 <NB_NR_init+0x1a3>:
	...

00006854 <NB_RX_NR_init>:
    6854:	004136        	entry	a1, 32
    6857:	e61051        	l32r	a5, 98 (c3d4 <p_ecnr_mem>)
    685a:	1a0c           	movi.n	a10, 1
    685c:	03bd           	mov.n	a11, a3
    685e:	0529           	s32i.n	a2, a5, 0
    6860:	e6a221        	l32r	a2, 2e8 (998c <RX_ECNR_PARA_init>)
    6863:	04cd           	mov.n	a12, a4
    6865:	0002e0        	callx8	a2
    6868:	e61121        	l32r	a2, ac (c3dc <aec_nr_para>)
    686b:	0538           	l32i.n	a3, a5, 0
    686d:	842c           	movi.n	a4, 40
    686f:	0228           	l32i.n	a2, a2, 0
    6871:	60a1f2        	movi	a15, 0x160
    6874:	70d442        	addmi	a4, a4, 0x7000
    6877:	b2fa           	add.n	a11, a2, a15
    6879:	e65621        	l32r	a2, 1d4 (2d08 <HP_coef_setup>)
    687c:	a34a           	add.n	a10, a3, a4
    687e:	0002e0        	callx8	a2
    6881:	0528           	l32i.n	a2, a5, 0
    6883:	831c           	movi.n	a3, 24
    6885:	5bd332        	addmi	a3, a3, 0x5b00
    6888:	a23a           	add.n	a10, a2, a3
    688a:	e6a421        	l32r	a2, 31c (66b0 <NB_NR_init>)
    688d:	0002e0        	callx8	a2
    6890:	f01d           	retw.n

00006892 <NB_RX_NR_init+0x3e>:
	...

00006894 <NB_RX_NR_frame_process>:
    6894:	004136        	entry	a1, 32
    6897:	e60031        	l32r	a3, 98 (c3d4 <p_ecnr_mem>)
    689a:	c55c           	movi.n	a5, 92
    689c:	83a362        	movi	a6, 0x383
    689f:	0348           	l32i.n	a4, a3, 0
    68a1:	70d552        	addmi	a5, a5, 0x7000
    68a4:	1166b0        	slli	a6, a6, 5
    68a7:	b45a           	add.n	a11, a4, a5
    68a9:	c46a           	add.n	a12, a4, a6
    68ab:	e65741        	l32r	a4, 208 (313c <emph_filter_N>)
    68ae:	78a0d2        	movi	a13, 120
    68b1:	02ad           	mov.n	a10, a2
    68b3:	0004e0        	callx8	a4
    68b6:	0348           	l32i.n	a4, a3, 0
    68b8:	861c           	movi.n	a6, 24
    68ba:	3fa272        	movi	a7, 0x23f
    68bd:	5bd662        	addmi	a6, a6, 0x5b00
    68c0:	1177c0        	slli	a7, a7, 4
    68c3:	a46a           	add.n	a10, a4, a6
    68c5:	d47a           	add.n	a13, a4, a7
    68c7:	e69641        	l32r	a4, 320 (68ec <NB_NR_frame_process>)
    68ca:	02bd           	mov.n	a11, a2
    68cc:	02cd           	mov.n	a12, a2
    68ce:	0004e0        	callx8	a4
    68d1:	0338           	l32i.n	a3, a3, 0
    68d3:	64a042        	movi	a4, 100
    68d6:	70d442        	addmi	a4, a4, 0x7000
    68d9:	b35a           	add.n	a11, a3, a5
    68db:	c34a           	add.n	a12, a3, a4
    68dd:	e66231        	l32r	a3, 268 (3184 <deemph_filter_N>)
    68e0:	78a0d2        	movi	a13, 120
    68e3:	02ad           	mov.n	a10, a2
    68e5:	0003e0        	callx8	a3
    68e8:	f01d           	retw.n

000068ea <NB_RX_NR_frame_process+0x56>:
	...

000068ec <NB_NR_frame_process>:
    68ec:	004136        	entry	a1, 32
    68ef:	e68161        	l32r	a6, 2f4 (7900 <fft_wo>)
    68f2:	02ad           	mov.n	a10, a2
    68f4:	03bd           	mov.n	a11, a3
    68f6:	0006e0        	callx8	a6
    68f9:	e68031        	l32r	a3, 2fc (7a98 <NR_vad1>)
    68fc:	02ad           	mov.n	a10, a2
    68fe:	0003e0        	callx8	a3
    6901:	e67f31        	l32r	a3, 300 (7bd0 <NR_vad2>)
    6904:	02ad           	mov.n	a10, a2
    6906:	0003e0        	callx8	a3
    6909:	e67e31        	l32r	a3, 304 (7f14 <NR_NoiseEstimate>)
    690c:	02ad           	mov.n	a10, a2
    690e:	0003e0        	callx8	a3
    6911:	e67d31        	l32r	a3, 308 (8068 <NR_NoiseWithGain>)
    6914:	02ad           	mov.n	a10, a2
    6916:	0003e0        	callx8	a3
    6919:	e67c31        	l32r	a3, 30c (82e0 <NR_WienerFilter>)
    691c:	02ad           	mov.n	a10, a2
    691e:	0003e0        	callx8	a3
    6921:	e5f131        	l32r	a3, e8 (9a30 <memset>)
    6924:	0b0c           	movi.n	a11, 0
    6926:	00a4c2        	movi	a12, 0x400
    6929:	05ad           	mov.n	a10, a5
    692b:	0003e0        	callx8	a3
    692e:	e67931        	l32r	a3, 314 (8644 <ifft_wo>)
    6931:	02ad           	mov.n	a10, a2
    6933:	04bd           	mov.n	a11, a4
    6935:	05cd           	mov.n	a12, a5
    6937:	0003e0        	callx8	a3
    693a:	f01d           	retw.n

0000693c <NB_NR_frame_process+0x50>:
    693c:	00000000                                ....

00006940 <est_pow_aver>:
    6940:	006136        	entry	a1, 48
    6943:	840c           	movi.n	a4, 8
    6945:	fc2495343f 	{ sub	a3, a4, a3; ae_zeroq56	aeq0 }
    694a:	1fa0f2        	movi	a15, 31
    694d:	4333f0        	min	a3, a3, a15
    6950:	604204        	ae_lq32f.i	aeq1, a2, 0
    6953:	48a042        	movi	a4, 72
    6956:	020396        	bltz	a3, 697a <est_pow_aver+0x3a>
    6959:	078476        	loop	a4, 6964 <est_pow_aver+0x24>
    695c:	3453b4        	ae_sraaq56	aeq1, aeq1, a3
    695f:	f8667d321f 	{ ae_lq32f.iu	aeq1, a2, 4; ae_addsq56s	aeq0, aeq0, aeq1 }

00006964 <est_pow_aver+0x24>:
    6964:	e67021        	l32r	a2, 324 (38e39 <_end+0x2ca59>)
    6967:	398224        	ae_movpa24x2	aep0, a2, a2
    696a:	080524        	ae_mulfq32sp24s.l	aeq0, aeq0, aep0
    696d:	060834        	ae_roundsq32sym	aeq0, aeq0
    6970:	620134        	ae_sq32f.i	aeq0, a1, 12
    6973:	3128           	l32i.n	a2, a1, 12
    6975:	f01d           	retw.n

00006977 <est_pow_aver+0x37>:
    6977:	000000                                        ...

0000697a <est_pow_aver+0x3a>:
    697a:	603030        	neg	a3, a3
    697d:	098476        	loop	a4, 698a <est_pow_aver+0x4a>
    6980:	fc24fe934f 	{ ae_slaasq56s	aeq1, aeq1, a3; nop }
    6985:	f8667d321f 	{ ae_lq32f.iu	aeq1, a2, 4; ae_addsq56s	aeq0, aeq0, aeq1 }

0000698a <est_pow_aver+0x4a>:
    698a:	fff586        	j	6964 <est_pow_aver+0x24>

0000698d <est_pow_aver+0x4d>:
    698d:	000000                                        ...

00006990 <est_pow_aver_x>:
    6990:	006136        	entry	a1, 48
    6993:	850c           	movi.n	a5, 8
    6995:	fc2495353f 	{ sub	a3, a5, a3; ae_zeroq56	aeq0 }
    699a:	1fa0f2        	movi	a15, 31
    699d:	4333f0        	min	a3, a3, a15
    69a0:	604204        	ae_lq32f.i	aeq1, a2, 0
    69a3:	020396        	bltz	a3, 69c7 <est_pow_aver_x+0x37>
    69a6:	0a14a6        	blti	a4, 1, 69b4 <est_pow_aver_x+0x24>
    69a9:	078476        	loop	a4, 69b4 <est_pow_aver_x+0x24>
    69ac:	3453b4        	ae_sraaq56	aeq1, aeq1, a3
    69af:	f8667d321f 	{ ae_lq32f.iu	aeq1, a2, 4; ae_addsq56s	aeq0, aeq0, aeq1 }

000069b4 <est_pow_aver_x+0x24>:
    69b4:	e65d21        	l32r	a2, 328 (35e51 <_end+0x29a71>)
    69b7:	398224        	ae_movpa24x2	aep0, a2, a2
    69ba:	080524        	ae_mulfq32sp24s.l	aeq0, aeq0, aep0
    69bd:	060834        	ae_roundsq32sym	aeq0, aeq0
    69c0:	620134        	ae_sq32f.i	aeq0, a1, 12
    69c3:	3128           	l32i.n	a2, a1, 12
    69c5:	f01d           	retw.n

000069c7 <est_pow_aver_x+0x37>:
    69c7:	e914a6        	blti	a4, 1, 69b4 <est_pow_aver_x+0x24>
    69ca:	603030        	neg	a3, a3
    69cd:	098476        	loop	a4, 69da <est_pow_aver_x+0x4a>
    69d0:	fc24fe934f 	{ ae_slaasq56s	aeq1, aeq1, a3; nop }
    69d5:	f8667d321f 	{ ae_lq32f.iu	aeq1, a2, 4; ae_addsq56s	aeq0, aeq0, aeq1 }

000069da <est_pow_aver_x+0x4a>:
    69da:	fff586        	j	69b4 <est_pow_aver_x+0x24>

000069dd <est_pow_aver_x+0x4d>:
    69dd:	000000                                        ...

000069e0 <two_mic_WB_NR_init>:
    69e0:	004136        	entry	a1, 32
    69e3:	e5ad31        	l32r	a3, 98 (c3d4 <p_ecnr_mem>)
    69e6:	fca6f2        	movi	a15, 0x6fc
    69e9:	e5af81        	l32r	a8, a8 (9a44 <xt_memset>)
    69ec:	0348           	l32i.n	a4, a3, 0
    69ee:	f03ff0        	subx8	a3, a15, a15
    69f1:	0b0c           	movi.n	a11, 0
    69f3:	343a           	add.n	a3, a4, a3
    69f5:	1ad452        	addmi	a5, a4, 0x1a00
    69f8:	22a3c2        	movi	a12, 0x322
    69fb:	03ad           	mov.n	a10, a3
    69fd:	1b6532        	s32i	a3, a5, 108
    6a00:	3fd462        	addmi	a6, a4, 0x3f00
    6a03:	30d472        	addmi	a7, a4, 0x3000
    6a06:	050c           	movi.n	a5, 0
    6a08:	0008e0        	callx8	a8
    6a0b:	719282        	l16si	a8, a2, 226
    6a0e:	37d4e2        	addmi	a14, a4, 0x3700
    6a11:	c99292        	l16si	a9, a2, 0x192
    6a14:	7c92a2        	l16si	a10, a2, 248
    6a17:	3f22f2        	l32i	a15, a2, 252
    6a1a:	37d4c2        	addmi	a12, a4, 0x3700
    6a1d:	0e5e92        	s16i	a9, a14, 28
    6a20:	0f5e52        	s16i	a5, a14, 30
    6a23:	b9a1d2        	movi	a13, 0x1b9
    6a26:	0ca2e2        	movi	a14, 0x20c
    6a29:	055ca2        	s16i	a10, a12, 10
    6a2c:	115db0        	slli	a5, a13, 5
    6a2f:	5cf9           	s32i.n	a15, a12, 20
    6a31:	b2ea           	add.n	a11, a2, a14
    6a33:	11f820        	slli	a15, a8, 14
    6a36:	e59e21        	l32r	a2, b0 (9a58 <xt_memcpy>)
    6a39:	6cf9           	s32i.n	a15, a12, 24
    6a3b:	a45a           	add.n	a10, a4, a5
    6a3d:	3c0c           	movi.n	a12, 3
    6a3f:	725782        	s16i	a8, a7, 228
    6a42:	0002e0        	callx8	a2
    6a45:	302692        	l32i	a9, a6, 192
    6a48:	e594d1        	l32r	a13, 98 (c3d4 <p_ecnr_mem>)
    6a4b:	dca7b2        	movi	a11, 0x7dc
    6a4e:	69ba           	add.n	a6, a9, a11
    6a50:	36d4a2        	addmi	a10, a4, 0x3600
    6a53:	f7a3c2        	movi	a12, 0x3f7
    6a56:	a5a052        	movi	a5, 165
    6a59:	346a62        	s32i	a6, a10, 208
    6a5c:	11ace0        	slli	a10, a12, 2
    6a5f:	9c6c           	movi.n	a12, -23
    6a61:	0db8           	l32i.n	a11, a13, 0
    6a63:	115590        	slli	a5, a5, 7
    6a66:	f4c0c0        	extui	a12, a12, 0, 16
    6a69:	3fa2e2        	movi	a14, 0x23f
    6a6c:	54d422        	addmi	a2, a4, 0x5400
    6a6f:	7b57c2        	s16i	a12, a7, 246
    6a72:	117ec0        	slli	a7, a14, 4
    6a75:	f45a           	add.n	a15, a4, a5
    6a77:	36d462        	addmi	a6, a4, 0x3600
    6a7a:	04d9e2        	addmi	a14, a9, 0x400
    6a7d:	282222        	l32i	a2, a2, 160
    6a80:	3566f2        	s32i	a15, a6, 212
    6a83:	bb7a           	add.n	a11, a11, a7
    6a85:	c9cb           	addi.n	a12, a9, 12
    6a87:	08d9d2        	addmi	a13, a9, 0x800
    6a8a:	a9aa           	add.n	a10, a9, a10
    6a8c:	366692        	s32i	a9, a6, 216
    6a8f:	0cd992        	addmi	a9, a9, 0xc00
    6a92:	150c           	movi.n	a5, 1
    6a94:	eea0f2        	movi	a15, 238
    6a97:	376622        	s32i	a2, a6, 220
    6a9a:	14c332        	addi	a3, a3, 20
    6a9d:	012520        	slli	a2, a5, 30
    6aa0:	3966c2        	s32i	a12, a6, 228
    6aa3:	3866d2        	s32i	a13, a6, 224
    6aa6:	3b66e2        	s32i	a14, a6, 236
    6aa9:	3a66e2        	s32i	a14, a6, 232
    6aac:	3c6692        	s32i	a9, a6, 240
    6aaf:	3d66a2        	s32i	a10, a6, 244
    6ab2:	3e66b2        	s32i	a11, a6, 248
    6ab5:	038f76        	loop	a15, 6abc <two_mic_WB_NR_init+0xdc>
    6ab8:	0329           	s32i.n	a2, a3, 0
    6aba:	334b           	addi.n	a3, a3, 4

00006abc <two_mic_WB_NR_init+0xdc>:
    6abc:	4ba332        	movi	a3, 0x34b
    6abf:	1133c0        	slli	a3, a3, 4
    6ac2:	a43a           	add.n	a10, a4, a3
    6ac4:	e57931        	l32r	a3, a8 (9a44 <xt_memset>)
    6ac7:	0b0c           	movi.n	a11, 0
    6ac9:	10a1c2        	movi	a12, 0x110
    6acc:	070c           	movi.n	a7, 0
    6ace:	0003e0        	callx8	a3
    6ad1:	3526a2        	l32i	a10, a6, 212
    6ad4:	0b0c           	movi.n	a11, 0
    6ad6:	10a1c2        	movi	a12, 0x110
    6ad9:	0003e0        	callx8	a3
    6adc:	882c           	movi.n	a8, 40
    6ade:	490c           	movi.n	a9, 4
    6ae0:	40d882        	addmi	a8, a8, 0x4000
    6ae3:	40d992        	addmi	a9, a9, 0x4000
    6ae6:	3fd462        	addmi	a6, a4, 0x3f00
    6ae9:	150c           	movi.n	a5, 1
    6aeb:	7e7c           	movi.n	a14, -9
    6aed:	7f1c           	movi.n	a15, 23
    6aef:	7d5652        	s16i	a5, a6, 250
    6af2:	f64672        	s8i	a7, a6, 246
    6af5:	930c           	movi.n	a3, 9
    6af7:	015e50        	slli	a5, a14, 27
    6afa:	116f50        	slli	a6, a15, 11
    6afd:	c70c           	movi.n	a7, 12
    6aff:	848a           	add.n	a8, a4, a8
    6b01:	949a           	add.n	a9, a4, a9

00006b03 <two_mic_WB_NR_init+0x123>:
    6b03:	08ad           	mov.n	a10, a8
    6b05:	0959           	s32i.n	a5, a9, 0
    6b07:	038776        	loop	a7, 6b0e <two_mic_WB_NR_init+0x12e>
    6b0a:	6a6d           	ae_s16i.n	a6, a10, 0
    6b0c:	aa2b           	addi.n	a10, a10, 2

00006b0e <two_mic_WB_NR_init+0x12e>:
    6b0e:	330b           	addi.n	a3, a3, -1
    6b10:	18c882        	addi	a8, a8, 24
    6b13:	994b           	addi.n	a9, a9, 4
    6b15:	fea356        	bnez	a3, 6b03 <two_mic_WB_NR_init+0x123>
    6b18:	976c           	movi.n	a7, -23
    6b1a:	40d462        	addmi	a6, a4, 0x4000
    6b1d:	f47070        	extui	a7, a7, 0, 16
    6b20:	23a4e2        	movi	a14, 0x423
    6b23:	667d           	ae_s16i.n	a7, a6, 0
    6b25:	3cd432        	addmi	a3, a4, 0x3c00
    6b28:	e60151        	l32r	a5, 32c (ffe9ffe9 <_end+0xffe93c09>)
    6b2b:	116ec0        	slli	a6, a14, 4
    6b2e:	6f2c           	movi.n	a15, 38
    6b30:	ff6352        	s32i	a5, a3, 0x3fc
    6b33:	346a           	add.n	a3, a4, a6
    6b35:	038f76        	loop	a15, 6b3c <two_mic_WB_NR_init+0x15c>
    6b38:	0329           	s32i.n	a2, a3, 0
    6b3a:	334b           	addi.n	a3, a3, 4
    6b3c:	f01d           	retw.n

00006b3e <two_mic_WB_NR_init+0x15e>:
	...

00006b40 <two_mic_WB_NR_NSN_proc>:
    6b40:	010136        	entry	a1, 128
    6b43:	f0a072        	movi	a7, 240
    6b46:	126122        	s32i	a2, a1, 72
    6b49:	060c           	movi.n	a6, 0
    6b4b:	042d           	mov.n	a2, a4
    6b4d:	058d           	mov.n	a8, a5
    6b4f:	138776        	loop	a7, 6b66 <two_mic_WB_NR_NSN_proc+0x26>
    6b52:	227d           	ae_l16si.n	a7, a2, 0
    6b54:	28fd           	ae_l16si.n	a15, a8, 0
    6b56:	222b           	addi.n	a2, a2, 2
    6b58:	607170        	abs	a7, a7
    6b5b:	206760        	or	a6, a7, a6
    6b5e:	6071f0        	abs	a7, a15
    6b61:	882b           	addi.n	a8, a8, 2
    6b63:	206670        	or	a6, a6, a7

00006b66 <two_mic_WB_NR_NSN_proc+0x26>:
    6b66:	122182        	l32i	a8, a1, 72
    6b69:	40e620        	nsa	a2, a6
    6b6c:	05d3b2        	addmi	a11, a3, 0x500
    6b6f:	159862        	l16si	a6, a8, 42
    6b72:	090c           	movi.n	a9, 0
    6b74:	f0c222        	addi	a2, a2, -16
    6b77:	3c2bd2        	l32i	a13, a11, 240
    6b7a:	532290        	max	a2, a2, a9
    6b7d:	14d872        	addmi	a7, a8, 0x1400
    6b80:	08f8           	l32i.n	a15, a8, 0
    6b82:	c129           	s32i.n	a2, a1, 48
    6b84:	432260        	min	a2, a2, a6
    6b87:	e5eaa1        	l32r	a10, 330 (b5b0 <fftorder_512_12b>)
    6b8a:	3b2762        	l32i	a6, a7, 236
    6b8d:	cca3c2        	movi	a12, 0x3cc
    6b90:	031624        	wur.ae_sar	a2
    6b93:	458c34        	ae_lp16x2f.xu	aep0, a12, a3
    6b96:	f823ad1d0f 	{ ae_lp16x2f.i	aep1, a13, 0; ae_sllssp24s	aep0, aep0 }
    6b9b:	f9278080ef 	{ movi	a14, 128; ae_sllssp24s	aep2, aep1 }
    6ba0:	106122        	s32i	a2, a1, 64
    6ba3:	b139           	s32i.n	a3, a1, 44
    6ba5:	7a2b           	addi.n	a7, a10, 2
    6ba7:	04cf82        	addi	a8, a15, 4
    6baa:	441604        	ae_lp16x2f.i	aep1, a6, 0
    6bad:	288e76        	loop	a14, 6bd9 <two_mic_WB_NR_NSN_proc+0x99>
    6bb0:	e828a007ee 	{ l16si	a14, a7, 0; ae_mulfp24s.hh	aeq0, aep2, aep1 }
    6bb5:	e820edfc1f 	{ ae_lp16x2f.iu	aep7, a12, 4; ae_mulfp24s.hh	aeq1, aep0, aep1 }
    6bba:	eb21f8489f 	{ ae_sq32f.x	aeq0, a8, a9; ae_mulfp24s.ll	aeq3, aep0, aep1 }
    6bbf:	eb29b85f9f 	{ ae_sq32f.x	aeq1, a15, a9; ae_mulfp24s.ll	aeq2, aep2, aep1 }
    6bc4:	f83fa0179e 	{ l16si	a9, a7, 2; ae_sllssp24s	aep0, aep7 }
    6bc9:	44bd14        	ae_lp16x2f.iu	aep3, a13, 4
    6bcc:	f92fb868ef 	{ ae_sq32f.x	aeq2, a8, a14; ae_sllssp24s	aep2, aep3 }
    6bd1:	449614        	ae_lp16x2f.iu	aep1, a6, 4
    6bd4:	774b           	addi.n	a7, a7, 4
    6bd6:	62bfe4        	ae_sq32f.x	aeq3, a15, a14
    6bd9:	fc20f3cbee 	{ l32i	a14, a11, 240; ae_zerop48	aep1 }
    6bde:	b1a8           	l32i.n	a10, a1, 44
    6be0:	aca5d2        	movi	a13, 0x5ac
    6be3:	c8a3c2        	movi	a12, 0x3c8
    6be6:	e0a132        	movi	a3, 0x1e0
    6be9:	820c           	movi.n	a2, 8
    6beb:	baca           	add.n	a11, a10, a12
    6bed:	45bda4        	ae_lp16x2f.xu	aep3, a13, a10
    6bf0:	fccec2        	addi	a12, a14, -4
    6bf3:	452e34        	ae_lp16x2f.x	aep2, a14, a3
    6bf6:	ee3a           	add.n	a14, a14, a3
    6bf8:	138276        	loop	a2, 6c0f <two_mic_WB_NR_NSN_proc+0xcf>
    6bfb:	fc6833bb1f 	{ ae_sp16x2f.iu	aep3, a11, 4; ae_abssp24s	aep0, aep3 }
    6c00:	fe4833ac1f 	{ ae_sp16x2f.iu	aep2, a12, 4; ae_abssp24s	aep4, aep2 }
    6c05:	dc042dbd1f 	{ ae_lp16x2f.iu	aep3, a13, 4; ae_orp48	aep0, aep1, aep0 }
    6c0a:	dc806dae1f 	{ ae_lp16x2f.iu	aep2, a14, 4; ae_orp48	aep1, aep0, aep4 }
    6c0f:	08a022        	movi	a2, 8
    6c12:	4486f4        	ae_lp16x2f.iu	aep0, a6, -4
    6c15:	378276        	loop	a2, 6c50 <two_mic_WB_NR_NSN_proc+0x110>
    6c18:	fa2fa0072e 	{ l16si	a2, a7, 0; ae_sllssp24s	aep4, aep3 }
    6c1d:	fa2bf3bb1f 	{ ae_sp16x2f.iu	aep3, a11, 4; ae_sllssp24s	aep5, aep2 }
    6c22:	ea14b3ac1f 	{ ae_sp16x2f.iu	aep2, a12, 4; ae_mulfp24s.hl	aeq0, aep5, aep0 }
    6c27:	014854        	ae_mulfp24s.hl	aeq1, aep4, aep0
    6c2a:	ff6838489f 	{ ae_sq32f.x	aeq0, a8, a9; ae_abssp24s	aep6, aep3 }
    6c2f:	e915f85f9f 	{ ae_sq32f.x	aeq1, a15, a9; ae_mulfp24s.lh	aeq3, aep5, aep0 }
    6c34:	e911a0179e 	{ l16si	a9, a7, 2; ae_mulfp24s.lh	aeq2, aep4, aep0 }
    6c39:	ff4878782f 	{ ae_sq32f.x	aeq3, a8, a2; ae_abssp24s	aep7, aep2 }
    6c3e:	dcc46d86ff 	{ ae_lp16x2f.iu	aep0, a6, -4; ae_orp48	aep1, aep1, aep6 }
    6c43:	dce46dbd1f 	{ ae_lp16x2f.iu	aep3, a13, 4; ae_orp48	aep1, aep1, aep7 }
    6c48:	44ae14        	ae_lp16x2f.iu	aep2, a14, 4
    6c4b:	774b           	addi.n	a7, a7, 4
    6c4d:	62af24        	ae_sq32f.x	aeq2, a15, a2
    6c50:	0092d4        	ae_cvta32p24.h	a2, aep1
    6c53:	001dd4        	ae_cvta32p24.l	a13, aep1
    6c56:	c138           	l32i.n	a3, a1, 48
    6c58:	1221a2        	l32i	a10, a1, 72
    6c5b:	2022d0        	or	a2, a2, a13
    6c5e:	40e220        	nsa	a2, a2
    6c61:	432320        	min	a2, a3, a2
    6c64:	155a22        	s16i	a2, a10, 42
    6c67:	78a0e2        	movi	a14, 120
    6c6a:	442404        	ae_lp16x2f.i	aep2, a4, 0
    6c6d:	441504        	ae_lp16x2f.i	aep1, a5, 0
    6c70:	2d8e76        	loop	a14, 6ca1 <two_mic_WB_NR_NSN_proc+0x161>
    6c73:	f92be0072e 	{ l16si	a2, a7, 0; ae_sllssp24s	aep3, aep2 }
    6c78:	fa27b3ab1f 	{ ae_sp16x2f.iu	aep2, a11, 4; ae_sllssp24s	aep4, aep1 }
    6c7d:	ea10b39c1f 	{ ae_sp16x2f.iu	aep1, a12, 4; ae_mulfp24s.hl	aeq0, aep4, aep0 }
    6c82:	ea0ceda41f 	{ ae_lp16x2f.iu	aep2, a4, 4; ae_mulfp24s.hl	aeq1, aep3, aep0 }
    6c87:	e90db8489f 	{ ae_sq32f.x	aeq0, a8, a9; ae_mulfp24s.lh	aeq2, aep3, aep0 }
    6c8c:	e911f85f9f 	{ ae_sq32f.x	aeq1, a15, a9; ae_mulfp24s.lh	aeq3, aep4, aep0 }
    6c91:	379d           	ae_l16si.n	a9, a7, 2
    6c93:	62b824        	ae_sq32f.x	aeq3, a8, a2
    6c96:	4486f4        	ae_lp16x2f.iu	aep0, a6, -4
    6c99:	449514        	ae_lp16x2f.iu	aep1, a5, 4
    6c9c:	774b           	addi.n	a7, a7, 4
    6c9e:	62af24        	ae_sq32f.x	aeq2, a15, a2
    6ca1:	122132        	l32i	a3, a1, 72
    6ca4:	e5a421        	l32r	a2, 334 (926c <sw_fft_32b_2811>)
    6ca7:	00a2b2        	movi	a11, 0x200
    6caa:	03a8           	l32i.n	a10, a3, 0
    6cac:	8c0c           	movi.n	a12, 8
    6cae:	1d0c           	movi.n	a13, 1
    6cb0:	1e0c           	movi.n	a14, 1
    6cb2:	0002e0        	callx8	a2
    6cb5:	b1b8           	l32i.n	a11, a1, 44
    6cb7:	0378           	l32i.n	a7, a3, 0
    6cb9:	1021f2        	l32i	a15, a1, 64
    6cbc:	05db22        	addmi	a2, a11, 0x500
    6cbf:	ffa182        	movi	a8, 0x1ff
    6cc2:	3d2242        	l32i	a4, a2, 244
    6cc5:	3e2232        	l32i	a3, a2, 248
    6cc8:	1188d0        	slli	a8, a8, 3
    6ccb:	c02fa0        	sub	a2, a15, a10
    6cce:	00a192        	movi	a9, 0x100
    6cd1:	600724        	ae_lq32f.i	aeq0, a7, 8
    6cd4:	606784        	ae_lq32f.x	aeq1, a7, a8
    6cd7:	678a           	add.n	a6, a7, a8
    6cd9:	578b           	addi.n	a5, a7, 8
    6cdb:	075b22        	s16i	a2, a11, 14
    6cde:	fa660fc47e 	{ addi	a7, a4, -4; ae_addq56	aeq2, aeq0, aeq1 }
    6ce3:	f8c382        	addi	a8, a3, -8
    6ce6:	2b8976        	loop	a9, 6d15 <two_mic_WB_NR_NSN_proc+0x1d5>
    6ce9:	f82afb209f 	{ ae_sraiq56	aeq2, aeq2, 1; ae_subq56	aeq0, aeq1, aeq0 }
    6cee:	60c514        	ae_lq32f.i	aeq3, a5, 4
    6cf1:	604614        	ae_lq32f.i	aeq1, a6, 4
    6cf4:	350074        	ae_sraiq56	aeq0, aeq0, 1
    6cf7:	fa3ef9a71f 	{ ae_sq32f.i	aeq2, a7, 4; ae_subq56	aeq2, aeq3, aeq1 }
    6cfc:	fb7e39883f 	{ ae_sq32f.i	aeq0, a8, 12; ae_addq56	aeq3, aeq3, aeq1 }
    6d01:	35a074        	ae_sraiq56	aeq2, aeq2, 1
    6d04:	35f074        	ae_sraiq56	aeq3, aeq3, 1
    6d07:	601524        	ae_lq32f.iu	aeq0, a5, 8
    6d0a:	6056e4        	ae_lq32f.iu	aeq1, a6, -8
    6d0d:	fa6639e72f 	{ ae_sq32f.iu	aeq2, a7, 8; ae_addq56	aeq2, aeq0, aeq1 }
    6d12:	627824        	ae_sq32f.iu	aeq3, a8, 8
    6d15:	05dba2        	addmi	a10, a11, 0x500
    6d18:	3f2ae2        	l32i	a14, a10, 252
    6d1b:	402af2        	l32i	a15, a10, 0x100
    6d1e:	1162f0        	slli	a6, a2, 1
    6d21:	170c           	movi.n	a7, 1
    6d23:	5c1434        	ae_lp24x2f.i	aep1, a4, 24
    6d26:	f02795d76f 	{ sub	a13, a7, a6; ae_mulzaap24s.hh.ll	aeq0, aep1, aep1 }
    6d2b:	eea092        	movi	a9, 238
    6d2e:	18c422        	addi	a2, a4, 24
    6d31:	18c352        	addi	a5, a3, 24
    6d34:	5c0334        	ae_lp24x2f.i	aep0, a3, 24
    6d37:	a15ad2        	s16i	a13, a10, 0x142
    6d3a:	1161a2        	s32i	a10, a1, 68
    6d3d:	085bd2        	s16i	a13, a11, 16
    6d40:	fcce32        	addi	a3, a14, -4
    6d43:	fccf42        	addi	a4, a15, -4
    6d46:	0f8976        	loop	a9, 6d59 <two_mic_WB_NR_NSN_proc+0x219>
    6d49:	f003f9c31f 	{ ae_sq32f.iu	aeq0, a3, 4; ae_mulzaap24s.hh.ll	aeq1, aep0, aep0 }
    6d4e:	625414        	ae_sq32f.iu	aeq1, a4, 4
    6d51:	5c9214        	ae_lp24x2f.iu	aep1, a2, 8
    6d54:	f027af851f 	{ ae_lp24x2f.iu	aep0, a5, 8; ae_mulzaap24s.hh.ll	aeq0, aep1, aep1 }
    6d59:	3b2d           	ae_l16si.n	a2, a11, 2
    6d5b:	037c           	movi.n	a3, -16
    6d5d:	24a652        	movi	a5, 0x624
    6d60:	1442a6        	blti	a2, 4, 6d78 <two_mic_WB_NR_NSN_proc+0x238>
    6d63:	06db32        	addmi	a3, a11, 0x600
    6d66:	129332        	l16si	a3, a3, 36
    6d69:	24a622        	movi	a2, 0x624
    6d6c:	040c           	movi.n	a4, 0
    6d6e:	330b           	addi.n	a3, a3, -1
    6d70:	2b2a           	add.n	a2, a11, a2
    6d72:	533340        	max	a3, a3, a4
    6d75:	000986        	j	6d9f <two_mic_WB_NR_NSN_proc+0x25f>

00006d78 <two_mic_WB_NR_NSN_proc+0x238>:
    6d78:	112327        	blt	a3, a2, 6d8d <two_mic_WB_NR_NSN_proc+0x24d>
    6d7b:	06db32        	addmi	a3, a11, 0x600
    6d7e:	129332        	l16si	a3, a3, 36
    6d81:	24a622        	movi	a2, 0x624
    6d84:	043c           	movi.n	a4, 48
    6d86:	2b2a           	add.n	a2, a11, a2
    6d88:	335b           	addi.n	a3, a3, 5
    6d8a:	000386        	j	6d9c <two_mic_WB_NR_NSN_proc+0x25c>

00006d8d <two_mic_WB_NR_NSN_proc+0x24d>:
    6d8d:	1002e6        	bgei	a2, -1, 6da1 <two_mic_WB_NR_NSN_proc+0x261>
    6d90:	06db32        	addmi	a3, a11, 0x600
    6d93:	129332        	l16si	a3, a3, 36
    6d96:	043c           	movi.n	a4, 48
    6d98:	2b5a           	add.n	a2, a11, a5
    6d9a:	333b           	addi.n	a3, a3, 3
    6d9c:	433340        	min	a3, a3, a4
    6d9f:	623d           	ae_s16i.n	a3, a2, 0
    6da1:	049b22        	l16si	a2, a11, 8
    6da4:	837c           	movi.n	a3, -8
    6da6:	e4c941        	l32r	a4, cc (7fff0000 <_end+0x7ffe3c20>)
    6da9:	112327        	blt	a3, a2, 6dbe <two_mic_WB_NR_NSN_proc+0x27e>
    6dac:	06db22        	addmi	a2, a11, 0x600
    6daf:	139222        	l16si	a2, a2, 38
    6db2:	112200        	slli	a2, a2, 16
    6db5:	360234        	ae_cvtq48a32s	aeq0, a2
    6db8:	e56021        	l32r	a2, 338 (7f5c00a4 <_end+0x7f5b3cc4>)
    6dbb:	000146        	j	6dc4 <two_mic_WB_NR_NSN_proc+0x284>

00006dbe <two_mic_WB_NR_NSN_proc+0x27e>:
    6dbe:	360434        	ae_cvtq48a32s	aeq0, a4
    6dc1:	e55e21        	l32r	a2, 33c (7ff00010 <_end+0x7fef3c30>)
    6dc4:	122132        	l32i	a3, a1, 72
    6dc7:	308224        	ae_cvtp24a16x2.lh	aep0, a2, a2
    6dca:	e55d21        	l32r	a2, 340 (9578 <Pitch_2Mic>)
    6dcd:	15d332        	addmi	a3, a3, 0x1500
    6dd0:	604304        	ae_lq32f.i	aeq1, a3, 0
    6dd3:	0c0113abbf 	{ or	a10, a11, a11; ae_mulzaafq32sp16s.lh	aeq0, aeq1, aep0, aeq0, aep0 }
    6dd8:	06db62        	addmi	a6, a11, 0x600
    6ddb:	fc2440015f 	{ movi	a5, 1; ae_roundsq32asym	aeq0, aeq0 }
    6de0:	620304        	ae_sq32f.i	aeq0, a3, 0
    6de3:	0002e0        	callx8	a2
    6de6:	b1f8           	l32i.n	a15, a1, 44
    6de8:	015530        	slli	a5, a5, 29
    6deb:	176132        	s32i	a3, a1, 92
    6dee:	06df42        	addmi	a4, a15, 0x600
    6df1:	0d1422        	l16ui	a2, a4, 26
    6df4:	156142        	s32i	a4, a1, 84
    6df7:	ff2094f16f 	{ s32i.n	a6, a1, 60; ae_zerop48	aep6 }
    6dfc:	0222f6        	bgeui	a2, 2, 6e02 <two_mic_WB_NR_NSN_proc+0x2c2>
    6dff:	005ec6        	j	6f7e <two_mic_WB_NR_NSN_proc+0x43e>
    6e02:	06df52        	addmi	a5, a15, 0x600
    6e05:	e54f31        	l32r	a3, 344 (34ccccd <_end+0x34c08ed>)
    6e08:	8528           	l32i.n	a2, a5, 32
    6e0a:	129552        	l16si	a5, a5, 36
    6e0d:	140c           	movi.n	a4, 1
    6e0f:	726320        	salt	a6, a3, a2
    6e12:	014460        	slli	a4, a4, 26
    6e15:	0f7d           	mov.n	a7, a15
    6e17:	722420        	salt	a2, a4, a2
    6e1a:	530c           	movi.n	a3, 5
    6e1c:	f63b           	addi.n	a15, a6, 3
    6e1e:	0c15a6        	blti	a5, 1, 6e2e <two_mic_WB_NR_NSN_proc+0x2ee>
    6e21:	06d742        	addmi	a4, a7, 0x600
    6e24:	a458           	l32i.n	a5, a4, 40
    6e26:	c448           	l32i.n	a4, a4, 48
    6e28:	aea782        	movi	a8, 0x7ae
    6e2b:	012547        	blt	a5, a4, 6e30 <two_mic_WB_NR_NSN_proc+0x2f0>
    6e2e:	080c           	movi.n	a8, 0
    6e30:	93f320        	movnez	a15, a3, a2
    6e33:	06d722        	addmi	a2, a7, 0x600
    6e36:	72d8           	l32i.n	a13, a2, 28
    6e38:	750c           	movi.n	a5, 7
    6e3a:	0155a0        	slli	a5, a5, 22
    6e3d:	725d50        	salt	a5, a13, a5
    6e40:	d67c           	movi.n	a6, -3
    6e42:	935d50        	movnez	a5, a13, a5
    6e45:	12a8           	l32i.n	a10, a2, 4
    6e47:	e540e1        	l32r	a14, 348 (d9999a <_end+0xd8d5ba>)
    6e4a:	3298           	l32i.n	a9, a2, 12
    6e4c:	06d732        	addmi	a3, a7, 0x600
    6e4f:	dd5a           	add.n	a13, a13, a5
    6e51:	016690        	slli	a6, a6, 23
    6e54:	fc7c           	movi.n	a12, -1
    6e56:	6d6a           	add.n	a6, a13, a6
    6e58:	417180        	srli	a7, a8, 1
    6e5b:	0b0c           	movi.n	a11, 0
    6e5d:	01cc10        	slli	a12, a12, 31
    6e60:	fcca42        	addi	a4, a10, -4
    6e63:	fcc952        	addi	a5, a9, -4
    6e66:	2a26e7        	blt	a6, a14, 6e94 <two_mic_WB_NR_NSN_proc+0x354>
    6e69:	e538b1        	l32r	a11, 34c (fe266666 <_end+0xfe25a286>)
    6e6c:	5e0c           	movi.n	a14, 5
    6e6e:	01ee40        	slli	a14, a14, 28
    6e71:	ddba           	add.n	a13, a13, a11
    6e73:	b78a           	add.n	a11, a7, a8
    6e75:	360e34        	ae_cvtq48a32s	aeq0, a14
    6e78:	11eb00        	slli	a14, a11, 16
    6e7b:	c0ebe0        	sub	a14, a11, a14
    6e7e:	eeca           	add.n	a14, a14, a12
    6e80:	31d7d0        	srai	a13, a13, 23
    6e83:	00a0b2        	movi	a11, 0
    6e86:	308ee4        	ae_cvtp24a16x2.lh	aep0, a14, a14
    6e89:	078d76        	loop	a13, 6e94 <two_mic_WB_NR_NSN_proc+0x354>
    6e8c:	468414        	ae_sp16x2f.iu	aep0, a4, 4
    6e8f:	624514        	ae_sq32f.iu	aeq0, a5, 4
    6e92:	bb1b           	addi.n	a11, a11, 1

00006e94 <two_mic_WB_NR_NSN_proc+0x354>:
    6e94:	11d810        	slli	a13, a8, 15
    6e97:	ff209577df 	{ sub	a7, a7, a13; ae_zerop48	aep6 }
    6e9c:	77ca           	add.n	a7, a7, a12
    6e9e:	308774        	ae_cvtp24a16x2.lh	aep0, a7, a7
    6ea1:	e47e71        	l32r	a7, 9c (be40 <wb_sb_ptn>)
    6ea4:	468414        	ae_sp16x2f.iu	aep0, a4, 4
    6ea7:	1e0c           	movi.n	a14, 1
    6ea9:	907f70        	addx2	a7, a15, a7
    6eac:	fec772        	addi	a7, a7, -2
    6eaf:	277d           	ae_l16si.n	a7, a7, 0
    6eb1:	fd7c           	movi.n	a13, -1
    6eb3:	01ee30        	slli	a14, a14, 29
    6eb6:	772b           	addi.n	a7, a7, 2
    6eb8:	01dd90        	slli	a13, a13, 23
    6ebb:	360e34        	ae_cvtq48a32s	aeq0, a14
    6ebe:	66da           	add.n	a6, a6, a13
    6ec0:	017790        	slli	a7, a7, 23
    6ec3:	624514        	ae_sq32f.iu	aeq0, a5, 4
    6ec6:	1361f2        	s32i	a15, a1, 76
    6ec9:	630114        	ae_sq56s.i	aeq0, a1, 8
    6ecc:	022677        	blt	a6, a7, 6ed2 <two_mic_WB_NR_NSN_proc+0x392>
    6ecf:	003386        	j	6fa1 <two_mic_WB_NR_NSN_proc+0x461>
    6ed2:	41e280        	srli	a14, a8, 2
    6ed5:	11b800        	slli	a11, a8, 16
    6ed8:	e51f51        	l32r	a5, 354 (4cccccd <_end+0x4cc08ed>)
    6edb:	11de00        	slli	a13, a14, 16
    6ede:	364534        	ae_cvtq48a32s	aeq1, a5
    6ee1:	c05ed0        	sub	a5, a14, a13
    6ee4:	e51b41        	l32r	a4, 350 (1eb851f <_end+0x1eac13f>)
    6ee7:	c0b8b0        	sub	a11, a8, a11
    6eea:	3e0c           	movi.n	a14, 3
    6eec:	3f0c           	movi.n	a15, 3
    6eee:	018e40        	slli	a8, a14, 28
    6ef1:	360434        	ae_cvtq48a32s	aeq0, a4
    6ef4:	014f50        	slli	a4, a15, 27
    6ef7:	fbca           	add.n	a15, a11, a12
    6ef9:	55ca           	add.n	a5, a5, a12
    6efb:	e517d1        	l32r	a13, 358 (23fffff <_end+0x23f3c1f>)
    6efe:	e517c1        	l32r	a12, 35c (59999b <_end+0x58d5bb>)
    6f01:	e517e1        	l32r	a14, 360 (ffa66666 <_end+0xffa5a286>)
    6f04:	308ff4        	ae_cvtp24a16x2.lh	aep0, a15, a15
    6f07:	fd047a112f 	{ ae_sq56s.i	aeq1, a1, 16; ae_movq56	aeq1, aeq0 }
    6f0c:	36c434        	ae_cvtq48a32s	aeq3, a4
    6f0f:	368834        	ae_cvtq48a32s	aeq2, a8
    6f12:	309554        	ae_cvtp24a16x2.lh	aep1, a5, a5
    6f15:	1f0c           	movi.n	a15, 1

00006f17 <two_mic_WB_NR_NSN_proc+0x3d7>:
    6f17:	140c           	movi.n	a4, 1
    6f19:	0144a0        	slli	a4, a4, 22
    6f1c:	464a           	add.n	a4, a6, a4
    6f1e:	318740        	srai	a8, a4, 23
    6f21:	a048a0        	addx4	a4, a8, a10
    6f24:	a05890        	addx4	a5, a8, a9
    6f27:	fcc442        	addi	a4, a4, -4
    6f2a:	fcc552        	addi	a5, a5, -4
    6f2d:	46e414        	ae_sp16x2f.iu	aep6, a4, 4
    6f30:	022d67        	blt	a13, a6, 6f36 <two_mic_WB_NR_NSN_proc+0x3f6>
    6f33:	614124        	ae_lq56.i	aeq1, a1, 16
    6f36:	b81b           	addi.n	a11, a8, 1
    6f38:	96ca           	add.n	a9, a6, a12
    6f3a:	01ab90        	slli	a10, a11, 23
    6f3d:	625514        	ae_sq32f.iu	aeq1, a5, 4
    6f40:	07aa97        	bge	a10, a9, 6f4b <two_mic_WB_NR_NSN_proc+0x40b>
    6f43:	469414        	ae_sp16x2f.iu	aep1, a4, 4
    6f46:	627514        	ae_sq32f.iu	aeq3, a5, 4
    6f49:	b82b           	addi.n	a11, a8, 2
    6f4b:	7288           	l32i.n	a8, a2, 28
    6f4d:	686a           	add.n	a6, a8, a6
    6f4f:	8086e0        	add	a8, a6, a14
    6f52:	318780        	srai	a8, a8, 23
    6f55:	1328b7        	blt	a8, a11, 6f6c <two_mic_WB_NR_NSN_proc+0x42c>
    6f58:	c088b0        	sub	a8, a8, a11
    6f5b:	01c882        	addi	a8, a8, 1
    6f5e:	5388f0        	max	a8, a8, a15
    6f61:	078876        	loop	a8, 6f6c <two_mic_WB_NR_NSN_proc+0x42c>
    6f64:	468414        	ae_sp16x2f.iu	aep0, a4, 4
    6f67:	626514        	ae_sq32f.iu	aeq2, a5, 4
    6f6a:	bb1b           	addi.n	a11, a11, 1

00006f6c <two_mic_WB_NR_NSN_proc+0x42c>:
    6f6c:	fd0473941f 	{ ae_sp16x2f.iu	aep1, a4, 4; ae_movq56	aeq1, aeq0 }
    6f71:	627514        	ae_sq32f.iu	aeq3, a5, 4
    6f74:	29a677        	bge	a6, a7, 6fa1 <two_mic_WB_NR_NSN_proc+0x461>
    6f77:	13a8           	l32i.n	a10, a3, 4
    6f79:	3398           	l32i.n	a9, a3, 12
    6f7b:	ffe606        	j	6f17 <two_mic_WB_NR_NSN_proc+0x3d7>

00006f7e <two_mic_WB_NR_NSN_proc+0x43e>:
    6f7e:	06df22        	addmi	a2, a15, 0x600
    6f81:	1238           	l32i.n	a3, a2, 4
    6f83:	3248           	l32i.n	a4, a2, 12
    6f85:	eea0e2        	movi	a14, 238
    6f88:	fcc322        	addi	a2, a3, -4
    6f8b:	360534        	ae_cvtq48a32s	aeq0, a5
    6f8e:	fcc432        	addi	a3, a4, -4
    6f91:	058e76        	loop	a14, 6f9a <two_mic_WB_NR_NSN_proc+0x45a>
    6f94:	46e214        	ae_sp16x2f.iu	aep6, a2, 4
    6f97:	624314        	ae_sq32f.iu	aeq0, a3, 4

00006f9a <two_mic_WB_NR_NSN_proc+0x45a>:
    6f9a:	1e0c           	movi.n	a14, 1
    6f9c:	000886        	j	6fc2 <two_mic_WB_NR_NSN_proc+0x482>

00006f9f <two_mic_WB_NR_NSN_proc+0x45f>:
	...

00006fa1 <two_mic_WB_NR_NSN_proc+0x461>:
    6fa1:	1321e2        	l32i	a14, a1, 76
    6fa4:	b1f8           	l32i.n	a15, a1, 44
    6fa6:	f168           	l32i.n	a6, a1, 60
    6fa8:	eda022        	movi	a2, 237
    6fab:	610114        	ae_lq56.i	aeq0, a1, 8
    6fae:	1022b7        	blt	a2, a11, 6fc2 <two_mic_WB_NR_NSN_proc+0x482>
    6fb1:	12af22        	movi	a2, -238
    6fb4:	2b2a           	add.n	a2, a11, a2
    6fb6:	602020        	neg	a2, a2
    6fb9:	058276        	loop	a2, 6fc2 <two_mic_WB_NR_NSN_proc+0x482>
    6fbc:	46e414        	ae_sp16x2f.iu	aep6, a4, 4
    6fbf:	624514        	ae_sq32f.iu	aeq0, a5, 4

00006fc2 <two_mic_WB_NR_NSN_proc+0x482>:
    6fc2:	e43621        	l32r	a2, 9c (be40 <wb_sb_ptn>)
    6fc5:	3e0b           	addi.n	a3, a14, -1
    6fc7:	5688           	l32i.n	a8, a6, 20
    6fc9:	902320        	addx2	a2, a3, a2
    6fcc:	227d           	ae_l16si.n	a7, a2, 0
    6fce:	c139           	s32i.n	a3, a1, 48
    6fd0:	106122        	s32i	a2, a1, 64
    6fd3:	0817a6        	blti	a7, 1, 6fdf <two_mic_WB_NR_NSN_proc+0x49f>
    6fd6:	fec822        	addi	a2, a8, -2
    6fd9:	028776        	loop	a7, 6fdf <two_mic_WB_NR_NSN_proc+0x49f>
    6fdc:	42e214        	ae_sp16f.l.iu	aep6, a2, 2
    6fdf:	112142        	l32i	a4, a1, 68
    6fe2:	089f62        	l16si	a6, a15, 16
    6fe5:	130c           	movi.n	a3, 1
    6fe7:	3f2422        	l32i	a2, a4, 252
    6fea:	402452        	l32i	a5, a4, 0x100
    6fed:	113320        	slli	a3, a3, 14
    6ff0:	360334        	ae_cvtq48a32s	aeq0, a3
    6ff3:	60c060        	neg	a12, a6
    6ff6:	eda0d2        	movi	a13, 237
    6ff9:	d169           	s32i.n	a6, a1, 52
    6ffb:	fc24fe8c0f 	{ ae_slaasq56s	aeq0, aeq0, a12; nop }
    7000:	a02720        	addx4	a2, a7, a2
    7003:	a03750        	addx4	a3, a7, a5
    7006:	e179           	s32i.n	a7, a1, 56
    7008:	6d2d77        	blt	a13, a7, 7079 <two_mic_WB_NR_NSN_proc+0x539>
    700b:	e148           	l32i.n	a4, a1, 56
    700d:	12afa2        	movi	a10, -238
    7010:	ffa072        	movi	a7, 255
    7013:	a4aa           	add.n	a10, a4, a10
    7015:	909480        	addx2	a9, a4, a8
    7018:	fcc252        	addi	a5, a2, -4
    701b:	fcc362        	addi	a6, a3, -4
    701e:	7fd772        	addmi	a7, a7, 0x7f00
    7021:	60a0a0        	neg	a10, a10
    7024:	01a082        	movi	a8, 1
    7027:	609514        	ae_lq32f.iu	aeq2, a5, 4
    702a:	605614        	ae_lq32f.iu	aeq1, a6, 4
    702d:	d6540fe99e 	{ addi	a9, a9, -2; ae_ltq56s	b0, aeq1, aeq2 }
    7032:	300774        	ae_cvtp24a16x2.ll	aep0, a7, a7
    7035:	408a76        	loop	a10, 7079 <two_mic_WB_NR_NSN_proc+0x539>
    7038:	f862c000af 	{ movi	a10, 0; ae_movp48	aep1, aep0 }
    703d:	fa7216a80f 	{ movt	a10, a8, b0; ae_addq56	aeq2, aeq2, aeq0 }
    7042:	8aac           	beqz.n	a10, 706e <two_mic_WB_NR_NSN_proc+0x52e>
    7044:	365a04        	ae_nsaq56s	a10, aeq1
    7047:	366b04        	ae_nsaq56s	a11, aeq2
    704a:	07cd           	mov.n	a12, a7
    704c:	43aba0        	min	a10, a11, a10
    704f:	e9cab2        	addi	a11, a10, -23
    7052:	fc24feab8f 	{ ae_slaasq56s	aeq2, aeq2, a11; nop }
    7057:	36ab04        	ae_trunca32q48	a11, aeq2
    705a:	38caa2        	addi	a10, a10, 56
    705d:	345a94        	ae_sllaq56	aeq1, aeq1, a10
    7060:	4b8c           	beqz.n	a11, 7068 <two_mic_WB_NR_NSN_proc+0x528>
    7062:	369a04        	ae_trunca32q48	a10, aeq1
    7065:	d2cab0        	quos	a12, a10, a11

00007068 <two_mic_WB_NR_NSN_proc+0x528>:
    7068:	43ac70        	min	a10, a12, a7
    706b:	301aa4        	ae_cvtp24a16x2.ll	aep1, a10, a10
    706e:	609514        	ae_lq32f.iu	aeq2, a5, 4
    7071:	605614        	ae_lq32f.iu	aeq1, a6, 4
    7074:	d65432991f 	{ ae_sp16f.l.iu	aep1, a9, 2; ae_ltq56s	b0, aeq1, aeq2 }

00007079 <two_mic_WB_NR_NSN_proc+0x539>:
    7079:	1361e2        	s32i	a14, a1, 76
    707c:	182ea6        	blti	a14, 2, 7098 <two_mic_WB_NR_NSN_proc+0x558>
    707f:	06df52        	addmi	a5, a15, 0x600
    7082:	6e0b           	addi.n	a6, a14, -1
    7084:	45a8           	l32i.n	a10, a5, 16
    7086:	e41851        	l32r	a5, e8 (9a30 <memset>)
    7089:	11c6e0        	slli	a12, a6, 2
    708c:	0b0c           	movi.n	a11, 0
    708e:	0005e0        	callx8	a5
    7091:	b1f8           	l32i.n	a15, a1, 44
    7093:	ff20b131ee 	{ l32i	a14, a1, 76; ae_zerop48	aep6 }

00007098 <two_mic_WB_NR_NSN_proc+0x558>:
    7098:	d148           	l32i.n	a4, a1, 52
    709a:	1021c2        	l32i	a12, a1, 64
    709d:	06df82        	addmi	a8, a15, 0x600
    70a0:	945d           	ae_zext16	a5, a4
    70a2:	e3fed1        	l32r	a13, 9c (be40 <wb_sb_ptn>)
    70a5:	48a8           	l32i.n	a10, a8, 16
    70a7:	c148           	l32i.n	a4, a1, 48
    70a9:	4c6d           	ae_l16ui.n	a6, a12, 0
    70ab:	190c           	movi.n	a9, 1
    70ad:	2189           	s32i.n	a8, a1, 8
    70af:	fe24bd230f 	{ ae_lq32f.i	aeq1, a3, 0; ae_zeroq56	aeq2 }
    70b4:	ff147d020f 	{ ae_lq32f.i	aeq0, a2, 0; ae_movq56	aeq3, aeq2 }
    70b9:	907ed0        	addx2	a7, a14, a13
    70bc:	a80c           	movi.n	a8, 10
    70be:	119910        	slli	a9, a9, 15
    70c1:	a0a4a0        	addx4	a10, a4, a10
    70c4:	86bd           	ae_sext16	a11, a6
    70c6:	276d           	ae_l16si.n	a6, a7, 0
    70c8:	c0b6b0        	sub	a11, a6, a11
    70cb:	0f1ba6        	blti	a11, 1, 70de <two_mic_WB_NR_NSN_proc+0x59e>
    70ce:	0c8b76        	loop	a11, 70de <two_mic_WB_NR_NSN_proc+0x59e>
    70d1:	0145c4        	ae_minq56s	aeq1, aeq1, aeq0
    70d4:	fb7a3d121f 	{ ae_lq32f.iu	aeq0, a2, 4; ae_addq56	aeq3, aeq3, aeq0 }
    70d9:	fa763d331f 	{ ae_lq32f.iu	aeq1, a3, 4; ae_addq56	aeq2, aeq2, aeq1 }

000070de <two_mic_WB_NR_NSN_proc+0x59e>:
    70de:	366b04        	ae_nsaq56s	a11, aeq2
    70e1:	367c04        	ae_nsaq56s	a12, aeq3
    70e4:	09dd           	mov.n	a13, a9
    70e6:	43bcb0        	min	a11, a12, a11
    70e9:	e9cbc2        	addi	a12, a11, -23
    70ec:	fc24febccf 	{ ae_slaasq56s	aeq3, aeq3, a12; nop }
    70f1:	36bc04        	ae_trunca32q48	a12, aeq3
    70f4:	f8cbb2        	addi	a11, a11, -8
    70f7:	9c8c           	beqz.n	a12, 7104 <two_mic_WB_NR_NSN_proc+0x5c4>
    70f9:	fc24feab8f 	{ ae_slaasq56s	aeq2, aeq2, a11; nop }
    70fe:	36ab04        	ae_trunca32q48	a11, aeq2
    7101:	d2dbc0        	quos	a13, a11, a12

00007104 <two_mic_WB_NR_NSN_proc+0x5c4>:
    7104:	43bd90        	min	a11, a13, a9
    7107:	fe248ff88e 	{ addi	a8, a8, -1; ae_zeroq56	aeq2 }
    710c:	ff14540abf 	{ s32i.n	a11, a10, 0; ae_movq56	aeq3, aeq2 }
    7111:	772b           	addi.n	a7, a7, 2
    7113:	aa4b           	addi.n	a10, a10, 4
    7115:	ab9e87        	bne	a14, a8, 70c4 <two_mic_WB_NR_NSN_proc+0x584>
    7118:	059f22        	l16si	a2, a15, 10
    711b:	3f6d           	ae_l16si.n	a6, a15, 2
    711d:	530c           	movi.n	a3, 5
    711f:	7c12a6        	blti	a2, 1, 719f <two_mic_WB_NR_NSN_proc+0x65f>
    7122:	05df22        	addmi	a2, a15, 0x500
    7125:	3b2232        	l32i	a3, a2, 236
    7128:	1186f0        	slli	a8, a6, 1
    712b:	638d           	ae_s16i.n	a8, a3, 0
    712d:	3f5d           	ae_l16si.n	a5, a15, 2
    712f:	1175f0        	slli	a7, a5, 1
    7132:	737d           	ae_s16i.n	a7, a3, 2
    7134:	3fbd           	ae_l16si.n	a11, a15, 2
    7136:	115bf0        	slli	a5, a11, 1
    7139:	025352        	s16i	a5, a3, 4
    713c:	3f5d           	ae_l16si.n	a5, a15, 2
    713e:	029fc2        	l16si	a12, a15, 4
    7141:	5c5a           	add.n	a5, a12, a5
    7143:	035352        	s16i	a5, a3, 6
    7146:	029f52        	l16si	a5, a15, 4
    7149:	1155f0        	slli	a5, a5, 1
    714c:	045352        	s16i	a5, a3, 8
    714f:	029f52        	l16si	a5, a15, 4
    7152:	039fd2        	l16si	a13, a15, 6
    7155:	5d5a           	add.n	a5, a13, a5
    7157:	055352        	s16i	a5, a3, 10
    715a:	039f52        	l16si	a5, a15, 6
    715d:	1155f0        	slli	a5, a5, 1
    7160:	065352        	s16i	a5, a3, 12
    7163:	049f52        	l16si	a5, a15, 8
    7166:	2198           	l32i.n	a9, a1, 8
    7168:	9a2c           	movi.n	a10, 41
    716a:	1155f0        	slli	a5, a5, 1
    716d:	075352        	s16i	a5, a3, 14
    7170:	049f52        	l16si	a5, a15, 8
    7173:	e3d061        	l32r	a6, b4 (be20 <wb_score_bands>)
    7176:	99a0b2        	movi	a11, 153
    7179:	1155f0        	slli	a5, a5, 1
    717c:	085352        	s16i	a5, a3, 16
    717f:	021e26        	beqi	a14, 1, 7185 <two_mic_WB_NR_NSN_proc+0x645>
    7182:	006ac6        	j	7331 <two_mic_WB_NR_NSN_proc+0x7f1>
    7185:	4998           	l32i.n	a9, a9, 16
    7187:	7cdaa2        	addmi	a10, a10, 0x7c00
    718a:	79db52        	addmi	a5, a11, 0x7900
    718d:	0968           	l32i.n	a6, a9, 0
    718f:	02a6a7        	bge	a6, a10, 7195 <two_mic_WB_NR_NSN_proc+0x655>
    7192:	013d06        	j	768a <two_mic_WB_NR_NSN_proc+0xb4a>
    7195:	12c882        	addi	a8, a8, 18
    7198:	013cc6        	j	768f <two_mic_WB_NR_NSN_proc+0xb4f>

0000719b <two_mic_WB_NR_NSN_proc+0x65b>:
    719b:	00000000                                ....

0000719f <two_mic_WB_NR_NSN_proc+0x65f>:
    719f:	0133c0        	slli	a3, a3, 20
    71a2:	420c           	movi.n	a2, 4
    71a4:	5d16e6        	bgei	a6, 1, 7205 <two_mic_WB_NR_NSN_proc+0x6c5>
    71a7:	029f42        	l16si	a4, a15, 4
    71aa:	039f62        	l16si	a6, a15, 6
    71ad:	091f72        	l16ui	a7, a15, 18
    71b0:	5114e6        	bgei	a4, 1, 7205 <two_mic_WB_NR_NSN_proc+0x6c5>
    71b3:	4e16e6        	bgei	a6, 1, 7205 <two_mic_WB_NR_NSN_proc+0x6c5>
    71b6:	14cf42        	addi	a4, a15, 20
    71b9:	072d           	mov.n	a2, a7
    71bb:	1c1577        	beq	a5, a7, 71db <two_mic_WB_NR_NSN_proc+0x69b>
    71be:	112132        	l32i	a3, a1, 68
    71c1:	82dd           	ae_sext16	a13, a2
    71c3:	e46a21        	l32r	a2, 36c (78d8 <equal_power>)
    71c6:	4023a2        	l32i	a10, a3, 0x100
    71c9:	d1c8           	l32i.n	a12, a1, 52
    71cb:	eea0e2        	movi	a14, 238
    71ce:	04bd           	mov.n	a11, a4
    71d0:	0002e0        	callx8	a2
    71d3:	b1f8           	l32i.n	a15, a1, 44
    71d5:	095fa2        	s16i	a10, a15, 18
    71d8:	085fa2        	s16i	a10, a15, 16
    71db:	112122        	l32i	a2, a1, 68
    71de:	e47831        	l32r	a3, 3c0 (bb20 <NR_immediate_num>)
    71e1:	eea052        	movi	a5, 238
    71e4:	402222        	l32i	a2, a2, 0x100
    71e7:	9e0c           	movi.n	a14, 9
    71e9:	440344        	ae_lp16x2f.i	aep0, a3, 16
    71ec:	600f54        	ae_lq32f.i	aeq0, a15, 20
    71ef:	013ed0        	slli	a3, a14, 19
    71f2:	604204        	ae_lq32f.i	aeq1, a2, 0
    71f5:	0a8576        	loop	a5, 7203 <two_mic_WB_NR_NSN_proc+0x6c3>
    71f8:	0d013d141f 	{ ae_lq32f.iu	aeq0, a4, 4; ae_mulzaafq32sp16s.lh	aeq2, aeq1, aep0, aeq0, aep0 }
    71fd:	605214        	ae_lq32f.iu	aeq1, a2, 4
    7200:	6224f4        	ae_sq32f.i	aeq2, a4, -4

00007203 <two_mic_WB_NR_NSN_proc+0x6c3>:
    7203:	520c           	movi.n	a2, 5

00007205 <two_mic_WB_NR_NSN_proc+0x6c5>:
    7205:	06df42        	addmi	a4, a15, 0x600
    7208:	3448           	l32i.n	a4, a4, 12
    720a:	fe2480ee5f 	{ movi	a5, 238; ae_zeroq56	aeq2 }
    720f:	398334        	ae_movpa24x2	aep0, a3, a3
    7212:	600404        	ae_lq32f.i	aeq0, a4, 0
    7215:	078576        	loop	a5, 7220 <two_mic_WB_NR_NSN_proc+0x6e0>
    7218:	f8807d141f 	{ ae_lq32f.iu	aeq0, a4, 4; ae_mulfq32sp24s.l	aeq1, aeq0, aep0 }
    721d:	6214f4        	ae_sq32f.i	aeq1, a4, -4

00007220 <two_mic_WB_NR_NSN_proc+0x6e0>:
    7220:	14cf32        	addi	a3, a15, 20
    7223:	034d           	mov.n	a4, a3
    7225:	eea052        	movi	a5, 238
    7228:	601404        	ae_lq32f.iu	aeq0, a4, 0
    722b:	f03d           	nop.n
    722d:	048576        	loop	a5, 7235 <two_mic_WB_NR_NSN_proc+0x6f5>
    7230:	fae33d141f 	{ ae_lq32f.iu	aeq0, a4, 4; ae_maxq56s	aeq2, aeq2, aeq0 }

00007235 <two_mic_WB_NR_NSN_proc+0x6f5>:
    7235:	366504        	ae_nsaq56s	a5, aeq2
    7238:	091f42        	l16ui	a4, a15, 18
    723b:	960c           	movi.n	a6, 9
    723d:	1d2567        	blt	a5, a6, 725e <two_mic_WB_NR_NSN_proc+0x71e>
    7240:	f8c552        	addi	a5, a5, -8
    7243:	c04450        	sub	a4, a4, a5
    7246:	eea062        	movi	a6, 238
    7249:	401500        	ssl	a5
    724c:	14cf52        	addi	a5, a15, 20
    724f:	095f42        	s16i	a4, a15, 18
    7252:	088676        	loop	a6, 725e <two_mic_WB_NR_NSN_proc+0x71e>
    7255:	0568           	l32i.n	a6, a5, 0
    7257:	a16600        	sll	a6, a6
    725a:	0569           	s32i.n	a6, a5, 0
    725c:	554b           	addi.n	a5, a5, 4

0000725e <two_mic_WB_NR_NSN_proc+0x71e>:
    725e:	06df52        	addmi	a5, a15, 0x600
    7261:	d5a8           	l32i.n	a10, a5, 52
    7263:	360a34        	ae_cvtq48a32s	aeq0, a10
    7266:	364b04        	ae_nsaq56s	a11, aeq0
    7269:	224a           	add.n	a2, a2, a4
    726b:	3548           	l32i.n	a4, a5, 12
    726d:	25d8           	l32i.n	a13, a5, 8
    726f:	06df72        	addmi	a7, a15, 0x600
    7272:	c022b0        	sub	a2, a2, a11
    7275:	f8cb52        	addi	a5, a11, -8
    7278:	22cb           	addi.n	a2, a2, 12
    727a:	eea0e2        	movi	a14, 238
    727d:	fc24fe850f 	{ ae_slaasq56s	aeq0, aeq0, a5; nop }
    7282:	0c5722        	s16i	a2, a7, 24
    7285:	604f54        	ae_lq32f.i	aeq1, a15, 20
    7288:	fccd52        	addi	a5, a13, -4
    728b:	500404        	ae_lp24f.i	aep0, a4, 0
    728e:	0f8e76        	loop	a14, 72a1 <two_mic_WB_NR_NSN_proc+0x761>
    7291:	f9802e841f 	{ ae_lp24f.iu	aep0, a4, 4; ae_mulfq32sp24s.l	aeq2, aeq0, aep0 }
    7296:	1bac14        	ae_roundsp24q48sym	aep1, aeq2
    7299:	f9853d331f 	{ ae_lq32f.iu	aeq1, a3, 4; ae_mulfq32sp24s.l	aeq2, aeq1, aep1 }
    729e:	626514        	ae_sq32f.iu	aeq2, a5, 4

000072a1 <two_mic_WB_NR_NSN_proc+0x761>:
    72a1:	06df32        	addmi	a3, a15, 0x600
    72a4:	1c9332        	l16si	a3, a3, 56
    72a7:	172122        	l32i	a2, a1, 92
    72aa:	11a310        	slli	a10, a3, 15
    72ad:	02b8           	l32i.n	a11, a2, 0
    72af:	e3c331        	l32r	a3, 1bc (88fc <airoha_divide_limit_1>)
    72b2:	0003e0        	callx8	a3
    72b5:	e44331        	l32r	a3, 3c4 (10000001 <_end+0xfff3c21>)
    72b8:	132122        	l32i	a2, a1, 76
    72bb:	122142        	l32i	a4, a1, 72
    72be:	6d2a37        	blt	a10, a3, 732f <two_mic_WB_NR_NSN_proc+0x7ef>
    72c1:	e376d1        	l32r	a13, 9c (be40 <wb_sb_ptn>)
    72c4:	2778           	l32i.n	a7, a7, 8
    72c6:	15d462        	addmi	a6, a4, 0x1500
    72c9:	0596e2        	l16si	a14, a6, 10
    72cc:	089d42        	l16si	a4, a13, 16
    72cf:	40ea30        	nsa	a3, a10
    72d2:	401300        	ssl	a3
    72d5:	03a052        	movi	a5, 3
    72d8:	c03530        	sub	a3, a5, a3
    72db:	a1fa00        	sll	a15, a10
    72de:	a07e70        	addx4	a7, a14, a7
    72e1:	c054e0        	sub	a5, a4, a14
    72e4:	378ff4        	ae_truncp24a32x2	aep0, a15, a15
    72e7:	600704        	ae_lq32f.i	aeq0, a7, 0
    72ea:	1015a6        	blti	a5, 1, 72fe <two_mic_WB_NR_NSN_proc+0x7be>
    72ed:	0d8576        	loop	a5, 72fe <two_mic_WB_NR_NSN_proc+0x7be>
    72f0:	340334        	ae_sllasq56s	aeq0, aeq0, a3
    72f3:	060834        	ae_roundsq32sym	aeq0, aeq0
    72f6:	f8e07d171f 	{ ae_lq32f.iu	aeq0, a7, 4; ae_mulrfq32sp24s.l	aeq1, aeq0, aep0 }
    72fb:	6217f4        	ae_sq32f.i	aeq1, a7, -4

000072fe <two_mic_WB_NR_NSN_proc+0x7be>:
    72fe:	ea01c0ed5f 	{ movi	a5, 237; ae_mulfp24s.ll	aeq1, aep0, aep0 }
    7303:	282547        	blt	a5, a4, 732f <two_mic_WB_NR_NSN_proc+0x7ef>
    7306:	eea062        	movi	a6, 238
    7309:	365504        	ae_nsaq56s	a5, aeq1
    730c:	f8c552        	addi	a5, a5, -8
    730f:	fc24fe954f 	{ ae_slaasq56s	aeq1, aeq1, a5; nop }
    7314:	f8ef95464f 	{ sub	a4, a6, a4; ae_roundsp24q48sym	aep0, aeq1 }
    7319:	d03350        	subx2	a3, a3, a5
    731c:	f03d           	nop.n
    731e:	0d8476        	loop	a4, 732f <two_mic_WB_NR_NSN_proc+0x7ef>
    7321:	340334        	ae_sllasq56s	aeq0, aeq0, a3
    7324:	060834        	ae_roundsq32sym	aeq0, aeq0
    7327:	f8e07d171f 	{ ae_lq32f.iu	aeq0, a7, 4; ae_mulrfq32sp24s.l	aeq1, aeq0, aep0 }
    732c:	6217f4        	ae_sq32f.i	aeq1, a7, -4
    732f:	f01d           	retw.n

00007331 <two_mic_WB_NR_NSN_proc+0x7f1>:
    7331:	050c           	movi.n	a5, 0
    7333:	132ea6        	blti	a14, 2, 734a <two_mic_WB_NR_NSN_proc+0x80a>
    7336:	050c           	movi.n	a5, 0
    7338:	073c           	movi.n	a7, 48
    733a:	0c8476        	loop	a4, 734a <two_mic_WB_NR_NSN_proc+0x80a>
    733d:	637d           	ae_s16i.n	a7, a3, 0
    733f:	268d           	ae_l16si.n	a8, a6, 0
    7341:	332b           	addi.n	a3, a3, 2
    7343:	662b           	addi.n	a6, a6, 2
    7345:	118800        	slli	a8, a8, 16
    7348:	585a           	add.n	a5, a8, a5

0000734a <two_mic_WB_NR_NSN_proc+0x80a>:
    734a:	081f32        	l16ui	a3, a15, 16
    734d:	091f62        	l16ui	a6, a15, 18
    7350:	1121e2        	l32i	a14, a1, 68
    7353:	83cd           	ae_sext16	a12, a3
    7355:	1b1367        	beq	a3, a6, 7374 <two_mic_WB_NR_NSN_proc+0x834>
    7358:	e40531        	l32r	a3, 36c (78d8 <equal_power>)
    735b:	402ea2        	l32i	a10, a14, 0x100
    735e:	86dd           	ae_sext16	a13, a6
    7360:	14cfb2        	addi	a11, a15, 20
    7363:	eea0e2        	movi	a14, 238
    7366:	0003e0        	callx8	a3
    7369:	ff20b0b1fe 	{ l32i	a15, a1, 44; ae_zerop48	aep6 }
    736e:	095fa2        	s16i	a10, a15, 18
    7371:	085fa2        	s16i	a10, a15, 16

00007374 <two_mic_WB_NR_NSN_proc+0x834>:
    7374:	06df32        	addmi	a3, a15, 0x600
    7377:	f148           	l32i.n	a4, a1, 60
    7379:	e3fec1        	l32r	a12, 374 (2666599a <_end+0x266595ba>)
    737c:	1388           	l32i.n	a8, a3, 4
    737e:	308cc4        	ae_cvtp24a16x2.lh	aep0, a12, a12
    7381:	e1c8           	l32i.n	a12, a1, 56
    7383:	3338           	l32i.n	a3, a3, 12
    7385:	5468           	l32i.n	a6, a4, 20
    7387:	06dfb2        	addmi	a11, a15, 0x600
    738a:	c148           	l32i.n	a4, a1, 48
    738c:	e34a91        	l32r	a9, b4 (be20 <wb_score_bands>)
    738f:	3b2222        	l32i	a2, a2, 236
    7392:	a0ec80        	addx4	a14, a12, a8
    7395:	1461b2        	s32i	a11, a1, 80
    7398:	e3f6b1        	l32r	a11, 370 (46666666 <_end+0x4665a286>)
    739b:	e3f771        	l32r	a7, 378 (1b333333 <_end+0x1b326f53>)
    739e:	a0dc30        	addx4	a13, a12, a3
    73a1:	fcce32        	addi	a3, a14, -4
    73a4:	1021e2        	l32i	a14, a1, 64
    73a7:	364b34        	ae_cvtq48a32s	aeq1, a11
    73aa:	360734        	ae_cvtq48a32s	aeq0, a7
    73ad:	907c60        	addx2	a7, a12, a6
    73b0:	90f490        	addx2	a15, a4, a9
    73b3:	11a4e0        	slli	a10, a4, 2
    73b6:	909420        	addx2	a9, a4, a2
    73b9:	401704        	ae_lp16f.i	aep1, a7, 0
    73bc:	fccdb2        	addi	a11, a13, -4
    73bf:	166182        	s32i	a8, a1, 88
    73c2:	631124        	ae_sq56s.i	aeq1, a1, 16
    73c5:	003506        	j	749d <two_mic_WB_NR_NSN_proc+0x95d>

000073c8 <two_mic_WB_NR_NSN_proc+0x888>:
    73c8:	e3ed61        	l32r	a6, 37c (1e666666 <_end+0x1e65a286>)
    73cb:	340c           	movi.n	a4, 3
    73cd:	d169           	s32i.n	a6, a1, 52
    73cf:	e3ec61        	l32r	a6, 380 (7ccd0333 <_end+0x7ccc3f53>)
    73d2:	e3e8c1        	l32r	a12, 374 (2666599a <_end+0x266595ba>)
    73d5:	3e0c           	movi.n	a14, 3
    73d7:	014440        	slli	a4, a4, 28
    73da:	0a5d           	mov.n	a5, a10
    73dc:	d7afa2        	movi	a10, -41
    73df:	01eeb0        	slli	a14, a14, 21
    73e2:	e149           	s32i.n	a4, a1, 56
    73e4:	5c2da7        	blt	a13, a10, 7444 <two_mic_WB_NR_NSN_proc+0x904>
    73e7:	e3e861        	l32r	a6, 388 (1ccccccd <_end+0x1ccc08ed>)
    73ea:	d169           	s32i.n	a6, a1, 52
    73ec:	e3e8e1        	l32r	a14, 38c (333333 <_end+0x326f53>)
    73ef:	e3e861        	l32r	a6, 390 (7eb80148 <_end+0x7eb73d68>)
    73f2:	e3e8c1        	l32r	a12, 394 (40004000 <_end+0x3fff7c20>)
    73f5:	e3e341        	l32r	a4, 384 (23333333 <_end+0x23326f53>)
    73f8:	6a6c           	movi.n	a10, -26
    73fa:	e149           	s32i.n	a4, a1, 56
    73fc:	442da7        	blt	a13, a10, 7444 <two_mic_WB_NR_NSN_proc+0x904>
    73ff:	e3e261        	l32r	a6, 388 (1ccccccd <_end+0x1ccc08ed>)
    7402:	140c           	movi.n	a4, 1
    7404:	d169           	s32i.n	a6, a1, 52
    7406:	e33fe1        	l32r	a14, 104 (2ccccd <_end+0x2c08ed>)
    7409:	e3e161        	l32r	a6, 390 (7eb80148 <_end+0x7eb73d68>)
    740c:	e3e2c1        	l32r	a12, 394 (40004000 <_end+0x3fff7c20>)
    740f:	014430        	slli	a4, a4, 29
    7412:	5a7c           	movi.n	a10, -11
    7414:	e149           	s32i.n	a4, a1, 56
    7416:	2a2da7        	blt	a13, a10, 7444 <two_mic_WB_NR_NSN_proc+0x904>
    7419:	d40c           	movi.n	a4, 13
    741b:	726d40        	salt	a6, a13, a4
    741e:	e3dfd1        	l32r	a13, 39c (266666 <_end+0x25a286>)
    7421:	1e0c           	movi.n	a14, 1
    7423:	01eeb0        	slli	a14, a14, 21
    7426:	93ed60        	movnez	a14, a13, a6
    7429:	e3dbc1        	l32r	a12, 398 (6666199a <_end+0x666555ba>)
    742c:	e3ddd1        	l32r	a13, 3a0 (599a2666 <_end+0x59996286>)
    742f:	1a0c           	movi.n	a10, 1
    7431:	014a30        	slli	a4, a10, 29
    7434:	93cd60        	movnez	a12, a13, a6
    7437:	e3d6d1        	l32r	a13, 390 (7eb80148 <_end+0x7eb73d68>)
    743a:	e3d3a1        	l32r	a10, 388 (1ccccccd <_end+0x1ccc08ed>)
    743d:	e149           	s32i.n	a4, a1, 56
    743f:	936d60        	movnez	a6, a13, a6
    7442:	d1a9           	s32i.n	a10, a1, 52
    7444:	c148           	l32i.n	a4, a1, 48
    7446:	f1a8           	l32i.n	a10, a1, 60
    7448:	3c12a6        	blti	a2, 1, 7488 <two_mic_WB_NR_NSN_proc+0x948>
    744b:	39aee4        	ae_movpa24x2	aep2, a14, a14
    744e:	e1d8           	l32i.n	a13, a1, 56
    7450:	d1e8           	l32i.n	a14, a1, 52
    7452:	d32818366f 	{ ae_cvtp24a16x2.lh	aep3, a6, a6; ae_lep24s	b0:b1, aep2, aep1 }
    7457:	fa6ed84ccf 	{ ae_cvtp24a16x2.lh	aep4, a12, a12; ae_movp48	aep5, aep3 }
    745c:	364d34        	ae_cvtq48a32s	aeq1, a13
    745f:	fe0c7eceff 	{ ae_cvtq48a32s	aeq3, a14; ae_movq56	aeq2, aeq1 }
    7464:	160c           	movi.n	a6, 1
    7466:	1b8276        	loop	a2, 7485 <two_mic_WB_NR_NSN_proc+0x945>
    7469:	020c           	movi.n	a2, 0
    746b:	409714        	ae_lp16f.iu	aep1, a7, 2
    746e:	d32600        	movt	a2, a6, b0
    7471:	32cc           	bnez.n	a2, 7478 <two_mic_WB_NR_NSN_proc+0x938>
    7473:	fe1c7f487f 	{ ae_movp48	aep5, aep4; ae_movq56	aeq2, aeq3 }
    7478:	d32833d31f 	{ ae_sp16x2f.iu	aep5, a3, 4; ae_lep24s	b0:b1, aep2, aep1 }
    747d:	fa6ef9eb1f 	{ ae_sq32f.iu	aeq2, a11, 4; ae_movp48	aep5, aep3 }
    7482:	069b34        	ae_movq56	aeq2, aeq1

00007485 <two_mic_WB_NR_NSN_proc+0x945>:
    7485:	614124        	ae_lq56.i	aeq1, a1, 16

00007488 <two_mic_WB_NR_NSN_proc+0x948>:
    7488:	1021e2        	l32i	a14, a1, 64
    748b:	920c           	movi.n	a2, 9
    748d:	585a           	add.n	a5, a8, a5
    748f:	aa4b           	addi.n	a10, a10, 4
    7491:	ee2b           	addi.n	a14, a14, 2
    7493:	ff2b           	addi.n	a15, a15, 2
    7495:	992b           	addi.n	a9, a9, 2
    7497:	029427        	bne	a4, a2, 749d <two_mic_WB_NR_NSN_proc+0x95d>
    749a:	003946        	j	7583 <two_mic_WB_NR_NSN_proc+0xa43>
    749d:	292d           	ae_l16si.n	a2, a9, 0
    749f:	4d2c           	movi.n	a13, 36
    74a1:	046d           	mov.n	a6, a4
    74a3:	0c3c           	movi.n	a12, 48
    74a5:	462d27        	blt	a13, a2, 74ef <two_mic_WB_NR_NSN_proc+0x9af>
    74a8:	d1af42        	movi	a4, -47
    74ab:	02cd           	mov.n	a12, a2
    74ad:	3e2247        	blt	a2, a4, 74ef <two_mic_WB_NR_NSN_proc+0x9af>
    74b0:	2148           	l32i.n	a4, a1, 8
    74b2:	180c           	movi.n	a8, 1
    74b4:	44c8           	l32i.n	a12, a4, 16
    74b6:	ccaa           	add.n	a12, a12, a10
    74b8:	0cd8           	l32i.n	a13, a12, 0
    74ba:	1c0c           	movi.n	a12, 1
    74bc:	70dc42        	addmi	a4, a12, 0x7000
    74bf:	042d47        	blt	a13, a4, 74c7 <two_mic_WB_NR_NSN_proc+0x987>
    74c2:	c2fb           	addi.n	a12, a2, 15
    74c4:	0009c6        	j	74ef <two_mic_WB_NR_NSN_proc+0x9af>

000074c7 <two_mic_WB_NR_NSN_proc+0x987>:
    74c7:	50d842        	addmi	a4, a8, 0x5000
    74ca:	042d47        	blt	a13, a4, 74d2 <two_mic_WB_NR_NSN_proc+0x992>
    74cd:	c26b           	addi.n	a12, a2, 6
    74cf:	000706        	j	74ef <two_mic_WB_NR_NSN_proc+0x9af>

000074d2 <two_mic_WB_NR_NSN_proc+0x992>:
    74d2:	99a042        	movi	a4, 153
    74d5:	19d442        	addmi	a4, a4, 0x1900
    74d8:	0524d7        	blt	a4, a13, 74e1 <two_mic_WB_NR_NSN_proc+0x9a1>
    74db:	eec2c2        	addi	a12, a2, -18
    74de:	000346        	j	74ef <two_mic_WB_NR_NSN_proc+0x9af>

000074e1 <two_mic_WB_NR_NSN_proc+0x9a1>:
    74e1:	443c           	movi.n	a4, 52
    74e3:	33d442        	addmi	a4, a4, 0x3300
    74e6:	fac2c2        	addi	a12, a2, -6
    74e9:	72dd40        	salt	a13, a13, a4
    74ec:	83c2d0        	moveqz	a12, a2, a13
    74ef:	d0af22        	movi	a2, -48
    74f2:	2f4d           	ae_l16si.n	a4, a15, 0
    74f4:	532c20        	max	a2, a12, a2
    74f7:	d61b           	addi.n	a13, a6, 1
    74f9:	083c           	movi.n	a8, 48
    74fb:	c1d9           	s32i.n	a13, a1, 48
    74fd:	43d280        	min	a13, a2, a8
    7500:	2ecd           	ae_l16si.n	a12, a14, 0
    7502:	1061e2        	s32i	a14, a1, 64
    7505:	3eed           	ae_l16si.n	a14, a14, 2
    7507:	8244d0        	mull	a4, a4, a13
    750a:	f1a9           	s32i.n	a10, a1, 60
    750c:	05ad           	mov.n	a10, a5
    750e:	55a552        	movi	a5, 0x555
    7511:	824450        	mull	a4, a4, a5
    7514:	c02ec0        	sub	a2, a14, a12
    7517:	229d87        	bne	a13, a8, 753d <two_mic_WB_NR_NSN_proc+0x9fd>
    751a:	048d           	mov.n	a8, a4
    751c:	0a5d           	mov.n	a5, a10
    751e:	c148           	l32i.n	a4, a1, 48
    7520:	f1a8           	l32i.n	a10, a1, 60
    7522:	907270        	addx2	a7, a2, a7
    7525:	401704        	ae_lp16f.i	aep1, a7, 0
    7528:	0212e6        	bgei	a2, 1, 752e <two_mic_WB_NR_NSN_proc+0x9ee>
    752b:	ffd646        	j	7488 <two_mic_WB_NR_NSN_proc+0x948>
    752e:	c02ec0        	sub	a2, a14, a12
    7531:	058276        	loop	a2, 753a <two_mic_WB_NR_NSN_proc+0x9fa>
    7534:	46e314        	ae_sp16x2f.iu	aep6, a3, 4
    7537:	624b14        	ae_sq32f.iu	aeq0, a11, 4

0000753a <two_mic_WB_NR_NSN_proc+0x9fa>:
    753a:	ffd286        	j	7488 <two_mic_WB_NR_NSN_proc+0x948>

0000753d <two_mic_WB_NR_NSN_proc+0x9fd>:
    753d:	142152        	l32i	a5, a1, 80
    7540:	048d           	mov.n	a8, a4
    7542:	129542        	l16si	a4, a5, 36
    7545:	0214e6        	bgei	a4, 1, 754b <two_mic_WB_NR_NSN_proc+0xa0b>
    7548:	ff9f06        	j	73c8 <two_mic_WB_NR_NSN_proc+0x888>
    754b:	0476a6        	blti	a6, 7, 7553 <two_mic_WB_NR_NSN_proc+0xa13>
    754e:	847c           	movi.n	a4, -8
    7550:	0d2d47        	blt	a13, a4, 7561 <two_mic_WB_NR_NSN_proc+0xa21>
    7553:	026626        	beqi	a6, 6, 7559 <two_mic_WB_NR_NSN_proc+0xa19>
    7556:	ff9b86        	j	73c8 <two_mic_WB_NR_NSN_proc+0x888>
    7559:	e46c           	movi.n	a4, -18
    755b:	02a4d7        	bge	a4, a13, 7561 <two_mic_WB_NR_NSN_proc+0xa21>
    755e:	ff9986        	j	73c8 <two_mic_WB_NR_NSN_proc+0x888>
    7561:	0a5d           	mov.n	a5, a10
    7563:	c148           	l32i.n	a4, a1, 48
    7565:	f1a8           	l32i.n	a10, a1, 60
    7567:	907270        	addx2	a7, a2, a7
    756a:	401704        	ae_lp16f.i	aep1, a7, 0
    756d:	0212e6        	bgei	a2, 1, 7573 <two_mic_WB_NR_NSN_proc+0xa33>
    7570:	ffc506        	j	7488 <two_mic_WB_NR_NSN_proc+0x948>
    7573:	c02ec0        	sub	a2, a14, a12
    7576:	058276        	loop	a2, 757f <two_mic_WB_NR_NSN_proc+0xa3f>
    7579:	468314        	ae_sp16x2f.iu	aep0, a3, 4
    757c:	625b14        	ae_sq32f.iu	aeq1, a11, 4

0000757f <two_mic_WB_NR_NSN_proc+0xa3f>:
    757f:	ffc146        	j	7488 <two_mic_WB_NR_NSN_proc+0x948>

00007582 <two_mic_WB_NR_NSN_proc+0xa42>:
	...

00007583 <two_mic_WB_NR_NSN_proc+0xa43>:
    7583:	112122        	l32i	a2, a1, 68
    7586:	b178           	l32i.n	a7, a1, 44
    7588:	04d542        	addmi	a4, a5, 0x400
    758b:	402222        	l32i	a2, a2, 0x100
    758e:	162182        	l32i	a8, a1, 88
    7591:	414b40        	srli	a4, a4, 11
    7594:	065742        	s16i	a4, a7, 12
    7597:	e383f1        	l32r	a15, 3a4 (7ccccd <_end+0x7c08ed>)
    759a:	eea062        	movi	a6, 238
    759d:	10c732        	addi	a3, a7, 16
    75a0:	398ff4        	ae_movpa24x2	aep0, a15, a15
    75a3:	140c           	movi.n	a4, 1
    75a5:	441804        	ae_lp16x2f.i	aep1, a8, 0
    75a8:	d2c43d020f 	{ ae_lq32f.i	aeq0, a2, 0; ae_eqp24	b0:b1, aep1, aep6 }
    75ad:	1d8676        	loop	a6, 75ce <two_mic_WB_NR_NSN_proc+0xa8e>
    75b0:	050c           	movi.n	a5, 0
    75b2:	605314        	ae_lq32f.iu	aeq1, a3, 4
    75b5:	d35410        	movt	a5, a4, b1
    75b8:	458c           	beqz.n	a5, 75c0 <two_mic_WB_NR_NSN_proc+0xa80>
    75ba:	080d64        	ae_mulfq32sp24s.l	aeq1, aeq1, aep0
    75bd:	000086        	j	75c3 <two_mic_WB_NR_NSN_proc+0xa83>

000075c0 <two_mic_WB_NR_NSN_proc+0xa80>:
    75c0:	c11944        	ae_mulzaafq32sp16s.lh	aeq1, aeq1, aep1, aeq0, aep1
    75c3:	601214        	ae_lq32f.iu	aeq0, a2, 4
    75c6:	449814        	ae_lp16x2f.iu	aep1, a8, 4
    75c9:	d2c439930f 	{ ae_sq32f.i	aeq1, a3, 0; ae_eqp24	b0:b1, aep1, aep6 }

000075ce <two_mic_WB_NR_NSN_proc+0xa8e>:
    75ce:	e37621        	l32r	a2, 3a8 (7fbe0042 <_end+0x7fbd3c62>)
    75d1:	8129           	s32i.n	a2, a1, 32
    75d3:	0997b2        	l16si	a11, a7, 18
    75d6:	e37621        	l32r	a2, 3b0 (6940 <est_pow_aver>)
    75d9:	14c7a2        	addi	a10, a7, 20
    75dc:	e37431        	l32r	a3, 3ac (7f1b00e5 <_end+0x7f1a3d05>)
    75df:	9139           	s32i.n	a3, a1, 36
    75e1:	0002e0        	callx8	a2
    75e4:	06d722        	addmi	a2, a7, 0x600
    75e7:	a248           	l32i.n	a4, a2, 40
    75e9:	e2be31        	l32r	a3, e4 (49cc <siir_safr>)
    75ec:	0abd           	mov.n	a11, a10
    75ee:	20c1c2        	addi	a12, a1, 32
    75f1:	04ad           	mov.n	a10, a4
    75f3:	0003e0        	callx8	a3
    75f6:	0abd           	mov.n	a11, a10
    75f8:	c2a8           	l32i.n	a10, a2, 48
    75fa:	a2b9           	s32i.n	a11, a2, 40
    75fc:	cda022        	movi	a2, 205
    75ff:	1aaab7        	bge	a10, a11, 761d <two_mic_WB_NR_NSN_proc+0xadd>
    7602:	e2ef21        	l32r	a2, 1c0 (87f4 <airoha_divide>)
    7605:	0002e0        	callx8	a2
    7608:	120c           	movi.n	a2, 1
    760a:	fe249522af 	{ sub	a2, a2, a10; ae_zeroq56	aeq2 }
    760f:	400200        	ssr	a2
    7612:	e36851        	l32r	a5, 3b4 (6ccd1333 <_end+0x6ccc4f53>)
    7615:	b1f8           	l32i.n	a15, a1, 44
    7617:	b140b0        	sra	a4, a11
    761a:	001146        	j	7663 <two_mic_WB_NR_NSN_proc+0xb23>

0000761d <two_mic_WB_NR_NSN_proc+0xadd>:
    761d:	6cd222        	addmi	a2, a2, 0x6c00
    7620:	360a34        	ae_cvtq48a32s	aeq0, a10
    7623:	300224        	ae_cvtp24a16x2.ll	aep0, a2, a2
    7626:	f88030b1fe 	{ l32i	a15, a1, 44; ae_mulfq32sp24s.l	aeq0, aeq0, aep0 }
    762b:	bfa032        	movi	a3, 191
    762e:	620174        	ae_sq32f.i	aeq0, a1, 28
    7631:	7128           	l32i.n	a2, a1, 28
    7633:	152142        	l32i	a4, a1, 84
    7636:	e34e61        	l32r	a6, 370 (46666666 <_end+0x4665a286>)
    7639:	fe2491b2be 	{ blt	a2, a11, 7658 <two_mic_WB_NR_NSN_proc+0xb18>; ae_zeroq56	aeq2 }
    763e:	069f22        	l16si	a2, a15, 12
    7641:	e35d51        	l32r	a5, 3b8 (799a0666 <_end+0x79994286>)
    7644:	7fae72        	movi	a7, 0xfffffe7f
    7647:	0d2327        	blt	a3, a2, 7658 <two_mic_WB_NR_NSN_proc+0xb18>
    764a:	0d1432        	l16ui	a3, a4, 26
    764d:	064d           	mov.n	a4, a6
    764f:	142182        	l32i	a8, a1, 80
    7652:	0223f6        	bgeui	a3, 2, 7658 <two_mic_WB_NR_NSN_proc+0xb18>
    7655:	002606        	j	76f1 <two_mic_WB_NR_NSN_proc+0xbb1>
    7658:	fe2480014f 	{ movi	a4, 1; ae_zeroq56	aeq2 }
    765d:	e34e51        	l32r	a5, 398 (6666199a <_end+0x666555ba>)
    7660:	014420        	slli	a4, a4, 30
    7663:	7149           	s32i.n	a4, a1, 28
    7665:	4f2d           	ae_l16ui.n	a2, a15, 0
    7667:	360434        	ae_cvtq48a32s	aeq0, a4
    766a:	301224        	ae_cvtp24a16x2.ll	aep1, a2, a2
    766d:	f88418055f 	{ ae_cvtp24a16x2.lh	aep0, a5, a5; ae_mulfq32sp24s.l	aeq0, aeq0, aep1 }
    7672:	06dfe2        	addmi	a14, a15, 0x600
    7675:	de28           	l32i.n	a2, a14, 52
    7677:	364234        	ae_cvtq48a32s	aeq1, a2
    767a:	350074        	ae_sraiq56	aeq0, aeq0, 1
    767d:	0c0106343f 	{ movi	a3, 0x634; ae_mulzaafq32sp16s.lh	aeq0, aeq1, aep0, aeq0, aep0 }
    7682:	220c           	movi.n	a2, 2
    7684:	628f34        	ae_sq32f.x	aeq0, a15, a3
    7687:	fee546        	j	7220 <two_mic_WB_NR_NSN_proc+0x6e0>

0000768a <two_mic_WB_NR_NSN_proc+0xb4a>:
    768a:	032657        	blt	a6, a5, 7691 <two_mic_WB_NR_NSN_proc+0xb51>
    768d:	88cb           	addi.n	a8, a8, 12
    768f:	638d           	ae_s16i.n	a8, a3, 0
    7691:	1998           	l32i.n	a9, a9, 4
    7693:	e334c1        	l32r	a12, 364 (e667 <_end+0x2287>)
    7696:	a96a           	add.n	a10, a9, a6
    7698:	53b690        	max	a11, a6, a9
    769b:	0b2ac7        	blt	a10, a12, 76aa <two_mic_WB_NR_NSN_proc+0xb6a>
    769e:	082b57        	blt	a11, a5, 76aa <two_mic_WB_NR_NSN_proc+0xb6a>
    76a1:	24c852        	addi	a5, a8, 36
    76a4:	18c762        	addi	a6, a7, 24
    76a7:	0004c6        	j	76be <two_mic_WB_NR_NSN_proc+0xb7e>

000076aa <two_mic_WB_NR_NSN_proc+0xb6a>:
    76aa:	e32f51        	l32r	a5, 368 (e001 <_end+0x1c21>)
    76ad:	67a042        	movi	a4, 103
    76b0:	76d4c2        	addmi	a12, a4, 0x7600
    76b3:	102a57        	blt	a10, a5, 76c7 <two_mic_WB_NR_NSN_proc+0xb87>
    76b6:	0d2bc7        	blt	a11, a12, 76c7 <two_mic_WB_NR_NSN_proc+0xb87>
    76b9:	12c852        	addi	a5, a8, 18
    76bc:	676b           	addi.n	a6, a7, 6
    76be:	635d           	ae_s16i.n	a5, a3, 0
    76c0:	050c           	movi.n	a5, 0
    76c2:	736d           	ae_s16i.n	a6, a3, 2
    76c4:	ff2086        	j	734a <two_mic_WB_NR_NSN_proc+0x80a>

000076c7 <two_mic_WB_NR_NSN_proc+0xb87>:
    76c7:	8ea0b2        	movi	a11, 142
    76ca:	22dbb2        	addmi	a11, a11, 0x2200
    76cd:	050c           	movi.n	a5, 0
    76cf:	02aba7        	bge	a11, a10, 76d5 <two_mic_WB_NR_NSN_proc+0xb95>
    76d2:	ff1d06        	j	734a <two_mic_WB_NR_NSN_proc+0x80a>
    76d5:	33a3a2        	movi	a10, 0x333
    76d8:	90aaa0        	addx2	a10, a10, a10
    76db:	436690        	min	a6, a6, a9
    76de:	02aa67        	bge	a10, a6, 76e4 <two_mic_WB_NR_NSN_proc+0xba4>
    76e1:	ff1946        	j	734a <two_mic_WB_NR_NSN_proc+0x80a>
    76e4:	e8c862        	addi	a6, a8, -24
    76e7:	f4c772        	addi	a7, a7, -12
    76ea:	636d           	ae_s16i.n	a6, a3, 0
    76ec:	737d           	ae_s16i.n	a7, a3, 2
    76ee:	ff1606        	j	734a <two_mic_WB_NR_NSN_proc+0x80a>

000076f1 <two_mic_WB_NR_NSN_proc+0xbb1>:
    76f1:	7169           	s32i.n	a6, a1, 28
    76f3:	02a727        	bge	a7, a2, 76f9 <two_mic_WB_NR_NSN_proc+0xbb9>
    76f6:	ffdac6        	j	7665 <two_mic_WB_NR_NSN_proc+0xb25>
    76f9:	033c           	movi.n	a3, 48
    76fb:	121822        	l16ui	a2, a8, 36
    76fe:	e32f61        	l32r	a6, 3bc (5999999a <_end+0x5998d5ba>)
    7701:	021237        	beq	a2, a3, 7707 <two_mic_WB_NR_NSN_proc+0xbc7>
    7704:	ffd746        	j	7665 <two_mic_WB_NR_NSN_proc+0xb25>
    7707:	064d           	mov.n	a4, a6
    7709:	ffd586        	j	7663 <two_mic_WB_NR_NSN_proc+0xb23>

0000770c <two_mic_WB_NR_proc>:
    770c:	006136        	entry	a1, 48
    770f:	e262b1        	l32r	a11, 98 (c3d4 <p_ecnr_mem>)
    7712:	03dd           	mov.n	a13, a3
    7714:	ffa0e2        	movi	a14, 255
    7717:	0b78           	l32i.n	a7, a11, 0
    7719:	02cd           	mov.n	a12, a2
    771b:	112ea0        	slli	a2, a14, 6
    771e:	1ad7f2        	addmi	a15, a7, 0x1a00
    7721:	1b2f32        	l32i	a3, a15, 108
    7724:	3159           	s32i.n	a5, a1, 12
    7726:	2149           	s32i.n	a4, a1, 8
    7728:	572a           	add.n	a5, a7, a2
    772a:	e32741        	l32r	a4, 3c8 (6b40 <two_mic_WB_NR_NSN_proc>)
    772d:	05ad           	mov.n	a10, a5
    772f:	03bd           	mov.n	a11, a3
    7731:	0004e0        	callx8	a4
    7734:	079342        	l16si	a4, a3, 14
    7737:	3fd782        	addmi	a8, a7, 0x3f00
    773a:	765842        	s16i	a4, a8, 236
    773d:	e2ef41        	l32r	a4, 2fc (7a98 <NR_vad1>)
    7740:	0a6d           	mov.n	a6, a10
    7742:	05ad           	mov.n	a10, a5
    7744:	0893f2        	l16si	a15, a3, 16
    7747:	4bd722        	addmi	a2, a7, 0x4b00
    774a:	5c52f2        	s16i	a15, a2, 184
    774d:	0004e0        	callx8	a4
    7750:	e2ec41        	l32r	a4, 300 (7bd0 <NR_vad2>)
    7753:	05ad           	mov.n	a10, a5
    7755:	0004e0        	callx8	a4
    7758:	e31d41        	l32r	a4, 3cc (7d20 <NR_vad2_low>)
    775b:	05ad           	mov.n	a10, a5
    775d:	03bd           	mov.n	a11, a3
    775f:	06cd           	mov.n	a12, a6
    7761:	0004e0        	callx8	a4
    7764:	e2e841        	l32r	a4, 304 (7f14 <NR_NoiseEstimate>)
    7767:	05ad           	mov.n	a10, a5
    7769:	0004e0        	callx8	a4
    776c:	43a442        	movi	a4, 0x443
    776f:	1144c0        	slli	a4, a4, 4
    7772:	5d92b2        	l16si	a11, a2, 186
    7775:	e30e21        	l32r	a2, 3b0 (6940 <est_pow_aver>)
    7778:	a74a           	add.n	a10, a7, a4
    777a:	0002e0        	callx8	a2
    777d:	06d362        	addmi	a6, a3, 0x600
    7780:	e31421        	l32r	a2, 3d0 (75c30a3d <_end+0x75c2465d>)
    7783:	b648           	l32i.n	a4, a6, 44
    7785:	360a34        	ae_cvtq48a32s	aeq0, a10
    7788:	308224        	ae_cvtp24a16x2.lh	aep0, a2, a2
    778b:	364434        	ae_cvtq48a32s	aeq1, a4
    778e:	0c01062cff 	{ movi	a15, 0x62c; ae_mulzaafq32sp16s.lh	aeq0, aeq1, aep0, aeq0, aep0 }
    7793:	c6a8           	l32i.n	a10, a6, 48
    7795:	060934        	ae_roundsq32asym	aeq0, aeq0
    7798:	6283f4        	ae_sq32f.x	aeq0, a3, a15
    779b:	b6b8           	l32i.n	a11, a6, 44
    779d:	54d722        	addmi	a2, a7, 0x5400
    77a0:	3fd742        	addmi	a4, a7, 0x3f00
    77a3:	5baab7        	bge	a10, a11, 7802 <two_mic_WB_NR_proc+0xf6>
    77a6:	e28621        	l32r	a2, 1c0 (87f4 <airoha_divide>)
    77a9:	0002e0        	callx8	a2
    77ac:	6090a0        	neg	a9, a10
    77af:	400900        	ssr	a9
    77b2:	54d742        	addmi	a4, a7, 0x5400
    77b5:	b190b0        	sra	a9, a11
    77b8:	661482        	l16ui	a8, a4, 204
    77bb:	300884        	ae_cvtp24a16x2.ll	aep0, a8, a8
    77be:	360934        	ae_cvtq48a32s	aeq0, a9
    77c1:	f88013c22f 	{ or	a12, a2, a2; ae_mulfq32sp24s.l	aeq0, aeq0, aep0 }
    77c6:	1199           	s32i.n	a9, a1, 4
    77c8:	620114        	ae_sq32f.i	aeq0, a1, 4
    77cb:	214b           	addi.n	a2, a1, 4
    77cd:	b6a8           	l32i.n	a10, a6, 44
    77cf:	c6b8           	l32i.n	a11, a6, 48
    77d1:	3fd7e2        	addmi	a14, a7, 0x3f00
    77d4:	0311f2        	l16ui	a15, a1, 6
    77d7:	6e5ef2        	s16i	a15, a14, 220
    77da:	000ce0        	callx8	a12
    77dd:	e22d61        	l32r	a6, 94 (680 <HIFI_sqrt>)
    77e0:	0006e0        	callx8	a6
    77e3:	671442        	l16ui	a4, a4, 206
    77e6:	300444        	ae_cvtp24a16x2.ll	aep0, a4, a4
    77e9:	360b34        	ae_cvtq48a32s	aeq0, a11
    77ec:	f8801411bf 	{ s32i.n	a11, a1, 4; ae_mulfq32sp24s.l	aeq0, aeq0, aep0 }
    77f1:	fc24fe8a0f 	{ ae_slaasq56s	aeq0, aeq0, a10; nop }
    77f6:	060834        	ae_roundsq32sym	aeq0, aeq0
    77f9:	620204        	ae_sq32f.i	aeq0, a2, 0
    77fc:	031162        	l16ui	a6, a1, 6
    77ff:	000206        	j	780b <two_mic_WB_NR_proc+0xff>

00007802 <two_mic_WB_NR_proc+0xf6>:
    7802:	671262        	l16ui	a6, a2, 206
    7805:	669282        	l16si	a8, a2, 204
    7808:	6e5482        	s16i	a8, a4, 220
    780b:	3fd722        	addmi	a2, a7, 0x3f00
    780e:	715262        	s16i	a6, a2, 226
    7811:	e2bd21        	l32r	a2, 308 (8068 <NR_NoiseWithGain>)
    7814:	05ad           	mov.n	a10, a5
    7816:	3fd742        	addmi	a4, a7, 0x3f00
    7819:	0002e0        	callx8	a2
    781c:	06d322        	addmi	a2, a3, 0x600
    781f:	1e9262        	l16si	a6, a2, 60
    7822:	23a422        	movi	a2, 0x423
    7825:	1122c0        	slli	a2, a2, 4
    7828:	86bc           	beqz.n	a6, 7864 <two_mic_WB_NR_proc+0x158>
    782a:	3fd782        	addmi	a8, a7, 0x3f00
    782d:	a72a           	add.n	a10, a7, a2
    782f:	7e98b2        	l16si	a11, a8, 252
    7832:	e2e821        	l32r	a2, 3d4 (6990 <est_pow_aver_x>)
    7835:	6c2c           	movi.n	a12, 38
    7837:	0002e0        	callx8	a2
    783a:	06d382        	addmi	a8, a3, 0x600
    783d:	1d9892        	l16si	a9, a8, 58
    7840:	2128a0        	srai	a2, a10, 8
    7843:	0aa267        	bge	a2, a6, 7851 <two_mic_WB_NR_proc+0x145>
    7846:	06d322        	addmi	a2, a3, 0x600
    7849:	1f9222        	l16si	a2, a2, 62
    784c:	629a           	add.n	a6, a2, a9
    784e:	000206        	j	785a <two_mic_WB_NR_proc+0x14e>

00007851 <two_mic_WB_NR_proc+0x145>:
    7851:	06d322        	addmi	a2, a3, 0x600
    7854:	209222        	l16si	a2, a2, 64
    7857:	c06920        	sub	a6, a9, a2
    785a:	a62d           	ae_clamps16	a2, a6
    785c:	0f0c           	movi.n	a15, 0
    785e:	5322f0        	max	a2, a2, a15
    7861:	1d5822        	s16i	a2, a8, 58
    7864:	302422        	l32i	a2, a4, 192
    7867:	4bd772        	addmi	a7, a7, 0x4b00
    786a:	06d342        	addmi	a4, a3, 0x600
    786d:	5e1792        	l16ui	a9, a7, 188
    7870:	0c1482        	l16ui	a8, a4, 24
    7873:	08d262        	addmi	a6, a2, 0x800
    7876:	06d322        	addmi	a2, a3, 0x600
    7879:	161987        	beq	a9, a8, 7893 <two_mic_WB_NR_proc+0x187>
    787c:	22b8           	l32i.n	a11, a2, 8
    787e:	e2bb21        	l32r	a2, 36c (78d8 <equal_power>)
    7881:	89cd           	ae_sext16	a12, a9
    7883:	88dd           	ae_sext16	a13, a8
    7885:	eea0e2        	movi	a14, 238
    7888:	06ad           	mov.n	a10, a6
    788a:	0002e0        	callx8	a2
    788d:	0c54a2        	s16i	a10, a4, 24
    7890:	5e57a2        	s16i	a10, a7, 188
    7893:	06d322        	addmi	a2, a3, 0x600
    7896:	2228           	l32i.n	a2, a2, 8
    7898:	eea042        	movi	a4, 238
    789b:	600604        	ae_lq32f.i	aeq0, a6, 0
    789e:	fcc232        	addi	a3, a2, -4
    78a1:	0a8476        	loop	a4, 78af <two_mic_WB_NR_proc+0x1a3>
    78a4:	605314        	ae_lq32f.iu	aeq1, a3, 4
    78a7:	f96b3d161f 	{ ae_lq32f.iu	aeq0, a6, 4; ae_maxq56s	aeq1, aeq0, aeq1 }
    78ac:	6216f4        	ae_sq32f.i	aeq1, a6, -4

000078af <two_mic_WB_NR_proc+0x1a3>:
    78af:	e29721        	l32r	a2, 30c (82e0 <NR_WienerFilter>)
    78b2:	05ad           	mov.n	a10, a5
    78b4:	0002e0        	callx8	a2
    78b7:	3138           	l32i.n	a3, a1, 12
    78b9:	e29521        	l32r	a2, 310 (5b0 <comfort_noise_gen_wb>)
    78bc:	05ad           	mov.n	a10, a5
    78be:	03bd           	mov.n	a11, a3
    78c0:	0002e0        	callx8	a2
    78c3:	e29421        	l32r	a2, 314 (8644 <ifft_wo>)
    78c6:	21b8           	l32i.n	a11, a1, 8
    78c8:	05ad           	mov.n	a10, a5
    78ca:	03cd           	mov.n	a12, a3
    78cc:	0002e0        	callx8	a2
    78cf:	f01d           	retw.n

000078d1 <two_mic_WB_NR_proc+0x1c5>:
    78d1:	00000000                                 .......

000078d8 <equal_power>:
    78d8:	004136        	entry	a1, 32
    78db:	c07450        	sub	a7, a4, a5
    78de:	a34570        	movltz	a4, a5, a7
    78e1:	1416a6        	blti	a6, 1, 78f9 <equal_power+0x21>
    78e4:	a33270        	movltz	a3, a2, a7
    78e7:	605170        	abs	a5, a7
    78ea:	fcc322        	addi	a2, a3, -4
    78ed:	088676        	loop	a6, 78f9 <equal_power+0x21>
    78f0:	601214        	ae_lq32f.iu	aeq0, a2, 4
    78f3:	3405a4        	ae_srlaq56	aeq0, aeq0, a5
    78f6:	620204        	ae_sq32f.i	aeq0, a2, 0

000078f9 <equal_power+0x21>:
    78f9:	042d           	mov.n	a2, a4
    78fb:	f01d           	retw.n

000078fd <equal_power+0x25>:
    78fd:	000000                                        ...

00007900 <fft_wo>:
    7900:	008136        	entry	a1, 64
    7903:	340282        	l8ui	a8, a2, 52
    7906:	f0a042        	movi	a4, 240
    7909:	78a0c2        	movi	a12, 120
    790c:	41a380        	srli	a10, a8, 3
    790f:	93c4a0        	movnez	a12, a4, a10
    7912:	270c           	movi.n	a7, 2
    7914:	460c           	movi.n	a6, 4
    7916:	050c           	movi.n	a5, 0
    7918:	9367a0        	movnez	a6, a7, a10
    791b:	034d           	mov.n	a4, a3
    791d:	098c76        	loop	a12, 792a <fft_wo+0x2a>
    7920:	247d           	ae_l16si.n	a7, a4, 0
    7922:	442b           	addi.n	a4, a4, 2
    7924:	607170        	abs	a7, a7
    7927:	205750        	or	a5, a7, a5

0000792a <fft_wo+0x2a>:
    792a:	40e5b0        	nsa	a11, a5
    792d:	e28091        	l32r	a9, 330 (b5b0 <fftorder_512_12b>)
    7930:	1592d2        	l16si	a13, a2, 42
    7933:	1176f0        	slli	a7, a6, 1
    7936:	f0cb62        	addi	a6, a11, -16
    7939:	00a282        	movi	a8, 0x200
    793c:	00a142        	movi	a4, 0x100
    793f:	050c           	movi.n	a5, 0
    7941:	14d2e2        	addmi	a14, a2, 0x1400
    7944:	9348a0        	movnez	a4, a8, a10
    7947:	3b2e82        	l32i	a8, a14, 236
    794a:	53e650        	max	a14, a6, a5
    794d:	02f8           	l32i.n	a15, a2, 0
    794f:	b64c           	movi.n	a6, 75
    7951:	43ded0        	min	a13, a14, a13
    7954:	b94b           	addi.n	a11, a9, 4
    7956:	998b           	addi.n	a9, a9, 8
    7958:	61e9           	s32i.n	a14, a1, 24
    795a:	be4c           	movi.n	a14, 75
    795c:	1166a0        	slli	a6, a6, 6
    795f:	939ba0        	movnez	a9, a11, a10
    7962:	11aea0        	slli	a10, a14, 6
    7965:	0316d4        	wur.ae_sar	a13
    7968:	450264        	ae_lp16x2f.x	aep0, a2, a6
    796b:	e2aa           	add.n	a14, a2, a10
    796d:	a0a4f0        	addx4	a10, a4, a15
    7970:	416240        	srli	a6, a4, 2
    7973:	71d9           	s32i.n	a13, a1, 28
    7975:	04cab2        	addi	a11, a10, 4
    7978:	f823ad180f 	{ ae_lp16x2f.i	aep1, a8, 0; ae_sllssp24s	aep0, aep0 }
    797d:	158676        	loop	a6, 7996 <fft_wo+0x96>
    7980:	e820adfe1f 	{ ae_lp16x2f.iu	aep7, a14, 4; ae_mulfp24s.hh	aeq0, aep0, aep1 }
    7985:	eb21ed981f 	{ ae_lp16x2f.iu	aep1, a8, 4; ae_mulfp24s.ll	aeq3, aep0, aep1 }
    798a:	f83fb84a5f 	{ ae_sq32f.x	aeq0, a10, a5; ae_sllssp24s	aep0, aep7 }
    798f:	62bb54        	ae_sq32f.x	aeq3, a11, a5
    7992:	295d           	ae_l16si.n	a5, a9, 0
    7994:	997a           	add.n	a9, a9, a7
    7996:	fc2484afef 	{ movi	a14, 0x4af; ae_zeroq56	aeq0 }
    799b:	41f1c0        	srli	a15, a12, 1
    799e:	11eee0        	slli	a14, a14, 2
    79a1:	f84215d6ff 	{ sub	a13, a6, a15; ae_truncp24q48x2	aep0, aeq0, aeq0 }
    79a6:	e2ea           	add.n	a14, a2, a14
    79a8:	571da6        	blti	a13, 1, 7a03 <fft_wo+0x103>
    79ab:	4149           	s32i.n	a4, a1, 16
    79ad:	4ba042        	movi	a4, 75
    79b0:	0561f2        	s32i	a15, a1, 20
    79b3:	90fc20        	addx2	a15, a12, a2
    79b6:	11c4a0        	slli	a12, a4, 6
    79b9:	4ba042        	movi	a4, 75
    79bc:	1144a0        	slli	a4, a4, 6
    79bf:	80cfc0        	add	a12, a15, a12
    79c2:	452f44        	ae_lp16x2f.x	aep2, a15, a4
    79c5:	098d76        	loop	a13, 79d2 <fft_wo+0xd2>
    79c8:	fc4873ae1f 	{ ae_sp16x2f.iu	aep2, a14, 4; ae_abssp24s	aep1, aep2 }
    79cd:	dc202dac1f 	{ ae_lp16x2f.iu	aep2, a12, 4; ae_orp48	aep0, aep0, aep1 }
    79d2:	51f8           	l32i.n	a15, a1, 20
    79d4:	4498f4        	ae_lp16x2f.iu	aep1, a8, -4
    79d7:	c066f0        	sub	a6, a6, a15
    79da:	0020f0        	nop
    79dd:	1d8676        	loop	a6, 79fe <fft_wo+0xfe>
    79e0:	f92bf3ae1f 	{ ae_sp16x2f.iu	aep2, a14, 4; ae_sllssp24s	aep3, aep2 }
    79e5:	013154        	ae_mulfp24s.hl	aeq0, aep3, aep1
    79e8:	e92ded98ff 	{ ae_lp16x2f.iu	aep1, a8, -4; ae_mulfp24s.lh	aeq3, aep3, aep1 }
    79ed:	fe48384a5f 	{ ae_sq32f.x	aeq0, a10, a5; ae_abssp24s	aep4, aep2 }
    79f2:	dc80387b5f 	{ ae_sq32f.x	aeq3, a11, a5; ae_orp48	aep0, aep0, aep4 }
    79f7:	295d           	ae_l16si.n	a5, a9, 0
    79f9:	44ac14        	ae_lp16x2f.iu	aep2, a12, 4
    79fc:	997a           	add.n	a9, a9, a7
    79fe:	4148           	l32i.n	a4, a1, 16
    7a00:	000086        	j	7a06 <fft_wo+0x106>

00007a03 <fft_wo+0x103>:
    7a03:	4498f4        	ae_lp16x2f.iu	aep1, a8, -4
    7a06:	0086d4        	ae_cvta32p24.h	a6, aep0
    7a09:	000cd4        	ae_cvta32p24.l	a12, aep0
    7a0c:	61d8           	l32i.n	a13, a1, 24
    7a0e:	2066c0        	or	a6, a6, a12
    7a11:	40e660        	nsa	a6, a6
    7a14:	436d60        	min	a6, a13, a6
    7a17:	155262        	s16i	a6, a2, 42
    7a1a:	440304        	ae_lp16x2f.i	aep0, a3, 0
    7a1d:	188f76        	loop	a15, 7a39 <fft_wo+0x139>
    7a20:	f923b38e1f 	{ ae_sp16x2f.iu	aep0, a14, 4; ae_sllssp24s	aep2, aep0 }
    7a25:	ea28ad831f 	{ ae_lp16x2f.iu	aep0, a3, 4; ae_mulfp24s.hl	aeq0, aep2, aep1 }
    7a2a:	e929ed98ff 	{ ae_lp16x2f.iu	aep1, a8, -4; ae_mulfp24s.lh	aeq3, aep2, aep1 }
    7a2f:	628a54        	ae_sq32f.x	aeq0, a10, a5
    7a32:	62bb54        	ae_sq32f.x	aeq3, a11, a5
    7a35:	295d           	ae_l16si.n	a5, a9, 0
    7a37:	997a           	add.n	a9, a9, a7

00007a39 <fft_wo+0x139>:
    7a39:	0258           	l32i.n	a5, a2, 0
    7a3b:	413140        	srli	a3, a4, 1
    7a3e:	8c0c           	movi.n	a12, 8
    7a40:	a0a450        	addx4	a10, a4, a5
    7a43:	e23c41        	l32r	a4, 334 (926c <sw_fft_32b_2811>)
    7a46:	1d0c           	movi.n	a13, 1
    7a48:	0e0c           	movi.n	a14, 0
    7a4a:	03bd           	mov.n	a11, a3
    7a4c:	0004e0        	callx8	a4
    7a4f:	14d242        	addmi	a4, a2, 0x1400
    7a52:	7168           	l32i.n	a6, a1, 28
    7a54:	0258           	l32i.n	a5, a2, 0
    7a56:	382442        	l32i	a4, a4, 224
    7a59:	c066a0        	sub	a6, a6, a10
    7a5c:	165262        	s16i	a6, a2, 44
    7a5f:	207550        	or	a7, a5, a5
    7a62:	f8c482        	addi	a8, a4, -8
    7a65:	058376        	loop	a3, 7a6e <fft_wo+0x16e>
    7a68:	5c8714        	ae_lp24x2f.iu	aep0, a7, 8
    7a6b:	5e8814        	ae_sp24x2f.iu	aep0, a8, 8
    7a6e:	350272        	l8ui	a7, a2, 53
    7a71:	1136f0        	slli	a3, a6, 1
    7a74:	1d0c           	movi.n	a13, 1
    7a76:	0bd2e2        	addmi	a14, a2, 0xb00
    7a79:	c03d30        	sub	a3, a13, a3
    7a7c:	f73b           	addi.n	a15, a7, 3
    7a7e:	fcc522        	addi	a2, a5, -4
    7a81:	5c0404        	ae_lp24x2f.i	aep0, a4, 0
    7a84:	7c5e32        	s16i	a3, a14, 248
    7a87:	0a8f76        	loop	a15, 7a95 <fft_wo+0x195>
    7a8a:	f003af841f 	{ ae_lp24x2f.iu	aep0, a4, 8; ae_mulzaap24s.hh.ll	aeq0, aep0, aep0 }
    7a8f:	060834        	ae_roundsq32sym	aeq0, aeq0
    7a92:	624214        	ae_sq32f.iu	aeq0, a2, 4
    7a95:	f01d           	retw.n

00007a97 <fft_wo+0x197>:
	...

00007a98 <NR_vad1>:
    7a98:	008136        	entry	a1, 64
    7a9b:	3402a2        	l8ui	a10, a2, 52
    7a9e:	39a592        	movi	a9, 0x539
    7aa1:	02b8           	l32i.n	a11, a2, 0
    7aa3:	076a16        	beqz	a10, 7b1d <NR_vad1+0x85>
    7aa6:	e17d81        	l32r	a8, 9c (be40 <wb_sb_ptn>)
    7aa9:	e24b61        	l32r	a6, 3d8 (be70 <nb_sb_ptn>)
    7aac:	1199e0        	slli	a9, a9, 2
    7aaf:	4153a0        	srli	a5, a10, 3
    7ab2:	0bd232        	addmi	a3, a2, 0xb00
    7ab5:	f29a           	add.n	a15, a2, a9
    7ab7:	7139           	s32i.n	a3, a1, 28
    7ab9:	14d242        	addmi	a4, a2, 0x1400
    7abc:	5129           	s32i.n	a2, a1, 20
    7abe:	61a9           	s32i.n	a10, a1, 24
    7ac0:	113ae0        	slli	a3, a10, 2
    7ac3:	070c           	movi.n	a7, 0
    7ac5:	936850        	movnez	a6, a8, a5
    7ac8:	0461f2        	s32i	a15, a1, 16
    7acb:	fd24bd0b3f 	{ ae_lq32f.i	aeq0, a11, 12; ae_zeroq56	aeq1 }
    7ad0:	0ccb22        	addi	a2, a11, 12

00007ad3 <NR_vad1+0x3b>:
    7ad3:	265d           	ae_l16si.n	a5, a6, 0
    7ad5:	368d           	ae_l16si.n	a8, a6, 2
    7ad7:	c05850        	sub	a5, a8, a5
    7ada:	0715a6        	blti	a5, 1, 7ae5 <NR_vad1+0x4d>
    7add:	048576        	loop	a5, 7ae5 <NR_vad1+0x4d>
    7ae0:	f96a3d121f 	{ ae_lq32f.iu	aeq0, a2, 4; ae_addq56	aeq1, aeq1, aeq0 }

00007ae5 <NR_vad1+0x4d>:
    7ae5:	7188           	l32i.n	a8, a1, 28
    7ae7:	365504        	ae_nsaq56s	a5, aeq1
    7aea:	7c9882        	l16si	a8, a8, 248
    7aed:	f8c552        	addi	a5, a5, -8
    7af0:	fc24fe950f 	{ ae_slaasq56s	aeq0, aeq1, a5; nop }
    7af5:	c0b850        	sub	a11, a8, a5
    7af8:	368a04        	ae_trunca32q48	a10, aeq0
    7afb:	e19f51        	l32r	a5, 178 (6d8 <Log2_norm>)
    7afe:	0005e0        	callx8	a5
    7b01:	fd24b3945e 	{ l32i	a5, a4, 228; ae_zeroq56	aeq1 }
    7b06:	600204        	ae_lq32f.i	aeq0, a2, 0
    7b09:	662b           	addi.n	a6, a6, 2
    7b0b:	857a           	add.n	a8, a5, a7
    7b0d:	774b           	addi.n	a7, a7, 4
    7b0f:	08a9           	s32i.n	a10, a8, 0
    7b11:	be9377        	bne	a3, a7, 7ad3 <NR_vad1+0x3b>
    7b14:	61a8           	l32i.n	a10, a1, 24
    7b16:	5128           	l32i.n	a2, a1, 20
    7b18:	41c8           	l32i.n	a12, a1, 16
    7b1a:	000346        	j	7b2b <NR_vad1+0x93>

00007b1d <NR_vad1+0x85>:
    7b1d:	14d232        	addmi	a3, a2, 0x1400
    7b20:	39a542        	movi	a4, 0x539
    7b23:	392352        	l32i	a5, a3, 228
    7b26:	1144e0        	slli	a4, a4, 2
    7b29:	c24a           	add.n	a12, a2, a4
    7b2b:	e22561        	l32r	a6, 3c0 (bb20 <NR_immediate_num>)
    7b2e:	070a16        	beqz	a10, 7ba2 <NR_vad1+0x10a>
    7b31:	039242        	l16si	a4, a2, 6
    7b34:	f75c           	movi.n	a7, 95
    7b36:	f9a282        	movi	a8, 0x2f9
    7b39:	e0a3b2        	movi	a11, 0x3e0
    7b3c:	1177b0        	slli	a7, a7, 5
    7b3f:	1188e0        	slli	a8, a8, 2
    7b42:	114400        	slli	a4, a4, 16
    7b45:	360434        	ae_cvtq48a32s	aeq0, a4
    7b48:	604504        	ae_lq32f.i	aeq1, a5, 0
    7b4b:	04d232        	addmi	a3, a2, 0x400
    7b4e:	040c           	movi.n	a4, 0
    7b50:	60bb24        	ae_lq32f.xu	aeq2, a11, a2
    7b53:	727a           	add.n	a7, a2, a7
    7b55:	828a           	add.n	a8, a2, a8
    7b57:	338a76        	loop	a10, 7b8e <NR_vad1+0xf6>
    7b5a:	d6c813988f 	{ or	a9, a8, a8; ae_ltq56s	b0, aeq2, aeq1 }
    7b5f:	08ed           	mov.n	a14, a8
    7b61:	f46b           	addi.n	a15, a4, 6
    7b63:	d39700        	movt	a9, a7, b0
    7b66:	440904        	ae_lp16x2f.i	aep0, a9, 0
    7b69:	c18064        	ae_mulzaafq32sp16s.lh	aeq2, aeq1, aep0, aeq2, aep0
    7b6c:	622b04        	ae_sq32f.i	aeq2, a11, 0
    7b6f:	60d314        	ae_lq32f.iu	aeq3, a3, 4
    7b72:	09b104        	ae_ltq56s	b0, aeq1, aeq3
    7b75:	d3e700        	movt	a14, a7, b0
    7b78:	447e04        	ae_lp16x2f.i	aep7, a14, 0
    7b7b:	c1ff74        	ae_mulzaafq32sp16s.lh	aeq3, aeq1, aep7, aeq3, aep7
    7b7e:	fab6f9b30f 	{ ae_sq32f.i	aeq3, a3, 0; ae_subq56	aeq2, aeq2, aeq3 }
    7b83:	d6503d351f 	{ ae_lq32f.iu	aeq1, a5, 4; ae_ltq56s	b0, aeq0, aeq2 }
    7b88:	609b14        	ae_lq32f.iu	aeq2, a11, 4
    7b8b:	d34f00        	movt	a4, a15, b0

00007b8e <NR_vad1+0xf6>:
    7b8e:	030c           	movi.n	a3, 0
    7b90:	0c58           	l32i.n	a5, a12, 0
    7b92:	f68b           	addi.n	a15, a6, 8
    7b94:	723340        	salt	a3, a3, a4
    7b97:	66cb           	addi.n	a6, a6, 12
    7b99:	936f30        	movnez	a6, a15, a3
    7b9c:	6acc           	bnez.n	a10, 7ba6 <NR_vad1+0x10e>
    7b9e:	000ac6        	j	7bcd <NR_vad1+0x135>

00007ba1 <NR_vad1+0x109>:
	...

00007ba2 <NR_vad1+0x10a>:
    7ba2:	66cb           	addi.n	a6, a6, 12
    7ba4:	5aac           	beqz.n	a10, 7bcd <NR_vad1+0x135>
    7ba6:	109232        	l16si	a3, a2, 32
    7ba9:	28a442        	movi	a4, 0x428
    7bac:	602244        	ae_lq32f.x	aeq0, a2, a4
    7baf:	113300        	slli	a3, a3, 16
    7bb2:	440604        	ae_lp16x2f.i	aep0, a6, 0
    7bb5:	608504        	ae_lq32f.i	aeq2, a5, 0
    7bb8:	224a           	add.n	a2, a2, a4
    7bba:	364334        	ae_cvtq48a32s	aeq1, a3
    7bbd:	0c8a76        	loop	a10, 7bcd <NR_vad1+0x135>
    7bc0:	0f003d121f 	{ ae_lq32f.iu	aeq0, a2, 4; ae_mulzaafq32sp16s.lh	aeq2, aeq2, aep0, aeq0, aep0 }
    7bc5:	fb773d551f 	{ ae_lq32f.iu	aeq2, a5, 4; ae_maxq56s	aeq3, aeq1, aeq2 }
    7bca:	6232f4        	ae_sq32f.i	aeq3, a2, -4

00007bcd <NR_vad1+0x135>:
    7bcd:	f01d           	retw.n

00007bcf <NR_vad1+0x137>:
	...

00007bd0 <NR_vad2>:
    7bd0:	008136        	entry	a1, 64
    7bd3:	181232        	l16ui	a3, a2, 48
    7bd6:	021242        	l16ui	a4, a2, 4
    7bd9:	3402a2        	l8ui	a10, a2, 52
    7bdc:	f0a2f2        	movi	a15, 0x2f0
    7bdf:	739347        	bne	a3, a4, 7c56 <NR_vad2+0x86>
    7be2:	109232        	l16si	a3, a2, 32
    7be5:	040c           	movi.n	a4, 0
    7be7:	185242        	s16i	a4, a2, 48
    7bea:	71a9           	s32i.n	a10, a1, 28
    7bec:	9aac           	beqz.n	a10, 7c19 <NR_vad2+0x49>
    7bee:	e1aa51        	l32r	a5, 298 (49ec <take_min_four>)
    7bf1:	7178           	l32i.n	a7, a1, 28
    7bf3:	08d332        	addmi	a3, a3, 0x800
    7bf6:	08a342        	movi	a4, 0x308
    7bf9:	4ca482        	movi	a8, 0x44c
    7bfc:	116300        	slli	a6, a3, 16
    7bff:	324a           	add.n	a3, a2, a4
    7c01:	428a           	add.n	a4, a2, a8

00007c03 <NR_vad2+0x33>:
    7c03:	cb0c           	movi.n	a11, 12
    7c05:	03ad           	mov.n	a10, a3
    7c07:	0005e0        	callx8	a5
    7c0a:	5386a0        	max	a8, a6, a10
    7c0d:	770b           	addi.n	a7, a7, -1
    7c0f:	0489           	s32i.n	a8, a4, 0
    7c11:	18c332        	addi	a3, a3, 24
    7c14:	444b           	addi.n	a4, a4, 4
    7c16:	fe9756        	bnez	a7, 7c03 <NR_vad2+0x33>
    7c19:	330232        	l8ui	a3, a2, 51
    7c1c:	71a8           	l32i.n	a10, a1, 28
    7c1e:	331b           	addi.n	a3, a3, 1
    7c20:	744030        	extui	a4, a3, 0, 8
    7c23:	f4c442        	addi	a4, a4, -12
    7c26:	934340        	movnez	a4, a3, a4
    7c29:	28a432        	movi	a3, 0x428
    7c2c:	603324        	ae_lq32f.xu	aeq0, a3, a2
    7c2f:	334242        	s8i	a4, a2, 51
    7c32:	05fa16        	beqz	a10, 7c95 <NR_vad2+0xc5>
    7c35:	744040        	extui	a4, a4, 0, 8
    7c38:	620154        	ae_sq32f.i	aeq0, a1, 20
    7c3b:	f0a2f2        	movi	a15, 0x2f0
    7c3e:	904420        	addx2	a4, a4, a2
    7c41:	604154        	ae_lq32f.i	aeq1, a1, 20
    7c44:	44fa           	add.n	a4, a4, a15
    7c46:	851c           	movi.n	a5, 24
    7c48:	078a76        	loop	a10, 7c53 <NR_vad2+0x83>
    7c4b:	f8ebbd331f 	{ ae_lq32f.iu	aeq1, a3, 4; ae_roundsp16q48sym	aep0, aeq1 }
    7c50:	438454        	ae_sp16f.l.xu	aep0, a4, a5

00007c53 <NR_vad2+0x83>:
    7c53:	0009c6        	j	7c7e <NR_vad2+0xae>

00007c56 <NR_vad2+0x86>:
    7c56:	28a432        	movi	a3, 0x428
    7c59:	603324        	ae_lq32f.xu	aeq0, a3, a2
    7c5c:	5abc           	beqz.n	a10, 7c95 <NR_vad2+0xc5>
    7c5e:	620164        	ae_sq32f.i	aeq0, a1, 24
    7c61:	330252        	l8ui	a5, a2, 51
    7c64:	604164        	ae_lq32f.i	aeq1, a1, 24
    7c67:	905520        	addx2	a5, a5, a2
    7c6a:	45fa           	add.n	a4, a5, a15
    7c6c:	851c           	movi.n	a5, 24
    7c6e:	0c8a76        	loop	a10, 7c7e <NR_vad2+0xae>
    7c71:	f8ebda045f 	{ ae_lp16f.xu	aep0, a4, a5; ae_roundsp16q48sym	aep1, aeq1 }
    7c76:	d822bd331f 	{ ae_lq32f.iu	aeq1, a3, 4; ae_minp24s	aep0, aep0, aep1 }
    7c7b:	420404        	ae_sp16f.l.i	aep0, a4, 0

00007c7e <NR_vad2+0xae>:
    7c7e:	189232        	l16si	a3, a2, 48
    7c81:	e1d641        	l32r	a4, 3dc (e38e4 <_end+0xd7504>)
    7c84:	399444        	ae_movpa24x2	aep1, a4, a4
    7c87:	331b           	addi.n	a3, a3, 1
    7c89:	185232        	s16i	a3, a2, 48
    7c8c:	0d8ab6        	bltui	a10, 8, 7c9d <NR_vad2+0xcd>
    7c8f:	e10931        	l32r	a3, b4 (be20 <wb_score_bands>)
    7c92:	000406        	j	7ca6 <NR_vad2+0xd6>

00007c95 <NR_vad2+0xc5>:
    7c95:	189232        	l16si	a3, a2, 48
    7c98:	331b           	addi.n	a3, a3, 1
    7c9a:	185232        	s16i	a3, a2, 48
    7c9d:	e1d031        	l32r	a3, 3e0 (124925 <_end+0x118545>)
    7ca0:	399334        	ae_movpa24x2	aep1, a3, a3
    7ca3:	e1d031        	l32r	a3, 3e4 (be60 <nb_score_bands>)
    7ca6:	fd2480625e 	{ addi	a5, a2, 6; ae_zeroq56	aeq1 }
    7cab:	fc208fe33e 	{ addi	a3, a3, -2; ae_zerop48	aep0 }
    7cb0:	049a16        	beqz	a10, 7cfd <NR_vad2+0x12d>
    7cb3:	620144        	ae_sq32f.i	aeq0, a1, 16
    7cb6:	14d292        	addmi	a9, a2, 0x1400
    7cb9:	3a29f2        	l32i	a15, a9, 232
    7cbc:	4ca462        	movi	a6, 0x44c
    7cbf:	28a482        	movi	a8, 0x428
    7cc2:	608144        	ae_lq32f.i	aeq2, a1, 16
    7cc5:	170c           	movi.n	a7, 1
    7cc7:	60f624        	ae_lq32f.xu	aeq3, a6, a2
    7cca:	828a           	add.n	a8, a2, a8
    7ccc:	f8b6cfcf9e 	{ addi	a9, a15, -4; ae_subq56	aeq0, aeq2, aeq3 }
    7cd1:	288a76        	loop	a10, 7cfd <NR_vad2+0x12d>
    7cd4:	40a514        	ae_lp16f.iu	aep2, a5, 2
    7cd7:	ff4c00004f 	{ movi	a4, 0; ae_cvtq48p24s.l	aeq3, aep2 }
    7cdc:	d6c42ca31f 	{ ae_lp16f.iu	aep2, a3, 2; ae_ltq56s	b0, aeq3, aeq0 }
    7ce1:	faa6d6470f 	{ movt	a4, a7, b0; ae_subq56	aeq2, aeq0, aeq3 }
    7ce6:	148c           	beqz.n	a4, 7ceb <NR_vad2+0x11b>
    7ce8:	078204        	ae_addsp24s	aep0, aep0, aep2
    7ceb:	f4c6fb20df 	{ ae_sraiq56	aeq3, aeq2, 1; ae_mulafq32sp24s.l	aeq1, aeq0, aep1 }
    7cf0:	f9de3d581f 	{ ae_lq32f.iu	aeq2, a8, 4; ae_truncp24q48x2	aep2, aeq3, aeq3 }
    7cf5:	60d614        	ae_lq32f.iu	aeq3, a6, 4
    7cf8:	f8b6f4a91f 	{ ae_sp24f.l.iu	aep2, a9, 4; ae_subq56	aeq0, aeq2, aeq3 }

00007cfd <NR_vad2+0x12d>:
    7cfd:	409514        	ae_lp16f.iu	aep1, a5, 2
    7d00:	fc2c00004f 	{ movi	a4, 0; ae_cvtq48p24s.l	aeq0, aep1 }
    7d05:	d64800015f 	{ movi	a5, 1; ae_ltq56s	b0, aeq0, aeq1 }
    7d0a:	d34500        	movt	a4, a5, b0
    7d0d:	448c           	beqz.n	a4, 7d15 <NR_vad2+0x145>
    7d0f:	409314        	ae_lp16f.iu	aep1, a3, 2
    7d12:	078104        	ae_addsp24s	aep0, aep0, aep1

00007d15 <NR_vad2+0x145>:
    7d15:	2ec222        	addi	a2, a2, 46
    7d18:	420204        	ae_sp16f.l.i	aep0, a2, 0
    7d1b:	f01d           	retw.n

00007d1d <NR_vad2+0x14d>:
    7d1d:	000000                                        ...

00007d20 <NR_vad2_low>:
    7d20:	00a136        	entry	a1, 80
    7d23:	02cd           	mov.n	a12, a2
    7d25:	03dd           	mov.n	a13, a3
    7d27:	44c252        	addi	a5, a2, 68
    7d2a:	7e24e6        	bgei	a4, 2, 7dac <NR_vad2_low+0x8c>
    7d2d:	1d1c22        	l16ui	a2, a12, 58
    7d30:	021c32        	l16ui	a3, a12, 4
    7d33:	360c62        	l8ui	a6, a12, 54
    7d36:	28a442        	movi	a4, 0x428
    7d39:	789237        	bne	a2, a3, 7db5 <NR_vad2_low+0x95>
    7d3c:	109c32        	l16si	a3, a12, 32
    7d3f:	020c           	movi.n	a2, 0
    7d41:	1d5c22        	s16i	a2, a12, 58
    7d44:	e15521        	l32r	a2, 298 (49ec <take_min_four>)
    7d47:	08d332        	addmi	a3, a3, 0x800
    7d4a:	a1d9           	s32i.n	a13, a1, 40
    7d4c:	68cc42        	addi	a4, a12, 104
    7d4f:	44cc62        	addi	a6, a12, 68
    7d52:	470c           	movi.n	a7, 4
    7d54:	113300        	slli	a3, a3, 16
    7d57:	b1c9           	s32i.n	a12, a1, 44

00007d59 <NR_vad2_low+0x39>:
    7d59:	cb0c           	movi.n	a11, 12
    7d5b:	04ad           	mov.n	a10, a4
    7d5d:	0002e0        	callx8	a2
    7d60:	5383a0        	max	a8, a3, a10
    7d63:	770b           	addi.n	a7, a7, -1
    7d65:	0689           	s32i.n	a8, a6, 0
    7d67:	18c442        	addi	a4, a4, 24
    7d6a:	664b           	addi.n	a6, a6, 4
    7d6c:	fe9756        	bnez	a7, 7d59 <NR_vad2_low+0x39>
    7d6f:	b1c8           	l32i.n	a12, a1, 44
    7d71:	28a432        	movi	a3, 0x428
    7d74:	a1d8           	l32i.n	a13, a1, 40
    7d76:	360c42        	l8ui	a4, a12, 54
    7d79:	6033c4        	ae_lq32f.xu	aeq0, a3, a12
    7d7c:	04a072        	movi	a7, 4
    7d7f:	01c442        	addi	a4, a4, 1
    7d82:	746040        	extui	a6, a4, 0, 8
    7d85:	f4c662        	addi	a6, a6, -12
    7d88:	936460        	movnez	a6, a4, a6
    7d8b:	744060        	extui	a4, a6, 0, 8
    7d8e:	9044c0        	addx2	a4, a4, a12
    7d91:	18a022        	movi	a2, 24
    7d94:	604304        	ae_lq32f.i	aeq1, a3, 0
    7d97:	50c442        	addi	a4, a4, 80
    7d9a:	364c62        	s8i	a6, a12, 54
    7d9d:	078776        	loop	a7, 7da8 <NR_vad2_low+0x88>
    7da0:	f8ebbd331f 	{ ae_lq32f.iu	aeq1, a3, 4; ae_roundsp16q48sym	aep0, aeq1 }
    7da5:	438424        	ae_sp16f.l.xu	aep0, a4, a2

00007da8 <NR_vad2_low+0x88>:
    7da8:	000a46        	j	7dd5 <NR_vad2_low+0xb5>

00007dab <NR_vad2_low+0x8b>:
	...

00007dac <NR_vad2_low+0x8c>:
    7dac:	28a422        	movi	a2, 0x428
    7daf:	602c24        	ae_lq32f.x	aeq0, a12, a2
    7db2:	0009c6        	j	7ddd <NR_vad2_low+0xbd>

00007db5 <NR_vad2_low+0x95>:
    7db5:	6034c4        	ae_lq32f.xu	aeq0, a4, a12
    7db8:	9036c0        	addx2	a3, a6, a12
    7dbb:	460c           	movi.n	a6, 4
    7dbd:	821c           	movi.n	a2, 24
    7dbf:	604404        	ae_lq32f.i	aeq1, a4, 0
    7dc2:	50c332        	addi	a3, a3, 80
    7dc5:	0c8676        	loop	a6, 7dd5 <NR_vad2_low+0xb5>
    7dc8:	f8ebda032f 	{ ae_lp16f.xu	aep0, a3, a2; ae_roundsp16q48sym	aep1, aeq1 }
    7dcd:	d822bd341f 	{ ae_lq32f.iu	aeq1, a4, 4; ae_minp24s	aep0, aep0, aep1 }
    7dd2:	420304        	ae_sp16f.l.i	aep0, a3, 0

00007dd5 <NR_vad2_low+0xb5>:
    7dd5:	1d9c22        	l16si	a2, a12, 58
    7dd8:	221b           	addi.n	a2, a2, 1
    7dda:	1d5c22        	s16i	a2, a12, 58

00007ddd <NR_vad2_low+0xbd>:
    7ddd:	604504        	ae_lq32f.i	aeq1, a5, 0
    7de0:	620134        	ae_sq32f.i	aeq0, a1, 12
    7de3:	04a032        	movi	a3, 4
    7de6:	28a4f2        	movi	a15, 0x428
    7de9:	600134        	ae_lq32f.i	aeq0, a1, 12
    7dec:	06cc42        	addi	a4, a12, 6
    7def:	0cc162        	addi	a6, a1, 12
    7df2:	802cf0        	add	a2, a12, a15
    7df5:	188376        	loop	a3, 7e11 <NR_vad2_low+0xf1>
    7df8:	f826ec841f 	{ ae_lp16f.iu	aep0, a4, 2; ae_subq56	aeq0, aeq0, aeq1 }
    7dfd:	0ac084        	ae_cvtq48p24s.l	aeq3, aep0
    7e00:	010fc4        	ae_subq56	aeq0, aeq0, aeq3
    7e03:	354074        	ae_sraiq56	aeq1, aeq0, 1
    7e06:	fb4e7d121f 	{ ae_lq32f.iu	aeq0, a2, 4; ae_truncp24q48x2	aep7, aeq1, aeq1 }
    7e0b:	605514        	ae_lq32f.iu	aeq1, a5, 4
    7e0e:	52f614        	ae_sp24f.l.iu	aep7, a6, 4

00007e11 <NR_vad2_low+0xf1>:
    7e11:	4128           	l32i.n	a2, a1, 16
    7e13:	5138           	l32i.n	a3, a1, 20
    7e15:	040c           	movi.n	a4, 0
    7e17:	0f12e6        	bgei	a2, 1, 7e2a <NR_vad2_low+0x10a>
    7e1a:	0c13e6        	bgei	a3, 1, 7e2a <NR_vad2_low+0x10a>
    7e1d:	6128           	l32i.n	a2, a1, 24
    7e1f:	7138           	l32i.n	a3, a1, 28
    7e21:	0512e6        	bgei	a2, 1, 7e2a <NR_vad2_low+0x10a>
    7e24:	0213e6        	bgei	a3, 1, 7e2a <NR_vad2_low+0x10a>
    7e27:	003946        	j	7f10 <NR_vad2_low+0x1f0>

00007e2a <NR_vad2_low+0x10a>:
    7e2a:	140c           	movi.n	a4, 1
    7e2c:	390c22        	l8ui	a2, a12, 57
    7e2f:	66a652        	movi	a5, 0x666
    7e32:	0ce216        	beqz	a2, 7f04 <NR_vad2_low+0x1e4>
    7e35:	050c           	movi.n	a5, 0
    7e37:	209c22        	l16si	a2, a12, 64
    7e3a:	1e9c32        	l16si	a3, a12, 60
    7e3d:	d8a182        	movi	a8, 0x1d8
    7e40:	926d           	ae_zext16	a6, a2
    7e42:	939d           	ae_zext16	a9, a3
    7e44:	7c8a           	add.n	a7, a12, a8
    7e46:	281697        	beq	a6, a9, 7e72 <NR_vad2_low+0x152>
    7e49:	70a2a2        	movi	a10, 0x270
    7e4c:	c02230        	sub	a2, a2, a3
    7e4f:	acaa           	add.n	a10, a12, a10
    7e51:	a3a720        	movltz	a10, a7, a2
    7e54:	26a0b2        	movi	a11, 38
    7e57:	603120        	abs	a3, a2
    7e5a:	fccaa2        	addi	a10, a10, -4
    7e5d:	088b76        	loop	a11, 7e69 <NR_vad2_low+0x149>
    7e60:	601a14        	ae_lq32f.iu	aeq0, a10, 4
    7e63:	3403a4        	ae_srlaq56	aeq0, aeq0, a3
    7e66:	620a04        	ae_sq32f.i	aeq0, a10, 0

00007e69 <NR_vad2_low+0x149>:
    7e69:	a36920        	movltz	a6, a9, a2
    7e6c:	1e5c62        	s16i	a6, a12, 60
    7e6f:	205c62        	s16i	a6, a12, 64

00007e72 <NR_vad2_low+0x152>:
    7e72:	120c           	movi.n	a2, 1
    7e74:	112210        	slli	a2, a2, 15
    7e77:	fc2495225f 	{ sub	a2, a2, a5; ae_zeroq56	aeq0 }
    7e7c:	632c           	movi.n	a3, 38
    7e7e:	6ca2f2        	movi	a15, 0x26c
    7e81:	606c84        	ae_lq32f.x	aeq1, a12, a8
    7e84:	300524        	ae_cvtp24a16x2.ll	aep0, a5, a2
    7e87:	8cfa           	add.n	a8, a12, a15
    7e89:	188376        	loop	a3, 7ea5 <NR_vad2_low+0x185>
    7e8c:	609814        	ae_lq32f.iu	aeq2, a8, 4
    7e8f:	b58c           	beqz.n	a5, 7e9e <NR_vad2_low+0x17e>
    7e91:	0f00bd371f 	{ ae_lq32f.iu	aeq1, a7, 4; ae_mulzaafq32sp16s.lh	aeq2, aeq2, aep0, aeq1, aep0 }
    7e96:	f87339a80f 	{ ae_sq32f.i	aeq2, a8, 0; ae_maxq56s	aeq0, aeq0, aeq2 }
    7e9b:	000106        	j	7ea3 <NR_vad2_low+0x183>

00007e9e <NR_vad2_low+0x17e>:
    7e9e:	f8733d371f 	{ ae_lq32f.iu	aeq1, a7, 4; ae_maxq56s	aeq0, aeq0, aeq2 }
    7ea3:	f03d           	nop.n

00007ea5 <NR_vad2_low+0x185>:
    7ea5:	364204        	ae_nsaq56s	a2, aeq0
    7ea8:	930c           	movi.n	a3, 9
    7eaa:	652c           	movi.n	a5, 38
    7eac:	1d2237        	blt	a2, a3, 7ecd <NR_vad2_low+0x1ad>
    7eaf:	f8c222        	addi	a2, a2, -8
    7eb2:	c03620        	sub	a3, a6, a2
    7eb5:	70a2f2        	movi	a15, 0x270
    7eb8:	401200        	ssl	a2
    7ebb:	802cf0        	add	a2, a12, a15
    7ebe:	1e5c32        	s16i	a3, a12, 60
    7ec1:	088576        	loop	a5, 7ecd <NR_vad2_low+0x1ad>
    7ec4:	0238           	l32i.n	a3, a2, 0
    7ec6:	a13300        	sll	a3, a3
    7ec9:	0239           	s32i.n	a3, a2, 0
    7ecb:	224b           	addi.n	a2, a2, 4

00007ecd <NR_vad2_low+0x1ad>:
    7ecd:	02dd22        	addmi	a2, a13, 0x200
    7ed0:	ff2222        	l32i	a2, a2, 0x3fc
    7ed3:	40a132        	movi	a3, 0x140
    7ed6:	652c           	movi.n	a5, 38
    7ed8:	3c3a           	add.n	a3, a12, a3
    7eda:	0c8576        	loop	a5, 7eea <NR_vad2_low+0x1ca>
    7edd:	0358           	l32i.n	a5, a3, 0
    7edf:	266352        	s32i	a5, a3, 152
    7ee2:	0258           	l32i.n	a5, a2, 0
    7ee4:	0359           	s32i.n	a5, a3, 0
    7ee6:	224b           	addi.n	a2, a2, 4
    7ee8:	334b           	addi.n	a3, a3, 4

00007eea <NR_vad2_low+0x1ca>:
    7eea:	06dde2        	addmi	a14, a13, 0x600
    7eed:	380c22        	l8ui	a2, a12, 56
    7ef0:	1f9c32        	l16si	a3, a12, 62
    7ef3:	219ef2        	l16si	a15, a14, 66
    7ef6:	384c42        	s8i	a4, a12, 56
    7ef9:	205c32        	s16i	a3, a12, 64
    7efc:	394c22        	s8i	a2, a12, 57
    7eff:	1f5cf2        	s16i	a15, a12, 62
    7f02:	f01d           	retw.n

00007f04 <NR_vad2_low+0x1e4>:
    7f04:	f2d456        	bnez	a4, 7e35 <NR_vad2_low+0x115>
    7f07:	380c22        	l8ui	a2, a12, 56
    7f0a:	f29216        	beqz	a2, 7e37 <NR_vad2_low+0x117>
    7f0d:	ffc906        	j	7e35 <NR_vad2_low+0x115>

00007f10 <NR_vad2_low+0x1f0>:
    7f10:	ffc606        	j	7e2c <NR_vad2_low+0x10c>

00007f13 <NR_vad2_low+0x1f3>:
	...

00007f14 <NR_NoiseEstimate>:
    7f14:	004136        	entry	a1, 32
    7f17:	0e9262        	l16si	a6, a2, 28
    7f1a:	0238           	l32i.n	a3, a2, 0
    7f1c:	eea072        	movi	a7, 238
    7f1f:	040c           	movi.n	a4, 0
    7f21:	08d352        	addmi	a5, a3, 0x800
    7f24:	1166c0        	slli	a6, a6, 4
    7f27:	068776        	loop	a7, 7f31 <NR_NoiseEstimate+0x1d>
    7f2a:	0569           	s32i.n	a6, a5, 0
    7f2c:	ee6542        	s32i	a4, a5, 0x3b8
    7f2f:	554b           	addi.n	a5, a5, 4

00007f31 <NR_NoiseEstimate+0x1d>:
    7f31:	320242        	l8ui	a4, a2, 50
    7f34:	02ad           	mov.n	a10, a2
    7f36:	171252        	l16ui	a5, a2, 46
    7f39:	19e417        	bbsi	a4, 1, 7f56 <NR_NoiseEstimate+0x42>
    7f3c:	441c           	movi.n	a4, 20
    7f3e:	037d           	mov.n	a7, a3
    7f40:	1a3457        	bltu	a4, a5, 7f5e <NR_NoiseEstimate+0x4a>
    7f43:	340242        	l8ui	a4, a2, 52
    7f46:	0275b6        	bltui	a5, 7, 7f4c <NR_NoiseEstimate+0x38>
    7f49:	002c86        	j	7fff <NR_NoiseEstimate+0xeb>
    7f4c:	7da152        	movi	a5, 0x17d
    7f4f:	1155d0        	slli	a5, a5, 3
    7f52:	002ec6        	j	8011 <NR_NoiseEstimate+0xfd>

00007f55 <NR_NoiseEstimate+0x41>:
	...

00007f56 <NR_NoiseEstimate+0x42>:
    7f56:	e12441        	l32r	a4, 3e8 (884 <PD_Noise_Est>)
    7f59:	0004e0        	callx8	a4
    7f5c:	0278           	l32i.n	a7, a2, 0
    7f5e:	0bd252        	addmi	a5, a2, 0xb00
    7f61:	7c9592        	l16si	a9, a5, 248
    7f64:	7d95a2        	l16si	a10, a5, 250
    7f67:	350242        	l8ui	a4, a2, 53
    7f6a:	998d           	ae_zext16	a8, a9
    7f6c:	9abd           	ae_zext16	a11, a10
    7f6e:	67cb           	addi.n	a6, a7, 12
    7f70:	2718b7        	beq	a8, a11, 7f9b <NR_NoiseEstimate+0x87>
    7f73:	c0a9a0        	sub	a10, a9, a10
    7f76:	a38ba0        	movltz	a8, a11, a10
    7f79:	849c           	beqz.n	a4, 7f95 <NR_NoiseEstimate+0x81>
    7f7b:	70a4b2        	movi	a11, 0x470
    7f7e:	b2ba           	add.n	a11, a2, a11
    7f80:	a3b6a0        	movltz	a11, a6, a10
    7f83:	6091a0        	abs	a9, a10
    7f86:	fccba2        	addi	a10, a11, -4
    7f89:	088476        	loop	a4, 7f95 <NR_NoiseEstimate+0x81>
    7f8c:	601a14        	ae_lq32f.iu	aeq0, a10, 4
    7f8f:	3409a4        	ae_srlaq56	aeq0, aeq0, a9
    7f92:	620a04        	ae_sq32f.i	aeq0, a10, 0

00007f95 <NR_NoiseEstimate+0x81>:
    7f95:	7d5582        	s16i	a8, a5, 250
    7f98:	7c5582        	s16i	a8, a5, 248

00007f9b <NR_NoiseEstimate+0x87>:
    7f9b:	fc2482ed8f 	{ movi	a8, 0x2ed; ae_zeroq56	aeq0 }
    7fa0:	f4ac           	beqz.n	a4, 7fd3 <NR_NoiseEstimate+0xbf>
    7fa2:	1188e0        	slli	a8, a8, 2
    7fa5:	6ca4f2        	movi	a15, 0x46c
    7fa8:	604734        	ae_lq32f.i	aeq1, a7, 12
    7fab:	8072f0        	add	a7, a2, a15
    7fae:	803380        	add	a3, a3, a8
    7fb1:	1e8476        	loop	a4, 7fd3 <NR_NoiseEstimate+0xbf>
    7fb4:	448314        	ae_lp16x2f.iu	aep0, a3, 4
    7fb7:	438d           	ae_l16ui.n	a8, a3, 0
    7fb9:	609714        	ae_lq32f.iu	aeq2, a7, 4
    7fbc:	c18894        	ae_mulzaafq32sp16s.lh	aeq3, aeq2, aep0, aeq1, aep0
    7fbf:	988c           	beqz.n	a8, 7fcc <NR_NoiseEstimate+0xb8>
    7fc1:	f87b3d361f 	{ ae_lq32f.iu	aeq1, a6, 4; ae_maxq56s	aeq0, aeq0, aeq3 }
    7fc6:	623704        	ae_sq32f.i	aeq3, a7, 0
    7fc9:	000106        	j	7fd1 <NR_NoiseEstimate+0xbd>

00007fcc <NR_NoiseEstimate+0xb8>:
    7fcc:	f8733d361f 	{ ae_lq32f.iu	aeq1, a6, 4; ae_maxq56s	aeq0, aeq0, aeq2 }
    7fd1:	f03d           	nop.n

00007fd3 <NR_NoiseEstimate+0xbf>:
    7fd3:	364304        	ae_nsaq56s	a3, aeq0
    7fd6:	960c           	movi.n	a6, 9
    7fd8:	70a472        	movi	a7, 0x470
    7fdb:	1e2367        	blt	a3, a6, 7ffd <NR_NoiseEstimate+0xe9>
    7fde:	7d9562        	l16si	a6, a5, 250
    7fe1:	f8c332        	addi	a3, a3, -8
    7fe4:	227a           	add.n	a2, a2, a7
    7fe6:	c06630        	sub	a6, a6, a3
    7fe9:	7d5562        	s16i	a6, a5, 250
    7fec:	d48c           	beqz.n	a4, 7ffd <NR_NoiseEstimate+0xe9>
    7fee:	401300        	ssl	a3
    7ff1:	088476        	loop	a4, 7ffd <NR_NoiseEstimate+0xe9>
    7ff4:	0238           	l32i.n	a3, a2, 0
    7ff6:	a13300        	sll	a3, a3
    7ff9:	0239           	s32i.n	a3, a2, 0
    7ffb:	224b           	addi.n	a2, a2, 4
    7ffd:	f01d           	retw.n

00007fff <NR_NoiseEstimate+0xeb>:
    7fff:	08b5f6        	bgeui	a5, 16, 800b <NR_NoiseEstimate+0xf7>
    8002:	fba252        	movi	a5, 0x2fb
    8005:	1155e0        	slli	a5, a5, 2
    8008:	000146        	j	8011 <NR_NoiseEstimate+0xfd>

0000800b <NR_NoiseEstimate+0xf7>:
    800b:	bfa052        	movi	a5, 191
    800e:	1155c0        	slli	a5, a5, 4
    8011:	525a           	add.n	a5, a2, a5
    8013:	037d           	mov.n	a7, a3
    8015:	f45416        	beqz	a4, 7f5e <NR_NoiseEstimate+0x4a>
    8018:	14d272        	addmi	a7, a2, 0x1400
    801b:	77a1a2        	movi	a10, 0x177
    801e:	0558           	l32i.n	a5, a5, 0
    8020:	e01f81        	l32r	a8, 9c (be40 <wb_sb_ptn>)
    8023:	3a2792        	l32i	a9, a7, 232
    8026:	11aad0        	slli	a10, a10, 3
    8029:	060c           	movi.n	a6, 0
    802b:	a3aa           	add.n	a10, a3, a10
    802d:	000906        	j	8055 <NR_NoiseEstimate+0x141>

00008030 <NR_NoiseEstimate+0x11c>:
    8030:	661b           	addi.n	a6, a6, 1
    8032:	90b680        	addx2	a11, a6, a8
    8035:	2c7d           	ae_l16si.n	a7, a12, 0
    8037:	2bbd           	ae_l16si.n	a11, a11, 0
    8039:	10a7b7        	bge	a7, a11, 804d <NR_NoiseEstimate+0x139>
    803c:	c0bb70        	sub	a11, a11, a7
    803f:	a077a0        	addx4	a7, a7, a10
    8042:	078b76        	loop	a11, 804d <NR_NoiseEstimate+0x139>
    8045:	07b8           	l32i.n	a11, a7, 0
    8047:	bb5a           	add.n	a11, a11, a5
    8049:	07b9           	s32i.n	a11, a7, 0
    804b:	774b           	addi.n	a7, a7, 4

0000804d <NR_NoiseEstimate+0x139>:
    804d:	037d           	mov.n	a7, a3
    804f:	029647        	bne	a6, a4, 8055 <NR_NoiseEstimate+0x141>
    8052:	ffc206        	j	7f5e <NR_NoiseEstimate+0x4a>

00008055 <NR_NoiseEstimate+0x141>:
    8055:	a07690        	addx4	a7, a6, a9
    8058:	0778           	l32i.n	a7, a7, 0
    805a:	90c680        	addx2	a12, a6, a8
    805d:	cf17a6        	blti	a7, 1, 8030 <NR_NoiseEstimate+0x11c>
    8060:	661b           	addi.n	a6, a6, 1
    8062:	fff9c6        	j	804d <NR_NoiseEstimate+0x139>

00008065 <NR_NoiseEstimate+0x151>:
    8065:	000000                                        ...

00008068 <NR_NoiseWithGain>:
    8068:	004136        	entry	a1, 32
    806b:	320252        	l8ui	a5, a2, 50
    806e:	0238           	l32i.n	a3, a2, 0
    8070:	340242        	l8ui	a4, a2, 52
    8073:	0a0c           	movi.n	a10, 0
    8075:	076517        	bbci	a5, 1, 8080 <NR_NoiseWithGain+0x18>
    8078:	e0dd51        	l32r	a5, 3ec (e34 <PD_Noise_Gain>)
    807b:	02ad           	mov.n	a10, a2
    807d:	0005e0        	callx8	a5

00008080 <NR_NoiseWithGain+0x18>:
    8080:	171252        	l16ui	a5, a2, 46
    8083:	0f9262        	l16si	a6, a2, 30
    8086:	571c           	movi.n	a7, 21
    8088:	5e75b6        	bltui	a5, 7, 80ea <NR_NoiseWithGain+0x82>
    808b:	5baa47        	bge	a10, a4, 80ea <NR_NoiseWithGain+0x82>
    808e:	625570        	saltu	a5, a5, a7
    8091:	f61b           	addi.n	a15, a6, 1
    8093:	4171f0        	srli	a7, a15, 1
    8096:	40d792        	addmi	a9, a7, 0x4000
    8099:	14d282        	addmi	a8, a2, 0x1400
    809c:	839650        	moveqz	a9, a6, a5
    809f:	dfff61        	l32r	a6, 9c (be40 <wb_sb_ptn>)
    80a2:	3a2872        	l32i	a7, a8, 232
    80a5:	08d352        	addmi	a5, a3, 0x800
    80a8:	300994        	ae_cvtp24a16x2.ll	aep0, a9, a9
    80ab:	a08a70        	addx4	a8, a10, a7
    80ae:	002882        	l32i	a8, a8, 0
    80b1:	90ba60        	addx2	a11, a10, a6
    80b4:	2d18a6        	blti	a8, 1, 80e5 <NR_NoiseWithGain+0x7d>
    80b7:	01caa2        	addi	a10, a10, 1
    80ba:	909a60        	addx2	a9, a10, a6
    80bd:	2b8d           	ae_l16si.n	a8, a11, 0
    80bf:	299d           	ae_l16si.n	a9, a9, 0
    80c1:	a0b850        	addx4	a11, a8, a5
    80c4:	13a897        	bge	a8, a9, 80db <NR_NoiseWithGain+0x73>
    80c7:	c09980        	sub	a9, a9, a8
    80ca:	fccb82        	addi	a8, a11, -4
    80cd:	0a8976        	loop	a9, 80db <NR_NoiseWithGain+0x73>
    80d0:	601814        	ae_lq32f.iu	aeq0, a8, 4
    80d3:	030214        	ae_mulfq32sp16s.l	aeq0, aeq0, aep0
    80d6:	368904        	ae_trunca32q48	a9, aeq0
    80d9:	0899           	s32i.n	a9, a8, 0

000080db <NR_NoiseWithGain+0x73>:
    80db:	cc9a47        	bne	a10, a4, 80ab <NR_NoiseWithGain+0x43>
    80de:	000206        	j	80ea <NR_NoiseWithGain+0x82>

000080e1 <NR_NoiseWithGain+0x79>:
    80e1:	00000000                                ....

000080e5 <NR_NoiseWithGain+0x7d>:
    80e5:	aa1b           	addi.n	a10, a10, 1
    80e7:	fffc06        	j	80db <NR_NoiseWithGain+0x73>

000080ea <NR_NoiseWithGain+0x82>:
    80ea:	0bd242        	addmi	a4, a2, 0xb00
    80ed:	7d9462        	l16si	a6, a4, 250
    80f0:	350252        	l8ui	a5, a2, 53
    80f3:	70a482        	movi	a8, 0x470
    80f6:	666b           	addi.n	a6, a6, 6
    80f8:	7e5462        	s16i	a6, a4, 252
    80fb:	c59c           	beqz.n	a5, 811b <NR_NoiseWithGain+0xb3>
    80fd:	08d342        	addmi	a4, a3, 0x800
    8100:	fca772        	movi	a7, 0x7fc
    8103:	602284        	ae_lq32f.x	aeq0, a2, a8
    8106:	228a           	add.n	a2, a2, a8
    8108:	4c0404        	ae_lp24.i	aep0, a4, 0
    810b:	337a           	add.n	a3, a3, a7
    810d:	0a8576        	loop	a5, 811b <NR_NoiseWithGain+0xb3>
    8110:	f8e071841f 	{ ae_lp24.iu	aep0, a4, 4; ae_mulrfq32sp24s.l	aeq1, aeq0, aep0 }
    8115:	601214        	ae_lq32f.iu	aeq0, a2, 4
    8118:	625314        	ae_sq32f.iu	aeq1, a3, 4

0000811b <NR_NoiseWithGain+0xb3>:
    811b:	f01d           	retw.n

0000811d <NR_NoiseWithGain+0xb5>:
    811d:	000000                                        ...

00008120 <common_gain_limiter>:
    8120:	004136        	entry	a1, 32
    8123:	025d           	mov.n	a5, a2
    8125:	032d           	mov.n	a2, a3
    8127:	1015a6        	blti	a5, 1, 813b <common_gain_limiter+0x1b>
    812a:	378444        	ae_truncp24a32x2	aep0, a4, a4
    812d:	401204        	ae_lp16f.i	aep1, a2, 0
    8130:	078576        	loop	a5, 813b <common_gain_limiter+0x1b>
    8133:	d9222c922f 	{ ae_lp16f.iu	aep1, a2, 4; ae_maxp24s	aep2, aep0, aep1 }
    8138:	5222f4        	ae_sp24f.l.i	aep2, a2, -4

0000813b <common_gain_limiter+0x1b>:
    813b:	f01d           	retw.n

0000813d <common_gain_limiter+0x1d>:
    813d:	000000                                        ...

00008140 <Mel_filter>:
    8140:	004136        	entry	a1, 32
    8143:	fc24a0137e 	{ l16si	a7, a3, 2; ae_zeroq56	aeq0 }
    8148:	239d           	ae_l16si.n	a9, a3, 0
    814a:	fd044fe22e 	{ addi	a2, a2, -2; ae_movq56	aeq1, aeq0 }
    814f:	fcc482        	addi	a8, a4, -4
    8152:	c0a790        	sub	a10, a7, a9
    8155:	fcc552        	addi	a5, a5, -4
    8158:	085a16        	beqz	a10, 81e1 <Mel_filter+0xa1>
    815b:	408214        	ae_lp16f.iu	aep0, a2, 2
    815e:	111aa6        	blti	a10, 1, 8173 <Mel_filter+0x33>
    8161:	509814        	ae_lp24f.iu	aep1, a8, 4
    8164:	f03d           	nop.n
    8166:	098a76        	loop	a10, 8173 <Mel_filter+0x33>
    8169:	cd402c821f 	{ ae_lp16f.iu	aep0, a2, 2; ae_sraip24	aep2, aep0, 8 }
    816e:	e22a6e981f 	{ ae_lp24f.iu	aep1, a8, 4; ae_mulafp24s.hh	aeq1, aep2, aep1 }

00008173 <Mel_filter+0x33>:
    8173:	fd4c6023ae 	{ l16si	a10, a3, 4; ae_roundsq32sym	aeq1, aeq1 }
    8178:	f87c           	movi.n	a8, -1
    817a:	30b980        	xor	a11, a9, a8
    817d:	8aba           	add.n	a8, a10, a11
    817f:	625514        	ae_sq32f.iu	aeq1, a5, 4
    8182:	1418a6        	blti	a8, 1, 819a <Mel_filter+0x5a>
    8185:	a08940        	addx4	a8, a9, a4
    8188:	fbaa           	add.n	a15, a11, a10
    818a:	509804        	ae_lp24f.iu	aep1, a8, 0
    818d:	098f76        	loop	a15, 819a <Mel_filter+0x5a>
    8190:	cd402c821f 	{ ae_lp16f.iu	aep0, a2, 2; ae_sraip24	aep2, aep0, 8 }
    8195:	e22a2e981f 	{ ae_lp24f.iu	aep1, a8, 4; ae_mulafp24s.hh	aeq0, aep2, aep1 }
    819a:	060834        	ae_roundsq32sym	aeq0, aeq0
    819d:	624514        	ae_sq32f.iu	aeq0, a5, 4
    81a0:	6736a6        	blti	a6, 3, 820b <Mel_filter+0xcb>

000081a3 <Mel_filter+0x63>:
    81a3:	334b           	addi.n	a3, a3, 4
    81a5:	fc248fd66e 	{ addi	a6, a6, -3; ae_zeroq56	aeq0 }
    81aa:	338d           	ae_l16si.n	a8, a3, 2
    81ac:	c08870        	sub	a8, a8, a7
    81af:	1728a6        	blti	a8, 2, 81ca <Mel_filter+0x8a>
    81b2:	a07740        	addx4	a7, a7, a4
    81b5:	880b           	addi.n	a8, a8, -1
    81b7:	509704        	ae_lp24f.iu	aep1, a7, 0
    81ba:	0020f0        	nop
    81bd:	098876        	loop	a8, 81ca <Mel_filter+0x8a>
    81c0:	cd402c821f 	{ ae_lp16f.iu	aep0, a2, 2; ae_sraip24	aep2, aep0, 8 }
    81c5:	e22a2e971f 	{ ae_lp24f.iu	aep1, a7, 4; ae_mulafp24s.hh	aeq0, aep2, aep1 }

000081ca <Mel_filter+0x8a>:
    81ca:	060834        	ae_roundsq32sym	aeq0, aeq0
    81cd:	fc24b9c51f 	{ ae_sq32f.iu	aeq0, a5, 4; ae_zeroq56	aeq0 }
    81d2:	56bc           	beqz.n	a6, 820b <Mel_filter+0xcb>
    81d4:	237d           	ae_l16si.n	a7, a3, 0
    81d6:	332b           	addi.n	a3, a3, 2
    81d8:	660b           	addi.n	a6, a6, -1
    81da:	fff306        	j	81aa <Mel_filter+0x6a>

000081dd <Mel_filter+0x9d>:
    81dd:	00000000                                ....

000081e1 <Mel_filter+0xa1>:
    81e1:	0293a2        	l16si	a10, a3, 4
    81e4:	624514        	ae_sq32f.iu	aeq0, a5, 4
    81e7:	c09a90        	sub	a9, a10, a9
    81ea:	799c           	beqz.n	a9, 8205 <Mel_filter+0xc5>
    81ec:	408214        	ae_lp16f.iu	aep0, a2, 2
    81ef:	a719a6        	blti	a9, 1, 819a <Mel_filter+0x5a>
    81f2:	509814        	ae_lp24f.iu	aep1, a8, 4
    81f5:	098976        	loop	a9, 8202 <Mel_filter+0xc2>
    81f8:	cd402c821f 	{ ae_lp16f.iu	aep0, a2, 2; ae_sraip24	aep2, aep0, 8 }
    81fd:	e22a2e981f 	{ ae_lp24f.iu	aep1, a8, 4; ae_mulafp24s.hh	aeq0, aep2, aep1 }

00008202 <Mel_filter+0xc2>:
    8202:	ffe506        	j	819a <Mel_filter+0x5a>

00008205 <Mel_filter+0xc5>:
    8205:	624514        	ae_sq32f.iu	aeq0, a5, 4
    8208:	9736e6        	bgei	a6, 3, 81a3 <Mel_filter+0x63>
    820b:	f01d           	retw.n

0000820d <Mel_filter+0xcd>:
    820d:	000000                                        ...

00008210 <Mel_filter_inv>:
    8210:	006136        	entry	a1, 48
    8213:	538d           	ae_l16ui.n	a8, a3, 2
    8215:	439d           	ae_l16ui.n	a9, a3, 0
    8217:	3129           	s32i.n	a2, a1, 12
    8219:	fcc662        	addi	a6, a6, -4
    821c:	fec442        	addi	a4, a4, -2
    821f:	171897        	beq	a8, a9, 823a <Mel_filter_inv+0x2a>
    8222:	058d           	mov.n	a8, a5
    8224:	601804        	ae_lq32f.iu	aeq0, a8, 0
    8227:	408414        	ae_lp16f.iu	aep0, a4, 2
    822a:	f80000088f 	{ movi	a8, 8; ae_mulfq32sp24s.h	aeq0, aeq0, aep0 }
    822f:	fc24fe880f 	{ ae_slaasq56s	aeq0, aeq0, a8; nop }
    8234:	1b8c74        	ae_roundsp24q48sym	aep7, aeq0
    8237:	52f614        	ae_sp24f.l.iu	aep7, a6, 4

0000823a <Mel_filter_inv+0x2a>:
    823a:	0217e6        	bgei	a7, 1, 8240 <Mel_filter_inv+0x30>
    823d:	002746        	j	82de <Mel_filter_inv+0xce>
    8240:	fd2081009f 	{ movi	a9, 0x100; ae_zerop48	aep2 }
    8245:	e022a1        	l32r	a10, 2d0 (7fff00 <_end+0x7f3b20>)
    8248:	398994        	ae_movpa24x2	aep0, a9, a9
    824b:	399aa4        	ae_movpa24x2	aep1, a10, a10
    824e:	fec382        	addi	a8, a3, -2
    8251:	b54b           	addi.n	a11, a5, 4
    8253:	0c0c           	movi.n	a12, 0
    8255:	890c           	movi.n	a9, 8
    8257:	1a0c           	movi.n	a10, 1
    8259:	40b824        	ae_lp16f.iu	aep3, a8, 4
    825c:	40c8f4        	ae_lp16f.iu	aep4, a8, -2
    825f:	dd8ec000df 	{ movi	a13, 0; ae_subsp24s	aep3, aep3, aep4 }
    8264:	d24c00002f 	{ movi	a2, 0; ae_eqp24	b0:b1, aep3, aep2 }
    8269:	d20c16da0f 	{ movt	a13, a10, b0; ae_eqp24	b0:b1, aep3, aep0 }
    826e:	04dd56        	bnez	a13, 82bf <Mel_filter_inv+0xaf>
    8271:	d32a00        	movt	a2, a10, b0
    8274:	047256        	bnez	a2, 82bf <Mel_filter_inv+0xaf>
    8277:	33ed           	ae_l16si.n	a14, a3, 2
    8279:	23fd           	ae_l16si.n	a15, a3, 0
    827b:	f27c           	movi.n	a2, -1
    827d:	de0b           	addi.n	a13, a14, -1
    827f:	3cafd7        	bge	a15, a13, 82bf <Mel_filter_inv+0xaf>
    8282:	30ff20        	xor	a15, a15, a2
    8285:	3128           	l32i.n	a2, a1, 12
    8287:	5cea           	add.n	a5, a12, a14
    8289:	f8cbd2        	addi	a13, a11, -8
    828c:	902c20        	addx2	a2, a12, a2
    828f:	cf5a           	add.n	a12, a15, a5
    8291:	ffea           	add.n	a15, a15, a14
    8293:	fec2e2        	addi	a14, a2, -2
    8296:	258f76        	loop	a15, 82bf <Mel_filter_inv+0xaf>
    8299:	0d2d           	mov.n	a2, a13
    829b:	601224        	ae_lq32f.iu	aeq0, a2, 8
    829e:	40be14        	ae_lp16f.iu	aep3, a14, 2
    82a1:	de66bd32ff 	{ ae_lq32f.iu	aeq1, a2, -4; ae_subsp24s	aep4, aep1, aep3 }
    82a6:	f8702ce41f 	{ ae_lp16f.iu	aep6, a4, 2; ae_mulrfq32sp24s.h	aeq0, aeq0, aep4 }
    82ab:	083c54        	ae_mulrfq32sp24s.h	aeq1, aeq1, aep3
    82ae:	061804        	ae_addsq56s	aeq0, aeq1, aeq0
    82b1:	086424        	ae_mulfq32sp24s.h	aeq0, aeq0, aep6
    82b4:	fc24fe890f 	{ ae_slaasq56s	aeq0, aeq0, a9; nop }
    82b9:	1b8c74        	ae_roundsp24q48sym	aep7, aeq0
    82bc:	52f614        	ae_sp24f.l.iu	aep7, a6, 4

000082bf <Mel_filter_inv+0xaf>:
    82bf:	2b4b           	addi.n	a2, a11, 4
    82c1:	601b04        	ae_lq32f.iu	aeq0, a11, 0
    82c4:	40b414        	ae_lp16f.iu	aep3, a4, 2
    82c7:	f80c0ff77e 	{ addi	a7, a7, -1; ae_mulfq32sp24s.h	aeq0, aeq0, aep3 }
    82cc:	332b           	addi.n	a3, a3, 2
    82ce:	fc24fe890f 	{ ae_slaasq56s	aeq0, aeq0, a9; nop }
    82d3:	fbe7d3b22f 	{ or	a11, a2, a2; ae_roundsp24q48sym	aep7, aeq0 }
    82d8:	52f614        	ae_sp24f.l.iu	aep7, a6, 4
    82db:	f7a756        	bnez	a7, 8259 <Mel_filter_inv+0x49>

000082de <Mel_filter_inv+0xce>:
    82de:	f01d           	retw.n

000082e0 <NR_WienerFilter>:
    82e0:	008136        	entry	a1, 64
    82e3:	0bd272        	addmi	a7, a2, 0xb00
    82e6:	0ad262        	addmi	a6, a2, 0xa00
    82e9:	7179           	s32i.n	a7, a1, 28
    82eb:	7c1772        	l16ui	a7, a7, 248
    82ee:	ff9682        	l16si	a8, a6, 0x1fe
    82f1:	02a8           	l32i.n	a10, a2, 0
    82f3:	fe9692        	l16si	a9, a6, 0x1fc
    82f6:	0bd2b2        	addmi	a11, a2, 0xb00
    82f9:	87dd           	ae_sext16	a13, a7
    82fb:	05a132        	movi	a3, 0x105
    82fe:	5348d0        	max	a4, a8, a13
    8301:	1133d0        	slli	a3, a3, 3
    8304:	4169           	s32i.n	a6, a1, 16
    8306:	53e490        	max	a14, a4, a9
    8309:	726490        	salt	a6, a4, a9
    830c:	4acb           	addi.n	a4, a10, 12
    830e:	523a           	add.n	a5, a2, a3
    8310:	1212c2        	l16ui	a12, a2, 36
    8313:	51d9           	s32i.n	a13, a1, 20
    8315:	350292        	l8ui	a9, a2, 53
    8318:	04fd           	mov.n	a15, a4
    831a:	72dd80        	salt	a13, a13, a8
    831d:	31c9           	s32i.n	a12, a1, 12
    831f:	08dac2        	addmi	a12, a10, 0x800
    8322:	93f5d0        	movnez	a15, a5, a13
    8325:	9e3d           	ae_zext16	a3, a14
    8327:	93fc60        	movnez	a15, a12, a6
    832a:	6189           	s32i.n	a8, a1, 24
    832c:	221377        	beq	a3, a7, 8352 <NR_WienerFilter+0x72>
    832f:	6188           	l32i.n	a8, a1, 24
    8331:	d99c           	beqz.n	a9, 8352 <NR_WienerFilter+0x72>
    8333:	5168           	l32i.n	a6, a1, 20
    8335:	c06e60        	sub	a6, a14, a6
    8338:	a34f60        	movltz	a4, a15, a6
    833b:	608160        	abs	a8, a6
    833e:	fcc442        	addi	a4, a4, -4
    8341:	088976        	loop	a9, 834d <NR_WienerFilter+0x6d>
    8344:	601414        	ae_lq32f.iu	aeq0, a4, 4
    8347:	3408a4        	ae_srlaq56	aeq0, aeq0, a8
    834a:	620404        	ae_sq32f.i	aeq0, a4, 0

0000834d <NR_WienerFilter+0x6d>:
    834d:	4148           	l32i.n	a4, a1, 16
    834f:	ff1482        	l16ui	a8, a4, 0x1fe

00008352 <NR_WienerFilter+0x72>:
    8352:	984d           	ae_zext16	a4, a8
    8354:	1d1347        	beq	a3, a4, 8375 <NR_WienerFilter+0x95>
    8357:	a99c           	beqz.n	a9, 8375 <NR_WienerFilter+0x95>
    8359:	884d           	ae_sext16	a4, a8
    835b:	c07e40        	sub	a7, a14, a4
    835e:	056d           	mov.n	a6, a5
    8360:	a36f70        	movltz	a6, a15, a7
    8363:	604170        	abs	a4, a7
    8366:	fcc682        	addi	a8, a6, -4
    8369:	088976        	loop	a9, 8375 <NR_WienerFilter+0x95>
    836c:	601814        	ae_lq32f.iu	aeq0, a8, 4
    836f:	3404a4        	ae_srlaq56	aeq0, aeq0, a4
    8372:	620804        	ae_sq32f.i	aeq0, a8, 0

00008375 <NR_WienerFilter+0x95>:
    8375:	7e1b42        	l16ui	a4, a11, 252
    8378:	1d1347        	beq	a3, a4, 8399 <NR_WienerFilter+0xb9>
    837b:	a99c           	beqz.n	a9, 8399 <NR_WienerFilter+0xb9>
    837d:	843d           	ae_sext16	a3, a4
    837f:	c04e30        	sub	a4, a14, a3
    8382:	b3fc40        	movgez	a15, a12, a4
    8385:	603140        	abs	a3, a4
    8388:	fccf42        	addi	a4, a15, -4
    838b:	f03d           	nop.n
    838d:	088976        	loop	a9, 8399 <NR_WienerFilter+0xb9>
    8390:	601414        	ae_lq32f.iu	aeq0, a4, 4
    8393:	3403a4        	ae_srlaq56	aeq0, aeq0, a3
    8396:	620404        	ae_sq32f.i	aeq0, a4, 0
    8399:	7138           	l32i.n	a3, a1, 28
    839b:	41f8           	l32i.n	a15, a1, 16
    839d:	05a172        	movi	a7, 0x105
    83a0:	7e5be2        	s16i	a14, a11, 252
    83a3:	7c53e2        	s16i	a14, a3, 248
    83a6:	ff5fe2        	s16i	a14, a15, 0x1fe
    83a9:	aa8b           	addi.n	a10, a10, 8
    83ab:	22c2b2        	addi	a11, a2, 34
    83ae:	1177d0        	slli	a7, a7, 3
    83b1:	116916        	beqz	a9, 84cb <NR_WienerFilter+0x1eb>
    83b4:	fda232        	movi	a3, 0x2fd
    83b7:	ffa0d2        	movi	a13, 255
    83ba:	1133e0        	slli	a3, a3, 2
    83bd:	1f0c           	movi.n	a15, 1
    83bf:	0b6d           	mov.n	a6, a11
    83c1:	11bf10        	slli	a11, a15, 15
    83c4:	600c04        	ae_lq32f.i	aeq0, a12, 0
    83c7:	606274        	ae_lq32f.x	aeq1, a2, a7
    83ca:	7fddd2        	addmi	a13, a13, 0x7f00
    83cd:	0afd           	mov.n	a15, a10
    83cf:	f96a1b023f 	{ ae_lp16x2f.x	aep0, a2, a3; ae_addq56	aeq1, aeq1, aeq0 }
    83d4:	058d           	mov.n	a8, a5
    83d6:	3a8976        	loop	a9, 8414 <NR_WienerFilter+0x134>
    83d9:	609f14        	ae_lq32f.iu	aeq2, a15, 4
    83dc:	0e00ff03af 	{ ae_nsaq56s	a3, aeq0; ae_mulzaafq32sp16s.lh	aeq1, aeq2, aep0, aeq1, aep0 }
    83e1:	365404        	ae_nsaq56s	a4, aeq1
    83e4:	434340        	min	a4, a3, a4
    83e7:	e9c432        	addi	a3, a4, -23
    83ea:	fc24fe934f 	{ ae_slaasq56s	aeq1, aeq1, a3; nop }
    83ef:	369e04        	ae_trunca32q48	a14, aeq1
    83f2:	0b3d           	mov.n	a3, a11
    83f4:	ae8c           	beqz.n	a14, 8402 <NR_WienerFilter+0x122>
    83f6:	38c432        	addi	a3, a4, 56
    83f9:	340394        	ae_sllaq56	aeq0, aeq0, a3
    83fc:	368304        	ae_trunca32q48	a3, aeq0
    83ff:	d233e0        	quos	a3, a3, a14

00008402 <NR_WienerFilter+0x122>:
    8402:	084d           	mov.n	a4, a8
    8404:	c03d30        	sub	a3, a13, a3
    8407:	605414        	ae_lq32f.iu	aeq1, a4, 4
    840a:	601c14        	ae_lq32f.iu	aeq0, a12, 4
    840d:	f96a14083f 	{ s32i.n	a3, a8, 0; ae_addq56	aeq1, aeq1, aeq0 }
    8412:	048d           	mov.n	a8, a4

00008414 <NR_WienerFilter+0x134>:
    8414:	79a032        	movi	a3, 121
    8417:	02b937        	bgeu	a9, a3, 841d <NR_WienerFilter+0x13d>
    841a:	002e06        	j	84d6 <NR_WienerFilter+0x1f6>
    841d:	15d232        	addmi	a3, a2, 0x1500
    8420:	049382        	l16si	a8, a3, 8
    8423:	05dd           	mov.n	a13, a5
    8425:	20b660        	or	a11, a6, a6
    8428:	2718a6        	blti	a8, 1, 8453 <NR_WienerFilter+0x173>
    842b:	41a542        	movi	a4, 0x541
    842e:	1144e0        	slli	a4, a4, 2
    8431:	400b04        	ae_lp16f.i	aep0, a11, 0
    8434:	602244        	ae_lq32f.x	aeq0, a2, a4
    8437:	d4e219927f 	{ ae_lp16f.x	aep1, a2, a7; ae_mulfq32sp16s.l	aeq0, aeq0, aep0 }
    843c:	20d550        	or	a13, a5, a5
    843f:	368f04        	ae_trunca32q48	a15, aeq0
    8442:	378ff4        	ae_truncp24a32x2	aep0, a15, a15
    8445:	078876        	loop	a8, 8450 <NR_WienerFilter+0x170>
    8448:	d9222c9d2f 	{ ae_lp16f.iu	aep1, a13, 4; ae_maxp24s	aep2, aep0, aep1 }
    844d:	522df4        	ae_sp24f.l.i	aep2, a13, -4
    8450:	049382        	l16si	a8, a3, 8

00008453 <NR_WienerFilter+0x173>:
    8453:	15d232        	addmi	a3, a2, 0x1500
    8456:	119242        	l16si	a4, a2, 34
    8459:	0593c2        	l16si	a12, a3, 10
    845c:	116400        	slli	a6, a4, 16
    845f:	c04c80        	sub	a4, a12, a8
    8462:	378664        	ae_truncp24a32x2	aep0, a6, a6
    8465:	1214a6        	blti	a4, 1, 847b <NR_WienerFilter+0x19b>
    8468:	401d04        	ae_lp16f.i	aep1, a13, 0
    846b:	f03d           	nop.n
    846d:	078476        	loop	a4, 8478 <NR_WienerFilter+0x198>
    8470:	d9222c9d2f 	{ ae_lp16f.iu	aep1, a13, 4; ae_maxp24s	aep2, aep0, aep1 }
    8475:	522df4        	ae_sp24f.l.i	aep2, a13, -4

00008478 <NR_WienerFilter+0x198>:
    8478:	0593c2        	l16si	a12, a3, 10

0000847b <NR_WienerFilter+0x19b>:
    847b:	df0881        	l32r	a8, 9c (be40 <wb_sb_ptn>)
    847e:	15d232        	addmi	a3, a2, 0x1500
    8481:	600304        	ae_lq32f.i	aeq0, a3, 0
    8484:	d4e220884e 	{ l16si	a4, a8, 16; ae_mulfq32sp16s.l	aeq0, aeq0, aep0 }
    8489:	368604        	ae_trunca32q48	a6, aeq0
    848c:	c0c4c0        	sub	a12, a4, a12
    848f:	378664        	ae_truncp24a32x2	aep0, a6, a6
    8492:	101ca6        	blti	a12, 1, 84a6 <NR_WienerFilter+0x1c6>
    8495:	401d04        	ae_lp16f.i	aep1, a13, 0
    8498:	078c76        	loop	a12, 84a3 <NR_WienerFilter+0x1c3>
    849b:	d9222c9d2f 	{ ae_lp16f.iu	aep1, a13, 4; ae_maxp24s	aep2, aep0, aep1 }
    84a0:	522df4        	ae_sp24f.l.i	aep2, a13, -4

000084a3 <NR_WienerFilter+0x1c3>:
    84a3:	089842        	l16si	a4, a8, 16

000084a6 <NR_WienerFilter+0x1c6>:
    84a6:	501304        	ae_lp24f.i	aep1, a3, 0
    84a9:	ea21b0316e 	{ l32i	a6, a1, 12; ae_mulfp24s.ll	aeq0, aep0, aep1 }
    84ae:	c03940        	sub	a3, a9, a4
    84b1:	368c04        	ae_trunca32q48	a12, aeq0
    84b4:	3a13a6        	blti	a3, 1, 84f2 <NR_WienerFilter+0x212>
    84b7:	378cc4        	ae_truncp24a32x2	aep0, a12, a12
    84ba:	401d04        	ae_lp16f.i	aep1, a13, 0
    84bd:	078376        	loop	a3, 84c8 <NR_WienerFilter+0x1e8>
    84c0:	d9222c9d2f 	{ ae_lp16f.iu	aep1, a13, 4; ae_maxp24s	aep2, aep0, aep1 }
    84c5:	522df4        	ae_sp24f.l.i	aep2, a13, -4

000084c8 <NR_WienerFilter+0x1e8>:
    84c8:	000986        	j	84f2 <NR_WienerFilter+0x212>

000084cb <NR_WienerFilter+0x1eb>:
    84cb:	119232        	l16si	a3, a2, 34
    84ce:	3168           	l32i.n	a6, a1, 12
    84d0:	11c300        	slli	a12, a3, 16
    84d3:	0006c6        	j	84f2 <NR_WienerFilter+0x212>

000084d6 <NR_WienerFilter+0x1f6>:
    84d6:	263d           	ae_l16si.n	a3, a6, 0
    84d8:	06bd           	mov.n	a11, a6
    84da:	3168           	l32i.n	a6, a1, 12
    84dc:	11c300        	slli	a12, a3, 16
    84df:	410274        	ae_lp16f.x	aep0, a2, a7
    84e2:	053d           	mov.n	a3, a5
    84e4:	379cc4        	ae_truncp24a32x2	aep1, a12, a12
    84e7:	078976        	loop	a9, 84f2 <NR_WienerFilter+0x212>
    84ea:	d9062c832f 	{ ae_lp16f.iu	aep0, a3, 4; ae_maxp24s	aep2, aep1, aep0 }
    84ef:	5223f4        	ae_sp24f.l.i	aep2, a3, -4

000084f2 <NR_WienerFilter+0x212>:
    84f2:	15d232        	addmi	a3, a2, 0x1500
    84f5:	400b04        	ae_lp16f.i	aep0, a11, 0
    84f8:	600314        	ae_lq32f.i	aeq0, a3, 4
    84fb:	d4e23002fe 	{ l32i	a15, a2, 0; ae_mulfq32sp16s.l	aeq0, aeq0, aep0 }
    8500:	f8e780003f 	{ movi	a3, 0; ae_roundsp24q48sym	aep0, aeq0 }
    8505:	fccfb2        	addi	a11, a15, -4
    8508:	528b14        	ae_sp24f.l.iu	aep0, a11, 4
    850b:	528b14        	ae_sp24f.l.iu	aep0, a11, 4
    850e:	528b14        	ae_sp24f.l.iu	aep0, a11, 4
    8511:	08b916        	beqz	a9, 85a0 <NR_WienerFilter+0x2c0>
    8514:	510274        	ae_lp24f.x	aep0, a2, a7
    8517:	178976        	loop	a9, 8532 <NR_WienerFilter+0x252>
    851a:	601a14        	ae_lq32f.iu	aeq0, a10, 4
    851d:	080524        	ae_mulfq32sp24s.l	aeq0, aeq0, aep0
    8520:	080514        	ae_mulrfq32sp24s.l	aeq0, aeq0, aep0
    8523:	368404        	ae_trunca32q48	a4, aeq0
    8526:	620504        	ae_sq32f.i	aeq0, a5, 0
    8529:	528b14        	ae_sp24f.l.iu	aep0, a11, 4
    852c:	508514        	ae_lp24f.iu	aep0, a5, 4
    852f:	533340        	max	a3, a3, a4
    8532:	6148           	l32i.n	a4, a1, 24
    8534:	5158           	l32i.n	a5, a1, 20
    8536:	4188           	l32i.n	a8, a1, 16
    8538:	1ea547        	bge	a5, a4, 855a <NR_WienerFilter+0x27a>
    853b:	40e340        	nsa	a4, a3
    853e:	ff9852        	l16si	a5, a8, 0x1fe
    8541:	c03540        	sub	a3, a5, a4
    8544:	ff5832        	s16i	a3, a8, 0x1fe
    8547:	f98c           	beqz.n	a9, 855a <NR_WienerFilter+0x27a>
    8549:	327a           	add.n	a3, a2, a7
    854b:	401400        	ssl	a4
    854e:	088976        	loop	a9, 855a <NR_WienerFilter+0x27a>
    8551:	0348           	l32i.n	a4, a3, 0
    8553:	a14400        	sll	a4, a4
    8556:	0349           	s32i.n	a4, a3, 0
    8558:	334b           	addi.n	a3, a3, 4
    855a:	340232        	l8ui	a3, a2, 52
    855d:	f40c           	movi.n	a4, 15
    855f:	550c           	movi.n	a5, 5
    8561:	413330        	srli	a3, a3, 3
    8564:	935430        	movnez	a5, a4, a3
    8567:	378cc4        	ae_truncp24a32x2	aep0, a12, a12
    856a:	028576        	loop	a5, 8570 <NR_WienerFilter+0x290>
    856d:	528b14        	ae_sp24f.l.iu	aep0, a11, 4

00008570 <NR_WienerFilter+0x290>:
    8570:	0238           	l32i.n	a3, a2, 0
    8572:	3da552        	movi	a5, 0x53d
    8575:	14d272        	addmi	a7, a2, 0x1400
    8578:	04d342        	addmi	a4, a3, 0x400
    857b:	263626        	beqi	a6, 3, 85a5 <NR_WienerFilter+0x2c5>
    857e:	452626        	beqi	a6, 2, 85c7 <NR_WienerFilter+0x2e7>
    8581:	761666        	bnei	a6, 1, 85fb <NR_WienerFilter+0x31b>
    8584:	1165e0        	slli	a6, a5, 2
    8587:	3f27a2        	l32i	a10, a7, 252
    858a:	526a           	add.n	a5, a2, a6
    858c:	3d27b2        	l32i	a11, a7, 244
    858f:	df9861        	l32r	a6, 3f0 (8140 <Mel_filter>)
    8592:	2e4c           	movi.n	a14, 66
    8594:	03cd           	mov.n	a12, a3
    8596:	04dd           	mov.n	a13, a4
    8598:	0006e0        	callx8	a6
    859b:	1f4c           	movi.n	a15, 65
    859d:	001146        	j	85e6 <NR_WienerFilter+0x306>

000085a0 <NR_WienerFilter+0x2c0>:
    85a0:	030c           	movi.n	a3, 0
    85a2:	ffe306        	j	8532 <NR_WienerFilter+0x252>

000085a5 <NR_WienerFilter+0x2c5>:
    85a5:	3da562        	movi	a6, 0x53d
    85a8:	14d272        	addmi	a7, a2, 0x1400
    85ab:	1166e0        	slli	a6, a6, 2
    85ae:	3f27a2        	l32i	a10, a7, 252
    85b1:	526a           	add.n	a5, a2, a6
    85b3:	3d27b2        	l32i	a11, a7, 244
    85b6:	df8e61        	l32r	a6, 3f0 (8140 <Mel_filter>)
    85b9:	2e1c           	movi.n	a14, 18
    85bb:	03cd           	mov.n	a12, a3
    85bd:	04dd           	mov.n	a13, a4
    85bf:	0006e0        	callx8	a6
    85c2:	1f1c           	movi.n	a15, 17
    85c4:	000786        	j	85e6 <NR_WienerFilter+0x306>

000085c7 <NR_WienerFilter+0x2e7>:
    85c7:	3da562        	movi	a6, 0x53d
    85ca:	14d272        	addmi	a7, a2, 0x1400
    85cd:	1166e0        	slli	a6, a6, 2
    85d0:	3f27a2        	l32i	a10, a7, 252
    85d3:	526a           	add.n	a5, a2, a6
    85d5:	3d27b2        	l32i	a11, a7, 244
    85d8:	df8661        	l32r	a6, 3f0 (8140 <Mel_filter>)
    85db:	2e2c           	movi.n	a14, 34
    85dd:	03cd           	mov.n	a12, a3
    85df:	04dd           	mov.n	a13, a4
    85e1:	0006e0        	callx8	a6
    85e4:	1f2c           	movi.n	a15, 33
    85e6:	14d262        	addmi	a6, a2, 0x1400
    85e9:	05b8           	l32i.n	a11, a5, 0
    85eb:	3c26c2        	l32i	a12, a6, 240
    85ee:	3e26a2        	l32i	a10, a6, 248
    85f1:	df8051        	l32r	a5, 3f4 (8210 <Mel_filter_inv>)
    85f4:	04dd           	mov.n	a13, a4
    85f6:	03ed           	mov.n	a14, a3
    85f8:	0005e0        	callx8	a5
    85fb:	334c           	movi.n	a3, 67
    85fd:	340242        	l8ui	a4, a2, 52
    8600:	1133a0        	slli	a3, a3, 6
    8603:	0278           	l32i.n	a7, a2, 0
    8605:	14d2f2        	addmi	a15, a2, 0x1400
    8608:	410234        	ae_lp16f.x	aep0, a2, a3
    860b:	323a           	add.n	a3, a2, a3
    860d:	382f22        	l32i	a2, a15, 224
    8610:	418340        	srli	a8, a4, 3
    8613:	00a152        	movi	a5, 0x100
    8616:	80a062        	movi	a6, 128
    8619:	fcc742        	addi	a4, a7, -4
    861c:	936580        	movnez	a6, a5, a8
    861f:	5c2204        	ae_lp24x2f.i	aep2, a2, 0
    8622:	509414        	ae_lp24f.iu	aep1, a4, 4
    8625:	178676        	loop	a6, 8640 <NR_WienerFilter+0x360>
    8628:	012054        	ae_mulfp24s.hl	aeq0, aep2, aep0
    862b:	ea09efa21f 	{ ae_lp24x2f.iu	aep2, a2, 8; ae_mulfp24s.ll	aeq1, aep2, aep0 }
    8630:	f8e42c831f 	{ ae_lp16f.iu	aep0, a3, 2; ae_mulrfq32sp24s.l	aeq0, aeq0, aep1 }
    8635:	f8e56e941f 	{ ae_lp24f.iu	aep1, a4, 4; ae_mulrfq32sp24s.l	aeq1, aeq1, aep1 }
    863a:	6202e4        	ae_sq32f.i	aeq0, a2, -8
    863d:	6212f4        	ae_sq32f.i	aeq1, a2, -4

00008640 <NR_WienerFilter+0x360>:
    8640:	f01d           	retw.n

00008642 <NR_WienerFilter+0x362>:
	...

00008644 <ifft_wo>:
    8644:	006136        	entry	a1, 48
    8647:	340272        	l8ui	a7, a2, 52
    864a:	14d262        	addmi	a6, a2, 0x1400
    864d:	0258           	l32i.n	a5, a2, 0
    864f:	1612a2        	l16ui	a10, a2, 44
    8652:	df5bc1        	l32r	a12, 3c0 (bb20 <NR_immediate_num>)
    8655:	382682        	l32i	a8, a6, 224
    8658:	df3691        	l32r	a9, 330 (b5b0 <fftorder_512_12b>)
    865b:	0d0c           	movi.n	a13, 0
    865d:	00a2e2        	movi	a14, 0x200
    8660:	00a162        	movi	a6, 0x100
    8663:	417370        	srli	a7, a7, 3
    8666:	936e70        	movnez	a6, a14, a7
    8669:	1f0c           	movi.n	a15, 1
    866b:	15d9           	s32i.n	a13, a5, 4
    866d:	05d9           	s32i.n	a13, a5, 0
    866f:	2d0c           	movi.n	a13, 2
    8671:	8aed           	ae_sext16	a14, a10
    8673:	93df70        	movnez	a13, a15, a7
    8676:	f0a0b2        	movi	a11, 240
    8679:	440c04        	ae_lp16x2f.i	aep0, a12, 0
    867c:	441c14        	ae_lp16x2f.i	aep1, a12, 4
    867f:	c92b           	addi.n	a12, a9, 2
    8681:	994b           	addi.n	a9, a9, 4
    8683:	443404        	ae_lp16x2f.i	aep3, a4, 0
    8686:	5c2804        	ae_lp24x2f.i	aep2, a8, 0
    8689:	78a0f2        	movi	a15, 120
    868c:	007e96        	bltz	a14, 8697 <ifft_wo+0x53>
    868f:	1692e2        	l16si	a14, a2, 44
    8692:	0a0c           	movi.n	a10, 0
    8694:	000106        	j	869c <ifft_wo+0x58>

00008697 <ifft_wo+0x53>:
    8697:	60a0a0        	neg	a10, a10
    869a:	0e0c           	movi.n	a14, 0
    869c:	0316a4        	wur.ae_sar	a10
    869f:	939c70        	movnez	a9, a12, a7
    86a2:	41c160        	srli	a12, a6, 1
    86a5:	93fb70        	movnez	a15, a11, a7
    86a8:	f9afd3b44f 	{ or	a11, a4, a4; ae_srasp24	aep3, aep3 }
    86ad:	11adf0        	slli	a10, a13, 1
    86b0:	1b8c76        	loop	a12, 86cf <ifft_wo+0x8b>
    86b3:	df69be2b1f 	{ ae_selp24.hl	aep4, aep2, aep3; ae_selp24.lh	aep6, aep2, aep3 }
    86b8:	f012a009de 	{ l16si	a13, a9, 0; ae_mulzaafp24s.hh.ll	aeq0, aep4, aep0 }
    86bd:	f03aedfb1f 	{ ae_lp16x2f.iu	aep7, a11, 4; ae_mulzaafp24s.hh.ll	aeq1, aep6, aep1 }
    86c2:	f9bfefa81f 	{ ae_lp24x2f.iu	aep2, a8, 8; ae_srasp24	aep3, aep7 }
    86c7:	fa461099af 	{ add	a9, a9, a10; ae_truncp24q48x2	aep4, aeq0, aeq1 }
    86cc:	5f45d4        	ae_sp24x2f.x	aep4, a5, a13

000086cf <ifft_wo+0x8b>:
    86cf:	fc386dbbef 	{ ae_lp16x2f.iu	aep3, a11, -8; ae_negsp24s	aep1, aep1 }
    86d4:	cc0b           	addi.n	a12, a12, -1
    86d6:	f9afefa8ef 	{ ae_lp24x2f.iu	aep2, a8, -16; ae_srasp24	aep3, aep3 }
    86db:	21f9           	s32i.n	a15, a1, 8
    86dd:	31e9           	s32i.n	a14, a1, 12
    86df:	1b8c76        	loop	a12, 86fe <ifft_wo+0xba>
    86e2:	df69be2b1f 	{ ae_selp24.hl	aep4, aep2, aep3; ae_selp24.lh	aep6, aep2, aep3 }
    86e7:	f032a009ce 	{ l16si	a12, a9, 0; ae_mulzaafp24s.hh.ll	aeq0, aep4, aep1 }
    86ec:	f01aedfbff 	{ ae_lp16x2f.iu	aep7, a11, -4; ae_mulzaafp24s.hh.ll	aeq1, aep6, aep0 }
    86f1:	f9bfefa8ff 	{ ae_lp24x2f.iu	aep2, a8, -8; ae_srasp24	aep3, aep7 }
    86f6:	fa461099af 	{ add	a9, a9, a10; ae_truncp24q48x2	aep4, aeq0, aeq1 }
    86fb:	5f45c4        	ae_sp24x2f.x	aep4, a5, a12
    86fe:	df0d81        	l32r	a8, 334 (926c <sw_fft_32b_2811>)
    8701:	8c0c           	movi.n	a12, 8
    8703:	0d0c           	movi.n	a13, 0
    8705:	1e0c           	movi.n	a14, 1
    8707:	05ad           	mov.n	a10, a5
    8709:	06bd           	mov.n	a11, a6
    870b:	0008e0        	callx8	a8
    870e:	b97c           	movi.n	a9, -5
    8710:	cc7c           	movi.n	a12, -4
    8712:	93c970        	movnez	a12, a9, a7
    8715:	14d2d2        	addmi	a13, a2, 0x1400
    8718:	169282        	l16si	a8, a2, 44
    871b:	10a1b2        	movi	a11, 0x110
    871e:	88a092        	movi	a9, 136
    8721:	939b70        	movnez	a9, a11, a7
    8724:	ffa2b2        	movi	a11, 0x2ff
    8727:	3b2df2        	l32i	a15, a13, 236
    872a:	31e8           	l32i.n	a14, a1, 12
    872c:	117be0        	slli	a7, a11, 2
    872f:	acaa           	add.n	a10, a12, a10
    8731:	d27a           	add.n	a13, a2, a7
    8733:	c07a80        	sub	a7, a10, a8
    8736:	87ea           	add.n	a8, a7, a14
    8738:	fecfe2        	addi	a14, a15, -2
    873b:	90a9f0        	addx2	a10, a9, a15
    873e:	0221f2        	l32i	a15, a1, 8
    8741:	600504        	ae_lq32f.i	aeq0, a5, 0
    8744:	fec3b2        	addi	a11, a3, -2
    8747:	fec4c2        	addi	a12, a4, -2
    874a:	605514        	ae_lq32f.iu	aeq1, a5, 4
    874d:	2e8f76        	loop	a15, 877f <ifft_wo+0x13b>
    8750:	fc24fe870f 	{ ae_slaasq56s	aeq0, aeq0, a7; nop }
    8755:	fc447e984f 	{ ae_slaasq56s	aeq1, aeq1, a8; ae_roundsq32sym	aeq0, aeq0 }
    875a:	fd4c6d8d1f 	{ ae_lp16x2f.iu	aep0, a13, 4; ae_roundsq32sym	aeq1, aeq1 }
    875f:	409af4        	ae_lp16f.iu	aep1, a10, -2
    8762:	eb20acae1f 	{ ae_lp16f.iu	aep2, a14, 2; ae_mulfp24s.hl	aeq2, aep0, aep1 }
    8767:	018974        	ae_mulfp24s.ll	aeq3, aep0, aep1
    876a:	f58abd151f 	{ ae_lq32f.iu	aeq0, a5, 4; ae_mulafq32sp16s.l	aeq2, aeq0, aep2 }
    876f:	f989fd351f 	{ ae_lq32f.iu	aeq1, a5, 4; ae_mulsfq32sp16s.l	aeq3, aeq1, aep2 }
    8774:	1bae64        	ae_roundsp16q48sym	aep6, aeq2
    8777:	fbfbf2eb1f 	{ ae_sp16f.l.iu	aep6, a11, 2; ae_roundsp16q48sym	aep7, aeq3 }
    877c:	42fc14        	ae_sp16f.l.iu	aep7, a12, 2
    877f:	11bff0        	slli	a11, a15, 1
    8782:	c0c6b0        	sub	a12, a6, a11
    8785:	3b1ca6        	blti	a12, 1, 87c4 <ifft_wo+0x180>
    8788:	0cd262        	addmi	a6, a2, 0xc00
    878b:	90bb60        	addx2	a11, a11, a6
    878e:	a0d960        	addx4	a13, a9, a6
    8791:	fccb62        	addi	a6, a11, -4
    8794:	400404        	ae_lp16f.i	aep0, a4, 0
    8797:	401304        	ae_lp16f.i	aep1, a3, 0
    879a:	fccdb2        	addi	a11, a13, -4
    879d:	238c76        	loop	a12, 87c4 <ifft_wo+0x180>
    87a0:	fc2c2caaff 	{ ae_lp16f.iu	aep2, a10, -2; ae_cvtq48p24s.l	aeq0, aep1 }
    87a5:	fd0c2dbb1f 	{ ae_lp16x2f.iu	aep3, a11, 4; ae_cvtq48p24s.l	aeq1, aep0 }
    87aa:	e24f2dc61f 	{ ae_lp16x2f.iu	aep4, a6, 4; ae_mulafp24s.hl	aeq0, aep3, aep2 }
    87af:	e24fec931f 	{ ae_lp16f.iu	aep1, a3, 2; ae_mulafp24s.ll	aeq1, aep3, aep2 }
    87b4:	fbe3ec841f 	{ ae_lp16f.iu	aep0, a4, 2; ae_roundsp16q48sym	aep7, aeq0 }
    87b9:	f9ebf34b0f 	{ ae_sp16x2f.i	aep4, a11, 0; ae_roundsp16q48sym	aep3, aeq1 }
    87be:	4273f4        	ae_sp16f.l.i	aep7, a3, -2
    87c1:	4234f4        	ae_sp16f.l.i	aep3, a4, -2

000087c4 <ifft_wo+0x180>:
    87c4:	ffa532        	movi	a3, 0x5ff
    87c7:	1133f0        	slli	a3, a3, 1
    87ca:	6005f4        	ae_lq32f.i	aeq0, a5, -4
    87cd:	604504        	ae_lq32f.i	aeq1, a5, 0
    87d0:	223a           	add.n	a2, a2, a3
    87d2:	0020f0        	nop
    87d5:	198976        	loop	a9, 87f2 <ifft_wo+0x1ae>
    87d8:	fc24fe878f 	{ ae_slaasq56s	aeq2, aeq0, a7; nop }
    87dd:	f8f3be984f 	{ ae_slaasq56s	aeq1, aeq1, a8; ae_roundsp16q48sym	aep0, aeq2 }
    87e2:	ff14bd151f 	{ ae_lq32f.iu	aeq0, a5, 4; ae_negq56	aeq3, aeq1 }
    87e7:	f8fbf2821f 	{ ae_sp16f.l.iu	aep0, a2, 2; ae_roundsp16q48sym	aep1, aeq3 }
    87ec:	605514        	ae_lq32f.iu	aeq1, a5, 4
    87ef:	429214        	ae_sp16f.l.iu	aep1, a2, 2

000087f2 <ifft_wo+0x1ae>:
    87f2:	f01d           	retw.n

000087f4 <airoha_divide>:
    87f4:	004136        	entry	a1, 32
    87f7:	204320        	or	a4, a3, a2
    87fa:	0d8416        	beqz	a4, 88d6 <airoha_divide+0xe2>
    87fd:	0de216        	beqz	a2, 88df <airoha_divide+0xeb>
    8800:	0e2316        	beqz	a3, 88e6 <airoha_divide+0xf2>
    8803:	609120        	abs	a9, a2
    8806:	60b130        	abs	a11, a3
    8809:	055f90        	extui	a5, a9, 31, 1
    880c:	056fb0        	extui	a6, a11, 31, 1
    880f:	400500        	ssr	a5
    8812:	304320        	xor	a4, a3, a2
    8815:	912090        	srl	a2, a9
    8818:	400600        	ssr	a6
    881b:	91c0b0        	srl	a12, a11
    881e:	40e2d0        	nsa	a13, a2
    8821:	40ec30        	nsa	a3, a12
    8824:	e31b           	addi.n	a14, a3, 1
    8826:	401d00        	ssl	a13
    8829:	317fb0        	srai	a7, a11, 31
    882c:	a13200        	sll	a3, a2
    882f:	401e00        	ssl	a14
    8832:	a75a           	add.n	a10, a7, a5
    8834:	a17c00        	sll	a7, a12
    8837:	f55070        	extui	a5, a7, 16, 16
    883a:	c26350        	quou	a6, a3, a5
    883d:	829650        	mull	a9, a6, a5
    8840:	978d           	ae_zext16	a8, a7
    8842:	c09390        	sub	a9, a3, a9
    8845:	828680        	mull	a8, a6, a8
    8848:	c0fed0        	sub	a15, a14, a13
    884b:	119900        	slli	a9, a9, 16
    884e:	2afa           	add.n	a2, a10, a15
    8850:	09b987        	bgeu	a9, a8, 885d <airoha_divide+0x69>

00008853 <airoha_divide+0x5f>:
    8853:	997a           	add.n	a9, a9, a7
    8855:	660b           	addi.n	a6, a6, -1
    8857:	02b987        	bgeu	a9, a8, 885d <airoha_divide+0x69>
    885a:	f5b977        	bgeu	a9, a7, 8853 <airoha_divide+0x5f>
    885d:	c0e980        	sub	a14, a9, a8
    8860:	c25e50        	quou	a5, a14, a5
    8863:	11a600        	slli	a10, a6, 16
    8866:	623370        	saltu	a3, a3, a7
    8869:	2b0c           	movi.n	a11, 2
    886b:	c09b30        	sub	a9, a11, a3
    886e:	5a5a           	add.n	a5, a10, a5
    8870:	f5f060        	extui	a15, a6, 16, 16
    8873:	6265a0        	saltu	a6, a5, a10
    8876:	d59a           	add.n	a13, a5, a9
    8878:	fc1c           	movi.n	a12, 31
    887a:	6f6a           	add.n	a6, a15, a6
    887c:	625d50        	saltu	a5, a13, a5
    887f:	565a           	add.n	a5, a6, a5
    8881:	400900        	ssr	a9
    8884:	3079c0        	xor	a7, a9, a12
    8887:	9180d0        	srl	a8, a13
    888a:	401700        	ssl	a7
    888d:	1165f0        	slli	a6, a5, 1
    8890:	a16600        	sll	a6, a6
    8893:	400900        	ssr	a9
    8896:	0f0c           	movi.n	a15, 0
    8898:	206860        	or	a6, a8, a6
    889b:	915050        	srl	a5, a5
    889e:	1e0c           	movi.n	a14, 1
    88a0:	7286f0        	salt	a8, a6, a15
    88a3:	629f50        	saltu	a9, a15, a5
    88a6:	1a0c           	movi.n	a10, 1
    88a8:	3073e0        	xor	a7, a3, a14
    88ab:	839850        	moveqz	a9, a8, a5
    88ae:	015a20        	slli	a5, a10, 30
    88b1:	ded1b1        	l32r	a11, 3f8 (80000001 <_end+0x7fff3c21>)
    88b4:	727a           	add.n	a7, a2, a7
    88b6:	fc7c           	movi.n	a12, -1
    88b8:	835690        	moveqz	a5, a6, a9
    88bb:	4131c0        	srli	a3, a12, 1
    88be:	60e050        	neg	a14, a5
    88c1:	d79a           	add.n	a13, a7, a9
    88c3:	f23c           	movi.n	a2, 63
    88c5:	c0cdf2        	addi	a15, a13, -64
    88c8:	a33b40        	movltz	a3, a11, a4
    88cb:	b3e540        	movgez	a14, a5, a4
    88ce:	932df0        	movnez	a2, a13, a15
    88d1:	933ef0        	movnez	a3, a14, a15
    88d4:	f01d           	retw.n

000088d6 <airoha_divide+0xe2>:
    88d6:	f37c           	movi.n	a3, -1
    88d8:	020c           	movi.n	a2, 0
    88da:	413130        	srli	a3, a3, 1
    88dd:	f01d           	retw.n

000088df <airoha_divide+0xeb>:
    88df:	030c           	movi.n	a3, 0
    88e1:	c1af22        	movi	a2, -63
    88e4:	f01d           	retw.n

000088e6 <airoha_divide+0xf2>:
    88e6:	dec431        	l32r	a3, 3f8 (80000001 <_end+0x7fff3c21>)
    88e9:	040c           	movi.n	a4, 0
    88eb:	f57c           	movi.n	a5, -1
    88ed:	724420        	salt	a4, a4, a2
    88f0:	415150        	srli	a5, a5, 1
    88f3:	f23c           	movi.n	a2, 63
    88f5:	933540        	movnez	a3, a5, a4
    88f8:	f01d           	retw.n

000088fa <airoha_divide+0x106>:
	...

000088fc <airoha_divide_limit_1>:
    88fc:	006136        	entry	a1, 48
    88ff:	de3041        	l32r	a4, 1c0 (87f4 <airoha_divide>)
    8902:	02ad           	mov.n	a10, a2
    8904:	03bd           	mov.n	a11, a3
    8906:	0004e0        	callx8	a4
    8909:	360b34        	ae_cvtq48a32s	aeq0, a11
    890c:	fc24fe8a0f 	{ ae_slaasq56s	aeq0, aeq0, a10; nop }
    8911:	060934        	ae_roundsq32asym	aeq0, aeq0
    8914:	620134        	ae_sq32f.i	aeq0, a1, 12
    8917:	3128           	l32i.n	a2, a1, 12
    8919:	f01d           	retw.n

0000891b <airoha_divide_limit_1+0x1f>:
    891b:	00000000                                 .....

00008920 <xtensa_fft4_32b>:
    8920:	00c136        	entry	a1, 96
    8923:	600254        	ae_lq32f.i	aeq0, a2, 20
    8926:	604274        	ae_lq32f.i	aeq1, a2, 28
    8929:	fa663d626f 	{ ae_lq32f.i	aeq3, a2, 24; ae_addq56	aeq2, aeq0, aeq1 }
    892e:	f826fa217f 	{ ae_sq56s.i	aeq2, a1, 56; ae_subq56	aeq0, aeq0, aeq1 }
    8933:	630134        	ae_sq56s.i	aeq0, a1, 24
    8936:	600244        	ae_lq32f.i	aeq0, a2, 16
    8939:	fa7a3d220f 	{ ae_lq32f.i	aeq1, a2, 0; ae_addq56	aeq2, aeq3, aeq0 }
    893e:	f83afa211f 	{ ae_sq56s.i	aeq2, a1, 8; ae_subq56	aeq0, aeq3, aeq0 }
    8943:	630164        	ae_sq56s.i	aeq0, a1, 48
    8946:	600224        	ae_lq32f.i	aeq0, a2, 8
    8949:	fb6a3dc11f 	{ ae_lq56.i	aeq2, a1, 8; ae_addq56	aeq3, aeq1, aeq0 }
    894e:	01bac4        	ae_addq56	aeq2, aeq3, aeq2
    8951:	f82afa212f 	{ ae_sq56s.i	aeq2, a1, 16; ae_subq56	aeq0, aeq1, aeq0 }
    8956:	618124        	ae_lq56.i	aeq2, a1, 16
    8959:	622204        	ae_sq32f.i	aeq2, a2, 0
    895c:	618114        	ae_lq56.i	aeq2, a1, 8
    895f:	f9bafd621f 	{ ae_lq32f.i	aeq3, a2, 4; ae_subq56	aeq1, aeq3, aeq2 }
    8964:	631114        	ae_sq56s.i	aeq1, a1, 8
    8967:	614134        	ae_lq56.i	aeq1, a1, 24
    896a:	fb663a315f 	{ ae_sq56s.i	aeq3, a1, 40; ae_addq56	aeq3, aeq0, aeq1 }
    896f:	f826fd423f 	{ ae_lq32f.i	aeq2, a2, 12; ae_subq56	aeq0, aeq0, aeq1 }
    8974:	633124        	ae_sq56s.i	aeq3, a1, 16
    8977:	614114        	ae_lq56.i	aeq1, a1, 8
    897a:	61c154        	ae_lq56.i	aeq3, a1, 40
    897d:	630134        	ae_sq56s.i	aeq0, a1, 24
    8980:	f9fa39924f 	{ ae_sq32f.i	aeq1, a2, 16; ae_addq56	aeq1, aeq3, aeq2 }
    8985:	632144        	ae_sq56s.i	aeq2, a1, 32
    8988:	618124        	ae_lq56.i	aeq2, a1, 16
    898b:	610174        	ae_lq56.i	aeq0, a1, 56
    898e:	fa6a39a22f 	{ ae_sq32f.i	aeq2, a2, 8; ae_addq56	aeq2, aeq1, aeq0 }
    8993:	f82afa211f 	{ ae_sq56s.i	aeq2, a1, 8; ae_subq56	aeq0, aeq1, aeq0 }
    8998:	618134        	ae_lq56.i	aeq2, a1, 24
    899b:	622264        	ae_sq32f.i	aeq2, a2, 24
    899e:	618144        	ae_lq56.i	aeq2, a1, 32
    89a1:	f9baf9825f 	{ ae_sq32f.i	aeq0, a2, 20; ae_subq56	aeq1, aeq3, aeq2 }
    89a6:	610164        	ae_lq56.i	aeq0, a1, 48
    89a9:	fb6a3dc11f 	{ ae_lq56.i	aeq2, a1, 8; ae_addq56	aeq3, aeq1, aeq0 }
    89ae:	f92af9a21f 	{ ae_sq32f.i	aeq2, a2, 4; ae_subq56	aeq1, aeq1, aeq0 }
    89b3:	623234        	ae_sq32f.i	aeq3, a2, 12
    89b6:	621274        	ae_sq32f.i	aeq1, a2, 28
    89b9:	f01d           	retw.n

000089bb <xtensa_fft4_32b+0x9b>:
	...

000089bc <xtensa_fft8_32b>:
    89bc:	022136        	entry	a1, 0x110
    89bf:	600254        	ae_lq32f.i	aeq0, a2, 20
    89c2:	604274        	ae_lq32f.i	aeq1, a2, 28
    89c5:	fb663d426f 	{ ae_lq32f.i	aeq2, a2, 24; ae_addq56	aeq3, aeq0, aeq1 }
    89ca:	f826fa315f 	{ ae_sq56s.i	aeq3, a1, 40; ae_subq56	aeq0, aeq0, aeq1 }
    89cf:	630124        	ae_sq56s.i	aeq0, a1, 16
    89d2:	600244        	ae_lq32f.i	aeq0, a2, 16
    89d5:	f9723d620f 	{ ae_lq32f.i	aeq3, a2, 0; ae_addq56	aeq1, aeq2, aeq0 }
    89da:	f832c7816e 	{ addi	a6, a1, 120; ae_subq56	aeq0, aeq2, aeq0 }
    89df:	630134        	ae_sq56s.i	aeq0, a1, 24
    89e2:	600224        	ae_lq32f.i	aeq0, a2, 8
    89e5:	01b8c4        	ae_addq56	aeq2, aeq3, aeq0
    89e8:	fa3afa211f 	{ ae_sq56s.i	aeq2, a1, 8; ae_subq56	aeq2, aeq3, aeq0 }
    89ed:	61c114        	ae_lq56.i	aeq3, a1, 8
    89f0:	f83efd621f 	{ ae_lq32f.i	aeq3, a2, 4; ae_subq56	aeq0, aeq3, aeq1 }
    89f5:	6306c4        	ae_sq56s.i	aeq0, a6, -32
    89f8:	610124        	ae_lq56.i	aeq0, a1, 16
    89fb:	fb723a314f 	{ ae_sq56s.i	aeq3, a1, 32; ae_addq56	aeq3, aeq2, aeq0 }
    8a00:	fa32fd86cf 	{ ae_lq56.i	aeq0, a6, -32; ae_subq56	aeq2, aeq2, aeq0 }
    8a05:	6316e4        	ae_sq56s.i	aeq1, a6, -16
    8a08:	620244        	ae_sq32f.i	aeq0, a2, 16
    8a0b:	604234        	ae_lq32f.i	aeq1, a2, 12
    8a0e:	610144        	ae_lq56.i	aeq0, a1, 32
    8a11:	f8663a364f 	{ ae_sq56s.i	aeq3, a6, 32; ae_addq56	aeq0, aeq0, aeq1 }
    8a16:	623224        	ae_sq32f.i	aeq3, a2, 8
    8a19:	61c154        	ae_lq56.i	aeq3, a1, 40
    8a1c:	fba6fa06df 	{ ae_sq56s.i	aeq0, a6, -24; ae_subq56	aeq3, aeq0, aeq3 }
    8a21:	610144        	ae_lq56.i	aeq0, a1, 32
    8a24:	f826fa36ff 	{ ae_sq56s.i	aeq3, a6, -8; ae_subq56	aeq0, aeq0, aeq1 }
    8a29:	623254        	ae_sq32f.i	aeq3, a2, 20
    8a2c:	61c134        	ae_lq56.i	aeq3, a1, 24
    8a2f:	f9e602023e 	{ addi	a3, a2, 32; ae_addq56	aeq1, aeq0, aeq3 }
    8a34:	f8a6fa163f 	{ ae_sq56s.i	aeq1, a6, 24; ae_subq56	aeq0, aeq0, aeq3 }
    8a39:	621234        	ae_sq32f.i	aeq1, a2, 12
    8a3c:	604304        	ae_lq32f.i	aeq1, a3, 0
    8a3f:	6316b4        	ae_sq56s.i	aeq1, a6, -40
    8a42:	632664        	ae_sq56s.i	aeq2, a6, 48
    8a45:	622264        	ae_sq32f.i	aeq2, a2, 24
    8a48:	608314        	ae_lq32f.i	aeq2, a3, 4
    8a4b:	630654        	ae_sq56s.i	aeq0, a6, 40
    8a4e:	620274        	ae_sq32f.i	aeq0, a2, 28
    8a51:	600374        	ae_lq32f.i	aeq0, a3, 28
    8a54:	01d142        	addmi	a4, a1, 0x100
    8a57:	632134        	ae_sq56s.i	aeq2, a1, 24
    8a5a:	608324        	ae_lq32f.i	aeq2, a3, 8
    8a5d:	60c334        	ae_lq32f.i	aeq3, a3, 12
    8a60:	604354        	ae_lq32f.i	aeq1, a3, 20
    8a63:	630164        	ae_sq56s.i	aeq0, a1, 48
    8a66:	6106b4        	ae_lq56.i	aeq0, a6, -40
    8a69:	f8e23a312f 	{ ae_sq56s.i	aeq3, a1, 16; ae_addq56	aeq0, aeq0, aeq2 }
    8a6e:	60c344        	ae_lq32f.i	aeq3, a3, 16
    8a71:	631144        	ae_sq56s.i	aeq1, a1, 32
    8a74:	604364        	ae_lq32f.i	aeq1, a3, 24
    8a77:	b0c442        	addi	a4, a4, -80
    8a7a:	01d152        	addmi	a5, a1, 0x100
    8a7d:	fb7e3a361f 	{ ae_sq56s.i	aeq3, a6, 8; ae_addq56	aeq3, aeq3, aeq1 }
    8a82:	632604        	ae_sq56s.i	aeq2, a6, 0
    8a85:	631624        	ae_sq56s.i	aeq1, a6, 16
    8a88:	620404        	ae_sq32f.i	aeq0, a4, 0
    8a8b:	608404        	ae_lq32f.i	aeq2, a4, 0
    8a8e:	b4c552        	addi	a5, a5, -76
    8a91:	6326a4        	ae_sq56s.i	aeq2, a6, -48
    8a94:	623504        	ae_sq32f.i	aeq3, a5, 0
    8a97:	01d1a2        	addmi	a10, a1, 0x100
    8a9a:	610134        	ae_lq56.i	aeq0, a1, 24
    8a9d:	61c124        	ae_lq56.i	aeq3, a1, 16
    8aa0:	f8e63d450f 	{ ae_lq32f.i	aeq2, a5, 0; ae_addq56	aeq0, aeq0, aeq3 }
    8aa5:	b8ca42        	addi	a4, a10, -72
    8aa8:	632694        	ae_sq56s.i	aeq2, a6, -56
    8aab:	620404        	ae_sq32f.i	aeq0, a4, 0
    8aae:	01d1b2        	addmi	a11, a1, 0x100
    8ab1:	610144        	ae_lq56.i	aeq0, a1, 32
    8ab4:	61c164        	ae_lq56.i	aeq3, a1, 48
    8ab7:	f8e63d440f 	{ ae_lq32f.i	aeq2, a4, 0; ae_addq56	aeq0, aeq0, aeq3 }
    8abc:	bccb52        	addi	a5, a11, -68
    8abf:	632174        	ae_sq56s.i	aeq2, a1, 56
    8ac2:	620504        	ae_sq32f.i	aeq0, a5, 0
    8ac5:	01d1c2        	addmi	a12, a1, 0x100
    8ac8:	610114        	ae_lq56.i	aeq0, a1, 8
    8acb:	61c6e4        	ae_lq56.i	aeq3, a6, -16
    8ace:	f9e63d450f 	{ ae_lq32f.i	aeq2, a5, 0; ae_addq56	aeq1, aeq0, aeq3 }
    8ad3:	c0cc42        	addi	a4, a12, -64
    8ad6:	632114        	ae_sq56s.i	aeq2, a1, 8
    8ad9:	621404        	ae_sq32f.i	aeq1, a4, 0
    8adc:	01d1d2        	addmi	a13, a1, 0x100
    8adf:	61c154        	ae_lq56.i	aeq3, a1, 40
    8ae2:	6146d4        	ae_lq56.i	aeq1, a6, -24
    8ae5:	f9ee0c4d5e 	{ addi	a5, a13, -60; ae_addq56	aeq1, aeq1, aeq3 }
    8aea:	60c404        	ae_lq32f.i	aeq3, a4, 0
    8aed:	621504        	ae_sq32f.i	aeq1, a5, 0
    8af0:	6186a4        	ae_lq56.i	aeq2, a6, -48
    8af3:	614694        	ae_lq56.i	aeq1, a6, -56
    8af6:	f9763d450f 	{ ae_lq32f.i	aeq2, a5, 0; ae_addq56	aeq1, aeq2, aeq1 }
    8afb:	f83ec082bf 	{ movi	a11, 130; ae_subq56	aeq0, aeq3, aeq1 }
    8b00:	f97e3a015f 	{ ae_sq56s.i	aeq0, a1, 40; ae_addq56	aeq1, aeq3, aeq1 }
    8b05:	610154        	ae_lq56.i	aeq0, a1, 40
    8b08:	620304        	ae_sq32f.i	aeq0, a3, 0
    8b0b:	61c114        	ae_lq56.i	aeq3, a1, 8
    8b0e:	610174        	ae_lq56.i	aeq0, a1, 56
    8b11:	fbe639920f 	{ ae_sq32f.i	aeq1, a2, 0; ae_addq56	aeq3, aeq0, aeq3 }
    8b16:	016fc4        	ae_subq56	aeq1, aeq2, aeq3
    8b19:	01d1e2        	addmi	a14, a1, 0x100
    8b1c:	f8f639931f 	{ ae_sq32f.i	aeq1, a3, 4; ae_addq56	aeq0, aeq2, aeq3 }
    8b21:	c8ce42        	addi	a4, a14, -56
    8b24:	6146c4        	ae_lq56.i	aeq1, a6, -32
    8b27:	620214        	ae_sq32f.i	aeq0, a2, 4
    8b2a:	621404        	ae_sq32f.i	aeq1, a4, 0
    8b2d:	01d1f2        	addmi	a15, a1, 0x100
    8b30:	cccf52        	addi	a5, a15, -52
    8b33:	6186f4        	ae_lq56.i	aeq2, a6, -8
    8b36:	600404        	ae_lq32f.i	aeq0, a4, 0
    8b39:	622504        	ae_sq32f.i	aeq2, a5, 0
    8b3c:	614114        	ae_lq56.i	aeq1, a1, 8
    8b3f:	61c174        	ae_lq56.i	aeq3, a1, 56
    8b42:	f93efd450f 	{ ae_lq32f.i	aeq2, a5, 0; ae_subq56	aeq1, aeq3, aeq1 }
    8b47:	01cdc4        	ae_subq56	aeq3, aeq0, aeq1
    8b4a:	f86639b34f 	{ ae_sq32f.i	aeq3, a3, 16; ae_addq56	aeq0, aeq0, aeq1 }
    8b4f:	6146a4        	ae_lq56.i	aeq1, a6, -48
    8b52:	61c694        	ae_lq56.i	aeq3, a6, -56
    8b55:	f93ef9824f 	{ ae_sq32f.i	aeq0, a2, 16; ae_subq56	aeq1, aeq3, aeq1 }
    8b5a:	01edc4        	ae_subq56	aeq3, aeq2, aeq1
    8b5d:	f97639b35f 	{ ae_sq32f.i	aeq3, a3, 20; ae_addq56	aeq1, aeq2, aeq1 }
    8b62:	01d172        	addmi	a7, a1, 0x100
    8b65:	6186b4        	ae_lq56.i	aeq2, a6, -40
    8b68:	61c604        	ae_lq56.i	aeq3, a6, 0
    8b6b:	f8b6cd074e 	{ addi	a4, a7, -48; ae_subq56	aeq0, aeq2, aeq3 }
    8b70:	621254        	ae_sq32f.i	aeq1, a2, 20
    8b73:	620404        	ae_sq32f.i	aeq0, a4, 0
    8b76:	01d182        	addmi	a8, a1, 0x100
    8b79:	610134        	ae_lq56.i	aeq0, a1, 24
    8b7c:	61c124        	ae_lq56.i	aeq3, a1, 16
    8b7f:	f9a6fd440f 	{ ae_lq32f.i	aeq2, a4, 0; ae_subq56	aeq1, aeq0, aeq3 }
    8b84:	d4c852        	addi	a5, a8, -44
    8b87:	632114        	ae_sq56s.i	aeq2, a1, 8
    8b8a:	621504        	ae_sq32f.i	aeq1, a5, 0
    8b8d:	01d192        	addmi	a9, a1, 0x100
    8b90:	61c624        	ae_lq56.i	aeq3, a6, 16
    8b93:	614614        	ae_lq56.i	aeq1, a6, 8
    8b96:	f9aefd650f 	{ ae_lq32f.i	aeq3, a5, 0; ae_subq56	aeq1, aeq1, aeq3 }
    8b9b:	d8c942        	addi	a4, a9, -40
    8b9e:	633124        	ae_sq56s.i	aeq3, a1, 16
    8ba1:	621404        	ae_sq32f.i	aeq1, a4, 0
    8ba4:	610144        	ae_lq56.i	aeq0, a1, 32
    8ba7:	618164        	ae_lq56.i	aeq2, a1, 48
    8baa:	faa2fd040f 	{ ae_lq32f.i	aeq0, a4, 0; ae_subq56	aeq2, aeq0, aeq2 }
    8baf:	dcca52        	addi	a5, a10, -36
    8bb2:	630134        	ae_sq56s.i	aeq0, a1, 24
    8bb5:	622504        	ae_sq32f.i	aeq2, a5, 0
    8bb8:	78c172        	addi	a7, a1, 120
    8bbb:	600504        	ae_lq32f.i	aeq0, a5, 0
    8bbe:	614744        	ae_lq56.i	aeq1, a7, 32
    8bc1:	630164        	ae_sq56s.i	aeq0, a1, 48
    8bc4:	621c84        	ae_sq32f.i	aeq1, a12, -32
    8bc7:	618114        	ae_lq56.i	aeq2, a1, 8
    8bca:	61c124        	ae_lq56.i	aeq3, a1, 16
    8bcd:	016bc4        	ae_addq56	aeq1, aeq2, aeq3
    8bd0:	fabafde13f 	{ ae_lq56.i	aeq3, a1, 24; ae_subq56	aeq2, aeq3, aeq2 }
    8bd5:	f93afa115f 	{ ae_sq56s.i	aeq1, a1, 40; ae_subq56	aeq1, aeq3, aeq0 }
    8bda:	632114        	ae_sq56s.i	aeq2, a1, 8
    8bdd:	610734        	ae_lq56.i	aeq0, a7, 24
    8be0:	5adb42        	addmi	a4, a11, 0x5a00
    8be3:	608c84        	ae_lq32f.i	aeq2, a12, -32
    8be6:	631144        	ae_sq56s.i	aeq1, a1, 32
    8be9:	620d94        	ae_sq32f.i	aeq0, a13, -28
    8bec:	300444        	ae_cvtp24a16x2.ll	aep0, a4, a4
    8bef:	610154        	ae_lq56.i	aeq0, a1, 40
    8bf2:	0c00bda16f 	{ ae_lq56.i	aeq1, a1, 48; ae_mulzaafq32sp16s.lh	aeq0, aeq0, aep0, aeq1, aep0 }
    8bf7:	015bc4        	ae_addq56	aeq1, aeq1, aeq3
    8bfa:	fb32fa112f 	{ ae_sq56s.i	aeq1, a1, 16; ae_subq56	aeq3, aeq2, aeq0 }
    8bff:	f8723d2d9f 	{ ae_lq32f.i	aeq1, a13, -28; ae_addq56	aeq0, aeq2, aeq0 }
    8c04:	633134        	ae_sq56s.i	aeq3, a1, 24
    8c07:	61c134        	ae_lq56.i	aeq3, a1, 24
    8c0a:	623324        	ae_sq32f.i	aeq3, a3, 8
    8c0d:	61c124        	ae_lq56.i	aeq3, a1, 16
    8c10:	618114        	ae_lq56.i	aeq2, a1, 8
    8c13:	0f02ba016f 	{ ae_sq56s.i	aeq0, a1, 48; ae_mulzaafq32sp16s.lh	aeq2, aeq2, aep0, aeq3, aep0 }
    8c18:	610164        	ae_lq56.i	aeq0, a1, 48
    8c1b:	f8aaf9822f 	{ ae_sq32f.i	aeq0, a2, 8; ae_subq56	aeq0, aeq1, aeq2 }
    8c20:	f9ea3dc76f 	{ ae_lq56.i	aeq2, a7, 48; ae_addq56	aeq1, aeq1, aeq2 }
    8c25:	621234        	ae_sq32f.i	aeq1, a2, 12
    8c28:	620334        	ae_sq32f.i	aeq0, a3, 12
    8c2b:	614114        	ae_lq56.i	aeq1, a1, 8
    8c2e:	3c03b9aeaf 	{ ae_sq32f.i	aeq2, a14, -24; ae_mulzasfq32sp16s.lh	aeq0, aeq1, aep0, aeq3, aep0 }
    8c33:	614154        	ae_lq56.i	aeq1, a1, 40
    8c36:	61c144        	ae_lq56.i	aeq3, a1, 32
    8c39:	3e01fde75f 	{ ae_lq56.i	aeq3, a7, 40; ae_mulzasfq32sp16s.lh	aeq1, aeq3, aep0, aeq1, aep0 }
    8c3e:	608ea4        	ae_lq32f.i	aeq2, a14, -24
    8c41:	fb32f9bfbf 	{ ae_sq32f.i	aeq3, a15, -20; ae_subq56	aeq3, aeq2, aeq0 }
    8c46:	f8723d4fbf 	{ ae_lq32f.i	aeq2, a15, -20; ae_addq56	aeq0, aeq2, aeq0 }
    8c4b:	fb36f9b36f 	{ ae_sq32f.i	aeq3, a3, 24; ae_subq56	aeq3, aeq2, aeq1 }
    8c50:	f97639826f 	{ ae_sq32f.i	aeq0, a2, 24; ae_addq56	aeq1, aeq2, aeq1 }
    8c55:	623374        	ae_sq32f.i	aeq3, a3, 28
    8c58:	621274        	ae_sq32f.i	aeq1, a2, 28
    8c5b:	f01d           	retw.n

00008c5d <xtensa_fft8_32b+0x2a1>:
    8c5d:	000000                                        ...

00008c60 <F_get_oft_32b>:
    8c60:	004136        	entry	a1, 32
    8c63:	0cc2e6        	bgei	a2, 32, 8c73 <F_get_oft_32b+0x13>
    8c66:	134226        	beqi	a2, 4, 8c7d <F_get_oft_32b+0x1d>
    8c69:	148226        	beqi	a2, 8, 8c81 <F_get_oft_32b+0x21>
    8c6c:	09b266        	bnei	a2, 16, 8c79 <F_get_oft_32b+0x19>
    8c6f:	021c           	movi.n	a2, 16
    8c71:	f01d           	retw.n

00008c73 <F_get_oft_32b+0x13>:
    8c73:	0ec226        	beqi	a2, 32, 8c85 <F_get_oft_32b+0x25>
    8c76:	0fd226        	beqi	a2, 64, 8c89 <F_get_oft_32b+0x29>
    8c79:	220c           	movi.n	a2, 2
    8c7b:	f01d           	retw.n

00008c7d <F_get_oft_32b+0x1d>:
    8c7d:	024c           	movi.n	a2, 64
    8c7f:	f01d           	retw.n

00008c81 <F_get_oft_32b+0x21>:
    8c81:	022c           	movi.n	a2, 32
    8c83:	f01d           	retw.n

00008c85 <F_get_oft_32b+0x25>:
    8c85:	820c           	movi.n	a2, 8
    8c87:	f01d           	retw.n

00008c89 <F_get_oft_32b+0x29>:
    8c89:	420c           	movi.n	a2, 4
    8c8b:	f01d           	retw.n

00008c8d <F_get_oft_32b+0x2d>:
    8c8d:	000000                                        ...

00008c90 <xtensa_fft_pass_32b>:
    8c90:	00c136        	entry	a1, 96
    8c93:	905330        	addx2	a5, a3, a3
    8c96:	1143c0        	slli	a4, a3, 4
    8c99:	b05520        	addx8	a5, a5, a2
    8c9c:	602244        	ae_lq32f.x	aeq0, a2, a4
    8c9f:	604504        	ae_lq32f.i	aeq1, a5, 0
    8ca2:	f8663a014f 	{ ae_sq56s.i	aeq0, a1, 32; ae_addq56	aeq0, aeq0, aeq1 }
    8ca7:	608204        	ae_lq32f.i	aeq2, a2, 0
    8caa:	f832fa012f 	{ ae_sq56s.i	aeq0, a1, 16; ae_subq56	aeq0, aeq2, aeq0 }
    8caf:	fc4450724f 	{ add	a7, a2, a4; ae_roundsq32sym	aeq0, aeq0 }
    8cb4:	631114        	ae_sq56s.i	aeq1, a1, 8
    8cb7:	630154        	ae_sq56s.i	aeq0, a1, 40
    8cba:	600514        	ae_lq32f.i	aeq0, a5, 4
    8cbd:	604714        	ae_lq32f.i	aeq1, a7, 4
    8cc0:	fa6a3a216f 	{ ae_sq56s.i	aeq2, a1, 48; ae_addq56	aeq2, aeq1, aeq0 }
    8cc5:	f82acfc74e 	{ addi	a4, a7, -4; ae_subq56	aeq0, aeq1, aeq0 }
    8cca:	60c214        	ae_lq32f.i	aeq3, a2, 4
    8ccd:	614154        	ae_lq56.i	aeq1, a1, 40
    8cd0:	f9baf9d41f 	{ ae_sq32f.iu	aeq1, a4, 4; ae_subq56	aeq1, aeq3, aeq2 }
    8cd5:	fc4c7a013f 	{ ae_sq56s.i	aeq0, a1, 24; ae_roundsq32sym	aeq0, aeq1 }
    8cda:	fafa3a015f 	{ ae_sq56s.i	aeq0, a1, 40; ae_addq56	aeq2, aeq3, aeq2 }
    8cdf:	ff547da12f 	{ ae_lq56.i	aeq1, a1, 16; ae_roundsq32sym	aeq3, aeq2 }
    8ce4:	610164        	ae_lq56.i	aeq0, a1, 48
    8ce7:	f9663d815f 	{ ae_lq56.i	aeq0, a1, 40; ae_addq56	aeq1, aeq0, aeq1 }
    8cec:	b06320        	addx8	a6, a3, a2
    8cef:	fd4c4fc22e 	{ addi	a2, a2, -4; ae_roundsq32sym	aeq1, aeq1 }
    8cf4:	624414        	ae_sq32f.iu	aeq0, a4, 4
    8cf7:	625214        	ae_sq32f.iu	aeq1, a2, 4
    8cfa:	627214        	ae_sq32f.iu	aeq3, a2, 4
    8cfd:	614114        	ae_lq56.i	aeq1, a1, 8
    8d00:	618144        	ae_lq56.i	aeq2, a1, 32
    8d03:	f8aafd260f 	{ ae_lq32f.i	aeq1, a6, 0; ae_subq56	aeq0, aeq1, aeq2 }
    8d08:	61c134        	ae_lq56.i	aeq3, a1, 24
    8d0b:	faaecfc55e 	{ addi	a5, a5, -4; ae_subq56	aeq2, aeq1, aeq3 }
    8d10:	f9ee3d661f 	{ ae_lq32f.i	aeq3, a6, 4; ae_addq56	aeq1, aeq1, aeq3 }
    8d15:	f93afa111f 	{ ae_sq56s.i	aeq1, a1, 8; ae_subq56	aeq1, aeq3, aeq0 }
    8d1a:	fe544fc66e 	{ addi	a6, a6, -4; ae_roundsq32sym	aeq2, aeq2 }
    8d1f:	f87a39e51f 	{ ae_sq32f.iu	aeq2, a5, 4; ae_addq56	aeq0, aeq3, aeq0 }
    8d24:	fd4c7de11f 	{ ae_lq56.i	aeq3, a1, 8; ae_roundsq32sym	aeq1, aeq1 }
    8d29:	fd5c79d51f 	{ ae_sq32f.iu	aeq1, a5, 4; ae_roundsq32sym	aeq1, aeq3 }
    8d2e:	ddb371        	l32r	a7, 3fc (8c60 <F_get_oft_32b>)
    8d31:	83ad           	ae_sext16	a10, a3
    8d33:	fc4479d61f 	{ ae_sq32f.iu	aeq1, a6, 4; ae_roundsq32sym	aeq0, aeq0 }
    8d38:	624614        	ae_sq32f.iu	aeq0, a6, 4
    8d3b:	0007e0        	callx8	a7
    8d3e:	ddb071        	l32r	a7, 400 (b9b0 <ROOTS_512_Q16>)
    8d41:	00a082        	movi	a8, 0
    8d44:	119af0        	slli	a9, a10, 1
    8d47:	907a70        	addx2	a7, a10, a7
    8d4a:	fcc772        	addi	a7, a7, -4
    8d4d:	458784        	ae_lp16x2f.xu	aep0, a7, a8
    8d50:	218130        	srai	a8, a3, 1
    8d53:	0223e6        	bgei	a3, 2, 8d59 <xtensa_fft_pass_32b+0xc9>
    8d56:	002e86        	j	8e14 <xtensa_fft_pass_32b+0x184>
    8d59:	b78876        	loop	a8, 8e14 <xtensa_fft_pass_32b+0x184>
    8d5c:	604414        	ae_lq32f.i	aeq1, a4, 4
    8d5f:	608424        	ae_lq32f.i	aeq2, a4, 8
    8d62:	30033d651f 	{ ae_lq32f.i	aeq3, a5, 4; ae_mulzaaq32sp16u.lh	aeq0, aeq1, aep0, aeq2, aep0 }
    8d67:	6300bd252f 	{ ae_lq32f.i	aeq1, a5, 8; ae_mulzasq32sp16u.lh	aeq2, aeq2, aep0, aeq1, aep0 }
    8d6c:	630114        	ae_sq56s.i	aeq0, a1, 8
    8d6f:	6301ba214f 	{ ae_sq56s.i	aeq2, a1, 32; ae_mulzasq32sp16u.lh	aeq2, aeq3, aep0, aeq1, aep0 }
    8d74:	3103fd811f 	{ ae_lq56.i	aeq0, a1, 8; ae_mulzaaq32sp16u.lh	aeq3, aeq1, aep0, aeq3, aep0 }
    8d79:	f8e23d221f 	{ ae_lq32f.i	aeq1, a2, 4; ae_addq56	aeq0, aeq0, aeq2 }
    8d7e:	fa2afa213f 	{ ae_sq56s.i	aeq2, a1, 24; ae_subq56	aeq2, aeq1, aeq0 }
    8d83:	f86a3a212f 	{ ae_sq56s.i	aeq2, a1, 16; ae_addq56	aeq0, aeq1, aeq0 }
    8d88:	618144        	ae_lq56.i	aeq2, a1, 32
    8d8b:	f8f63a015f 	{ ae_sq56s.i	aeq0, a1, 40; ae_addq56	aeq0, aeq2, aeq3 }
    8d90:	633164        	ae_sq56s.i	aeq3, a1, 48
    8d93:	61c124        	ae_lq56.i	aeq3, a1, 16
    8d96:	ff5c7d222f 	{ ae_lq32f.i	aeq1, a2, 8; ae_roundsq32sym	aeq3, aeq3 }
    8d9b:	fb2afa312f 	{ ae_sq56s.i	aeq3, a1, 16; ae_subq56	aeq3, aeq1, aeq0 }
    8da0:	f86a3a317f 	{ ae_sq56s.i	aeq3, a1, 56; ae_addq56	aeq0, aeq1, aeq0 }
    8da5:	fc447de12f 	{ ae_lq56.i	aeq3, a1, 16; ae_roundsq32sym	aeq0, aeq0 }
    8daa:	627414        	ae_sq32f.iu	aeq3, a4, 4
    8dad:	61c174        	ae_lq56.i	aeq3, a1, 56
    8db0:	ff5c5b879f 	{ ae_lp16x2f.xu	aep0, a7, a9; ae_roundsq32sym	aeq3, aeq3 }
    8db5:	627414        	ae_sq32f.iu	aeq3, a4, 4
    8db8:	61c154        	ae_lq56.i	aeq3, a1, 40
    8dbb:	fd5c7de11f 	{ ae_lq56.i	aeq3, a1, 8; ae_roundsq32sym	aeq1, aeq3 }
    8dc0:	625214        	ae_sq32f.iu	aeq1, a2, 4
    8dc3:	624214        	ae_sq32f.iu	aeq0, a2, 4
    8dc6:	614164        	ae_lq56.i	aeq1, a1, 48
    8dc9:	f836fd261f 	{ ae_lq32f.i	aeq1, a6, 4; ae_subq56	aeq0, aeq2, aeq1 }
    8dce:	0198c4        	ae_addq56	aeq2, aeq1, aeq0
    8dd1:	f82afa212f 	{ ae_sq56s.i	aeq2, a1, 16; ae_subq56	aeq0, aeq1, aeq0 }
    8dd6:	fc447dc13f 	{ ae_lq56.i	aeq2, a1, 24; ae_roundsq32sym	aeq0, aeq0 }
    8ddb:	fbb6fdc12f 	{ ae_lq56.i	aeq2, a1, 16; ae_subq56	aeq3, aeq2, aeq3 }
    8de0:	fe547a314f 	{ ae_sq56s.i	aeq3, a1, 32; ae_roundsq32sym	aeq2, aeq2 }
    8de5:	632114        	ae_sq56s.i	aeq2, a1, 8
    8de8:	608624        	ae_lq32f.i	aeq2, a6, 8
    8deb:	01ebc4        	ae_addq56	aeq3, aeq2, aeq3
    8dee:	633134        	ae_sq56s.i	aeq3, a1, 24
    8df1:	61c114        	ae_lq56.i	aeq3, a1, 8
    8df4:	627614        	ae_sq32f.iu	aeq3, a6, 4
    8df7:	61c134        	ae_lq56.i	aeq3, a1, 24
    8dfa:	06f834        	ae_roundsq32sym	aeq3, aeq3
    8dfd:	633114        	ae_sq56s.i	aeq3, a1, 8
    8e00:	61c114        	ae_lq56.i	aeq3, a1, 8
    8e03:	627614        	ae_sq32f.iu	aeq3, a6, 4
    8e06:	61c144        	ae_lq56.i	aeq3, a1, 32
    8e09:	f9b6f9c51f 	{ ae_sq32f.iu	aeq0, a5, 4; ae_subq56	aeq1, aeq2, aeq3 }
    8e0e:	06d834        	ae_roundsq32sym	aeq3, aeq1
    8e11:	627514        	ae_sq32f.iu	aeq3, a5, 4

00008e14 <xtensa_fft_pass_32b+0x184>:
    8e14:	0243e6        	bgei	a3, 4, 8e1a <xtensa_fft_pass_32b+0x18a>
    8e17:	003146        	j	8ee0 <xtensa_fft_pass_32b+0x250>
    8e1a:	603090        	neg	a3, a9
    8e1d:	1193f0        	slli	a9, a3, 1
    8e20:	880b           	addi.n	a8, a8, -1
    8e22:	458794        	ae_lp16x2f.xu	aep0, a7, a9
    8e25:	b78876        	loop	a8, 8ee0 <xtensa_fft_pass_32b+0x250>
    8e28:	604424        	ae_lq32f.i	aeq1, a4, 8
    8e2b:	608414        	ae_lq32f.i	aeq2, a4, 4
    8e2e:	30033d652f 	{ ae_lq32f.i	aeq3, a5, 8; ae_mulzaaq32sp16u.lh	aeq0, aeq1, aep0, aeq2, aep0 }
    8e33:	9300bd251f 	{ ae_lq32f.i	aeq1, a5, 4; ae_mulzsaq32sp16u.lh	aeq2, aeq2, aep0, aeq1, aep0 }
    8e38:	630114        	ae_sq56s.i	aeq0, a1, 8
    8e3b:	9301ba214f 	{ ae_sq56s.i	aeq2, a1, 32; ae_mulzsaq32sp16u.lh	aeq2, aeq3, aep0, aeq1, aep0 }
    8e40:	3103fd811f 	{ ae_lq56.i	aeq0, a1, 8; ae_mulzaaq32sp16u.lh	aeq3, aeq1, aep0, aeq3, aep0 }
    8e45:	f8e23d221f 	{ ae_lq32f.i	aeq1, a2, 4; ae_addq56	aeq0, aeq0, aeq2 }
    8e4a:	fa2afa213f 	{ ae_sq56s.i	aeq2, a1, 24; ae_subq56	aeq2, aeq1, aeq0 }
    8e4f:	f86a3a212f 	{ ae_sq56s.i	aeq2, a1, 16; ae_addq56	aeq0, aeq1, aeq0 }
    8e54:	618144        	ae_lq56.i	aeq2, a1, 32
    8e57:	f8f63a015f 	{ ae_sq56s.i	aeq0, a1, 40; ae_addq56	aeq0, aeq2, aeq3 }
    8e5c:	633164        	ae_sq56s.i	aeq3, a1, 48
    8e5f:	61c124        	ae_lq56.i	aeq3, a1, 16
    8e62:	ff5c7d222f 	{ ae_lq32f.i	aeq1, a2, 8; ae_roundsq32sym	aeq3, aeq3 }
    8e67:	fb2afa312f 	{ ae_sq56s.i	aeq3, a1, 16; ae_subq56	aeq3, aeq1, aeq0 }
    8e6c:	f86a3a317f 	{ ae_sq56s.i	aeq3, a1, 56; ae_addq56	aeq0, aeq1, aeq0 }
    8e71:	fc447de12f 	{ ae_lq56.i	aeq3, a1, 16; ae_roundsq32sym	aeq0, aeq0 }
    8e76:	627414        	ae_sq32f.iu	aeq3, a4, 4
    8e79:	61c174        	ae_lq56.i	aeq3, a1, 56
    8e7c:	ff5c5b873f 	{ ae_lp16x2f.xu	aep0, a7, a3; ae_roundsq32sym	aeq3, aeq3 }
    8e81:	627414        	ae_sq32f.iu	aeq3, a4, 4
    8e84:	61c154        	ae_lq56.i	aeq3, a1, 40
    8e87:	fd5c7de11f 	{ ae_lq56.i	aeq3, a1, 8; ae_roundsq32sym	aeq1, aeq3 }
    8e8c:	625214        	ae_sq32f.iu	aeq1, a2, 4
    8e8f:	624214        	ae_sq32f.iu	aeq0, a2, 4
    8e92:	614164        	ae_lq56.i	aeq1, a1, 48
    8e95:	f836fd261f 	{ ae_lq32f.i	aeq1, a6, 4; ae_subq56	aeq0, aeq2, aeq1 }
    8e9a:	0198c4        	ae_addq56	aeq2, aeq1, aeq0
    8e9d:	f82afa212f 	{ ae_sq56s.i	aeq2, a1, 16; ae_subq56	aeq0, aeq1, aeq0 }
    8ea2:	fc447dc13f 	{ ae_lq56.i	aeq2, a1, 24; ae_roundsq32sym	aeq0, aeq0 }
    8ea7:	fbb6fdc12f 	{ ae_lq56.i	aeq2, a1, 16; ae_subq56	aeq3, aeq2, aeq3 }
    8eac:	fe547a314f 	{ ae_sq56s.i	aeq3, a1, 32; ae_roundsq32sym	aeq2, aeq2 }
    8eb1:	632114        	ae_sq56s.i	aeq2, a1, 8
    8eb4:	608624        	ae_lq32f.i	aeq2, a6, 8
    8eb7:	01ebc4        	ae_addq56	aeq3, aeq2, aeq3
    8eba:	633134        	ae_sq56s.i	aeq3, a1, 24
    8ebd:	61c114        	ae_lq56.i	aeq3, a1, 8
    8ec0:	627614        	ae_sq32f.iu	aeq3, a6, 4
    8ec3:	61c134        	ae_lq56.i	aeq3, a1, 24
    8ec6:	06f834        	ae_roundsq32sym	aeq3, aeq3
    8ec9:	633114        	ae_sq56s.i	aeq3, a1, 8
    8ecc:	61c114        	ae_lq56.i	aeq3, a1, 8
    8ecf:	627614        	ae_sq32f.iu	aeq3, a6, 4
    8ed2:	61c144        	ae_lq56.i	aeq3, a1, 32
    8ed5:	f9b6f9c51f 	{ ae_sq32f.iu	aeq0, a5, 4; ae_subq56	aeq1, aeq2, aeq3 }
    8eda:	06d834        	ae_roundsq32sym	aeq3, aeq1
    8edd:	627514        	ae_sq32f.iu	aeq3, a5, 4
    8ee0:	f01d           	retw.n

00008ee2 <xtensa_fft_pass_32b+0x252>:
	...

00008ee4 <xtensa_fft16_32b>:
    8ee4:	004136        	entry	a1, 32
    8ee7:	dd4731        	l32r	a3, 404 (89bc <xtensa_fft8_32b>)
    8eea:	02ad           	mov.n	a10, a2
    8eec:	0003e0        	callx8	a3
    8eef:	dd4631        	l32r	a3, 408 (8920 <xtensa_fft4_32b>)
    8ef2:	40c2a2        	addi	a10, a2, 64
    8ef5:	0003e0        	callx8	a3
    8ef8:	60c2a2        	addi	a10, a2, 96
    8efb:	0003e0        	callx8	a3
    8efe:	dd4331        	l32r	a3, 40c (8c90 <xtensa_fft_pass_32b>)
    8f01:	4b0c           	movi.n	a11, 4
    8f03:	02ad           	mov.n	a10, a2
    8f05:	0003e0        	callx8	a3
    8f08:	f01d           	retw.n

00008f0a <xtensa_fft16_32b+0x26>:
	...

00008f0c <xtensa_fft32_32b>:
    8f0c:	004136        	entry	a1, 32
    8f0f:	dd4031        	l32r	a3, 410 (8ee4 <xtensa_fft16_32b>)
    8f12:	02ad           	mov.n	a10, a2
    8f14:	0003e0        	callx8	a3
    8f17:	80a032        	movi	a3, 128
    8f1a:	a23a           	add.n	a10, a2, a3
    8f1c:	dd3a31        	l32r	a3, 404 (89bc <xtensa_fft8_32b>)
    8f1f:	0003e0        	callx8	a3
    8f22:	c0a042        	movi	a4, 192
    8f25:	a24a           	add.n	a10, a2, a4
    8f27:	0003e0        	callx8	a3
    8f2a:	dd3831        	l32r	a3, 40c (8c90 <xtensa_fft_pass_32b>)
    8f2d:	8b0c           	movi.n	a11, 8
    8f2f:	02ad           	mov.n	a10, a2
    8f31:	0003e0        	callx8	a3
    8f34:	f01d           	retw.n

00008f36 <xtensa_fft32_32b+0x2a>:
	...

00008f38 <xtensa_fft64_32b>:
    8f38:	004136        	entry	a1, 32
    8f3b:	dd3631        	l32r	a3, 414 (8f0c <xtensa_fft32_32b>)
    8f3e:	02ad           	mov.n	a10, a2
    8f40:	0003e0        	callx8	a3
    8f43:	dd3331        	l32r	a3, 410 (8ee4 <xtensa_fft16_32b>)
    8f46:	01d2a2        	addmi	a10, a2, 0x100
    8f49:	0003e0        	callx8	a3
    8f4c:	80a142        	movi	a4, 0x180
    8f4f:	a24a           	add.n	a10, a2, a4
    8f51:	0003e0        	callx8	a3
    8f54:	dd2e31        	l32r	a3, 40c (8c90 <xtensa_fft_pass_32b>)
    8f57:	0b1c           	movi.n	a11, 16
    8f59:	02ad           	mov.n	a10, a2
    8f5b:	0003e0        	callx8	a3
    8f5e:	f01d           	retw.n

00008f60 <xtensa_fft128_32b>:
    8f60:	004136        	entry	a1, 32
    8f63:	dd2d31        	l32r	a3, 418 (8f38 <xtensa_fft64_32b>)
    8f66:	02ad           	mov.n	a10, a2
    8f68:	0003e0        	callx8	a3
    8f6b:	dd2a31        	l32r	a3, 414 (8f0c <xtensa_fft32_32b>)
    8f6e:	02d2a2        	addmi	a10, a2, 0x200
    8f71:	0003e0        	callx8	a3
    8f74:	03d2a2        	addmi	a10, a2, 0x300
    8f77:	0003e0        	callx8	a3
    8f7a:	dd2431        	l32r	a3, 40c (8c90 <xtensa_fft_pass_32b>)
    8f7d:	0b2c           	movi.n	a11, 32
    8f7f:	02ad           	mov.n	a10, a2
    8f81:	0003e0        	callx8	a3
    8f84:	f01d           	retw.n

00008f86 <xtensa_fft128_32b+0x26>:
	...

00008f88 <xtensa_fft256_32b>:
    8f88:	004136        	entry	a1, 32
    8f8b:	dd2331        	l32r	a3, 418 (8f38 <xtensa_fft64_32b>)
    8f8e:	02ad           	mov.n	a10, a2
    8f90:	0003e0        	callx8	a3
    8f93:	dd2041        	l32r	a4, 414 (8f0c <xtensa_fft32_32b>)
    8f96:	02d2a2        	addmi	a10, a2, 0x200
    8f99:	0004e0        	callx8	a4
    8f9c:	03d2a2        	addmi	a10, a2, 0x300
    8f9f:	0004e0        	callx8	a4
    8fa2:	dd1a41        	l32r	a4, 40c (8c90 <xtensa_fft_pass_32b>)
    8fa5:	0b2c           	movi.n	a11, 32
    8fa7:	02ad           	mov.n	a10, a2
    8fa9:	0004e0        	callx8	a4
    8fac:	04d2a2        	addmi	a10, a2, 0x400
    8faf:	0003e0        	callx8	a3
    8fb2:	06d2a2        	addmi	a10, a2, 0x600
    8fb5:	0003e0        	callx8	a3
    8fb8:	0b4c           	movi.n	a11, 64
    8fba:	02ad           	mov.n	a10, a2
    8fbc:	0004e0        	callx8	a4
    8fbf:	f01d           	retw.n

00008fc1 <xtensa_fft256_32b+0x39>:
    8fc1:	000000                                        ...

00008fc4 <xtensa_fft512_32b>:
    8fc4:	004136        	entry	a1, 32
    8fc7:	dd1531        	l32r	a3, 41c (8f88 <xtensa_fft256_32b>)
    8fca:	02ad           	mov.n	a10, a2
    8fcc:	0003e0        	callx8	a3
    8fcf:	dd1431        	l32r	a3, 420 (8f60 <xtensa_fft128_32b>)
    8fd2:	08d2a2        	addmi	a10, a2, 0x800
    8fd5:	0003e0        	callx8	a3
    8fd8:	0cd2a2        	addmi	a10, a2, 0xc00
    8fdb:	0003e0        	callx8	a3
    8fde:	dd0b31        	l32r	a3, 40c (8c90 <xtensa_fft_pass_32b>)
    8fe1:	80a0b2        	movi	a11, 128
    8fe4:	02ad           	mov.n	a10, a2
    8fe6:	0003e0        	callx8	a3
    8fe9:	f01d           	retw.n

00008feb <xtensa_fft512_32b+0x27>:
	...

00008fec <real_split>:
    8fec:	00a136        	entry	a1, 80
    8fef:	216120        	srai	a6, a2, 1
    8ff2:	050c           	movi.n	a5, 0
    8ff4:	1388           	l32i.n	a8, a3, 4
    8ff6:	0378           	l32i.n	a7, a3, 0
    8ff8:	c0c260        	sub	a12, a2, a6
    8ffb:	1459           	s32i.n	a5, a4, 4
    8ffd:	b05c30        	addx8	a5, a12, a3
    9000:	15e8           	l32i.n	a14, a5, 4
    9002:	787a           	add.n	a7, a8, a7
    9004:	0479           	s32i.n	a7, a4, 0
    9006:	b0d640        	addx8	a13, a6, a4
    9009:	0558           	l32i.n	a5, a5, 0
    900b:	11fef0        	slli	a15, a14, 1
    900e:	0d59           	s32i.n	a5, a13, 0
    9010:	6050f0        	neg	a5, a15
    9013:	215150        	srai	a5, a5, 1
    9016:	1d59           	s32i.n	a5, a13, 4
    9018:	dcf951        	l32r	a5, 3fc (8c60 <F_get_oft_32b>)
    901b:	82ad           	ae_sext16	a10, a2
    901d:	b169           	s32i.n	a6, a1, 44
    901f:	0005e0        	callx8	a5
    9022:	81a072        	movi	a7, 129
    9025:	727270        	salt	a7, a2, a7
    9028:	401700        	ssl	a7
    902b:	a17a00        	sll	a7, a10
    902e:	fec782        	addi	a8, a7, -2
    9031:	dcf351        	l32r	a5, 400 (b9b0 <ROOTS_512_Q16>)
    9034:	11b8f0        	slli	a11, a8, 1
    9037:	41b2b0        	srli	a11, a11, 2
    903a:	7fa092        	movi	a9, 127
    903d:	a0bb50        	addx4	a11, a11, a5
    9040:	729970        	salt	a9, a9, a7
    9043:	60a070        	neg	a10, a7
    9046:	441b04        	ae_lp16x2f.i	aep1, a11, 0
    9049:	02e7e6        	bgei	a7, 128, 904f <real_split+0x63>
    904c:	1a9194        	ae_selp24.lh	aep1, aep1, aep1

0000904f <real_split+0x63>:
    904f:	160c           	movi.n	a6, 1
    9051:	116610        	slli	a6, a6, 15
    9054:	300664        	ae_cvtp24a16x2.ll	aep0, a6, a6
    9057:	937a90        	movnez	a7, a10, a9
    905a:	0242e6        	bgei	a2, 4, 9060 <real_split+0x74>
    905d:	002446        	j	90f2 <real_split+0x106>
    9060:	b168           	l32i.n	a6, a1, 44
    9062:	b0b230        	addx8	a11, a2, a3
    9065:	14c3e2        	addi	a14, a3, 20
    9068:	f60b           	addi.n	a15, a6, -1
    906a:	fccbd2        	addi	a13, a11, -4
    906d:	c48b           	addi.n	a12, a4, 8
    906f:	60c334        	ae_lq32f.i	aeq3, a3, 12
    9072:	604324        	ae_lq32f.i	aeq1, a3, 8
    9075:	9027807daf 	{ movi	a10, 125; ae_mulzsaq32sp16u.lh	aeq0, aeq1, aep1, aeq3, aep1 }
    907a:	f8ceb2        	addi	a11, a14, -8
    907d:	718f76        	loop	a15, 90f2 <real_split+0x106>
    9080:	608df4        	ae_lq32f.i	aeq2, a13, -4
    9083:	887a           	add.n	a8, a8, a7
    9085:	c225ba014f 	{ ae_sq56s.i	aeq0, a1, 32; ae_mulzssq32sp16u.lh	aeq0, aeq3, aep1, aeq1, aep1 }
    908a:	c30864        	ae_mulzaafq32sp16u.lh	aeq1, aeq1, aep0, aeq2, aep0
    908d:	630114        	ae_sq56s.i	aeq0, a1, 8
    9090:	600d04        	ae_lq32f.i	aeq0, a13, 0
    9093:	32247a113f 	{ ae_sq56s.i	aeq1, a1, 24; ae_mulzaaq32sp16u.lh	aeq1, aeq2, aep1, aeq0, aep1 }
    9098:	4b014fcdde 	{ addi	a13, a13, -4; ae_mulzasfq32sp16u.lh	aeq3, aeq3, aep0, aeq0, aep0 }
    909d:	90263dc11f 	{ ae_lq56.i	aeq2, a1, 8; ae_mulzsaq32sp16u.lh	aeq0, aeq0, aep1, aeq2, aep1 }
    90a2:	fafa3a112f 	{ ae_sq56s.i	aeq1, a1, 16; ae_addq56	aeq2, aeq3, aeq2 }
    90a7:	f8723de14f 	{ ae_lq56.i	aeq3, a1, 32; ae_addq56	aeq0, aeq2, aeq0 }
    90ac:	614134        	ae_lq56.i	aeq1, a1, 24
    90af:	fbee3da12f 	{ ae_lq56.i	aeq1, a1, 16; ae_addq56	aeq3, aeq1, aeq3 }
    90b4:	f97e3b001f 	{ ae_sraiq56	aeq0, aeq0, 1; ae_addq56	aeq1, aeq3, aeq1 }
    90b9:	1168f0        	slli	a6, a8, 1
    90bc:	fc447b105f 	{ ae_sraiq56	aeq1, aeq1, 1; ae_roundsq32sym	aeq0, aeq0 }
    90c1:	416260        	srli	a6, a6, 2
    90c4:	72fa80        	salt	a15, a10, a8
    90c7:	fd4c798c1f 	{ ae_sq32f.i	aeq0, a12, 4; ae_roundsq32sym	aeq1, aeq1 }
    90cc:	a06650        	addx4	a6, a6, a5
    90cf:	3099f0        	xor	a9, a9, a15
    90d2:	621c04        	ae_sq32f.i	aeq1, a12, 0
    90d5:	cc4b           	addi.n	a12, a12, 4
    90d7:	60e070        	neg	a14, a7
    90da:	441604        	ae_lp16x2f.i	aep1, a6, 0
    90dd:	19cc           	bnez.n	a9, 90e2 <real_split+0xf6>
    90df:	1a9194        	ae_selp24.lh	aep1, aep1, aep1
    90e2:	604b14        	ae_lq32f.i	aeq1, a11, 4
    90e5:	937ef0        	movnez	a7, a14, a15
    90e8:	60db24        	ae_lq32f.iu	aeq3, a11, 8
    90eb:	90278fcdde 	{ addi	a13, a13, -4; ae_mulzsaq32sp16u.lh	aeq0, aeq1, aep1, aeq3, aep1 }
    90f0:	cc4b           	addi.n	a12, a12, 4

000090f2 <real_split+0x106>:
    90f2:	b168           	l32i.n	a6, a1, 44
    90f4:	ef7c           	movi.n	a15, -2
    90f6:	c08f70        	sub	a8, a15, a7
    90f9:	b61b           	addi.n	a11, a6, 1
    90fb:	1168f0        	slli	a6, a8, 1
    90fe:	7da0a2        	movi	a10, 125
    9101:	416260        	srli	a6, a6, 2
    9104:	72ca80        	salt	a12, a10, a8
    9107:	a06650        	addx4	a6, a6, a5
    910a:	3099c0        	xor	a9, a9, a12
    910d:	441604        	ae_lp16x2f.i	aep1, a6, 0
    9110:	498c           	beqz.n	a9, 9118 <real_split+0x12c>
    9112:	0b2b27        	blt	a11, a2, 9121 <real_split+0x135>
    9115:	002b86        	j	91c7 <real_split+0x1db>

00009118 <real_split+0x12c>:
    9118:	1a9194        	ae_selp24.lh	aep1, aep1, aep1
    911b:	022b27        	blt	a11, a2, 9121 <real_split+0x135>
    911e:	002946        	j	91c7 <real_split+0x1db>
    9121:	b1f8           	l32i.n	a15, a1, 44
    9123:	60a070        	neg	a10, a7
    9126:	93a7c0        	movnez	a10, a7, a12
    9129:	f77c           	movi.n	a7, -1
    912b:	b0ef30        	addx8	a14, a15, a3
    912e:	307f70        	xor	a7, a15, a7
    9131:	c062b0        	sub	a6, a2, a11
    9134:	b0db30        	addx8	a13, a11, a3
    9137:	b0c630        	addx8	a12, a6, a3
    913a:	14cee2        	addi	a14, a14, 20
    913d:	772a           	add.n	a7, a7, a2
    913f:	b0bb40        	addx8	a11, a11, a4
    9142:	7da042        	movi	a4, 125
    9145:	60cd14        	ae_lq32f.i	aeq3, a13, 4
    9148:	604d04        	ae_lq32f.i	aeq1, a13, 0
    914b:	3c4b           	addi.n	a3, a12, 4
    914d:	c0278f8e2e 	{ addi	a2, a14, -8; ae_mulzssq32sp16u.lh	aeq0, aeq1, aep1, aeq3, aep1 }
    9152:	718776        	loop	a7, 91c7 <real_split+0x1db>
    9155:	6083f4        	ae_lq32f.i	aeq2, a3, -4
    9158:	88aa           	add.n	a8, a8, a10
    915a:	9225ba014f 	{ ae_sq56s.i	aeq0, a1, 32; ae_mulzsaq32sp16u.lh	aeq0, aeq3, aep1, aeq1, aep1 }
    915f:	1803404b6e 	{ addi	a6, a11, 4; ae_mulzaafq32sp16u.lh	aeq1, aeq1, aep0, aeq2, aep0 }
    9164:	630114        	ae_sq56s.i	aeq0, a1, 8
    9167:	600304        	ae_lq32f.i	aeq0, a3, 0
    916a:	62247a113f 	{ ae_sq56s.i	aeq1, a1, 24; ae_mulzasq32sp16u.lh	aeq1, aeq2, aep1, aeq0, aep1 }
    916f:	4b014fc33e 	{ addi	a3, a3, -4; ae_mulzasfq32sp16u.lh	aeq3, aeq3, aep0, aeq0, aep0 }
    9174:	c0263dc11f 	{ ae_lq56.i	aeq2, a1, 8; ae_mulzssq32sp16u.lh	aeq0, aeq0, aep1, aeq2, aep1 }
    9179:	fafa3a112f 	{ ae_sq56s.i	aeq1, a1, 16; ae_addq56	aeq2, aeq3, aeq2 }
    917e:	f8723de14f 	{ ae_lq56.i	aeq3, a1, 32; ae_addq56	aeq0, aeq2, aeq0 }
    9183:	614134        	ae_lq56.i	aeq1, a1, 24
    9186:	fbee3da12f 	{ ae_lq56.i	aeq1, a1, 16; ae_addq56	aeq3, aeq1, aeq3 }
    918b:	f97e3b001f 	{ ae_sraiq56	aeq0, aeq0, 1; ae_addq56	aeq1, aeq3, aeq1 }
    9190:	fc447b105f 	{ ae_sraiq56	aeq1, aeq1, 1; ae_roundsq32sym	aeq0, aeq0 }
    9195:	11c8f0        	slli	a12, a8, 1
    9198:	fd4c798b1f 	{ ae_sq32f.i	aeq0, a11, 4; ae_roundsq32sym	aeq1, aeq1 }
    919d:	41c2c0        	srli	a12, a12, 2
    91a0:	621b04        	ae_sq32f.i	aeq1, a11, 0
    91a3:	72b480        	salt	a11, a4, a8
    91a6:	a0cc50        	addx4	a12, a12, a5
    91a9:	3099b0        	xor	a9, a9, a11
    91ac:	6070a0        	neg	a7, a10
    91af:	441c04        	ae_lp16x2f.i	aep1, a12, 0
    91b2:	19cc           	bnez.n	a9, 91b7 <real_split+0x1cb>
    91b4:	1a9194        	ae_selp24.lh	aep1, aep1, aep1
    91b7:	93a7b0        	movnez	a10, a7, a11
    91ba:	604214        	ae_lq32f.i	aeq1, a2, 4
    91bd:	60d224        	ae_lq32f.iu	aeq3, a2, 8
    91c0:	c0278fc33e 	{ addi	a3, a3, -4; ae_mulzssq32sp16u.lh	aeq0, aeq1, aep1, aeq3, aep1 }
    91c5:	b64b           	addi.n	a11, a6, 4

000091c7 <real_split+0x1db>:
    91c7:	f01d           	retw.n

000091c9 <real_split+0x1dd>:
    91c9:	000000                                        ...

000091cc <xtensa_real_fft_32b>:
    91cc:	004136        	entry	a1, 32
    91cf:	1142d0        	slli	a4, a2, 3
    91d2:	c04340        	sub	a4, a3, a4
    91d5:	0be2e6        	bgei	a2, 128, 91e4 <xtensa_real_fft_32b+0x18>
    91d8:	148226        	beqi	a2, 8, 91f0 <xtensa_real_fft_32b+0x24>
    91db:	1fd266        	bnei	a2, 64, 91fe <xtensa_real_fft_32b+0x32>
    91de:	dc8e51        	l32r	a5, 418 (8f38 <xtensa_fft64_32b>)
    91e1:	000506        	j	91f9 <xtensa_real_fft_32b+0x2d>

000091e4 <xtensa_real_fft_32b+0x18>:
    91e4:	0ee226        	beqi	a2, 128, 91f6 <xtensa_real_fft_32b+0x2a>
    91e7:	13f266        	bnei	a2, 0x100, 91fe <xtensa_real_fft_32b+0x32>
    91ea:	dc8c51        	l32r	a5, 41c (8f88 <xtensa_fft256_32b>)
    91ed:	000206        	j	91f9 <xtensa_real_fft_32b+0x2d>

000091f0 <xtensa_real_fft_32b+0x24>:
    91f0:	dc8551        	l32r	a5, 404 (89bc <xtensa_fft8_32b>)
    91f3:	000086        	j	91f9 <xtensa_real_fft_32b+0x2d>

000091f6 <xtensa_real_fft_32b+0x2a>:
    91f6:	dc8a51        	l32r	a5, 420 (8f60 <xtensa_fft128_32b>)
    91f9:	03ad           	mov.n	a10, a3
    91fb:	0005e0        	callx8	a5
    91fe:	dc8951        	l32r	a5, 424 (8fec <real_split>)
    9201:	02ad           	mov.n	a10, a2
    9203:	03bd           	mov.n	a11, a3
    9205:	04cd           	mov.n	a12, a4
    9207:	0005e0        	callx8	a5
    920a:	0358           	l32i.n	a5, a3, 0
    920c:	1368           	l32i.n	a6, a3, 4
    920e:	070c           	movi.n	a7, 0
    9210:	1379           	s32i.n	a7, a3, 4
    9212:	c05560        	sub	a5, a5, a6
    9215:	0359           	s32i.n	a5, a3, 0
    9217:	1922a6        	blti	a2, 2, 9234 <xtensa_real_fft_32b+0x68>
    921a:	520b           	addi.n	a5, a2, -1
    921c:	448b           	addi.n	a4, a4, 8
    921e:	b02530        	addx8	a2, a5, a3
    9221:	0f8576        	loop	a5, 9234 <xtensa_real_fft_32b+0x68>
    9224:	1438           	l32i.n	a3, a4, 4
    9226:	0458           	l32i.n	a5, a4, 0
    9228:	448b           	addi.n	a4, a4, 8
    922a:	603030        	neg	a3, a3
    922d:	0259           	s32i.n	a5, a2, 0
    922f:	1239           	s32i.n	a3, a2, 4
    9231:	f8c222        	addi	a2, a2, -8

00009234 <xtensa_real_fft_32b+0x68>:
    9234:	f01d           	retw.n

00009236 <xtensa_real_fft_32b+0x6a>:
	...

00009238 <xtensa_comp_fft_32b>:
    9238:	004136        	entry	a1, 32
    923b:	0bf2e6        	bgei	a2, 0x100, 924a <xtensa_comp_fft_32b+0x12>
    923e:	17b226        	beqi	a2, 16, 9259 <xtensa_comp_fft_32b+0x21>
    9241:	22e266        	bnei	a2, 128, 9267 <xtensa_comp_fft_32b+0x2f>
    9244:	dc7721        	l32r	a2, 420 (8f60 <xtensa_fft128_32b>)
    9247:	0005c6        	j	9262 <xtensa_comp_fft_32b+0x2a>

0000924a <xtensa_comp_fft_32b+0x12>:
    924a:	11f226        	beqi	a2, 0x100, 925f <xtensa_comp_fft_32b+0x27>
    924d:	00a242        	movi	a4, 0x200
    9250:	139247        	bne	a2, a4, 9267 <xtensa_comp_fft_32b+0x2f>
    9253:	dc7521        	l32r	a2, 428 (8fc4 <xtensa_fft512_32b>)
    9256:	000206        	j	9262 <xtensa_comp_fft_32b+0x2a>

00009259 <xtensa_comp_fft_32b+0x21>:
    9259:	dc6d21        	l32r	a2, 410 (8ee4 <xtensa_fft16_32b>)
    925c:	000086        	j	9262 <xtensa_comp_fft_32b+0x2a>

0000925f <xtensa_comp_fft_32b+0x27>:
    925f:	dc6f21        	l32r	a2, 41c (8f88 <xtensa_fft256_32b>)
    9262:	03ad           	mov.n	a10, a3
    9264:	0002e0        	callx8	a2
    9267:	f01d           	retw.n

00009269 <xtensa_comp_fft_32b+0x31>:
    9269:	000000                                        ...

0000926c <sw_fft_32b_2811>:
    926c:	006136        	entry	a1, 48
    926f:	0d1666        	bnei	a6, 1, 9280 <sw_fft_32b_2811+0x14>
    9272:	176c           	movi.n	a7, -31
    9274:	f47070        	extui	a7, a7, 0, 16
    9277:	12f3e6        	bgei	a3, 0x100, 928d <sw_fft_32b_2811+0x21>
    927a:	2fb366        	bnei	a3, 16, 92ad <sw_fft_32b_2811+0x41>
    927d:	000c86        	j	92b3 <sw_fft_32b_2811+0x47>

00009280 <sw_fft_32b_2811+0x14>:
    9280:	569c           	beqz.n	a6, 9299 <sw_fft_32b_2811+0x2d>
    9282:	1173f0        	slli	a7, a3, 1
    9285:	039d           	mov.n	a9, a3
    9287:	2d13e6        	bgei	a3, 1, 92b8 <sw_fft_32b_2811+0x4c>
    928a:	001506        	j	92e2 <sw_fft_32b_2811+0x76>

0000928d <sw_fft_32b_2811+0x21>:
    928d:	22f326        	beqi	a3, 0x100, 92b3 <sw_fft_32b_2811+0x47>
    9290:	00a282        	movi	a8, 0x200
    9293:	1c1387        	beq	a3, a8, 92b3 <sw_fft_32b_2811+0x47>
    9296:	002846        	j	933b <sw_fft_32b_2811+0xcf>

00009299 <sw_fft_32b_2811+0x2d>:
    9299:	176c           	movi.n	a7, -31
    929b:	f47070        	extui	a7, a7, 0, 16
    929e:	08e3e6        	bgei	a3, 128, 92aa <sw_fft_32b_2811+0x3e>
    92a1:	0e8326        	beqi	a3, 8, 92b3 <sw_fft_32b_2811+0x47>
    92a4:	0bd326        	beqi	a3, 64, 92b3 <sw_fft_32b_2811+0x47>
    92a7:	002406        	j	933b <sw_fft_32b_2811+0xcf>

000092aa <sw_fft_32b_2811+0x3e>:
    92aa:	05f326        	beqi	a3, 0x100, 92b3 <sw_fft_32b_2811+0x47>
    92ad:	02e326        	beqi	a3, 128, 92b3 <sw_fft_32b_2811+0x47>
    92b0:	0021c6        	j	933b <sw_fft_32b_2811+0xcf>
    92b3:	939d           	ae_zext16	a9, a3
    92b5:	1179f0        	slli	a7, a9, 1
    92b8:	600204        	ae_lq32f.i	aeq0, a2, 0
    92bb:	028d           	mov.n	a8, a2
    92bd:	088776        	loop	a7, 92c9 <sw_fft_32b_2811+0x5d>
    92c0:	3404b4        	ae_sraaq56	aeq0, aeq0, a4
    92c3:	620804        	ae_sq32f.i	aeq0, a8, 0
    92c6:	601814        	ae_lq32f.iu	aeq0, a8, 4

000092c9 <sw_fft_32b_2811+0x5d>:
    92c9:	151666        	bnei	a6, 1, 92e2 <sw_fft_32b_2811+0x76>
    92cc:	dc5861        	l32r	a6, 42c (9238 <xtensa_comp_fft_32b>)
    92cf:	03ad           	mov.n	a10, a3
    92d1:	02bd           	mov.n	a11, a2
    92d3:	3129           	s32i.n	a2, a1, 12
    92d5:	0006e0        	callx8	a6
    92d8:	030c           	movi.n	a3, 0
    92da:	1d1526        	beqi	a5, 1, 92fb <sw_fft_32b_2811+0x8f>
    92dd:	001606        	j	9339 <sw_fft_32b_2811+0xcd>

000092e0 <sw_fft_32b_2811+0x74>:
	...

000092e2 <sw_fft_32b_2811+0x76>:
    92e2:	dc5361        	l32r	a6, 430 (91cc <xtensa_real_fft_32b>)
    92e5:	03ad           	mov.n	a10, a3
    92e7:	02bd           	mov.n	a11, a2
    92e9:	3129           	s32i.n	a2, a1, 12
    92eb:	092d           	mov.n	a2, a9
    92ed:	0006e0        	callx8	a6
    92f0:	11f2e0        	slli	a15, a2, 2
    92f3:	603070        	neg	a3, a7
    92f6:	0f7d           	mov.n	a7, a15
    92f8:	3d1566        	bnei	a5, 1, 9339 <sw_fft_32b_2811+0xcd>
    92fb:	3128           	l32i.n	a2, a1, 12
    92fd:	a02320        	addx4	a2, a3, a2
    9300:	fd24bd020f 	{ ae_lq32f.i	aeq0, a2, 0; ae_zeroq56	aeq1 }
    9305:	0f17a6        	blti	a7, 1, 9318 <sw_fft_32b_2811+0xac>
    9308:	fe0453322f 	{ or	a3, a2, a2; ae_movq56	aeq2, aeq0 }
    930d:	078776        	loop	a7, 9318 <sw_fft_32b_2811+0xac>
    9310:	ff80bd531f 	{ ae_lq32f.iu	aeq2, a3, 4; ae_absq56	aeq3, aeq2 }
    9315:	0179e4        	ae_orq56	aeq1, aeq1, aeq3

00009318 <sw_fft_32b_2811+0xac>:
    9318:	621124        	ae_sq32f.i	aeq1, a1, 8
    931b:	2158           	l32i.n	a5, a1, 8
    931d:	030c           	movi.n	a3, 0
    931f:	40e560        	nsa	a6, a5
    9322:	b33650        	movgez	a3, a6, a5
    9325:	0d17a6        	blti	a7, 1, 9336 <sw_fft_32b_2811+0xca>
    9328:	0a8776        	loop	a7, 9336 <sw_fft_32b_2811+0xca>
    932b:	fc24fe830f 	{ ae_slaasq56s	aeq0, aeq0, a3; nop }
    9330:	620204        	ae_sq32f.i	aeq0, a2, 0
    9333:	601214        	ae_lq32f.iu	aeq0, a2, 4
    9336:	c04430        	sub	a4, a4, a3

00009339 <sw_fft_32b_2811+0xcd>:
    9339:	047d           	mov.n	a7, a4
    933b:	872d           	ae_sext16	a2, a7
    933d:	f01d           	retw.n

0000933f <sw_fft_32b_2811+0xd3>:
	...

00009340 <fractional_peak>:
    9340:	004136        	entry	a1, 32
    9343:	0358           	l32i.n	a5, a3, 0
    9345:	1368           	l32i.n	a6, a3, 4
    9347:	2378           	l32i.n	a7, a3, 8
    9349:	66a642        	movi	a4, 0x666
    934c:	c03650        	sub	a3, a6, a5
    934f:	300444        	ae_cvtp24a16x2.ll	aep0, a4, a4
    9352:	360334        	ae_cvtq48a32s	aeq0, a3
    9355:	d5e215467f 	{ sub	a4, a6, a7; ae_mulfq32sp16s.l	aeq2, aeq0, aep0 }
    935a:	364434        	ae_cvtq48a32s	aeq1, a4
    935d:	d6540000ef 	{ movi	a14, 0; ae_ltq56s	b0, aeq1, aeq2 }
    9362:	1f0c           	movi.n	a15, 1
    9364:	223b           	addi.n	a2, a2, 3
    9366:	d3ef00        	movt	a14, a15, b0
    9369:	012290        	slli	a2, a2, 23
    936c:	4e8c           	beqz.n	a14, 9374 <fractional_peak+0x34>
    936e:	dc3131        	l32r	a3, 434 (3eb852 <_end+0x3df472>)
    9371:	002946        	j	941a <fractional_peak+0xda>

00009374 <fractional_peak+0x34>:
    9374:	215330        	srai	a5, a3, 3
    9377:	05a457        	bge	a4, a5, 9380 <fractional_peak+0x40>
    937a:	dc2f31        	l32r	a3, 438 (333334 <_end+0x326f54>)
    937d:	002646        	j	941a <fractional_peak+0xda>

00009380 <fractional_peak+0x40>:
    9380:	215230        	srai	a5, a3, 2
    9383:	05a457        	bge	a4, a5, 938c <fractional_peak+0x4c>
    9386:	dc2d31        	l32r	a3, 43c (266667 <_end+0x25a287>)
    9389:	002346        	j	941a <fractional_peak+0xda>

0000938c <fractional_peak+0x4c>:
    938c:	353c           	movi.n	a5, 51
    938e:	33d552        	addmi	a5, a5, 0x3300
    9391:	301554        	ae_cvtp24a16x2.ll	aep1, a5, a5
    9394:	d5e60000ff 	{ movi	a15, 0; ae_mulfq32sp16s.l	aeq2, aeq0, aep1 }
    9399:	160c           	movi.n	a6, 1
    939b:	d654009a5f 	{ movi	a5, 154; ae_ltq56s	b0, aeq1, aeq2 }
    93a0:	dc2871        	l32r	a7, 440 (19999a <_end+0x18d5ba>)
    93a3:	59d552        	addmi	a5, a5, 0x5900
    93a6:	d3f600        	movt	a15, a6, b0
    93a9:	3f8c           	beqz.n	a15, 93b0 <fractional_peak+0x70>
    93ab:	073d           	mov.n	a3, a7
    93ad:	001a46        	j	941a <fractional_peak+0xda>

000093b0 <fractional_peak+0x70>:
    93b0:	d5e358a55f 	{ ae_cvtp24a16x2.ll	aep2, a5, a5; ae_mulfq32sp16s.l	aeq3, aeq1, aep0 }
    93b5:	d5ea0000ff 	{ movi	a15, 0; ae_mulfq32sp16s.l	aeq2, aeq0, aep2 }
    93ba:	d65840016f 	{ movi	a6, 1; ae_ltq56s	b1, aeq0, aeq3 }
    93bf:	d65400005f 	{ movi	a5, 0; ae_ltq56s	b0, aeq1, aeq2 }
    93c4:	db6971        	l32r	a7, 168 (ccccd <_end+0xc08ed>)
    93c7:	180c           	movi.n	a8, 1
    93c9:	d5e716f60f 	{ movt	a15, a6, b0; ae_mulfq32sp16s.l	aeq2, aeq1, aep1 }
    93ce:	3f8c           	beqz.n	a15, 93d5 <fractional_peak+0x95>
    93d0:	073d           	mov.n	a3, a7
    93d2:	001106        	j	941a <fractional_peak+0xda>

000093d5 <fractional_peak+0x95>:
    93d5:	d65016581f 	{ movt	a5, a8, b1; ae_ltq56s	b0, aeq0, aeq2 }
    93da:	458c           	beqz.n	a5, 93e2 <fractional_peak+0xa2>
    93dc:	dc1a31        	l32r	a3, 444 (ffc147ae <_end+0xffc083ce>)
    93df:	000dc6        	j	941a <fractional_peak+0xda>

000093e2 <fractional_peak+0xa2>:
    93e2:	215340        	srai	a5, a4, 3
    93e5:	05a357        	bge	a3, a5, 93ee <fractional_peak+0xae>
    93e8:	dc1831        	l32r	a3, 448 (ffcccccc <_end+0xffcc08ec>)
    93eb:	000ac6        	j	941a <fractional_peak+0xda>

000093ee <fractional_peak+0xae>:
    93ee:	214240        	srai	a4, a4, 2
    93f1:	05a347        	bge	a3, a4, 93fa <fractional_peak+0xba>
    93f4:	dc1631        	l32r	a3, 44c (ffd99999 <_end+0xffd8d5b9>)
    93f7:	0007c6        	j	941a <fractional_peak+0xda>

000093fa <fractional_peak+0xba>:
    93fa:	d4eb40003f 	{ movi	a3, 0; ae_mulfq32sp16s.l	aeq1, aeq1, aep2 }
    93ff:	140c           	movi.n	a4, 1
    9401:	d64816340f 	{ movt	a3, a4, b0; ae_ltq56s	b0, aeq0, aeq1 }
    9406:	438c           	beqz.n	a3, 940e <fractional_peak+0xce>
    9408:	dc1231        	l32r	a3, 450 (ffe66666 <_end+0xffe5a286>)
    940b:	0002c6        	j	941a <fractional_peak+0xda>

0000940e <fractional_peak+0xce>:
    940e:	dc1141        	l32r	a4, 454 (fff33333 <_end+0xfff26f53>)
    9411:	030430        	rsr.br	a3
    9414:	043030        	extui	a3, a3, 0, 1
    9417:	d33400        	movt	a3, a4, b0
    941a:	223a           	add.n	a2, a2, a3
    941c:	f01d           	retw.n

0000941e <fractional_peak+0xde>:
	...

00009420 <check_multiples>:
    9420:	006136        	entry	a1, 48
    9423:	fd7c           	movi.n	a13, -1
    9425:	dc0c81        	l32r	a8, 458 (ffe00001 <_end+0xffdf3c21>)
    9428:	fa7c           	movi.n	a10, -1
    942a:	01dda0        	slli	a13, a13, 22
    942d:	c09230        	sub	a9, a2, a3
    9430:	e9da           	add.n	a14, a9, a13
    9432:	01aab0        	slli	a10, a10, 21
    9435:	60d1e0        	abs	a13, a14
    9438:	1f0c           	movi.n	a15, 1
    943a:	b2aa           	add.n	a11, a2, a10
    943c:	828a           	add.n	a8, a2, a8
    943e:	460c           	movi.n	a6, 4
    9440:	3149           	s32i.n	a4, a1, 12
    9442:	050c           	movi.n	a5, 0
    9444:	432a           	add.n	a4, a3, a2
    9446:	0c0c           	movi.n	a12, 0
    9448:	0bed           	mov.n	a14, a11
    944a:	c0ffd0        	sub	a15, a15, a13
    944d:	08ad           	mov.n	a10, a8
    944f:	6090d0        	neg	a9, a13
    9452:	588676        	loop	a6, 94ae <check_multiples+0x8e>
    9455:	d22ed0        	quos	a2, a14, a13
    9458:	826920        	mull	a6, a9, a2
    945b:	827f20        	mull	a7, a15, a2
    945e:	6e6a           	add.n	a6, a14, a6
    9460:	726560        	salt	a6, a5, a6
    9463:	226a           	add.n	a2, a2, a6
    9465:	9022c0        	addx2	a2, a2, a12
    9468:	221b           	addi.n	a2, a2, 1
    946a:	776a           	add.n	a7, a7, a6
    946c:	936960        	movnez	a6, a9, a6
    946f:	822d           	ae_sext16	a2, a2
    9471:	667a           	add.n	a6, a6, a7
    9473:	0132a0        	slli	a3, a2, 22
    9476:	7a6a           	add.n	a7, a10, a6
    9478:	603030        	neg	a3, a3
    947b:	060c           	movi.n	a6, 0
    947d:	25a377        	bge	a3, a7, 94a6 <check_multiples+0x86>
    9480:	3138           	l32i.n	a3, a1, 12
    9482:	d22420        	quos	a2, a4, a2
    9485:	dbf571        	l32r	a7, 45c (28f5e <_end+0x1cb7e>)
    9488:	c03230        	sub	a3, a2, a3
    948b:	f67c           	movi.n	a6, -1
    948d:	603130        	abs	a3, a3
    9490:	016690        	slli	a6, a6, 23
    9493:	172377        	blt	a3, a7, 94ae <check_multiples+0x8e>
    9496:	dbf231        	l32r	a3, 460 (fe924dd3 <_end+0xfe9189f3>)
    9499:	dbf261        	l32r	a6, 464 (4d24dd3 <_end+0x4d189f3>)
    949c:	323a           	add.n	a3, a2, a3
    949e:	623630        	saltu	a3, a6, a3
    94a1:	932530        	movnez	a2, a5, a3
    94a4:	026d           	mov.n	a6, a2

000094a6 <check_multiples+0x86>:
    94a6:	46cc           	bnez.n	a6, 94ae <check_multiples+0x8e>
    94a8:	eeba           	add.n	a14, a14, a11
    94aa:	cc1b           	addi.n	a12, a12, 1
    94ac:	aa8a           	add.n	a10, a10, a8

000094ae <check_multiples+0x8e>:
    94ae:	062d           	mov.n	a2, a6
    94b0:	f01d           	retw.n

000094b2 <check_multiples+0x92>:
	...

000094b4 <harmonic_scan>:
    94b4:	006136        	entry	a1, 48
    94b7:	0213e6        	bgei	a3, 1, 94bd <harmonic_scan+0x9>
    94ba:	002646        	j	9557 <harmonic_scan+0xa3>
    94bd:	dbdeb1        	l32r	a11, 438 (333334 <_end+0x326f54>)
    94c0:	db3381        	l32r	a8, 18c (13ffffff <_end+0x13ff3c1f>)
    94c3:	933d           	ae_zext16	a3, a3
    94c5:	026d           	mov.n	a6, a2
    94c7:	3159           	s32i.n	a5, a1, 12
    94c9:	217140        	srai	a7, a4, 1
    94cc:	020c           	movi.n	a2, 0
    94ce:	0c0c           	movi.n	a12, 0
    94d0:	0e0c           	movi.n	a14, 0
    94d2:	00a0d2        	movi	a13, 0
    94d5:	6a8376        	loop	a3, 9543 <harmonic_scan+0x8f>
    94d8:	06a8           	l32i.n	a10, a6, 0
    94da:	0b3d           	mov.n	a3, a11
    94dc:	dbe351        	l32r	a5, 468 (effffff <_end+0xeff3c1f>)
    94df:	1428a7        	blt	a8, a10, 94f7 <harmonic_scan+0x43>
    94e2:	db0831        	l32r	a3, 104 (2ccccd <_end+0x2c08ed>)
    94e5:	0e25a7        	blt	a5, a10, 94f7 <harmonic_scan+0x43>
    94e8:	dbe131        	l32r	a3, 46c (77fffff <_end+0x77f3c1f>)
    94eb:	dbd451        	l32r	a5, 43c (266667 <_end+0x25a287>)
    94ee:	7293a0        	salt	a9, a3, a10
    94f1:	dbdf31        	l32r	a3, 470 (21eb86 <_end+0x2127a6>)
    94f4:	933590        	movnez	a3, a5, a9

000094f7 <harmonic_scan+0x43>:
    94f7:	d29a40        	quos	a9, a10, a4
    94fa:	82f940        	mull	a15, a9, a4
    94fd:	c0faf0        	sub	a15, a10, a15
    9500:	7257f0        	salt	a5, a7, a15
    9503:	995a           	add.n	a9, a9, a5
    9505:	935450        	movnez	a5, a4, a5
    9508:	c05f50        	sub	a5, a15, a5
    950b:	393a           	add.n	a3, a9, a3
    950d:	605150        	abs	a5, a5
    9510:	2d2357        	blt	a3, a5, 9541 <harmonic_scan+0x8d>
    9513:	2133a0        	srai	a3, a10, 3
    9516:	1f1c           	movi.n	a15, 17
    9518:	c3ca           	add.n	a12, a3, a12
    951a:	013f80        	slli	a3, a15, 24
    951d:	dd9a           	add.n	a13, a13, a9
    951f:	ee1b           	addi.n	a14, a14, 1
    9521:	0723a7        	blt	a3, a10, 952c <harmonic_scan+0x78>
    9524:	130c           	movi.n	a3, 1
    9526:	013390        	slli	a3, a3, 23
    9529:	000486        	j	953f <harmonic_scan+0x8b>

0000952c <harmonic_scan+0x78>:
    952c:	531c           	movi.n	a3, 21
    952e:	013380        	slli	a3, a3, 24
    9531:	0523a7        	blt	a3, a10, 953a <harmonic_scan+0x86>
    9534:	dbd031        	l32r	a3, 474 (666667 <_end+0x65a287>)
    9537:	000106        	j	953f <harmonic_scan+0x8b>

0000953a <harmonic_scan+0x86>:
    953a:	130c           	movi.n	a3, 1
    953c:	0133a0        	slli	a3, a3, 22
    953f:	223a           	add.n	a2, a2, a3
    9541:	664b           	addi.n	a6, a6, 4

00009543 <harmonic_scan+0x8f>:
    9543:	3158           	l32i.n	a5, a1, 12
    9545:	8e4d           	ae_sext16	a4, a14
    9547:	030c           	movi.n	a3, 0
    9549:	0e34a6        	blti	a4, 3, 955b <harmonic_scan+0xa7>
    954c:	8d3d           	ae_sext16	a3, a13
    954e:	d23c30        	quos	a3, a12, a3
    9551:	1133d0        	slli	a3, a3, 3
    9554:	0000c6        	j	955b <harmonic_scan+0xa7>

00009557 <harmonic_scan+0xa3>:
    9557:	020c           	movi.n	a2, 0
    9559:	030c           	movi.n	a3, 0
    955b:	0539           	s32i.n	a3, a5, 0
    955d:	f01d           	retw.n

0000955f <harmonic_scan+0xab>:
	...

00009560 <Max5>:
    9560:	004136        	entry	a1, 32
    9563:	023d           	mov.n	a3, a2
    9565:	0228           	l32i.n	a2, a2, 0
    9567:	440c           	movi.n	a4, 4
    9569:	334b           	addi.n	a3, a3, 4
    956b:	068476        	loop	a4, 9575 <Max5+0x15>
    956e:	0348           	l32i.n	a4, a3, 0
    9570:	334b           	addi.n	a3, a3, 4
    9572:	532240        	max	a2, a2, a4

00009575 <Max5+0x15>:
    9575:	f01d           	retw.n

00009577 <Max5+0x17>:
	...

00009578 <Pitch_2Mic>:
    9578:	010136        	entry	a1, 128
    957b:	06d232        	addmi	a3, a2, 0x600
    957e:	1368           	l32i.n	a6, a3, 4
    9580:	02d252        	addmi	a5, a2, 0x200
    9583:	0338           	l32i.n	a3, a3, 0
    9585:	ff2542        	l32i	a4, a5, 0x3fc
    9588:	573c           	movi.n	a7, 53
    958a:	065d           	mov.n	a5, a6
    958c:	d129           	s32i.n	a2, a1, 52
    958e:	116162        	s32i	a6, a1, 68

00009591 <Pitch_2Mic+0x19>:
    9591:	0368           	l32i.n	a6, a3, 0
    9593:	d128           	l32i.n	a2, a1, 52
    9595:	40e680        	nsa	a8, a6
    9598:	888d           	ae_sext16	a8, a8
    959a:	089292        	l16si	a9, a2, 16
    959d:	401800        	ssl	a8
    95a0:	a1a600        	sll	a10, a6
    95a3:	daf561        	l32r	a6, 178 (6d8 <Log2_norm>)
    95a6:	c0b980        	sub	a11, a9, a8
    95a9:	0006e0        	callx8	a6
    95ac:	05a9           	s32i.n	a10, a5, 0
    95ae:	04f8           	l32i.n	a15, a4, 0
    95b0:	089262        	l16si	a6, a2, 16
    95b3:	770b           	addi.n	a7, a7, -1
    95b5:	40ef80        	nsa	a8, a15
    95b8:	888d           	ae_sext16	a8, a8
    95ba:	401800        	ssl	a8
    95bd:	c0b680        	sub	a11, a6, a8
    95c0:	daee61        	l32r	a6, 178 (6d8 <Log2_norm>)
    95c3:	a1af00        	sll	a10, a15
    95c6:	0006e0        	callx8	a6
    95c9:	3565a2        	s32i	a10, a5, 212
    95cc:	444b           	addi.n	a4, a4, 4
    95ce:	334b           	addi.n	a3, a3, 4
    95d0:	554b           	addi.n	a5, a5, 4
    95d2:	fbb756        	bnez	a7, 9591 <Pitch_2Mic+0x19>
    95d5:	1121d2        	l32i	a13, a1, 68
    95d8:	a8a122        	movi	a2, 0x1a8
    95db:	dba731        	l32r	a3, 478 (cb333334 <_end+0xcb326f54>)
    95de:	dba7f1        	l32r	a15, 47c (fb333334 <_end+0xfb326f54>)
    95e1:	d8a062        	movi	a6, 216
    95e4:	080c           	movi.n	a8, 0
    95e6:	2d2a           	add.n	a2, a13, a2
    95e8:	136122        	s32i	a2, a1, 76
    95eb:	0e0c           	movi.n	a14, 0
    95ed:	250c           	movi.n	a5, 2
    95ef:	373c           	movi.n	a7, 51
    95f1:	440c           	movi.n	a4, 4
    95f3:	146182        	s32i	a8, a1, 80
    95f6:	0d2d           	mov.n	a2, a13
    95f8:	6d6a           	add.n	a6, a13, a6
    95fa:	2298           	l32i.n	a9, a2, 8
    95fc:	058d           	mov.n	a8, a5
    95fe:	551b           	addi.n	a5, a5, 1
    9600:	6f2937        	blt	a9, a3, 9673 <Pitch_2Mic+0xfb>
    9603:	02a8           	l32i.n	a10, a2, 0
    9605:	b24b           	addi.n	a11, a2, 4
    9607:	068476        	loop	a4, 9611 <Pitch_2Mic+0x99>
    960a:	0bc8           	l32i.n	a12, a11, 0
    960c:	bb4b           	addi.n	a11, a11, 4
    960e:	53aac0        	max	a10, a10, a12

00009611 <Pitch_2Mic+0x99>:
    9611:	5e99a7        	bne	a9, a10, 9673 <Pitch_2Mic+0xfb>
    9614:	3722a2        	l32i	a10, a2, 220
    9617:	06cd           	mov.n	a12, a6
    9619:	c0a9a0        	sub	a10, a9, a10
    961c:	532af7        	blt	a10, a15, 9673 <Pitch_2Mic+0xfb>
    961f:	3522b2        	l32i	a11, a2, 212
    9622:	068476        	loop	a4, 962c <Pitch_2Mic+0xb4>
    9625:	0cd8           	l32i.n	a13, a12, 0
    9627:	cc4b           	addi.n	a12, a12, 4
    9629:	53bbd0        	max	a11, a11, a13
    962c:	dc7c           	movi.n	a12, -3
    962e:	01cc60        	slli	a12, a12, 26
    9631:	cbca           	add.n	a12, a11, a12
    9633:	3cac97        	bge	a12, a9, 9673 <Pitch_2Mic+0xfb>
    9636:	db47c1        	l32r	a12, 354 (4cccccd <_end+0x4cc08ed>)
    9639:	022ac7        	blt	a10, a12, 963f <Pitch_2Mic+0xc7>
    963c:	33ab97        	bge	a11, a9, 9673 <Pitch_2Mic+0xfb>

0000963f <Pitch_2Mic+0xc7>:
    963f:	889d           	ae_sext16	a9, a8
    9641:	f81b           	addi.n	a15, a8, 1
    9643:	db8f81        	l32r	a8, 480 (9340 <fractional_peak>)
    9646:	b24b           	addi.n	a11, a2, 4
    9648:	8fad           	ae_sext16	a10, a15
    964a:	c199           	s32i.n	a9, a1, 48
    964c:	1061e2        	s32i	a14, a1, 64
    964f:	0008e0        	callx8	a8
    9652:	142192        	l32i	a9, a1, 80
    9655:	c1c8           	l32i.n	a12, a1, 48
    9657:	1321d2        	l32i	a13, a1, 76
    965a:	1021e2        	l32i	a14, a1, 64
    965d:	891b           	addi.n	a8, a9, 1
    965f:	899d           	ae_sext16	a9, a9
    9661:	6b2c           	movi.n	a11, 38
    9663:	db86f1        	l32r	a15, 47c (fb333334 <_end+0xfb326f54>)
    9666:	72bcb0        	salt	a11, a12, a11
    9669:	a099d0        	addx4	a9, a9, a13
    966c:	eeba           	add.n	a14, a14, a11
    966e:	146182        	s32i	a8, a1, 80
    9671:	09a9           	s32i.n	a10, a9, 0
    9673:	664b           	addi.n	a6, a6, 4
    9675:	224b           	addi.n	a2, a2, 4
    9677:	021577        	beq	a5, a7, 967d <Pitch_2Mic+0x105>
    967a:	ffdf06        	j	95fa <Pitch_2Mic+0x82>
    967d:	060c           	movi.n	a6, 0
    967f:	8e2d           	ae_sext16	a2, a14
    9681:	9169           	s32i.n	a6, a1, 36
    9683:	a169           	s32i.n	a6, a1, 40
    9685:	0232e6        	bgei	a2, 3, 968b <Pitch_2Mic+0x113>
    9688:	005d06        	j	9800 <Pitch_2Mic+0x288>
    968b:	d148           	l32i.n	a4, a1, 52
    968d:	1121c2        	l32i	a12, a1, 68
    9690:	66a032        	movi	a3, 102
    9693:	9e2d           	ae_zext16	a2, a14
    9695:	06d452        	addmi	a5, a4, 0x600
    9698:	46d332        	addmi	a3, a3, 0x4600
    969b:	06d442        	addmi	a4, a4, 0x600
    969e:	1fa5a2        	movi	a10, 0x51f
    96a1:	b8a6b2        	movi	a11, 0x6b8
    96a4:	aca162        	movi	a6, 0x1ac
    96a7:	070c           	movi.n	a7, 0
    96a9:	f149           	s32i.n	a4, a1, 60
    96ab:	4c6a           	add.n	a4, a12, a6
    96ad:	300aa4        	ae_cvtp24a16x2.ll	aep0, a10, a10
    96b0:	306bb4        	ae_cvtp24a16x2.ll	aep6, a11, a11
    96b3:	307334        	ae_cvtp24a16x2.ll	aep7, a3, a3
    96b6:	220b           	addi.n	a2, a2, -1
    96b8:	0d0c           	movi.n	a13, 0
    96ba:	1321e2        	l32i	a14, a1, 76
    96bd:	0f0c           	movi.n	a15, 0
    96bf:	e159           	s32i.n	a5, a1, 56
    96c1:	560114        	ae_sp24x2s.i	aep0, a1, 8
    96c4:	566124        	ae_sp24x2s.i	aep6, a1, 16
    96c7:	166142        	s32i	a4, a1, 88
    96ca:	567134        	ae_sp24x2s.i	aep7, a1, 24
    96cd:	9179           	s32i.n	a7, a1, 36
    96cf:	1261d2        	s32i	a13, a1, 72
    96d2:	1061e2        	s32i	a14, a1, 64
    96d5:	0c0c           	movi.n	a12, 0
    96d7:	023d           	mov.n	a3, a2
    96d9:	c1f9           	s32i.n	a15, a1, 48
    96db:	156122        	s32i	a2, a1, 84
    96de:	000846        	j	9703 <Pitch_2Mic+0x18b>

000096e1 <Pitch_2Mic+0x169>:
    96e1:	122122        	l32i	a2, a1, 72
    96e4:	172132        	l32i	a3, a1, 92
    96e7:	112172        	l32i	a7, a1, 68
    96ea:	1021f2        	l32i	a15, a1, 64
    96ed:	221b           	addi.n	a2, a2, 1
    96ef:	1e0c           	movi.n	a14, 1
    96f1:	126122        	s32i	a2, a1, 72
    96f4:	112e00        	slli	a2, a14, 16
    96f7:	772a           	add.n	a7, a7, a2
    96f9:	330b           	addi.n	a3, a3, -1
    96fb:	2f4b           	addi.n	a2, a15, 4
    96fd:	106122        	s32i	a2, a1, 64
    9700:	109316        	beqz	a3, 980d <Pitch_2Mic+0x295>
    9703:	152122        	l32i	a2, a1, 84
    9706:	31f070        	srai	a15, a7, 16
    9709:	176132        	s32i	a3, a1, 92
    970c:	116172        	s32i	a7, a1, 68
    970f:	ceaf27        	bge	a15, a2, 96e1 <Pitch_2Mic+0x169>
    9712:	122122        	l32i	a2, a1, 72
    9715:	1521e2        	l32i	a14, a1, 84
    9718:	1621f2        	l32i	a15, a1, 88
    971b:	823d           	ae_sext16	a3, a2
    971d:	c07e30        	sub	a7, a14, a3
    9720:	a033f0        	addx4	a3, a3, a15
    9723:	000a06        	j	974f <Pitch_2Mic+0x1d7>

00009726 <Pitch_2Mic+0x1ae>:
    9726:	540124        	ae_lp24x2.i	aep0, a1, 16
    9729:	d4e340036f 	{ movi	a6, 3; ae_mulfq32sp16s.l	aeq1, aeq1, aep0 }
    972e:	0166b0        	slli	a6, a6, 21
    9731:	d64830c19e 	{ l32i	a9, a1, 48; ae_ltq56s	b0, aeq0, aeq1 }
    9736:	656a           	add.n	a6, a5, a6
    9738:	d35600        	movt	a5, a6, b0
    973b:	726950        	salt	a6, a9, a5
    973e:	53f590        	max	a15, a5, a9
    9741:	932460        	movnez	a2, a4, a6
    9744:	c1f9           	s32i.n	a15, a1, 48
    9746:	770b           	addi.n	a7, a7, -1
    9748:	334b           	addi.n	a3, a3, 4
    974a:	02cd           	mov.n	a12, a2
    974c:	f91716        	beqz	a7, 96e1 <Pitch_2Mic+0x169>
    974f:	102122        	l32i	a2, a1, 64
    9752:	3f1c           	movi.n	a15, 19
    9754:	db4c41        	l32r	a4, 484 (9420 <check_multiples>)
    9757:	02a8           	l32i.n	a10, a2, 0
    9759:	012f80        	slli	a2, a15, 24
    975c:	8122a7        	blt	a2, a10, 96e1 <Pitch_2Mic+0x169>
    975f:	03b8           	l32i.n	a11, a3, 0
    9761:	0c2d           	mov.n	a2, a12
    9763:	0004e0        	callx8	a4
    9766:	dc1aa6        	blti	a10, 1, 9746 <Pitch_2Mic+0x1ce>
    9769:	142142        	l32i	a4, a1, 80
    976c:	0acd           	mov.n	a12, a10
    976e:	28c152        	addi	a5, a1, 40
    9771:	84bd           	ae_sext16	a11, a4
    9773:	1321a2        	l32i	a10, a1, 76
    9776:	db4441        	l32r	a4, 488 (94b4 <harmonic_scan>)
    9779:	05dd           	mov.n	a13, a5
    977b:	0004e0        	callx8	a4
    977e:	a148           	l32i.n	a4, a1, 40
    9780:	db4381        	l32r	a8, 48c (399999a <_end+0x398d5ba>)
    9783:	0a6d           	mov.n	a6, a10
    9785:	bd14a6        	blti	a4, 1, 9746 <Pitch_2Mic+0x1ce>
    9788:	8f0c           	movi.n	a15, 8
    978a:	438480        	min	a8, a4, a8
    978d:	40e890        	nsa	a9, a8
    9790:	899d           	ae_sext16	a9, a9
    9792:	401900        	ssl	a9
    9795:	a1a800        	sll	a10, a8
    9798:	da7881        	l32r	a8, 178 (6d8 <Log2_norm>)
    979b:	c0bf90        	sub	a11, a15, a9
    979e:	0008e0        	callx8	a8
    97a1:	21e2a0        	srai	a14, a10, 2
    97a4:	368e34        	ae_cvtq48a32s	aeq2, a14
    97a7:	540134        	ae_lp24x2.i	aep0, a1, 24
    97aa:	f1d8           	l32i.n	a13, a1, 60
    97ac:	d7e202c19e 	{ addi	a9, a1, 44; ae_mulfq32sp16s.l	aeq2, aeq2, aep0 }
    97b1:	d1f8           	l32i.n	a15, a1, 52
    97b3:	b1e9           	s32i.n	a14, a1, 44
    97b5:	622904        	ae_sq32f.i	aeq2, a9, 0
    97b8:	600504        	ae_lq32f.i	aeq0, a5, 0
    97bb:	b158           	l32i.n	a5, a1, 44
    97bd:	1ca6b2        	movi	a11, 0x61c
    97c0:	0d1d82        	l16ui	a8, a13, 26
    97c3:	606fb4        	ae_lq32f.x	aeq1, a15, a11
    97c6:	f82af0711f 	{ ae_lp24x2.i	aep7, a1, 8; ae_subq56	aeq0, aeq1, aeq0 }
    97cb:	d5ff10556f 	{ add	a5, a5, a6; ae_mulfq32sp16s.l	aeq2, aeq1, aep7 }
    97d0:	fc08b0c19e 	{ l32i	a9, a1, 48; ae_abssq56s	aeq0, aeq0 }
    97d5:	1828b6        	bltui	a8, 2, 97f1 <Pitch_2Mic+0x279>
    97d8:	d65000006f 	{ movi	a6, 0; ae_ltq56s	b0, aeq0, aeq2 }
    97dd:	180c           	movi.n	a8, 1
    97df:	1a0c           	movi.n	a10, 1
    97e1:	d36800        	movt	a6, a8, b0
    97e4:	f3e616        	beqz	a6, 9726 <Pitch_2Mic+0x1ae>
    97e7:	c198           	l32i.n	a9, a1, 48
    97e9:	016a90        	slli	a6, a10, 23
    97ec:	556a           	add.n	a5, a5, a6
    97ee:	ffd246        	j	973b <Pitch_2Mic+0x1c3>

000097f1 <Pitch_2Mic+0x279>:
    97f1:	021826        	beqi	a8, 1, 97f7 <Pitch_2Mic+0x27f>
    97f4:	ffd0c6        	j	973b <Pitch_2Mic+0x1c3>
    97f7:	dae961        	l32r	a6, 39c (266666 <_end+0x25a286>)
    97fa:	09a004        	ae_ltq56s	b0, aeq0, aeq2
    97fd:	ffcd46        	j	9736 <Pitch_2Mic+0x1be>

00009800 <Pitch_2Mic+0x288>:
    9800:	d158           	l32i.n	a5, a1, 52
    9802:	06d5f2        	addmi	a15, a5, 0x600
    9805:	0d5f62        	s16i	a6, a15, 26
    9808:	7f69           	s32i.n	a6, a15, 28
    980a:	0024c6        	j	98a1 <Pitch_2Mic+0x329>

0000980d <Pitch_2Mic+0x295>:
    980d:	c168           	l32i.n	a6, a1, 48
    980f:	db2021        	l32r	a2, 490 (299999a <_end+0x298d5ba>)
    9812:	91c9           	s32i.n	a12, a1, 36
    9814:	f138           	l32i.n	a3, a1, 60
    9816:	3d2627        	blt	a6, a2, 9857 <Pitch_2Mic+0x2df>
    9819:	f128           	l32i.n	a2, a1, 60
    981b:	d158           	l32i.n	a5, a1, 52
    981d:	24c132        	addi	a3, a1, 36
    9820:	0d1222        	l16ui	a2, a2, 26
    9823:	1ca642        	movi	a4, 0x61c
    9826:	602544        	ae_lq32f.x	aeq0, a5, a4
    9829:	604304        	ae_lq32f.i	aeq1, a3, 0
    982c:	4822b6        	bltui	a2, 2, 9878 <Pitch_2Mic+0x300>
    982f:	36d054        	ae_sllisq56s	aeq3, aeq1, 1
    9832:	fba6f0011f 	{ ae_lp24x2.i	aep0, a1, 8; ae_subq56	aeq3, aeq0, aeq3 }
    9837:	d5e200003f 	{ movi	a3, 0; ae_mulfq32sp16s.l	aeq2, aeq0, aep0 }
    983c:	ff8c80014f 	{ movi	a4, 1; ae_abssq56s	aeq3, aeq3 }
    9841:	d6d43b10df 	{ ae_sraiq56	aeq3, aeq1, 1; ae_ltq56s	b0, aeq3, aeq2 }
    9846:	070c           	movi.n	a7, 0
    9848:	180c           	movi.n	a8, 1
    984a:	fba6d6340f 	{ movt	a3, a4, b0; ae_subq56	aeq3, aeq0, aeq3 }
    984f:	239c           	beqz.n	a3, 9865 <Pitch_2Mic+0x2ed>
    9851:	11ccf0        	slli	a12, a12, 1
    9854:	0006c6        	j	9873 <Pitch_2Mic+0x2fb>

00009857 <Pitch_2Mic+0x2df>:
    9857:	e1f8           	l32i.n	a15, a1, 56
    9859:	d158           	l32i.n	a5, a1, 52
    985b:	020c           	movi.n	a2, 0
    985d:	0d5322        	s16i	a2, a3, 26
    9860:	7f29           	s32i.n	a2, a15, 28
    9862:	000ec6        	j	98a1 <Pitch_2Mic+0x329>

00009865 <Pitch_2Mic+0x2ed>:
    9865:	06fb24        	ae_abssq56s	aeq3, aeq3
    9868:	09a304        	ae_ltq56s	b0, aeq3, aeq2
    986b:	d37800        	movt	a7, a8, b0
    986e:	678c           	beqz.n	a7, 9878 <Pitch_2Mic+0x300>
    9870:	21c1c0        	srai	a12, a12, 1
    9873:	91c9           	s32i.n	a12, a1, 36
    9875:	000906        	j	989d <Pitch_2Mic+0x325>

00009878 <Pitch_2Mic+0x300>:
    9878:	f926c6663f 	{ movi	a3, 0x666; ae_subq56	aeq1, aeq0, aeq1 }
    987d:	fd0c98833f 	{ ae_cvtp24a16x2.ll	aep0, a3, a3; ae_abssq56s	aeq1, aeq1 }
    9882:	d5e24000ff 	{ movi	a15, 0; ae_mulfq32sp16s.l	aeq3, aeq0, aep0 }
    9887:	140c           	movi.n	a4, 1
    9889:	d65c00122e 	{ addi	a2, a2, 1; ae_ltq56s	b0, aeq1, aeq3 }
    988e:	d3f400        	movt	a15, a4, b0
    9891:	1f8c           	beqz.n	a15, 9896 <Pitch_2Mic+0x31e>
    9893:	000046        	j	9898 <Pitch_2Mic+0x320>

00009896 <Pitch_2Mic+0x31e>:
    9896:	020c           	movi.n	a2, 0
    9898:	f138           	l32i.n	a3, a1, 60
    989a:	0d5322        	s16i	a2, a3, 26
    989d:	e128           	l32i.n	a2, a1, 56
    989f:	72c9           	s32i.n	a12, a2, 28
    98a1:	06d522        	addmi	a2, a5, 0x600
    98a4:	8269           	s32i.n	a6, a2, 32
    98a6:	f01d           	retw.n

000098a8 <common_ECNR_PARA_init_v2>:
    98a8:	004136        	entry	a1, 32
    98ab:	da0141        	l32r	a4, b0 (9a58 <xt_memcpy>)
    98ae:	b32b           	addi.n	a11, a3, 2
    98b0:	a28b           	addi.n	a10, a2, 8
    98b2:	79a0c2        	movi	a12, 121
    98b5:	0004e0        	callx8	a4
    98b8:	fca052        	movi	a5, 252
    98bb:	f4a062        	movi	a6, 244
    98be:	a25a           	add.n	a10, a2, a5
    98c0:	b36a           	add.n	a11, a3, a6
    98c2:	5c0c           	movi.n	a12, 5
    98c4:	0004e0        	callx8	a4
    98c7:	08a152        	movi	a5, 0x108
    98ca:	fea062        	movi	a6, 254
    98cd:	a25a           	add.n	a10, a2, a5
    98cf:	b36a           	add.n	a11, a3, a6
    98d1:	60a0c2        	movi	a12, 96
    98d4:	0004e0        	callx8	a4
    98d7:	c8a152        	movi	a5, 0x1c8
    98da:	f4a262        	movi	a6, 0x2f4
    98dd:	a25a           	add.n	a10, a2, a5
    98df:	b36a           	add.n	a11, a3, a6
    98e1:	7c0c           	movi.n	a12, 7
    98e3:	0004e0        	callx8	a4
    98e6:	d6a152        	movi	a5, 0x1d6
    98e9:	18a362        	movi	a6, 0x318
    98ec:	a25a           	add.n	a10, a2, a5
    98ee:	b36a           	add.n	a11, a3, a6
    98f0:	ec1c           	movi.n	a12, 30
    98f2:	0004e0        	callx8	a4
    98f5:	d9e831        	l32r	a3, 98 (c3d4 <p_ecnr_mem>)
    98f8:	0338           	l32i.n	a3, a3, 0
    98fa:	0239           	s32i.n	a3, a2, 0
    98fc:	f01d           	retw.n

000098fe <common_ECNR_PARA_init_v2+0x56>:
	...

00009900 <TX_ECNR_PARA_init>:
    9900:	004136        	entry	a1, 32
    9903:	d9e551        	l32r	a5, 98 (c3d4 <p_ecnr_mem>)
    9906:	d9e961        	l32r	a6, ac (c3dc <aec_nr_para>)
    9909:	dae271        	l32r	a7, 494 (98a8 <common_ECNR_PARA_init_v2>)
    990c:	05a8           	l32i.n	a10, a5, 0
    990e:	03bd           	mov.n	a11, a3
    9910:	06a9           	s32i.n	a10, a6, 0
    9912:	0007e0        	callx8	a7
    9915:	0538           	l32i.n	a3, a5, 0
    9917:	0678           	l32i.n	a7, a6, 0
    9919:	12a2f2        	movi	a15, 0x212
    991c:	1ad332        	addmi	a3, a3, 0x1a00
    991f:	049782        	l16si	a8, a7, 8
    9922:	1b5382        	s16i	a8, a3, 54
    9925:	d9e231        	l32r	a3, b0 (9a58 <xt_memcpy>)
    9928:	72ac           	beqz.n	a2, 9953 <TX_ECNR_PARA_init+0x53>
    992a:	829722        	l16si	a2, a7, 0x104
    992d:	b42b           	addi.n	a11, a4, 2
    992f:	a7fa           	add.n	a10, a7, a15
    9931:	80a0c2        	movi	a12, 128
    9934:	025722        	s16i	a2, a7, 4
    9937:	0003e0        	callx8	a3
    993a:	0628           	l32i.n	a2, a6, 0
    993c:	12a372        	movi	a7, 0x312
    993f:	140c           	movi.n	a4, 1
    9941:	80a082        	movi	a8, 128
    9944:	114440        	slli	a4, a4, 12
    9947:	727a           	add.n	a7, a2, a7
    9949:	038876        	loop	a8, 9950 <TX_ECNR_PARA_init+0x50>
    994c:	674d           	ae_s16i.n	a4, a7, 0
    994e:	772b           	addi.n	a7, a7, 2

00009950 <TX_ECNR_PARA_init+0x50>:
    9950:	000506        	j	9968 <TX_ECNR_PARA_init+0x68>

00009953 <TX_ECNR_PARA_init+0x53>:
    9953:	12a2f2        	movi	a15, 0x212
    9956:	819722        	l16si	a2, a7, 0x102
    9959:	b42b           	addi.n	a11, a4, 2
    995b:	a7fa           	add.n	a10, a7, a15
    995d:	00a1c2        	movi	a12, 0x100
    9960:	025722        	s16i	a2, a7, 4
    9963:	0003e0        	callx8	a3
    9966:	0628           	l32i.n	a2, a6, 0
    9968:	0548           	l32i.n	a4, a5, 0
    996a:	89a672        	movi	a7, 0x689
    996d:	1177e0        	slli	a7, a7, 2
    9970:	baa182        	movi	a8, 0x1ba
    9973:	b28a           	add.n	a11, a2, a8
    9975:	a47a           	add.n	a10, a4, a7
    9977:	4c0c           	movi.n	a12, 4
    9979:	0003e0        	callx8	a3
    997c:	0628           	l32i.n	a2, a6, 0
    997e:	0538           	l32i.n	a3, a5, 0
    9980:	db9222        	l16si	a2, a2, 0x1b6
    9983:	70d332        	addmi	a3, a3, 0x7000
    9986:	375322        	s16i	a2, a3, 110
    9989:	f01d           	retw.n

0000998b <TX_ECNR_PARA_init+0x8b>:
	...

0000998c <RX_ECNR_PARA_init>:
    998c:	004136        	entry	a1, 32
    998f:	d9c251        	l32r	a5, 98 (c3d4 <p_ecnr_mem>)
    9992:	d9c661        	l32r	a6, ac (c3dc <aec_nr_para>)
    9995:	dabf71        	l32r	a7, 494 (98a8 <common_ECNR_PARA_init_v2>)
    9998:	05a8           	l32i.n	a10, a5, 0
    999a:	03bd           	mov.n	a11, a3
    999c:	06a9           	s32i.n	a10, a6, 0
    999e:	0007e0        	callx8	a7
    99a1:	0638           	l32i.n	a3, a6, 0
    99a3:	12a272        	movi	a7, 0x212
    99a6:	b42b           	addi.n	a11, a4, 2
    99a8:	a37a           	add.n	a10, a3, a7
    99aa:	12ac           	beqz.n	a2, 99cf <RX_ECNR_PARA_init+0x43>
    99ac:	d9c121        	l32r	a2, b0 (9a58 <xt_memcpy>)
    99af:	80a0c2        	movi	a12, 128
    99b2:	0002e0        	callx8	a2
    99b5:	0628           	l32i.n	a2, a6, 0
    99b7:	12a342        	movi	a4, 0x312
    99ba:	130c           	movi.n	a3, 1
    99bc:	80a0f2        	movi	a15, 128
    99bf:	113340        	slli	a3, a3, 12
    99c2:	804240        	add	a4, a2, a4
    99c5:	038f76        	loop	a15, 99cc <RX_ECNR_PARA_init+0x40>
    99c8:	643d           	ae_s16i.n	a3, a4, 0
    99ca:	442b           	addi.n	a4, a4, 2

000099cc <RX_ECNR_PARA_init+0x40>:
    99cc:	000286        	j	99da <RX_ECNR_PARA_init+0x4e>

000099cf <RX_ECNR_PARA_init+0x43>:
    99cf:	d9b821        	l32r	a2, b0 (9a58 <xt_memcpy>)
    99d2:	00a1c2        	movi	a12, 0x100
    99d5:	0002e0        	callx8	a2
    99d8:	0628           	l32i.n	a2, a6, 0
    99da:	da9222        	l16si	a2, a2, 0x1b4
    99dd:	0538           	l32i.n	a3, a5, 0
    99df:	220b           	addi.n	a2, a2, -1
    99e1:	70d332        	addmi	a3, a3, 0x7000
    99e4:	365322        	s16i	a2, a3, 108
    99e7:	f01d           	retw.n

000099e9 <RX_ECNR_PARA_init+0x5d>:
    99e9:	000000                                        ...

000099ec <EQ_update>:
    99ec:	004136        	entry	a1, 32
    99ef:	d9aa41        	l32r	a4, 98 (c3d4 <p_ecnr_mem>)
    99f2:	d8a052        	movi	a5, 216
    99f5:	6bd552        	addmi	a5, a5, 0x6b00
    99f8:	0429           	s32i.n	a2, a4, 0
    99fa:	a25a           	add.n	a10, a2, a5
    99fc:	d9ad21        	l32r	a2, b0 (9a58 <xt_memcpy>)
    99ff:	00a1c2        	movi	a12, 0x100
    9a02:	03bd           	mov.n	a11, a3
    9a04:	0002e0        	callx8	a2
    9a07:	f01d           	retw.n

00009a09 <EQ_update+0x1d>:
    9a09:	000000                                        ...

00009a0c <__do_global_ctors_aux>:
    9a0c:	004136        	entry	a1, 32
    9a0f:	daa231        	l32r	a3, 498 (a784 <__CTOR_END__>)
    9a12:	fcc322        	addi	a2, a3, -4
    9a15:	0228           	l32i.n	a2, a2, 0
    9a17:	f8c332        	addi	a3, a3, -8
    9a1a:	0a0226        	beqi	a2, -1, 9a28 <__do_global_ctors_aux+0x1c>

00009a1d <__do_global_ctors_aux+0x11>:
    9a1d:	0002e0        	callx8	a2
    9a20:	0328           	l32i.n	a2, a3, 0
    9a22:	fcc332        	addi	a3, a3, -4
    9a25:	f40266        	bnei	a2, -1, 9a1d <__do_global_ctors_aux+0x11>
    9a28:	f01d           	retw.n

00009a2a <__do_global_ctors_aux+0x1e>:
    9a2a:	00000000                                 ......

00009a30 <memset>:
    9a30:	004136        	entry	a1, 32
    9a33:	a28c           	beqz.n	a2, 9a41 <memset+0x11>
    9a35:	848c           	beqz.n	a4, 9a41 <memset+0x11>
    9a37:	025d           	mov.n	a5, a2
    9a39:	048476        	loop	a4, 9a41 <memset+0x11>
    9a3c:	004532        	s8i	a3, a5, 0
    9a3f:	551b           	addi.n	a5, a5, 1

00009a41 <memset+0x11>:
    9a41:	f01d           	retw.n

00009a43 <memset+0x13>:
	...

00009a44 <xt_memset>:
    9a44:	004136        	entry	a1, 32
    9a47:	928c           	beqz.n	a2, 9a54 <xt_memset+0x10>
    9a49:	748c           	beqz.n	a4, 9a54 <xt_memset+0x10>
    9a4b:	025d           	mov.n	a5, a2
    9a4d:	038476        	loop	a4, 9a54 <xt_memset+0x10>
    9a50:	653d           	ae_s16i.n	a3, a5, 0
    9a52:	552b           	addi.n	a5, a5, 2

00009a54 <xt_memset+0x10>:
    9a54:	f01d           	retw.n

00009a56 <xt_memset+0x12>:
	...

00009a58 <xt_memcpy>:
    9a58:	004136        	entry	a1, 32
    9a5b:	025d           	mov.n	a5, a2
    9a5d:	020c           	movi.n	a2, 0
    9a5f:	b5bc           	beqz.n	a5, 9a9e <xt_memcpy+0x46>
    9a61:	93bc           	beqz.n	a3, 9a9e <xt_memcpy+0x46>
    9a63:	24b357        	bgeu	a3, a5, 9a8b <xt_memcpy+0x33>
    9a66:	902430        	addx2	a2, a4, a3
    9a69:	1eb527        	bgeu	a5, a2, 9a8b <xt_memcpy+0x33>
    9a6c:	052d           	mov.n	a2, a5
    9a6e:	c4ac           	beqz.n	a4, 9a9e <xt_memcpy+0x46>
    9a70:	240b           	addi.n	a2, a4, -1
    9a72:	1122f0        	slli	a2, a2, 1
    9a75:	332a           	add.n	a3, a3, a2
    9a77:	652a           	add.n	a6, a5, a2
    9a79:	0b8476        	loop	a4, 9a88 <xt_memcpy+0x30>
    9a7c:	232d           	ae_l16si.n	a2, a3, 0
    9a7e:	662d           	ae_s16i.n	a2, a6, 0
    9a80:	fec332        	addi	a3, a3, -2
    9a83:	052d           	mov.n	a2, a5
    9a85:	fec662        	addi	a6, a6, -2

00009a88 <xt_memcpy+0x30>:
    9a88:	000486        	j	9a9e <xt_memcpy+0x46>

00009a8b <xt_memcpy+0x33>:
    9a8b:	052d           	mov.n	a2, a5
    9a8d:	d48c           	beqz.n	a4, 9a9e <xt_memcpy+0x46>
    9a8f:	056d           	mov.n	a6, a5
    9a91:	098476        	loop	a4, 9a9e <xt_memcpy+0x46>
    9a94:	232d           	ae_l16si.n	a2, a3, 0
    9a96:	662d           	ae_s16i.n	a2, a6, 0
    9a98:	332b           	addi.n	a3, a3, 2
    9a9a:	052d           	mov.n	a2, a5
    9a9c:	662b           	addi.n	a6, a6, 2

00009a9e <xt_memcpy+0x46>:
    9a9e:	f01d           	retw.n

00009aa0 <cal_wind_score>:
    9aa0:	006136        	entry	a1, 48
    9aa3:	116330        	slli	a6, a3, 13
    9aa6:	c05260        	sub	a5, a2, a6
    9aa9:	1f0c           	movi.n	a15, 1
    9aab:	112f30        	slli	a2, a15, 13
    9aae:	0815a6        	blti	a5, 1, 9aba <cal_wind_score+0x1a>
    9ab1:	0ca567        	bge	a5, a6, 9ac1 <cal_wind_score+0x21>
    9ab4:	d23530        	quos	a3, a5, a3
    9ab7:	000046        	j	9abc <cal_wind_score+0x1c>

00009aba <cal_wind_score+0x1a>:
    9aba:	030c           	movi.n	a3, 0
    9abc:	3139           	s32i.n	a3, a1, 12
    9abe:	0000c6        	j	9ac5 <cal_wind_score+0x25>

00009ac1 <cal_wind_score+0x21>:
    9ac1:	023d           	mov.n	a3, a2
    9ac3:	3129           	s32i.n	a2, a1, 12
    9ac5:	360234        	ae_cvtq48a32s	aeq0, a2
    9ac8:	364334        	ae_cvtq48a32s	aeq1, a3
    9acb:	300444        	ae_cvtp24a16x2.ll	aep0, a4, a4
    9ace:	030454        	ae_mulsfq32sp16s.l	aeq0, aeq1, aep0
    9ad1:	350054        	ae_slliq56	aeq0, aeq0, 1
    9ad4:	620134        	ae_sq32f.i	aeq0, a1, 12
    9ad7:	069122        	l16si	a2, a1, 12
    9ada:	f01d           	retw.n

00009adc <__udivdi3>:
    9adc:	004136        	entry	a1, 32
    9adf:	036d           	mov.n	a6, a3
    9ae1:	027d           	mov.n	a7, a2
    9ae3:	0b5516        	beqz	a5, 9b9c <__udivdi3+0xc0>
    9ae6:	030c           	movi.n	a3, 0
    9ae8:	020c           	movi.n	a2, 0
    9aea:	02b657        	bgeu	a6, a5, 9af0 <__udivdi3+0x14>
    9aed:	002a46        	j	9b9a <__udivdi3+0xbe>
    9af0:	40f580        	nsau	a8, a5
    9af3:	1b9816        	beqz	a8, 9cb0 <__udivdi3+0x1d4>
    9af6:	022c           	movi.n	a2, 32
    9af8:	401800        	ssl	a8
    9afb:	c0b280        	sub	a11, a2, a8
    9afe:	a1e500        	sll	a14, a5
    9b01:	400b00        	ssr	a11
    9b04:	91f040        	srl	a15, a4
    9b07:	401800        	ssl	a8
    9b0a:	202fe0        	or	a2, a15, a14
    9b0d:	a14400        	sll	a4, a4
    9b10:	400b00        	ssr	a11
    9b13:	91d060        	srl	a13, a6
    9b16:	401800        	ssl	a8
    9b19:	f5a020        	extui	a10, a2, 16, 16
    9b1c:	a16600        	sll	a6, a6
    9b1f:	400b00        	ssr	a11
    9b22:	c2bda0        	quou	a11, a13, a10
    9b25:	91c070        	srl	a12, a7
    9b28:	82eba0        	mull	a14, a11, a10
    9b2b:	205c60        	or	a5, a12, a6
    9b2e:	929d           	ae_zext16	a9, a2
    9b30:	c0fde0        	sub	a15, a13, a14
    9b33:	f5d050        	extui	a13, a5, 16, 16
    9b36:	82cb90        	mull	a12, a11, a9
    9b39:	0bffd0        	depbits	a13, a15, 16, 16
    9b3c:	0b6d           	mov.n	a6, a11
    9b3e:	401800        	ssl	a8
    9b41:	10bdc7        	bgeu	a13, a12, 9b55 <__udivdi3+0x79>
    9b44:	dd2a           	add.n	a13, a13, a2
    9b46:	ffcb62        	addi	a6, a11, -1
    9b49:	083d27        	bltu	a13, a2, 9b55 <__udivdi3+0x79>
    9b4c:	05bdc7        	bgeu	a13, a12, 9b55 <__udivdi3+0x79>
    9b4f:	fecb62        	addi	a6, a11, -2
    9b52:	80dd20        	add	a13, a13, a2

00009b55 <__udivdi3+0x79>:
    9b55:	c0cdc0        	sub	a12, a13, a12
    9b58:	c2bca0        	quou	a11, a12, a10
    9b5b:	82aba0        	mull	a10, a11, a10
    9b5e:	828b90        	mull	a8, a11, a9
    9b61:	c0fca0        	sub	a15, a12, a10
    9b64:	0bff50        	depbits	a5, a15, 16, 16
    9b67:	0b9d           	mov.n	a9, a11
    9b69:	10b587        	bgeu	a5, a8, 9b7d <__udivdi3+0xa1>
    9b6c:	552a           	add.n	a5, a5, a2
    9b6e:	ffcb92        	addi	a9, a11, -1
    9b71:	083527        	bltu	a5, a2, 9b7d <__udivdi3+0xa1>
    9b74:	05b587        	bgeu	a5, a8, 9b7d <__udivdi3+0xa1>
    9b77:	fecb92        	addi	a9, a11, -2
    9b7a:	805520        	add	a5, a5, a2
    9b7d:	112600        	slli	a2, a6, 16
    9b80:	202920        	or	a2, a9, a2
    9b83:	a26240        	muluh	a6, a2, a4
    9b86:	c05580        	sub	a5, a5, a8
    9b89:	0b3567        	bltu	a5, a6, 9b98 <__udivdi3+0xbc>
    9b8c:	824240        	mull	a4, a2, a4
    9b8f:	a17700        	sll	a7, a7
    9b92:	04b747        	bgeu	a7, a4, 9b9a <__udivdi3+0xbe>
    9b95:	019567        	bne	a5, a6, 9b9a <__udivdi3+0xbe>
    9b98:	220b           	addi.n	a2, a2, -1
    9b9a:	f01d           	retw.n

00009b9c <__udivdi3+0xc0>:
    9b9c:	40f430        	nsau	a3, a4
    9b9f:	7eb647        	bgeu	a6, a4, 9c21 <__udivdi3+0x145>
    9ba2:	b39c           	beqz.n	a3, 9bc1 <__udivdi3+0xe5>
    9ba4:	022c           	movi.n	a2, 32
    9ba6:	401300        	ssl	a3
    9ba9:	c02230        	sub	a2, a2, a3
    9bac:	a14400        	sll	a4, a4
    9baf:	a15600        	sll	a5, a6
    9bb2:	400200        	ssr	a2
    9bb5:	912070        	srl	a2, a7
    9bb8:	401300        	ssl	a3
    9bbb:	206250        	or	a6, a2, a5
    9bbe:	a17700        	sll	a7, a7
    9bc1:	f55040        	extui	a5, a4, 16, 16
    9bc4:	c28650        	quou	a8, a6, a5
    9bc7:	822850        	mull	a2, a8, a5
    9bca:	943d           	ae_zext16	a3, a4
    9bcc:	c02620        	sub	a2, a6, a2
    9bcf:	f59070        	extui	a9, a7, 16, 16
    9bd2:	826830        	mull	a6, a8, a3
    9bd5:	0bf290        	depbits	a9, a2, 16, 16
    9bd8:	082d           	mov.n	a2, a8
    9bda:	0fb967        	bgeu	a9, a6, 9bed <__udivdi3+0x111>
    9bdd:	994a           	add.n	a9, a9, a4
    9bdf:	280b           	addi.n	a2, a8, -1
    9be1:	083947        	bltu	a9, a4, 9bed <__udivdi3+0x111>
    9be4:	05b967        	bgeu	a9, a6, 9bed <__udivdi3+0x111>
    9be7:	fec822        	addi	a2, a8, -2
    9bea:	809940        	add	a9, a9, a4
    9bed:	c08960        	sub	a8, a9, a6
    9bf0:	c26850        	quou	a6, a8, a5
    9bf3:	825650        	mull	a5, a6, a5
    9bf6:	823630        	mull	a3, a6, a3
    9bf9:	c05850        	sub	a5, a8, a5
    9bfc:	0bf570        	depbits	a7, a5, 16, 16
    9bff:	11b737        	bgeu	a7, a3, 9c14 <__udivdi3+0x138>
    9c02:	574a           	add.n	a5, a7, a4
    9c04:	623530        	saltu	a3, a5, a3
    9c07:	ff7c           	movi.n	a15, -1
    9c09:	624540        	saltu	a4, a5, a4
    9c0c:	c03f30        	sub	a3, a15, a3
    9c0f:	933f40        	movnez	a3, a15, a4
    9c12:	636a           	add.n	a6, a3, a6
    9c14:	112200        	slli	a2, a2, 16
    9c17:	202620        	or	a2, a6, a2
    9c1a:	030c           	movi.n	a3, 0
    9c1c:	f01d           	retw.n

00009c1e <__udivdi3+0x142>:
    9c1e:	000000                                        ...

00009c21 <__udivdi3+0x145>:
    9c21:	09c316        	beqz	a3, 9cc1 <__udivdi3+0x1e5>
    9c24:	022c           	movi.n	a2, 32
    9c26:	401300        	ssl	a3
    9c29:	c09230        	sub	a9, a2, a3
    9c2c:	a14400        	sll	a4, a4
    9c2f:	400900        	ssr	a9
    9c32:	91a060        	srl	a10, a6
    9c35:	401300        	ssl	a3
    9c38:	f52040        	extui	a2, a4, 16, 16
    9c3b:	e57c           	movi.n	a5, -2
    9c3d:	a1e600        	sll	a14, a6
    9c40:	400900        	ssr	a9
    9c43:	c29a20        	quou	a9, a10, a2
    9c46:	82b920        	mull	a11, a9, a2
    9c49:	f45050        	extui	a5, a5, 0, 16
    9c4c:	91f070        	srl	a15, a7
    9c4f:	108450        	and	a8, a4, a5
    9c52:	205fe0        	or	a5, a15, a14
    9c55:	c0bab0        	sub	a11, a10, a11
    9c58:	f5a050        	extui	a10, a5, 16, 16
    9c5b:	826980        	mull	a6, a9, a8
    9c5e:	0bfba0        	depbits	a10, a11, 16, 16
    9c61:	401300        	ssl	a3
    9c64:	093d           	mov.n	a3, a9
    9c66:	0eba67        	bgeu	a10, a6, 9c78 <__udivdi3+0x19c>
    9c69:	aa4a           	add.n	a10, a10, a4
    9c6b:	390b           	addi.n	a3, a9, -1
    9c6d:	073a47        	bltu	a10, a4, 9c78 <__udivdi3+0x19c>
    9c70:	04ba67        	bgeu	a10, a6, 9c78 <__udivdi3+0x19c>
    9c73:	fec932        	addi	a3, a9, -2
    9c76:	aa4a           	add.n	a10, a10, a4
    9c78:	c0aa60        	sub	a10, a10, a6
    9c7b:	c29a20        	quou	a9, a10, a2
    9c7e:	82b920        	mull	a11, a9, a2
    9c81:	826980        	mull	a6, a9, a8
    9c84:	c0fab0        	sub	a15, a10, a11
    9c87:	0bff50        	depbits	a5, a15, 16, 16
    9c8a:	098d           	mov.n	a8, a9
    9c8c:	10b567        	bgeu	a5, a6, 9ca0 <__udivdi3+0x1c4>
    9c8f:	554a           	add.n	a5, a5, a4
    9c91:	ffc982        	addi	a8, a9, -1
    9c94:	083547        	bltu	a5, a4, 9ca0 <__udivdi3+0x1c4>
    9c97:	05b567        	bgeu	a5, a6, 9ca0 <__udivdi3+0x1c4>
    9c9a:	fec982        	addi	a8, a9, -2
    9c9d:	805540        	add	a5, a5, a4
    9ca0:	113300        	slli	a3, a3, 16
    9ca3:	a17700        	sll	a7, a7
    9ca6:	c05560        	sub	a5, a5, a6
    9ca9:	203830        	or	a3, a8, a3
    9cac:	000646        	j	9cc9 <__udivdi3+0x1ed>

00009caf <__udivdi3+0x1d3>:
	...

00009cb0 <__udivdi3+0x1d4>:
    9cb0:	624740        	saltu	a4, a7, a4
    9cb3:	1f0c           	movi.n	a15, 1
    9cb5:	622560        	saltu	a2, a5, a6
    9cb8:	3044f0        	xor	a4, a4, a15
    9cbb:	202420        	or	a2, a4, a2
    9cbe:	f01d           	retw.n

00009cc0 <__udivdi3+0x1e4>:
	...

00009cc1 <__udivdi3+0x1e5>:
    9cc1:	c05640        	sub	a5, a6, a4
    9cc4:	f52040        	extui	a2, a4, 16, 16
    9cc7:	130c           	movi.n	a3, 1
    9cc9:	c28520        	quou	a8, a5, a2
    9ccc:	82a820        	mull	a10, a8, a2
    9ccf:	946d           	ae_zext16	a6, a4
    9cd1:	c0f5a0        	sub	a15, a5, a10
    9cd4:	f59070        	extui	a9, a7, 16, 16
    9cd7:	82a860        	mull	a10, a8, a6
    9cda:	0bff90        	depbits	a9, a15, 16, 16
    9cdd:	085d           	mov.n	a5, a8
    9cdf:	0eb9a7        	bgeu	a9, a10, 9cf1 <__udivdi3+0x215>
    9ce2:	994a           	add.n	a9, a9, a4
    9ce4:	580b           	addi.n	a5, a8, -1
    9ce6:	073947        	bltu	a9, a4, 9cf1 <__udivdi3+0x215>
    9ce9:	04b9a7        	bgeu	a9, a10, 9cf1 <__udivdi3+0x215>
    9cec:	fec852        	addi	a5, a8, -2
    9cef:	994a           	add.n	a9, a9, a4
    9cf1:	c099a0        	sub	a9, a9, a10
    9cf4:	c28920        	quou	a8, a9, a2
    9cf7:	82e820        	mull	a14, a8, a2
    9cfa:	822860        	mull	a2, a8, a6
    9cfd:	c0f9e0        	sub	a15, a9, a14
    9d00:	0bff70        	depbits	a7, a15, 16, 16
    9d03:	11b727        	bgeu	a7, a2, 9d18 <__udivdi3+0x23c>
    9d06:	674a           	add.n	a6, a7, a4
    9d08:	622620        	saltu	a2, a6, a2
    9d0b:	ff7c           	movi.n	a15, -1
    9d0d:	624640        	saltu	a4, a6, a4
    9d10:	c02f20        	sub	a2, a15, a2
    9d13:	932f40        	movnez	a2, a15, a4
    9d16:	828a           	add.n	a8, a2, a8
    9d18:	112500        	slli	a2, a5, 16
    9d1b:	202820        	or	a2, a8, a2
    9d1e:	f01d           	retw.n

00009d20 <_fini>:
    9d20:	008136        	entry	a1, 64
    9d23:	d9de81        	l32r	a8, 49c (4b8 <__do_global_dtors_aux>)
    9d26:	f03d           	nop.n
    9d28:	0008e0        	callx8	a8

00009d2b <_fini+0xb>:
    9d2b:	f01d           	retw.n
