
Build/lib/pisplit_ecnr_inear_position_independent.splitload.lib:     file format elf32-xtensa-le


Disassembly of section .text:

00000000 <_init-0x398>:
       0:	000003e4 000090ac 00009dec 00000000     ................
      10:	00009db8 00000000 00009dd4 0000cf4c     ............L...
      20:	00008a70 00009270 000090f8 0000ee5c     p...p.......\...
      30:	0000ee50 00000424 0000cf46 0000cf44     P...$...F...D...
      40:	0000ad50 0000adc0 00009e00 00009e70     P...........p...
      50:	2b1f0000 0000c910 00009ea0 002c5d00     ...+.........],.
      60:	00009eb0 0000e640 00000d2c 00000950     ....@...,...P...
      70:	00000cb4 00000e58 000090e4 0000e6c0     ....X...........
      80:	0000d49a 83ff8000 7fff7fff 0000e700     ................
      90:	0000e6e0 000090d0 0015cc64 007af1aa     ........d.....z.
      a0:	0000b6a0 00005038 ff0a1cac 002b98c8     ....8P........+.
      b0:	00005128 00f5e354 ffd46738 7fffff00     (Q..T...8g......
      c0:	00009140 00009158 00000da0 00000c44     @...X.......D...
      d0:	00000ed0 00333334 000028e8 000008f8     ....433..(......
      e0:	fffe7961 0000e720 d49a784c 00feffff     ay.. ...Lx......
      f0:	0000e890 00a3d70b 0000e920 00003aa0     ........ ....:..
     100:	00002630 00001de0 00001254 00001170     0&......T...p...
     110:	13333333 00001764 00003b30 000018a0     333.d...0;......
     120:	000012ac 0000266c 000011a0 00003528     ....l&......(5..
     130:	0000315c 0000372c 00001ee4 00002e3c     \1..,7......<...
     140:	00002abc 00002d08 00000dfc 0000401c     .*...-.......@..
     150:	00001bf4 0000ee58 00009f04 00005fd8     ....X........_..
     160:	00009f1d 000060b4 00009f3a 000069d4     .....`..:....i..
     170:	00009f57 000073d4 00009f72 000078f8     W....s..r....x..
     180:	00009f86 00007314 00009f9d 0000766c     .....s......lv..
     190:	00009fb1 00007374 00009fc8 00007410     ....ts.......t..
     1a0:	00009fe6 0000742c 00009fff 0000083c     ....,t......<...
     1b0:	0000a00f 00005fe0 0000a029 00007424     ....._..)...$t..
     1c0:	0000a04b 00007434 0000a068 0000743c     K...4t..h...<t..
     1d0:	0000a086 00006098 0000a09e 00005fd0     .....`......._..
     1e0:	00009ec0 0000a0c0 00008fc0 0000a4c0     ................
     1f0:	0000a8c0 0000cf54 000055b0 00005528     ....T....U..(U..
     200:	00005570 000cd080 0000b5e0 002aaa00     pU............*.
     210:	0000acc0 00008614 0000850c 00005640     ............@V..
     220:	000056a8 000057e4 00005740 00005900     .V...W..@W...Y..
     230:	00005880 0000085c 0000cf78 0000cf48     .X..\...x...H...
     240:	00004084 00000484 00006048 0000cf50     .@......H`..P...
     250:	0000cf58 000051c4 0000774c 0000ee60     X....Q..Lw..`...
     260:	000040b4 0000cf5c 0000aed0 0000aef0     .@..\...........
     270:	0000af30 0000af70 00011111 000008b4     0...p...........
     280:	000068dc 000062e8 00006640 00006484     .h...b..@f...d..
     290:	0000631c 00006510 00005980 00005c1c     .c...e...Y...\..
     2a0:	000066e0 000065b4 000063d0 00005ebc     .f...e...c...^..
     2b0:	00005f44 00005f00 00005f88 00004390     D_..._..._...C..
     2c0:	7fff0000 0000cf5a 00006834 000067c8     ....Z...4h...g..
     2d0:	000064cc 00007938 0000bcfe 000076b0     .d..8y.......v..
     2e0:	0000b2b0 0000cf34 0000cf38 0000ee09     ....4...8.......
     2f0:	000007c0 0000bcd0 000074b4 000076fc     .........t...v..
     300:	0000cf3c 00007a68 00007c00 00007d38     <...hz...|..8}..
     310:	00007e88 00007fbc 00008080 00008354     .~..........T...
     320:	0000b4d0 0000775c 00007984 0000e950     ....\w...y..P...
     330:	0000b050 0000b080 0000ad30 000079d8     P.......0....y..
     340:	000e38e4 0000b030 00124925 0000b070     .8..0...%I..p...
     350:	80000001 00008978 0000ed50 000086d4     ....x...P.......
     360:	00008638 000089a8 00008bfc 00008c24     8...........$...
     370:	00008c50 00008ca0 00008c78 00008cdc     P.......x.......
     380:	00008d04 01000101 00008f70 00008ee4     ........p.......
     390:	00009dc0 000003b0                       ........

00000398 <_init>:
     398:	008136        	entry	a1, 64
     39b:	ff1981        	l32r	a8, 0 (3e4 <frame_dummy>)
     39e:	f03d           	nop.n
     3a0:	0008e0        	callx8	a8
     3a3:	ff1881        	l32r	a8, 4 (90ac <__do_global_ctors_aux>)
     3a6:	f03d           	nop.n
     3a8:	0008e0        	callx8	a8
     3ab:	f01d           	retw.n

000003ad <_init+0x15>:
     3ad:	000000                                        ...

000003b0 <__do_global_dtors_aux>:
     3b0:	004136        	entry	a1, 32
     3b3:	ff1521        	l32r	a2, 8 (9dec <__do_global_dtors_aux.completed>)
     3b6:	000232        	l8ui	a3, a2, 0
     3b9:	23ec           	bnez.n	a3, 3df <__do_global_dtors_aux+0x2f>

000003bb <__do_global_dtors_aux+0xb>:
     3bb:	1248           	l32i.n	a4, a2, 4
     3bd:	0438           	l32i.n	a3, a4, 0
     3bf:	444b           	addi.n	a4, a4, 4
     3c1:	738c           	beqz.n	a3, 3cc <__do_global_dtors_aux+0x1c>
     3c3:	1249           	s32i.n	a4, a2, 4
     3c5:	0003e0        	callx8	a3
     3c8:	fffbc6        	j	3bb <__do_global_dtors_aux+0xb>

000003cb <__do_global_dtors_aux+0x1b>:
	...

000003cc <__do_global_dtors_aux+0x1c>:
     3cc:	ff1031        	l32r	a3, c (0 <_text_start>)
     3cf:	ff10a1        	l32r	a10, 10 (9db8 <__FRAME_END__>)
     3d2:	438c           	beqz.n	a3, 3da <__do_global_dtors_aux+0x2a>
     3d4:	ff0e81        	l32r	a8, c (0 <_text_start>)
     3d7:	0008e0        	callx8	a8
     3da:	130c           	movi.n	a3, 1
     3dc:	004232        	s8i	a3, a2, 0
     3df:	f01d           	retw.n

000003e1 <__do_global_dtors_aux+0x31>:
     3e1:	000000                                        ...

000003e4 <frame_dummy>:
     3e4:	004136        	entry	a1, 32
     3e7:	ff0b21        	l32r	a2, 14 (0 <_text_start>)
     3ea:	ff09a1        	l32r	a10, 10 (9db8 <__FRAME_END__>)
     3ed:	ff0ab1        	l32r	a11, 18 (9dd4 <frame_dummy.object>)
     3f0:	428c           	beqz.n	a2, 3f8 <frame_dummy+0x14>
     3f2:	ff0881        	l32r	a8, 14 (0 <_text_start>)
     3f5:	0008e0        	callx8	a8

000003f8 <frame_dummy+0x14>:
     3f8:	f01d           	retw.n

000003fa <frame_dummy+0x16>:
     3fa:	00000000                                 ......

00000400 <share_tmp_buffer>:
     400:	004136        	entry	a1, 32
     403:	ff0641        	l32r	a4, 1c (cf4c <ath_b45+0xc>)
     406:	ff0651        	l32r	a5, 20 (8a70 <xtensa_fft_pass_32b+0xc8>)
     409:	ff0661        	l32r	a6, 24 (9270 <_DYNAMIC+0xe4>)
     40c:	67a732        	movi	a3, 0x767
     40f:	1133c0        	slli	a3, a3, 4
     412:	323a           	add.n	a3, a2, a3
     414:	424a           	add.n	a4, a2, a4
     416:	525a           	add.n	a5, a2, a5
     418:	f26a           	add.n	a15, a2, a6
     41a:	0439           	s32i.n	a3, a4, 0
     41c:	1459           	s32i.n	a5, a4, 4
     41e:	24f9           	s32i.n	a15, a4, 8
     420:	f01d           	retw.n

00000422 <share_tmp_buffer+0x22>:
	...

00000424 <common_ECNR_PARA_init_v2>:
     424:	004136        	entry	a1, 32
     427:	ff0041        	l32r	a4, 28 (90f8 <xt_memcpy>)
     42a:	b32b           	addi.n	a11, a3, 2
     42c:	a28b           	addi.n	a10, a2, 8
     42e:	79a0c2        	movi	a12, 121
     431:	0004e0        	callx8	a4
     434:	fca052        	movi	a5, 252
     437:	f4a062        	movi	a6, 244
     43a:	a25a           	add.n	a10, a2, a5
     43c:	b36a           	add.n	a11, a3, a6
     43e:	5c0c           	movi.n	a12, 5
     440:	0004e0        	callx8	a4
     443:	08a152        	movi	a5, 0x108
     446:	fea062        	movi	a6, 254
     449:	a25a           	add.n	a10, a2, a5
     44b:	b36a           	add.n	a11, a3, a6
     44d:	60a0c2        	movi	a12, 96
     450:	0004e0        	callx8	a4
     453:	c8a152        	movi	a5, 0x1c8
     456:	f4a262        	movi	a6, 0x2f4
     459:	a25a           	add.n	a10, a2, a5
     45b:	b36a           	add.n	a11, a3, a6
     45d:	7c0c           	movi.n	a12, 7
     45f:	0004e0        	callx8	a4
     462:	d6a152        	movi	a5, 0x1d6
     465:	18a362        	movi	a6, 0x318
     468:	a25a           	add.n	a10, a2, a5
     46a:	b36a           	add.n	a11, a3, a6
     46c:	dc0c           	movi.n	a12, 13
     46e:	0004e0        	callx8	a4
     471:	feee31        	l32r	a3, 2c (ee5c <p_ecnr_mem>)
     474:	feea41        	l32r	a4, 1c (cf4c <ath_b45+0xc>)
     477:	0338           	l32i.n	a3, a3, 0
     479:	334a           	add.n	a3, a3, a4
     47b:	0338           	l32i.n	a3, a3, 0
     47d:	0239           	s32i.n	a3, a2, 0
     47f:	f01d           	retw.n

00000481 <common_ECNR_PARA_init_v2+0x5d>:
     481:	000000                                        ...

00000484 <TX_ECNR_PARA_init>:
     484:	006136        	entry	a1, 48
     487:	2159           	s32i.n	a5, a1, 8
     489:	fee851        	l32r	a5, 2c (ee5c <p_ecnr_mem>)
     48c:	fee471        	l32r	a7, 1c (cf4c <ath_b45+0xc>)
     48f:	67a7d2        	movi	a13, 0x767
     492:	0588           	l32i.n	a8, a5, 0
     494:	fee391        	l32r	a9, 20 (8a70 <xtensa_fft_pass_32b+0xc8>)
     497:	fee3b1        	l32r	a11, 24 (9270 <_DYNAMIC+0xe4>)
     49a:	3169           	s32i.n	a6, a1, 12
     49c:	116dc0        	slli	a6, a13, 4
     49f:	e87a           	add.n	a14, a8, a7
     4a1:	fee371        	l32r	a7, 30 (ee50 <aec_nr_para>)
     4a4:	a86a           	add.n	a10, a8, a6
     4a6:	fee361        	l32r	a6, 34 (424 <common_ECNR_PARA_init_v2>)
     4a9:	f89a           	add.n	a15, a8, a9
     4ab:	88ba           	add.n	a8, a8, a11
     4ad:	03bd           	mov.n	a11, a3
     4af:	1ef9           	s32i.n	a15, a14, 4
     4b1:	0ea9           	s32i.n	a10, a14, 0
     4b3:	2e89           	s32i.n	a8, a14, 8
     4b5:	07a9           	s32i.n	a10, a7, 0
     4b7:	0006e0        	callx8	a6
     4ba:	0568           	l32i.n	a6, a5, 0
     4bc:	0788           	l32i.n	a8, a7, 0
     4be:	f0a1f2        	movi	a15, 0x1f0
     4c1:	02d662        	addmi	a6, a6, 0x200
     4c4:	049892        	l16si	a9, a8, 8
     4c7:	405692        	s16i	a9, a6, 128
     4ca:	fed761        	l32r	a6, 28 (90f8 <xt_memcpy>)
     4cd:	72ac           	beqz.n	a2, 4f8 <TX_ECNR_PARA_init+0x74>
     4cf:	829822        	l16si	a2, a8, 0x104
     4d2:	b42b           	addi.n	a11, a4, 2
     4d4:	a8fa           	add.n	a10, a8, a15
     4d6:	80a0c2        	movi	a12, 128
     4d9:	025822        	s16i	a2, a8, 4
     4dc:	0006e0        	callx8	a6
     4df:	0728           	l32i.n	a2, a7, 0
     4e1:	f0a282        	movi	a8, 0x2f0
     4e4:	140c           	movi.n	a4, 1
     4e6:	80a092        	movi	a9, 128
     4e9:	114440        	slli	a4, a4, 12
     4ec:	828a           	add.n	a8, a2, a8
     4ee:	038976        	loop	a9, 4f5 <TX_ECNR_PARA_init+0x71>
     4f1:	684d           	ae_s16i.n	a4, a8, 0
     4f3:	882b           	addi.n	a8, a8, 2

000004f5 <TX_ECNR_PARA_init+0x71>:
     4f5:	000506        	j	50d <TX_ECNR_PARA_init+0x89>

000004f8 <TX_ECNR_PARA_init+0x74>:
     4f8:	f0a1f2        	movi	a15, 0x1f0
     4fb:	819822        	l16si	a2, a8, 0x102
     4fe:	b42b           	addi.n	a11, a4, 2
     500:	a8fa           	add.n	a10, a8, a15
     502:	00a1c2        	movi	a12, 0x100
     505:	025822        	s16i	a2, a8, 4
     508:	0006e0        	callx8	a6
     50b:	0728           	l32i.n	a2, a7, 0
     50d:	0548           	l32i.n	a4, a5, 0
     50f:	baa182        	movi	a8, 0x1ba
     512:	70a2f2        	movi	a15, 0x270
     515:	b28a           	add.n	a11, a2, a8
     517:	a4fa           	add.n	a10, a4, a15
     519:	4c0c           	movi.n	a12, 4
     51b:	0006e0        	callx8	a6
     51e:	0728           	l32i.n	a2, a7, 0
     520:	2198           	l32i.n	a9, a1, 8
     522:	0548           	l32i.n	a4, a5, 0
     524:	fec5e1        	l32r	a14, 38 (cf46 <ath_b45+0x6>)
     527:	70a482        	movi	a8, 0x470
     52a:	b92b           	addi.n	a11, a9, 2
     52c:	44ea           	add.n	a4, a4, a14
     52e:	db92f2        	l16si	a15, a2, 0x1b6
     531:	a28a           	add.n	a10, a2, a8
     533:	00a1c2        	movi	a12, 0x100
     536:	64fd           	ae_s16i.n	a15, a4, 0
     538:	0006e0        	callx8	a6
     53b:	3158           	l32i.n	a5, a1, 12
     53d:	0728           	l32i.n	a2, a7, 0
     53f:	f0a342        	movi	a4, 0x3f0
     542:	b52b           	addi.n	a11, a5, 2
     544:	a24a           	add.n	a10, a2, a4
     546:	0c4c           	movi.n	a12, 64
     548:	0006e0        	callx8	a6
     54b:	0728           	l32i.n	a2, a7, 0
     54d:	70a642        	movi	a4, 0x670
     550:	bea152        	movi	a5, 0x1be
     553:	b35a           	add.n	a11, a3, a5
     555:	a24a           	add.n	a10, a2, a4
     557:	4c0c           	movi.n	a12, 4
     559:	0006e0        	callx8	a6
     55c:	0728           	l32i.n	a2, a7, 0
     55e:	7ca642        	movi	a4, 0x67c
     561:	c6a152        	movi	a5, 0x1c6
     564:	b35a           	add.n	a11, a3, a5
     566:	a24a           	add.n	a10, a2, a4
     568:	4c0c           	movi.n	a12, 4
     56a:	0006e0        	callx8	a6
     56d:	0728           	l32i.n	a2, a7, 0
     56f:	88a642        	movi	a4, 0x688
     572:	cea152        	movi	a5, 0x1ce
     575:	b35a           	add.n	a11, a3, a5
     577:	a24a           	add.n	a10, a2, a4
     579:	4c1c           	movi.n	a12, 20
     57b:	0006e0        	callx8	a6
     57e:	02d322        	addmi	a2, a3, 0x200
     581:	0748           	l32i.n	a4, a7, 0
     583:	0202a2        	l8ui	a10, a2, 2
     586:	0302b2        	l8ui	a11, a2, 3
     589:	2002c2        	l8ui	a12, a2, 32
     58c:	2102d2        	l8ui	a13, a2, 33
     58f:	8a7ba0        	depbits	a10, a11, 8, 8
     592:	06d4f2        	addmi	a15, a4, 0x600
     595:	8a7dc0        	depbits	a12, a13, 8, 8
     598:	435fc2        	s16i	a12, a15, 134
     59b:	425fa2        	s16i	a10, a15, 132
     59e:	080292        	l8ui	a9, a2, 8
     5a1:	0902b2        	l8ui	a11, a2, 9
     5a4:	9002c2        	l8ui	a12, a2, 144
     5a7:	9102f2        	l8ui	a15, a2, 145
     5aa:	000252        	l8ui	a5, a2, 0
     5ad:	010282        	l8ui	a8, a2, 1
     5b0:	8e02e2        	l8ui	a14, a2, 142
     5b3:	8f02d2        	l8ui	a13, a2, 143
     5b6:	8a7fc0        	depbits	a12, a15, 8, 8
     5b9:	8a7b90        	depbits	a9, a11, 8, 8
     5bc:	b8a6b2        	movi	a11, 0x6b8
     5bf:	8a7de0        	depbits	a14, a13, 8, 8
     5c2:	a4ba           	add.n	a10, a4, a11
     5c4:	06d442        	addmi	a4, a4, 0x600
     5c7:	8a7850        	depbits	a5, a8, 8, 8
     5ca:	f6a1d2        	movi	a13, 0x1f6
     5cd:	11fc00        	slli	a15, a12, 16
     5d0:	3c5452        	s16i	a5, a4, 120
     5d3:	5fea           	add.n	a5, a15, a14
     5d5:	b3da           	add.n	a11, a3, a13
     5d7:	5c0c           	movi.n	a12, 5
     5d9:	3d5492        	s16i	a9, a4, 122
     5dc:	2c6452        	s32i	a5, a4, 176
     5df:	0006e0        	callx8	a6
     5e2:	0748           	l32i.n	a4, a7, 0
     5e4:	c2a652        	movi	a5, 0x6c2
     5e7:	04a282        	movi	a8, 0x204
     5ea:	b38a           	add.n	a11, a3, a8
     5ec:	a45a           	add.n	a10, a4, a5
     5ee:	1c3c           	movi.n	a12, 49
     5f0:	0006e0        	callx8	a6
     5f3:	ee0282        	l8ui	a8, a2, 238
     5f6:	ef0292        	l8ui	a9, a2, 239
     5f9:	ec0252        	l8ui	a5, a2, 236
     5fc:	ed0242        	l8ui	a4, a2, 237
     5ff:	8a7980        	depbits	a8, a9, 8, 8
     602:	da0292        	l8ui	a9, a2, 218
     605:	db02f2        	l8ui	a15, a2, 219
     608:	8a7450        	depbits	a5, a4, 8, 8
     60b:	d802e2        	l8ui	a14, a2, 216
     60e:	d90242        	l8ui	a4, a2, 217
     611:	6802c2        	l8ui	a12, a2, 104
     614:	6902d2        	l8ui	a13, a2, 105
     617:	8a7f90        	depbits	a9, a15, 8, 8
     61a:	6602a2        	l8ui	a10, a2, 102
     61d:	6702b2        	l8ui	a11, a2, 103
     620:	8a74e0        	depbits	a14, a4, 8, 8
     623:	119900        	slli	a9, a9, 16
     626:	03d342        	addmi	a4, a3, 0x300
     629:	8a7dc0        	depbits	a12, a13, 8, 8
     62c:	118800        	slli	a8, a8, 16
     62f:	99ea           	add.n	a9, a9, a14
     631:	07d8           	l32i.n	a13, a7, 0
     633:	0604e2        	l8ui	a14, a4, 6
     636:	0704f2        	l8ui	a15, a4, 7
     639:	8a7ba0        	depbits	a10, a11, 8, 8
     63c:	585a           	add.n	a5, a8, a5
     63e:	040482        	l8ui	a8, a4, 4
     641:	0504b2        	l8ui	a11, a4, 5
     644:	11cc00        	slli	a12, a12, 16
     647:	acaa           	add.n	a10, a12, a10
     649:	07ddc2        	addmi	a12, a13, 0x700
     64c:	8a7fe0        	depbits	a14, a15, 8, 8
     64f:	9c59           	s32i.n	a5, a12, 36
     651:	115e00        	slli	a5, a14, 16
     654:	8a7b80        	depbits	a8, a11, 8, 8
     657:	6aa2e2        	movi	a14, 0x26a
     65a:	aca9           	s32i.n	a10, a12, 40
     65c:	bc99           	s32i.n	a9, a12, 44
     65e:	30a7c2        	movi	a12, 0x730
     661:	adca           	add.n	a10, a13, a12
     663:	558a           	add.n	a5, a5, a8
     665:	06ddf2        	addmi	a15, a13, 0x600
     668:	b3ea           	add.n	a11, a3, a14
     66a:	6c0c           	movi.n	a12, 6
     66c:	2d6f52        	s32i	a5, a15, 180
     66f:	0006e0        	callx8	a6
     672:	f20292        	l8ui	a9, a2, 242
     675:	f302a2        	l8ui	a10, a2, 243
     678:	7602b2        	l8ui	a11, a2, 118
     67b:	7702c2        	l8ui	a12, a2, 119
     67e:	f00252        	l8ui	a5, a2, 240
     681:	f10282        	l8ui	a8, a2, 241
     684:	8a7a90        	depbits	a9, a10, 8, 8
     687:	8a7cb0        	depbits	a11, a12, 8, 8
     68a:	de02a2        	l8ui	a10, a2, 222
     68d:	df02c2        	l8ui	a12, a2, 223
     690:	8a7850        	depbits	a5, a8, 8, 8
     693:	7802d2        	l8ui	a13, a2, 120
     696:	7902e2        	l8ui	a14, a2, 121
     699:	dc02f2        	l8ui	a15, a2, 220
     69c:	dd0282        	l8ui	a8, a2, 221
     69f:	8a7ca0        	depbits	a10, a12, 8, 8
     6a2:	07c8           	l32i.n	a12, a7, 0
     6a4:	8a7ed0        	depbits	a13, a14, 8, 8
     6a7:	11e900        	slli	a14, a9, 16
     6aa:	8a78f0        	depbits	a15, a8, 8, 8
     6ad:	11aa00        	slli	a10, a10, 16
     6b0:	119d00        	slli	a9, a13, 16
     6b3:	5e5a           	add.n	a5, a14, a5
     6b5:	dafa           	add.n	a13, a10, a15
     6b7:	48a7e2        	movi	a14, 0x748
     6ba:	7aa2f2        	movi	a15, 0x27a
     6bd:	89ba           	add.n	a8, a9, a11
     6bf:	07dc92        	addmi	a9, a12, 0x700
     6c2:	acea           	add.n	a10, a12, a14
     6c4:	b3fa           	add.n	a11, a3, a15
     6c6:	2c0c           	movi.n	a12, 2
     6c8:	f959           	s32i.n	a5, a9, 60
     6ca:	106982        	s32i	a8, a9, 64
     6cd:	1169d2        	s32i	a13, a9, 68
     6d0:	0006e0        	callx8	a6
     6d3:	0758           	l32i.n	a5, a7, 0
     6d5:	4ca782        	movi	a8, 0x74c
     6d8:	8aa292        	movi	a9, 0x28a
     6db:	b39a           	add.n	a11, a3, a9
     6dd:	a58a           	add.n	a10, a5, a8
     6df:	2c0c           	movi.n	a12, 2
     6e1:	0006e0        	callx8	a6
     6e4:	0758           	l32i.n	a5, a7, 0
     6e6:	50a782        	movi	a8, 0x750
     6e9:	e4a292        	movi	a9, 0x2e4
     6ec:	b39a           	add.n	a11, a3, a9
     6ee:	a58a           	add.n	a10, a5, a8
     6f0:	4c0c           	movi.n	a12, 4
     6f2:	0006e0        	callx8	a6
     6f5:	0798           	l32i.n	a9, a7, 0
     6f7:	300452        	l8ui	a5, a4, 48
     6fa:	310482        	l8ui	a8, a4, 49
     6fd:	58a7e2        	movi	a14, 0x758
     700:	92a2f2        	movi	a15, 0x292
     703:	8a7850        	depbits	a5, a8, 8, 8
     706:	07d9d2        	addmi	a13, a9, 0x700
     709:	b3fa           	add.n	a11, a3, a15
     70b:	a9ea           	add.n	a10, a9, a14
     70d:	9c0c           	movi.n	a12, 9
     70f:	2b5d52        	s16i	a5, a13, 86
     712:	0006e0        	callx8	a6
     715:	0788           	l32i.n	a8, a7, 0
     717:	880252        	l8ui	a5, a2, 136
     71a:	8902c2        	l8ui	a12, a2, 137
     71d:	6ca7e2        	movi	a14, 0x76c
     720:	e0a2f2        	movi	a15, 0x2e0
     723:	8a7c50        	depbits	a5, a12, 8, 8
     726:	07d8d2        	addmi	a13, a8, 0x700
     729:	b3fa           	add.n	a11, a3, a15
     72b:	a8ea           	add.n	a10, a8, a14
     72d:	2c0c           	movi.n	a12, 2
     72f:	355d52        	s16i	a5, a13, 106
     732:	0006e0        	callx8	a6
     735:	0728           	l32i.n	a2, a7, 0
     737:	70a752        	movi	a5, 0x770
     73a:	08a382        	movi	a8, 0x308
     73d:	b38a           	add.n	a11, a3, a8
     73f:	a25a           	add.n	a10, a2, a5
     741:	2c0c           	movi.n	a12, 2
     743:	0006e0        	callx8	a6
     746:	0728           	l32i.n	a2, a7, 0
     748:	74a752        	movi	a5, 0x774
     74b:	0ca382        	movi	a8, 0x30c
     74e:	b38a           	add.n	a11, a3, a8
     750:	a25a           	add.n	a10, a2, a5
     752:	6c0c           	movi.n	a12, 6
     754:	0006e0        	callx8	a6
     757:	0728           	l32i.n	a2, a7, 0
     759:	80a752        	movi	a5, 0x780
     75c:	34a382        	movi	a8, 0x334
     75f:	b38a           	add.n	a11, a3, a8
     761:	a25a           	add.n	a10, a2, a5
     763:	6c0c           	movi.n	a12, 6
     765:	0006e0        	callx8	a6
     768:	400482        	l8ui	a8, a4, 64
     76b:	410492        	l8ui	a9, a4, 65
     76e:	07b8           	l32i.n	a11, a7, 0
     770:	320422        	l8ui	a2, a4, 50
     773:	330452        	l8ui	a5, a4, 51
     776:	8a7980        	depbits	a8, a9, 8, 8
     779:	4204f2        	l8ui	a15, a4, 66
     77c:	430492        	l8ui	a9, a4, 67
     77f:	8a7520        	depbits	a2, a5, 8, 8
     782:	07dbe2        	addmi	a14, a11, 0x700
     785:	0204d2        	l8ui	a13, a4, 2
     788:	030452        	l8ui	a5, a4, 3
     78b:	465e22        	s16i	a2, a14, 140
     78e:	475e82        	s16i	a8, a14, 142
     791:	8a79f0        	depbits	a15, a9, 8, 8
     794:	94a7c2        	movi	a12, 0x794
     797:	485ef2        	s16i	a15, a14, 144
     79a:	7ea2f2        	movi	a15, 0x27e
     79d:	abca           	add.n	a10, a11, a12
     79f:	8a75d0        	depbits	a13, a5, 8, 8
     7a2:	b3fa           	add.n	a11, a3, a15
     7a4:	5c0c           	movi.n	a12, 5
     7a6:	495ed2        	s16i	a13, a14, 146
     7a9:	0006e0        	callx8	a6
     7ac:	0728           	l32i.n	a2, a7, 0
     7ae:	a4a242        	movi	a4, 0x2a4
     7b1:	a0a7f2        	movi	a15, 0x7a0
     7b4:	b34a           	add.n	a11, a3, a4
     7b6:	a2fa           	add.n	a10, a2, a15
     7b8:	ac1c           	movi.n	a12, 26
     7ba:	0006e0        	callx8	a6
     7bd:	f01d           	retw.n

000007bf <TX_ECNR_PARA_init+0x33b>:
	...

000007c0 <RX_ECNR_PARA_init>:
     7c0:	004136        	entry	a1, 32
     7c3:	fe1a51        	l32r	a5, 2c (ee5c <p_ecnr_mem>)
     7c6:	fe1571        	l32r	a7, 1c (cf4c <ath_b45+0xc>)
     7c9:	fe1591        	l32r	a9, 20 (8a70 <xtensa_fft_pass_32b+0xc8>)
     7cc:	0588           	l32i.n	a8, a5, 0
     7ce:	fe15b1        	l32r	a11, 24 (9270 <_DYNAMIC+0xe4>)
     7d1:	67a762        	movi	a6, 0x767
     7d4:	1166c0        	slli	a6, a6, 4
     7d7:	a86a           	add.n	a10, a8, a6
     7d9:	787a           	add.n	a7, a8, a7
     7db:	f89a           	add.n	a15, a8, a9
     7dd:	88ba           	add.n	a8, a8, a11
     7df:	fe1461        	l32r	a6, 30 (ee50 <aec_nr_para>)
     7e2:	17f9           	s32i.n	a15, a7, 4
     7e4:	07a9           	s32i.n	a10, a7, 0
     7e6:	2789           	s32i.n	a8, a7, 8
     7e8:	fe1371        	l32r	a7, 34 (424 <common_ECNR_PARA_init_v2>)
     7eb:	03bd           	mov.n	a11, a3
     7ed:	06a9           	s32i.n	a10, a6, 0
     7ef:	0007e0        	callx8	a7
     7f2:	0638           	l32i.n	a3, a6, 0
     7f4:	f0a172        	movi	a7, 0x1f0
     7f7:	b42b           	addi.n	a11, a4, 2
     7f9:	a37a           	add.n	a10, a3, a7
     7fb:	02ac           	beqz.n	a2, 81f <RX_ECNR_PARA_init+0x5f>
     7fd:	fe0a21        	l32r	a2, 28 (90f8 <xt_memcpy>)
     800:	80a0c2        	movi	a12, 128
     803:	0002e0        	callx8	a2
     806:	0628           	l32i.n	a2, a6, 0
     808:	f0a242        	movi	a4, 0x2f0
     80b:	130c           	movi.n	a3, 1
     80d:	80a0f2        	movi	a15, 128
     810:	113340        	slli	a3, a3, 12
     813:	424a           	add.n	a4, a2, a4
     815:	038f76        	loop	a15, 81c <RX_ECNR_PARA_init+0x5c>
     818:	643d           	ae_s16i.n	a3, a4, 0
     81a:	442b           	addi.n	a4, a4, 2

0000081c <RX_ECNR_PARA_init+0x5c>:
     81c:	000286        	j	82a <RX_ECNR_PARA_init+0x6a>

0000081f <RX_ECNR_PARA_init+0x5f>:
     81f:	fe0221        	l32r	a2, 28 (90f8 <xt_memcpy>)
     822:	00a1c2        	movi	a12, 0x100
     825:	0002e0        	callx8	a2
     828:	0628           	l32i.n	a2, a6, 0
     82a:	da9222        	l16si	a2, a2, 0x1b4
     82d:	0538           	l32i.n	a3, a5, 0
     82f:	fe0341        	l32r	a4, 3c (cf44 <ath_b45+0x4>)
     832:	220b           	addi.n	a2, a2, -1
     834:	334a           	add.n	a3, a3, a4
     836:	632d           	ae_s16i.n	a2, a3, 0
     838:	f01d           	retw.n

0000083a <RX_ECNR_PARA_init+0x7a>:
	...

0000083c <EQ_update>:
     83c:	004136        	entry	a1, 32
     83f:	fdfb41        	l32r	a4, 2c (ee5c <p_ecnr_mem>)
     842:	2ba352        	movi	a5, 0x32b
     845:	1155a0        	slli	a5, a5, 6
     848:	0429           	s32i.n	a2, a4, 0
     84a:	a25a           	add.n	a10, a2, a5
     84c:	fdf721        	l32r	a2, 28 (90f8 <xt_memcpy>)
     84f:	00a1c2        	movi	a12, 0x100
     852:	03bd           	mov.n	a11, a3
     854:	0002e0        	callx8	a2
     857:	f01d           	retw.n

00000859 <EQ_update+0x1d>:
     859:	000000                                        ...

0000085c <HIFI_sqrt>:
     85c:	004136        	entry	a1, 32
     85f:	4b13a6        	blti	a3, 1, 8ae <HIFI_sqrt+0x52>
     862:	40e340        	nsa	a4, a3
     865:	c02240        	sub	a2, a2, a4
     868:	401400        	ssl	a4
     86b:	044020        	extui	a4, a2, 0, 1
     86e:	a1c300        	sll	a12, a3
     871:	400400        	ssr	a4
     874:	b130c0        	sra	a3, a12
     877:	656930        	extui	a6, a3, 25, 7
     87a:	fdf1d1        	l32r	a13, 40 (ad50 <TABLE_SQRT>)
     87d:	050c           	movi.n	a5, 0
     87f:	f0c662        	addi	a6, a6, -16
     882:	535650        	max	a5, a6, a5
     885:	9055d0        	addx2	a5, a5, a13
     888:	456d           	ae_l16ui.n	a6, a5, 0
     88a:	355d           	ae_l16si.n	a5, a5, 2
     88c:	413930        	srli	a3, a3, 9
     88f:	11f600        	slli	a15, a6, 16
     892:	c0e560        	sub	a14, a5, a6
     895:	300334        	ae_cvtp24a16x2.ll	aep0, a3, a3
     898:	113e00        	slli	a3, a14, 16
     89b:	360f34        	ae_cvtq48a32s	aeq0, a15
     89e:	364334        	ae_cvtq48a32s	aeq1, a3
     8a1:	d4e110242f 	{ add	a2, a4, a2; ae_mulaq32sp16u.l	aeq0, aeq1, aep0 }
     8a6:	212120        	srai	a2, a2, 1
     8a9:	368304        	ae_trunca32q48	a3, aeq0
     8ac:	f01d           	retw.n

000008ae <HIFI_sqrt+0x52>:
     8ae:	020c           	movi.n	a2, 0
     8b0:	030c           	movi.n	a3, 0
     8b2:	f01d           	retw.n

000008b4 <Log2_norm>:
     8b4:	004136        	entry	a1, 32
     8b7:	024d           	mov.n	a4, a2
     8b9:	ff7c           	movi.n	a15, -1
     8bb:	012f10        	slli	a2, a15, 31
     8be:	3214a6        	blti	a4, 1, 8f4 <Log2_norm+0x40>
     8c1:	156c           	movi.n	a5, -31
     8c3:	2d2357        	blt	a3, a5, 8f4 <Log2_norm+0x40>
     8c6:	022c           	movi.n	a2, 32
     8c8:	06a237        	bge	a2, a3, 8d2 <Log2_norm+0x1e>
     8cb:	f27c           	movi.n	a2, -1
     8cd:	412120        	srli	a2, a2, 1
     8d0:	f01d           	retw.n

000008d2 <Log2_norm+0x1e>:
     8d2:	fddc51        	l32r	a5, 44 (adc0 <TABLE_LOG2_1530>)
     8d5:	552840        	extui	a2, a4, 24, 6
     8d8:	1122e0        	slli	a2, a2, 2
     8db:	603524        	ae_lq32f.xu	aeq0, a5, a2
     8de:	604514        	ae_lq32f.i	aeq1, a5, 4
     8e1:	f92ae2044f 	{ ae_movpa24x2	aep0, a4, a4; ae_subq56	aeq1, aeq1, aeq0 }
     8e6:	030174        	ae_mulaq32sp16u.l	aeq0, aeq1, aep0
     8e9:	013360        	slli	a3, a3, 26
     8ec:	368f04        	ae_trunca32q48	a15, aeq0
     8ef:	2125f0        	srai	a2, a15, 5
     8f2:	223a           	add.n	a2, a2, a3
     8f4:	f01d           	retw.n

000008f6 <Log2_norm+0x42>:
	...

000008f8 <HIFI_sqrt_ie>:
     8f8:	004136        	entry	a1, 32
     8fb:	4b13a6        	blti	a3, 1, 94a <HIFI_sqrt_ie+0x52>
     8fe:	40e340        	nsa	a4, a3
     901:	c02240        	sub	a2, a2, a4
     904:	401400        	ssl	a4
     907:	044020        	extui	a4, a2, 0, 1
     90a:	a1c300        	sll	a12, a3
     90d:	400400        	ssr	a4
     910:	b130c0        	sra	a3, a12
     913:	656930        	extui	a6, a3, 25, 7
     916:	fdccd1        	l32r	a13, 48 (9e00 <TABLE_IE>)
     919:	050c           	movi.n	a5, 0
     91b:	f0c662        	addi	a6, a6, -16
     91e:	535650        	max	a5, a6, a5
     921:	9055d0        	addx2	a5, a5, a13
     924:	456d           	ae_l16ui.n	a6, a5, 0
     926:	355d           	ae_l16si.n	a5, a5, 2
     928:	413930        	srli	a3, a3, 9
     92b:	11f600        	slli	a15, a6, 16
     92e:	c0e560        	sub	a14, a5, a6
     931:	300334        	ae_cvtp24a16x2.ll	aep0, a3, a3
     934:	113e00        	slli	a3, a14, 16
     937:	360f34        	ae_cvtq48a32s	aeq0, a15
     93a:	364334        	ae_cvtq48a32s	aeq1, a3
     93d:	d4e110242f 	{ add	a2, a4, a2; ae_mulaq32sp16u.l	aeq0, aeq1, aep0 }
     942:	212120        	srai	a2, a2, 1
     945:	368304        	ae_trunca32q48	a3, aeq0
     948:	f01d           	retw.n

0000094a <HIFI_sqrt_ie+0x52>:
     94a:	020c           	movi.n	a2, 0
     94c:	030c           	movi.n	a3, 0
     94e:	f01d           	retw.n

00000950 <fxexp>:
     950:	006136        	entry	a1, 48
     953:	fdbe31        	l32r	a3, 4c (9e70 <K_VAL>)
     956:	fe24bec27f 	{ ae_cvtq48a32s	aeq1, a2; ae_zeroq56	aeq2 }
     95b:	f47c           	movi.n	a4, -1
     95d:	601304        	ae_lq32f.iu	aeq0, a3, 0
     960:	f86a0000ef 	{ movi	a14, 0; ae_addq56	aeq0, aeq1, aeq0 }
     965:	ff00c001ff 	{ movi	a15, 1; ae_satq48s	aeq3, aeq0 }
     96a:	d5d43d131f 	{ ae_lq32f.iu	aeq0, a3, 4; ae_leq56s	b0, aeq3, aeq2 }
     96f:	414140        	srli	a4, a4, 1
     972:	368434        	ae_cvtq48a32s	aeq2, a4
     975:	d3ef00        	movt	a14, a15, b0
     978:	3e8c           	beqz.n	a14, 97f <fxexp+0x2f>
     97a:	fd1c7b238f 	{ ae_sraiq56	aeq2, aeq2, 12; ae_movq56	aeq1, aeq3 }

0000097f <fxexp+0x2f>:
     97f:	f86a00002f 	{ movi	a2, 0; ae_addq56	aeq0, aeq1, aeq0 }
     984:	ff00c0014f 	{ movi	a4, 1; ae_satq48s	aeq3, aeq0 }
     989:	0a1084        	ae_zeroq56	aeq0
     98c:	d5c43d131f 	{ ae_lq32f.iu	aeq0, a3, 4; ae_leq56s	b0, aeq3, aeq0 }
     991:	d32400        	movt	a2, a4, b0
     994:	328c           	beqz.n	a2, 99b <fxexp+0x4b>
     996:	fd1c7b228f 	{ ae_sraiq56	aeq2, aeq2, 8; ae_movq56	aeq1, aeq3 }
     99b:	f86a00002f 	{ movi	a2, 0; ae_addq56	aeq0, aeq1, aeq0 }
     9a0:	ff00c0014f 	{ movi	a4, 1; ae_satq48s	aeq3, aeq0 }
     9a5:	0a1084        	ae_zeroq56	aeq0
     9a8:	d5c43d131f 	{ ae_lq32f.iu	aeq0, a3, 4; ae_leq56s	b0, aeq3, aeq0 }
     9ad:	d32400        	movt	a2, a4, b0
     9b0:	328c           	beqz.n	a2, 9b7 <fxexp+0x67>
     9b2:	fd1c7b218f 	{ ae_sraiq56	aeq2, aeq2, 4; ae_movq56	aeq1, aeq3 }
     9b7:	f86a00002f 	{ movi	a2, 0; ae_addq56	aeq0, aeq1, aeq0 }
     9bc:	ff00c0014f 	{ movi	a4, 1; ae_satq48s	aeq3, aeq0 }
     9c1:	0a1084        	ae_zeroq56	aeq0
     9c4:	d5c43d131f 	{ ae_lq32f.iu	aeq0, a3, 4; ae_leq56s	b0, aeq3, aeq0 }
     9c9:	d32400        	movt	a2, a4, b0
     9cc:	328c           	beqz.n	a2, 9d3 <fxexp+0x83>
     9ce:	fd1c7b20af 	{ ae_sraiq56	aeq2, aeq2, 2; ae_movq56	aeq1, aeq3 }
     9d3:	f86a00002f 	{ movi	a2, 0; ae_addq56	aeq0, aeq1, aeq0 }
     9d8:	ff00c0014f 	{ movi	a4, 1; ae_satq48s	aeq3, aeq0 }
     9dd:	0a1084        	ae_zeroq56	aeq0
     9e0:	d5c43d131f 	{ ae_lq32f.iu	aeq0, a3, 4; ae_leq56s	b0, aeq3, aeq0 }
     9e5:	d32400        	movt	a2, a4, b0
     9e8:	328c           	beqz.n	a2, 9ef <fxexp+0x9f>
     9ea:	fd1c7b209f 	{ ae_sraiq56	aeq2, aeq2, 1; ae_movq56	aeq1, aeq3 }
     9ef:	f86a00002f 	{ movi	a2, 0; ae_addq56	aeq0, aeq1, aeq0 }
     9f4:	ff00c0014f 	{ movi	a4, 1; ae_satq48s	aeq3, aeq0 }
     9f9:	0a1084        	ae_zeroq56	aeq0
     9fc:	d5c43d131f 	{ ae_lq32f.iu	aeq0, a3, 4; ae_leq56s	b0, aeq3, aeq0 }
     a01:	fe7456240f 	{ movt	a2, a4, b0; ae_truncq32	aeq2, aeq2 }
     a06:	f28c           	beqz.n	a2, a19 <fxexp+0xc9>
     a08:	3560b4        	ae_sraiq56	aeq1, aeq2, 2
     a0b:	065a34        	ae_truncq32	aeq1, aeq1
     a0e:	fd1c7a111f 	{ ae_sq56s.i	aeq1, a1, 8; ae_movq56	aeq1, aeq3 }
     a13:	61c114        	ae_lq56.i	aeq3, a1, 8
     a16:	01afc4        	ae_subq56	aeq2, aeq2, aeq3
     a19:	f86a00002f 	{ movi	a2, 0; ae_addq56	aeq0, aeq1, aeq0 }
     a1e:	ff00c0014f 	{ movi	a4, 1; ae_satq48s	aeq3, aeq0 }
     a23:	0a1084        	ae_zeroq56	aeq0
     a26:	d5c43d131f 	{ ae_lq32f.iu	aeq0, a3, 4; ae_leq56s	b0, aeq3, aeq0 }
     a2b:	d32400        	movt	a2, a4, b0
     a2e:	f28c           	beqz.n	a2, a41 <fxexp+0xf1>
     a30:	3560f4        	ae_sraiq56	aeq1, aeq2, 3
     a33:	065a34        	ae_truncq32	aeq1, aeq1
     a36:	fd1c7a111f 	{ ae_sq56s.i	aeq1, a1, 8; ae_movq56	aeq1, aeq3 }
     a3b:	61c114        	ae_lq56.i	aeq3, a1, 8
     a3e:	01afc4        	ae_subq56	aeq2, aeq2, aeq3
     a41:	f86a00002f 	{ movi	a2, 0; ae_addq56	aeq0, aeq1, aeq0 }
     a46:	ff00c0014f 	{ movi	a4, 1; ae_satq48s	aeq3, aeq0 }
     a4b:	0a1084        	ae_zeroq56	aeq0
     a4e:	d5c43d131f 	{ ae_lq32f.iu	aeq0, a3, 4; ae_leq56s	b0, aeq3, aeq0 }
     a53:	d32400        	movt	a2, a4, b0
     a56:	f28c           	beqz.n	a2, a69 <fxexp+0x119>
     a58:	356134        	ae_sraiq56	aeq1, aeq2, 4
     a5b:	065a34        	ae_truncq32	aeq1, aeq1
     a5e:	fd1c7a111f 	{ ae_sq56s.i	aeq1, a1, 8; ae_movq56	aeq1, aeq3 }
     a63:	61c114        	ae_lq56.i	aeq3, a1, 8
     a66:	01afc4        	ae_subq56	aeq2, aeq2, aeq3
     a69:	f86a00002f 	{ movi	a2, 0; ae_addq56	aeq0, aeq1, aeq0 }
     a6e:	ff00c0014f 	{ movi	a4, 1; ae_satq48s	aeq3, aeq0 }
     a73:	0a1084        	ae_zeroq56	aeq0
     a76:	d5c43d131f 	{ ae_lq32f.iu	aeq0, a3, 4; ae_leq56s	b0, aeq3, aeq0 }
     a7b:	d32400        	movt	a2, a4, b0
     a7e:	f28c           	beqz.n	a2, a91 <fxexp+0x141>
     a80:	356174        	ae_sraiq56	aeq1, aeq2, 5
     a83:	065a34        	ae_truncq32	aeq1, aeq1
     a86:	fd1c7a111f 	{ ae_sq56s.i	aeq1, a1, 8; ae_movq56	aeq1, aeq3 }
     a8b:	61c114        	ae_lq56.i	aeq3, a1, 8
     a8e:	01afc4        	ae_subq56	aeq2, aeq2, aeq3
     a91:	f86a00002f 	{ movi	a2, 0; ae_addq56	aeq0, aeq1, aeq0 }
     a96:	ff00c0014f 	{ movi	a4, 1; ae_satq48s	aeq3, aeq0 }
     a9b:	0a1084        	ae_zeroq56	aeq0
     a9e:	d5c43d131f 	{ ae_lq32f.iu	aeq0, a3, 4; ae_leq56s	b0, aeq3, aeq0 }
     aa3:	d32400        	movt	a2, a4, b0
     aa6:	f28c           	beqz.n	a2, ab9 <fxexp+0x169>
     aa8:	3561b4        	ae_sraiq56	aeq1, aeq2, 6
     aab:	065a34        	ae_truncq32	aeq1, aeq1
     aae:	fd1c7a111f 	{ ae_sq56s.i	aeq1, a1, 8; ae_movq56	aeq1, aeq3 }
     ab3:	61c114        	ae_lq56.i	aeq3, a1, 8
     ab6:	01afc4        	ae_subq56	aeq2, aeq2, aeq3
     ab9:	f86a00002f 	{ movi	a2, 0; ae_addq56	aeq0, aeq1, aeq0 }
     abe:	ff00c0014f 	{ movi	a4, 1; ae_satq48s	aeq3, aeq0 }
     ac3:	0a1084        	ae_zeroq56	aeq0
     ac6:	d5c43d131f 	{ ae_lq32f.iu	aeq0, a3, 4; ae_leq56s	b0, aeq3, aeq0 }
     acb:	d32400        	movt	a2, a4, b0
     ace:	f28c           	beqz.n	a2, ae1 <fxexp+0x191>
     ad0:	3561f4        	ae_sraiq56	aeq1, aeq2, 7
     ad3:	065a34        	ae_truncq32	aeq1, aeq1
     ad6:	fd1c7a111f 	{ ae_sq56s.i	aeq1, a1, 8; ae_movq56	aeq1, aeq3 }
     adb:	61c114        	ae_lq56.i	aeq3, a1, 8
     ade:	01afc4        	ae_subq56	aeq2, aeq2, aeq3
     ae1:	f86a00002f 	{ movi	a2, 0; ae_addq56	aeq0, aeq1, aeq0 }
     ae6:	ff00c0013f 	{ movi	a3, 1; ae_satq48s	aeq3, aeq0 }
     aeb:	0a1084        	ae_zeroq56	aeq0
     aee:	d5c43b220f 	{ ae_sraiq56	aeq0, aeq2, 8; ae_leq56s	b0, aeq3, aeq0 }
     af3:	fc6456230f 	{ movt	a2, a3, b0; ae_truncq32	aeq0, aeq0 }
     af8:	328c           	beqz.n	a2, aff <fxexp+0x1af>
     afa:	fa32ff317f 	{ ae_movq56	aeq1, aeq3; ae_subq56	aeq2, aeq2, aeq0 }
     aff:	120c           	movi.n	a2, 1
     b01:	112200        	slli	a2, a2, 16
     b04:	360234        	ae_cvtq48a32s	aeq0, a2
     b07:	0118c4        	ae_addq56	aeq0, aeq1, aeq0
     b0a:	060844        	ae_satq48s	aeq0, aeq0
     b0d:	350394        	ae_slliq56	aeq0, aeq0, 14
     b10:	060844        	ae_satq48s	aeq0, aeq0
     b13:	098c04        	ae_truncp24q48x2	aep0, aeq0, aeq0
     b16:	0805a4        	ae_mulfq32sp24s.l	aeq0, aeq2, aep0
     b19:	060934        	ae_roundsq32asym	aeq0, aeq0
     b1c:	350054        	ae_slliq56	aeq0, aeq0, 1
     b1f:	060844        	ae_satq48s	aeq0, aeq0
     b22:	368204        	ae_trunca32q48	a2, aeq0
     b25:	f01d           	retw.n

00000b27 <fxexp+0x1d7>:
	...

00000b28 <fxarctan2>:
     b28:	004136        	entry	a1, 32
     b2b:	0d9237        	bne	a2, a3, b3c <fxarctan2+0x14>
     b2e:	0212e6        	bgei	a2, 1, b34 <fxarctan2+0xc>
     b31:	0033c6        	j	c04 <fxarctan2+0xdc>
     b34:	222c           	movi.n	a2, 34
     b36:	19d222        	addmi	a2, a2, 0x1900
     b39:	003406        	j	c0d <fxarctan2+0xe5>

00000b3c <fxarctan2+0x14>:
     b3c:	604030        	neg	a4, a3
     b3f:	605020        	neg	a5, a2
     b42:	a35220        	movltz	a5, a2, a2
     b45:	a34330        	movltz	a4, a3, a3
     b48:	846d           	ae_sext16	a6, a4
     b4a:	1f0c           	movi.n	a15, 1
     b4c:	855d           	ae_sext16	a5, a5
     b4e:	114f10        	slli	a4, a15, 15
     b51:	44a657        	bge	a6, a5, b99 <fxarctan2+0x71>
     b54:	115210        	slli	a5, a2, 15
     b57:	d25530        	quos	a5, a5, a3
     b5a:	855d           	ae_sext16	a5, a5
     b5c:	6aa762        	movi	a6, 0x76a
     b5f:	607050        	neg	a7, a5
     b62:	906660        	addx2	a6, a6, a6
     b65:	a37550        	movltz	a7, a5, a5
     b68:	826760        	mull	a6, a7, a6
     b6b:	a7a2e2        	movi	a14, 0x2a7
     b6e:	664a           	add.n	a6, a6, a4
     b70:	117eb0        	slli	a7, a14, 5
     b73:	316060        	srai	a6, a6, 16
     b76:	fd36f1        	l32r	a15, 50 (2b1f0000 <_end+0x2b1e119c>)
     b79:	436670        	min	a6, a6, a7
     b7c:	116600        	slli	a6, a6, 16
     b7f:	66fa           	add.n	a6, a6, a15
     b81:	316060        	srai	a6, a6, 16
     b84:	d15650        	mul16s	a5, a6, a5
     b87:	ffa072        	movi	a7, 255
     b8a:	40d562        	addmi	a6, a5, 0x4000
     b8d:	1166f0        	slli	a6, a6, 1
     b90:	07d396        	bltz	a3, c11 <fxarctan2+0xe9>
     b93:	f53060        	extui	a3, a6, 16, 16
     b96:	001686        	j	bf4 <fxarctan2+0xcc>

00000b99 <fxarctan2+0x71>:
     b99:	113310        	slli	a3, a3, 15
     b9c:	d23320        	quos	a3, a3, a2
     b9f:	836d           	ae_sext16	a6, a3
     ba1:	6aa752        	movi	a5, 0x76a
     ba4:	607060        	neg	a7, a6
     ba7:	905550        	addx2	a5, a5, a5
     baa:	a37660        	movltz	a7, a6, a6
     bad:	825750        	mull	a5, a7, a5
     bb0:	a7a2a2        	movi	a10, 0x2a7
     bb3:	554a           	add.n	a5, a5, a4
     bb5:	116ab0        	slli	a6, a10, 5
     bb8:	315050        	srai	a5, a5, 16
     bbb:	fd25b1        	l32r	a11, 50 (2b1f0000 <_end+0x2b1e119c>)
     bbe:	435560        	min	a5, a5, a6
     bc1:	115500        	slli	a5, a5, 16
     bc4:	55ba           	add.n	a5, a5, a11
     bc6:	113300        	slli	a3, a3, 16
     bc9:	213f30        	srai	a3, a3, 15
     bcc:	315050        	srai	a5, a5, 16
     bcf:	823350        	mull	a3, a3, a5
     bd2:	fc7c           	movi.n	a12, -1
     bd4:	334a           	add.n	a3, a3, a4
     bd6:	1e0c           	movi.n	a14, 1
     bd8:	fd7c           	movi.n	a13, -1
     bda:	116c20        	slli	a6, a12, 14
     bdd:	313030        	srai	a3, a3, 16
     be0:	115e20        	slli	a5, a14, 14
     be3:	c06630        	sub	a6, a6, a3
     be6:	c03530        	sub	a3, a5, a3
     be9:	117d10        	slli	a7, a13, 15
     bec:	53f670        	max	a15, a6, a7
     bef:	a33d           	ae_clamps16	a3, a3
     bf1:	a33f20        	movltz	a3, a15, a2
     bf4:	fd1821        	l32r	a2, 54 (c910 <sp_matrix45+0x1e0>)
     bf7:	833d           	ae_sext16	a3, a3
     bf9:	822320        	mull	a2, a3, a2
     bfc:	224a           	add.n	a2, a2, a4
     bfe:	f52020        	extui	a2, a2, 16, 16
     c01:	000206        	j	c0d <fxarctan2+0xe5>

00000c04 <fxarctan2+0xdc>:
     c04:	9ba032        	movi	a3, 155
     c07:	b4d332        	addmi	a3, a3, 0xffffb400
     c0a:	932320        	movnez	a2, a3, a2

00000c0d <fxarctan2+0xe5>:
     c0d:	822d           	ae_sext16	a2, a2
     c0f:	f01d           	retw.n

00000c11 <fxarctan2+0xe9>:
     c11:	313060        	srai	a3, a6, 16
     c14:	015296        	bltz	a2, c2d <fxarctan2+0x105>
     c17:	ffa022        	movi	a2, 255
     c1a:	f67c           	movi.n	a6, -1
     c1c:	7fd222        	addmi	a2, a2, 0x7f00
     c1f:	116620        	slli	a6, a6, 14
     c22:	332a           	add.n	a3, a3, a2
     c24:	725560        	salt	a5, a5, a6
     c27:	833250        	moveqz	a3, a2, a5
     c2a:	fff186        	j	bf4 <fxarctan2+0xcc>

00000c2d <fxarctan2+0x105>:
     c2d:	3fd722        	addmi	a2, a7, 0x3f00
     c30:	ff7c           	movi.n	a15, -1
     c32:	80d362        	addmi	a6, a3, 0xffff8000
     c35:	722250        	salt	a2, a2, a5
     c38:	113f10        	slli	a3, a15, 15
     c3b:	933620        	movnez	a3, a6, a2
     c3e:	ffec86        	j	bf4 <fxarctan2+0xcc>

00000c41 <fxarctan2+0x119>:
     c41:	000000                                        ...

00000c44 <fxsqrt_ie>:
     c44:	004136        	entry	a1, 32
     c47:	063216        	beqz	a2, cae <fxsqrt_ie+0x6a>
     c4a:	40e230        	nsa	a3, a2
     c4d:	f40c           	movi.n	a4, 15
     c4f:	401300        	ssl	a3
     c52:	c03430        	sub	a3, a4, a3
     c55:	044030        	extui	a4, a3, 0, 1
     c58:	a1a200        	sll	a10, a2
     c5b:	400400        	ssr	a4
     c5e:	b120a0        	sra	a2, a10
     c61:	41b920        	srli	a11, a2, 9
     c64:	652920        	extui	a2, a2, 25, 7
     c67:	fcf8c1        	l32r	a12, 48 (9e00 <TABLE_IE>)
     c6a:	050c           	movi.n	a5, 0
     c6c:	f0c222        	addi	a2, a2, -16
     c6f:	532250        	max	a2, a2, a5
     c72:	9022c0        	addx2	a2, a2, a12
     c75:	343a           	add.n	a3, a4, a3
     c77:	424d           	ae_l16ui.n	a4, a2, 0
     c79:	322d           	ae_l16si.n	a2, a2, 2
     c7b:	300bb4        	ae_cvtp24a16x2.ll	aep0, a11, a11
     c7e:	1d0c           	movi.n	a13, 1
     c80:	c02240        	sub	a2, a2, a4
     c83:	114400        	slli	a4, a4, 16
     c86:	112200        	slli	a2, a2, 16
     c89:	360434        	ae_cvtq48a32s	aeq0, a4
     c8c:	364234        	ae_cvtq48a32s	aeq1, a2
     c8f:	213130        	srai	a3, a3, 1
     c92:	d4e10f93ee 	{ addi	a14, a3, -7; ae_mulaq32sp16u.l	aeq0, aeq1, aep0 }
     c97:	115d10        	slli	a5, a13, 15
     c9a:	368534        	ae_cvtq48a32s	aeq2, a5
     c9d:	fc24fe8e0f 	{ ae_slaasq56s	aeq0, aeq0, a14; nop }
     ca2:	010ac4        	ae_addq56	aeq0, aeq0, aeq2
     ca5:	368f04        	ae_trunca32q48	a15, aeq0
     ca8:	f520f0        	extui	a2, a15, 16, 16
     cab:	000046        	j	cb0 <fxsqrt_ie+0x6c>

00000cae <fxsqrt_ie+0x6a>:
     cae:	020c           	movi.n	a2, 0
     cb0:	822d           	ae_sext16	a2, a2
     cb2:	f01d           	retw.n

00000cb4 <fxlog10>:
     cb4:	004136        	entry	a1, 32
     cb7:	067216        	beqz	a2, d22 <fxlog10+0x6e>
     cba:	40e230        	nsa	a3, a2
     cbd:	331b           	addi.n	a3, a3, 1
     cbf:	113300        	slli	a3, a3, 16
     cc2:	040c           	movi.n	a4, 0
     cc4:	313030        	srai	a3, a3, 16
     cc7:	b34320        	movgez	a4, a3, a2
     cca:	d1a4c2        	movi	a12, 0x4d1
     ccd:	f50c           	movi.n	a5, 15
     ccf:	401400        	ssl	a4
     cd2:	113c50        	slli	a3, a12, 11
     cd5:	c04540        	sub	a4, a5, a4
     cd8:	a1e200        	sll	a14, a2
     cdb:	823430        	mull	a3, a4, a3
     cde:	fd7c           	movi.n	a13, -1
     ce0:	360334        	ae_cvtq48a32s	aeq0, a3
     ce3:	fcdd31        	l32r	a3, 58 (9ea0 <log_coef>)
     ce6:	114d10        	slli	a4, a13, 15
     ce9:	f520e0        	extui	a2, a14, 16, 16
     cec:	302240        	xor	a2, a2, a4
     cef:	300224        	ae_cvtp24a16x2.ll	aep0, a2, a2
     cf2:	05a0f2        	movi	a15, 5
     cf5:	f962ac930f 	{ ae_lp16f.iu	aep1, a3, 0; ae_movp48	aep2, aep0 }
     cfa:	350214        	ae_slliq56	aeq0, aeq0, 8
     cfd:	0a8f76        	loop	a15, d0b <fxlog10+0x57>
     d00:	012874        	ae_mulfp24s.ll	aeq1, aep2, aep0
     d03:	e6472c931f 	{ ae_lp16f.iu	aep1, a3, 2; ae_mulap24s.ll	aeq0, aep1, aep2 }
     d08:	1b9f24        	ae_roundsp16q48asym	aep2, aeq1

00000d0b <fxlog10+0x57>:
     d0b:	f27c           	movi.n	a2, -1
     d0d:	112200        	slli	a2, a2, 16
     d10:	3500f4        	ae_sraiq56	aeq0, aeq0, 3
     d13:	364234        	ae_cvtq48a32s	aeq1, a2
     d16:	0110e4        	ae_andq56	aeq0, aeq0, aeq1
     d19:	1b8f04        	ae_roundsp16q48asym	aep0, aeq0
     d1c:	360224        	ae_trunca16p24s.l	a2, aep0
     d1f:	000106        	j	d27 <fxlog10+0x73>

00000d22 <fxlog10+0x6e>:
     d22:	120c           	movi.n	a2, 1
     d24:	112210        	slli	a2, a2, 15
     d27:	822d           	ae_sext16	a2, a2
     d29:	f01d           	retw.n

00000d2b <fxlog10+0x77>:
	...

00000d2c <fxln>:
     d2c:	004136        	entry	a1, 32
     d2f:	063216        	beqz	a2, d96 <fxln+0x6a>
     d32:	40e230        	nsa	a3, a2
     d35:	331b           	addi.n	a3, a3, 1
     d37:	113300        	slli	a3, a3, 16
     d3a:	040c           	movi.n	a4, 0
     d3c:	313030        	srai	a3, a3, 16
     d3f:	fcc7c1        	l32r	a12, 5c (2c5d00 <_end+0x2b6e9c>)
     d42:	b34320        	movgez	a4, a3, a2
     d45:	f50c           	movi.n	a5, 15
     d47:	401400        	ssl	a4
     d4a:	c04540        	sub	a4, a5, a4
     d4d:	a1e200        	sll	a14, a2
     d50:	8234c0        	mull	a3, a4, a12
     d53:	fd7c           	movi.n	a13, -1
     d55:	360334        	ae_cvtq48a32s	aeq0, a3
     d58:	fcc231        	l32r	a3, 60 (9eb0 <ln_coef>)
     d5b:	114d10        	slli	a4, a13, 15
     d5e:	f520e0        	extui	a2, a14, 16, 16
     d61:	302240        	xor	a2, a2, a4
     d64:	300224        	ae_cvtp24a16x2.ll	aep0, a2, a2
     d67:	5f0c           	movi.n	a15, 5
     d69:	f962ac930f 	{ ae_lp16f.iu	aep1, a3, 0; ae_movp48	aep2, aep0 }
     d6e:	350214        	ae_slliq56	aeq0, aeq0, 8
     d71:	0a8f76        	loop	a15, d7f <fxln+0x53>
     d74:	012874        	ae_mulfp24s.ll	aeq1, aep2, aep0
     d77:	e6472c931f 	{ ae_lp16f.iu	aep1, a3, 2; ae_mulap24s.ll	aeq0, aep1, aep2 }
     d7c:	1b9f24        	ae_roundsp16q48asym	aep2, aeq1

00000d7f <fxln+0x53>:
     d7f:	f27c           	movi.n	a2, -1
     d81:	112200        	slli	a2, a2, 16
     d84:	3500f4        	ae_sraiq56	aeq0, aeq0, 3
     d87:	364234        	ae_cvtq48a32s	aeq1, a2
     d8a:	0110e4        	ae_andq56	aeq0, aeq0, aeq1
     d8d:	1b8f04        	ae_roundsp16q48asym	aep0, aeq0
     d90:	360224        	ae_trunca16p24s.l	a2, aep0
     d93:	000106        	j	d9b <fxln+0x6f>

00000d96 <fxln+0x6a>:
     d96:	120c           	movi.n	a2, 1
     d98:	112210        	slli	a2, a2, 15
     d9b:	822d           	ae_sext16	a2, a2
     d9d:	f01d           	retw.n

00000d9f <fxln+0x73>:
	...

00000da0 <mel_filter>:
     da0:	004136        	entry	a1, 32
     da3:	fcb051        	l32r	a5, 64 (e640 <all_amt_tab>)
     da6:	a04440        	addx4	a4, a4, a4
     da9:	fcc332        	addi	a3, a3, -4
     dac:	b06450        	addx8	a6, a4, a5
     daf:	fc24a0064e 	{ l16si	a4, a6, 0; ae_zeroq56	aeq0 }
     db4:	224b           	addi.n	a2, a2, 4
     db6:	070c           	movi.n	a7, 0
     db8:	3d14a6        	blti	a4, 1, df9 <mel_filter+0x59>
     dbb:	7658           	l32i.n	a5, a6, 28
     dbd:	2668           	l32i.n	a6, a6, 8
     dbf:	f87c           	movi.n	a8, -1

00000dc1 <mel_filter+0x21>:
     dc1:	25ad           	ae_l16si.n	a10, a5, 0
     dc3:	0295c2        	l16si	a12, a5, 4
     dc6:	90b760        	addx2	a11, a7, a6
     dc9:	30da80        	xor	a13, a10, a8
     dcc:	9cda           	add.n	a9, a12, a13
     dce:	1619a6        	blti	a9, 1, de8 <mel_filter+0x48>
     dd1:	a0aa20        	addx4	a10, a10, a2
     dd4:	80cdc0        	add	a12, a13, a12
     dd7:	605a04        	ae_lq32f.iu	aeq1, a10, 0
     dda:	408b04        	ae_lp16f.iu	aep0, a11, 0
     ddd:	078c76        	loop	a12, de8 <mel_filter+0x48>
     de0:	f483bd3a1f 	{ ae_lq32f.iu	aeq1, a10, 4; ae_mulafq32sp16s.l	aeq0, aeq1, aep0 }
     de5:	408b14        	ae_lp16f.iu	aep0, a11, 2

00000de8 <mel_filter+0x48>:
     de8:	f8678ff44e 	{ addi	a4, a4, -1; ae_roundsp24q48asym	aep0, aeq0 }
     ded:	797a           	add.n	a7, a9, a7
     def:	552b           	addi.n	a5, a5, 2
     df1:	fc24b4831f 	{ ae_sp24f.l.iu	aep0, a3, 4; ae_zeroq56	aeq0 }
     df6:	fc7456        	bnez	a4, dc1 <mel_filter+0x21>

00000df9 <mel_filter+0x59>:
     df9:	f01d           	retw.n

00000dfb <mel_filter+0x5b>:
	...

00000dfc <mel_filter16>:
     dfc:	004136        	entry	a1, 32
     dff:	fc9951        	l32r	a5, 64 (e640 <all_amt_tab>)
     e02:	a04440        	addx4	a4, a4, a4
     e05:	fec332        	addi	a3, a3, -2
     e08:	b06450        	addx8	a6, a4, a5
     e0b:	fc24a0064e 	{ l16si	a4, a6, 0; ae_zeroq56	aeq0 }
     e10:	222b           	addi.n	a2, a2, 2
     e12:	070c           	movi.n	a7, 0
     e14:	3c14a6        	blti	a4, 1, e54 <mel_filter16+0x58>
     e17:	7658           	l32i.n	a5, a6, 28
     e19:	2668           	l32i.n	a6, a6, 8
     e1b:	f87c           	movi.n	a8, -1

00000e1d <mel_filter16+0x21>:
     e1d:	25ad           	ae_l16si.n	a10, a5, 0
     e1f:	0295c2        	l16si	a12, a5, 4
     e22:	90b760        	addx2	a11, a7, a6
     e25:	30da80        	xor	a13, a10, a8
     e28:	9cda           	add.n	a9, a12, a13
     e2a:	1519a6        	blti	a9, 1, e43 <mel_filter16+0x47>
     e2d:	90aa20        	addx2	a10, a10, a2
     e30:	cdca           	add.n	a12, a13, a12
     e32:	408a04        	ae_lp16f.iu	aep0, a10, 0
     e35:	409b04        	ae_lp16f.iu	aep1, a11, 0
     e38:	078c76        	loop	a12, e43 <mel_filter16+0x47>
     e3b:	e223ac8a1f 	{ ae_lp16f.iu	aep0, a10, 2; ae_mulafp24s.ll	aeq0, aep0, aep1 }
     e40:	409b14        	ae_lp16f.iu	aep1, a11, 2

00000e43 <mel_filter16+0x47>:
     e43:	f8e38ff44e 	{ addi	a4, a4, -1; ae_roundsp16q48sym	aep0, aeq0 }
     e48:	797a           	add.n	a7, a9, a7
     e4a:	552b           	addi.n	a5, a5, 2
     e4c:	fc24b2831f 	{ ae_sp16f.l.iu	aep0, a3, 2; ae_zeroq56	aeq0 }
     e51:	fc8456        	bnez	a4, e1d <mel_filter16+0x21>

00000e54 <mel_filter16+0x58>:
     e54:	f01d           	retw.n

00000e56 <mel_filter16+0x5a>:
	...

00000e58 <inv_mel_filter>:
     e58:	004136        	entry	a1, 32
     e5b:	fc8251        	l32r	a5, 64 (e640 <all_amt_tab>)
     e5e:	a04440        	addx4	a4, a4, a4
     e61:	080c           	movi.n	a8, 0
     e63:	b07450        	addx8	a7, a4, a5
     e66:	1748           	l32i.n	a4, a7, 4
     e68:	022752        	l32i	a5, a7, 8
     e6b:	072762        	l32i	a6, a7, 28
     e6e:	277d           	ae_l16si.n	a7, a7, 0
     e70:	02d3a2        	addmi	a10, a3, 0x200
     e73:	fc2080809f 	{ movi	a9, 128; ae_zerop48	aep0 }
     e78:	6a8d           	ae_s16i.n	a8, a10, 0
     e7a:	fcc382        	addi	a8, a3, -4
     e7d:	028976        	loop	a9, e83 <inv_mel_filter+0x2b>
     e80:	468814        	ae_sp16x2f.iu	aep0, a8, 4

00000e83 <inv_mel_filter+0x2b>:
     e83:	4717a6        	blti	a7, 1, ece <inv_mel_filter+0x76>
     e86:	509404        	ae_lp24f.iu	aep1, a4, 0
     e89:	40a204        	ae_lp16f.iu	aep2, a2, 0
     e8c:	408504        	ae_lp16f.iu	aep0, a5, 0

00000e8f <inv_mel_filter+0x37>:
     e8f:	268d           	ae_l16si.n	a8, a6, 0
     e91:	ea45a0269e 	{ l16si	a9, a6, 4; ae_mulfp24s.ll	aeq0, aep1, aep2 }
     e96:	01c882        	addi	a8, a8, 1
     e99:	88ad           	ae_sext16	a10, a8
     e9b:	22aa97        	bge	a10, a9, ec1 <inv_mel_filter+0x69>
     e9e:	f867d18a3f 	{ addx2	a8, a10, a3; ae_roundsp24q48asym	aep1, aeq0 }
     ea3:	c099a0        	sub	a9, a9, a10
     ea6:	40a804        	ae_lp16f.iu	aep2, a8, 0
     ea9:	148976        	loop	a9, ec1 <inv_mel_filter+0x69>
     eac:	011074        	ae_mulfp24s.ll	aeq0, aep1, aep0
     eaf:	1b8d04        	ae_roundsp24q48asym	aep0, aeq0
     eb2:	0b8404        	ae_sllisp24s	aep0, aep0, 8
     eb5:	078204        	ae_addsp24s	aep0, aep0, aep2
     eb8:	428804        	ae_sp16f.l.iu	aep0, a8, 0
     ebb:	40a814        	ae_lp16f.iu	aep2, a8, 2
     ebe:	408514        	ae_lp16f.iu	aep0, a5, 2

00000ec1 <inv_mel_filter+0x69>:
     ec1:	770b           	addi.n	a7, a7, -1
     ec3:	509414        	ae_lp24f.iu	aep1, a4, 4
     ec6:	40a214        	ae_lp16f.iu	aep2, a2, 2
     ec9:	662b           	addi.n	a6, a6, 2
     ecb:	fc0756        	bnez	a7, e8f <inv_mel_filter+0x37>

00000ece <inv_mel_filter+0x76>:
     ece:	f01d           	retw.n

00000ed0 <calc_amt>:
     ed0:	00e136        	entry	a1, 112
     ed3:	fc20e042be 	{ l16si	a11, a2, 8; ae_zerop48	aep1 }
     ed8:	fc2494a12f 	{ s32i.n	a2, a1, 40; ae_zeroq56	aeq0 }
     edd:	fc61c1        	l32r	a12, 64 (e640 <all_amt_tab>)
     ee0:	2b0b           	addi.n	a2, a11, -1
     ee2:	822d           	ae_sext16	a2, a2
     ee4:	116122        	s32i	a2, a1, 68
     ee7:	a02220        	addx4	a2, a2, a2
     eea:	f139           	s32i.n	a3, a1, 60
     eec:	b032c0        	addx8	a3, a2, a12
     eef:	106142        	s32i	a4, a1, 64
     ef2:	234d           	ae_l16si.n	a4, a3, 0
     ef4:	5328           	l32i.n	a2, a3, 20
     ef6:	63d8           	l32i.n	a13, a3, 24
     ef8:	33e8           	l32i.n	a14, a3, 12
     efa:	83f8           	l32i.n	a15, a3, 32
     efc:	4378           	l32i.n	a7, a3, 16
     efe:	533d           	ae_l16ui.n	a3, a3, 2
     f00:	126152        	s32i	a5, a1, 72
     f03:	d129           	s32i.n	a2, a1, 52
     f05:	c1d9           	s32i.n	a13, a1, 48
     f07:	e1e9           	s32i.n	a14, a1, 56
     f09:	b1f9           	s32i.n	a15, a1, 44
     f0b:	3c14a6        	blti	a4, 1, f4b <calc_amt+0x7b>
     f0e:	a128           	l32i.n	a2, a1, 40
     f10:	045d           	mov.n	a5, a4
     f12:	62cb           	addi.n	a6, a2, 12
     f14:	fc5521        	l32r	a2, 68 (d2c <fxln>)
     f17:	605604        	ae_lq32f.iu	aeq1, a6, 0

00000f1a <calc_amt+0x4a>:
     f1a:	35d2f4        	ae_sraiq56	aeq3, aeq1, 11
     f1d:	fc3c7a014f 	{ ae_sq56s.i	aeq0, a1, 32; ae_roundsq32asym	aeq0, aeq3 }
     f22:	368a04        	ae_trunca32q48	a10, aeq0
     f25:	631134        	ae_sq56s.i	aeq1, a1, 24
     f28:	561124        	ae_sp24x2s.i	aep1, a1, 16
     f2b:	0002e0        	callx8	a2
     f2e:	300aa4        	ae_cvtp24a16x2.ll	aep0, a10, a10
     f31:	cc403d814f 	{ ae_lq56.i	aeq0, a1, 32; ae_sraip24	aep0, aep0, 8 }
     f36:	614134        	ae_lq56.i	aeq1, a1, 24
     f39:	f86630112f 	{ ae_lp24x2.i	aep1, a1, 16; ae_addq56	aeq0, aeq0, aeq1 }
     f3e:	fc00cff55e 	{ addi	a5, a5, -1; ae_satq48s	aeq0, aeq0 }
     f43:	d8057d361f 	{ ae_lq32f.iu	aeq1, a6, 4; ae_addsp24s	aep1, aep1, aep0 }
     f48:	fce556        	bnez	a5, f1a <calc_amt+0x4a>
     f4b:	300334        	ae_cvtp24a16x2.ll	aep0, a3, a3
     f4e:	030214        	ae_mulfq32sp16s.l	aeq0, aeq0, aep0
     f51:	011874        	ae_mulfp24s.ll	aeq1, aep1, aep0
     f54:	fc2440ff3f 	{ movi	a3, 255; ae_roundsq32asym	aeq0, aeq0 }
     f59:	355234        	ae_sraiq56	aeq1, aeq1, 8
     f5c:	ff2c7a810f 	{ ae_slliq56	aeq0, aeq0, 4; ae_roundsq32asym	aeq3, aeq1 }
     f61:	368604        	ae_trunca32q48	a6, aeq0
     f64:	353154        	ae_slliq56	aeq0, aeq3, 5
     f67:	368a04        	ae_trunca32q48	a10, aeq0
     f6a:	fc4021        	l32r	a2, 6c (950 <fxexp>)
     f6d:	0002e0        	callx8	a2
     f70:	7fd332        	addmi	a3, a3, 0x7f00
     f73:	f6ac           	beqz.n	a6, fa6 <calc_amt+0xd6>
     f75:	035d           	mov.n	a5, a3
     f77:	2daa67        	bge	a10, a6, fa8 <calc_amt+0xd8>
     f7a:	40e650        	nsa	a5, a6
     f7d:	360a34        	ae_cvtq48a32s	aeq0, a10
     f80:	855d           	ae_sext16	a5, a5
     f82:	fc24fe850f 	{ ae_slaasq56s	aeq0, aeq0, a5; nop }
     f87:	fc00fec67f 	{ ae_cvtq48a32s	aeq1, a6; ae_satq48s	aeq0, aeq0 }
     f8c:	f1c552        	addi	a5, a5, -15
     f8f:	fc24fe954f 	{ ae_slaasq56s	aeq1, aeq1, a5; nop }
     f94:	fd04ff0eef 	{ ae_trunca32q48	a14, aeq0; ae_satq48s	aeq1, aeq1 }
     f99:	369f04        	ae_trunca32q48	a15, aeq1
     f9c:	d25ef0        	quos	a5, a14, a15
     f9f:	a55d           	ae_clamps16	a5, a5
     fa1:	855d           	ae_sext16	a5, a5
     fa3:	000046        	j	fa8 <calc_amt+0xd8>

00000fa6 <calc_amt+0xd6>:
     fa6:	050c           	movi.n	a5, 0
     fa8:	360534        	ae_cvtq48a32s	aeq0, a5
     fab:	350054        	ae_slliq56	aeq0, aeq0, 1
     fae:	fc00cd3a5f 	{ movi	a5, 0xfffffd3a; ae_satq48s	aeq0, aeq0 }
     fb3:	368a04        	ae_trunca32q48	a10, aeq0
     fb6:	fc2e21        	l32r	a2, 70 (cb4 <fxlog10>)
     fb9:	0002e0        	callx8	a2
     fbc:	a06aa0        	addx4	a6, a10, a10
     fbf:	1166f0        	slli	a6, a6, 1
     fc2:	300554        	ae_cvtp24a16x2.ll	aep0, a5, a5
     fc5:	360634        	ae_cvtq48a32s	aeq0, a6
     fc8:	d4e230d18e 	{ l32i	a8, a1, 52; ae_mulfq32sp16s.l	aeq0, aeq0, aep0 }
     fcd:	c1a8           	l32i.n	a10, a1, 48
     fcf:	3604d4        	ae_sllisq56s	aeq0, aeq0, 19
     fd2:	fc00f0b1be 	{ l32i	a11, a1, 44; ae_satq48s	aeq0, aeq0 }
     fd7:	f8e380cd5f 	{ movi	a5, 205; ae_roundsp16q48sym	aep0, aeq0 }
     fdc:	0214e6        	bgei	a4, 1, fe2 <calc_amt+0x112>
     fdf:	005e46        	j	115c <calc_amt+0x28c>
     fe2:	b60c           	movi.n	a6, 11
     fe4:	a128           	l32i.n	a2, a1, 40
     fe6:	0cd552        	addmi	a5, a5, 0xc00
     fe9:	116680        	slli	a6, a6, 8
     fec:	307654        	ae_cvtp24a16x2.ll	aep7, a6, a5
     fef:	301334        	ae_cvtp24a16x2.ll	aep1, a3, a3
     ff2:	df06b1016e 	{ l32i	a6, a1, 64; ae_subsp24s	aep6, aep1, aep0 }
     ff7:	40a704        	ae_lp16f.iu	aep2, a7, 0
     ffa:	a0e420        	addx4	a14, a4, a2
     ffd:	fc24bf0f6f 	{ ae_trunca16p24s.l	a15, aep0; ae_zeroq56	aeq0 }
    1002:	3ecb           	addi.n	a3, a14, 12
    1004:	562124        	ae_sp24x2s.i	aep2, a1, 16
    1007:	1361f2        	s32i	a15, a1, 76
    100a:	566144        	ae_sp24x2s.i	aep6, a1, 32
    100d:	567134        	ae_sp24x2s.i	aep7, a1, 24
    1010:	0014c6        	j	1067 <calc_amt+0x197>

00001013 <calc_amt+0x143>:
    1013:	882d           	ae_sext16	a2, a8
    1015:	224b           	addi.n	a2, a2, 4
    1017:	21a320        	srai	a10, a2, 3
    101a:	fc1321        	l32r	a2, 68 (d2c <fxln>)
    101d:	0002e0        	callx8	a2
    1020:	360a34        	ae_cvtq48a32s	aeq0, a10
    1023:	350154        	ae_slliq56	aeq0, aeq0, 5
    1026:	060844        	ae_satq48s	aeq0, aeq0
    1029:	368a04        	ae_trunca32q48	a10, aeq0
    102c:	fc1021        	l32r	a2, 6c (950 <fxexp>)
    102f:	0002e0        	callx8	a2
    1032:	360a34        	ae_cvtq48a32s	aeq0, a10
    1035:	f8e3b0f15e 	{ l32i	a5, a1, 60; ae_roundsp16q48sym	aep0, aeq0 }
    103a:	262d           	ae_l16si.n	a2, a6, 0
    103c:	360e24        	ae_trunca16p24s.l	a14, aep0
    103f:	e1d8           	l32i.n	a13, a1, 56
    1041:	b1b8           	l32i.n	a11, a1, 44
    1043:	d188           	l32i.n	a8, a1, 52
    1045:	c1f8           	l32i.n	a15, a1, 48
    1047:	22ea           	add.n	a2, a2, a14
    1049:	554b           	addi.n	a5, a5, 4
    104b:	f159           	s32i.n	a5, a1, 60
    104d:	5d2b           	addi.n	a5, a13, 2
    104f:	a22d           	ae_clamps16	a2, a2
    1051:	fc248ff44e 	{ addi	a4, a4, -1; ae_zeroq56	aeq0 }
    1056:	662d           	ae_s16i.n	a2, a6, 0
    1058:	334b           	addi.n	a3, a3, 4
    105a:	e159           	s32i.n	a5, a1, 56
    105c:	bb2b           	addi.n	a11, a11, 2
    105e:	882b           	addi.n	a8, a8, 2
    1060:	af2b           	addi.n	a10, a15, 2
    1062:	662b           	addi.n	a6, a6, 2
    1064:	0f4416        	beqz	a4, 115c <calc_amt+0x28c>
    1067:	285d           	ae_l16si.n	a5, a8, 0
    1069:	d189           	s32i.n	a8, a1, 52
    106b:	a128           	l32i.n	a2, a1, 40
    106d:	1c15a6        	blti	a5, 1, 108d <calc_amt+0x1bd>
    1070:	2a8d           	ae_l16si.n	a8, a10, 0
    1072:	959d           	ae_zext16	a9, a5
    1074:	540124        	ae_lp24x2.i	aep0, a1, 16
    1077:	a0f820        	addx4	a15, a8, a2
    107a:	5fcb           	addi.n	a5, a15, 12
    107c:	605504        	ae_lq32f.iu	aeq1, a5, 0
    107f:	078976        	loop	a9, 108a <calc_amt+0x1ba>
    1082:	f403bd351f 	{ ae_lq32f.iu	aeq1, a5, 4; ae_mulafq32sp16s.h	aeq0, aeq1, aep0 }
    1087:	408714        	ae_lp16f.iu	aep0, a7, 2

0000108a <calc_amt+0x1ba>:
    108a:	560124        	ae_sp24x2s.i	aep0, a1, 16

0000108d <calc_amt+0x1bd>:
    108d:	2b5d           	ae_l16si.n	a5, a11, 0
    108f:	fc2471312e 	{ l32i	a2, a1, 76; ae_roundsq32asym	aeq0, aeq0 }
    1094:	368804        	ae_trunca32q48	a8, aeq0
    1097:	540144        	ae_lp24x2.i	aep0, a1, 32
    109a:	825520        	mull	a5, a5, a2
    109d:	36c534        	ae_cvtq48a32s	aeq3, a5
    10a0:	353054        	ae_slliq56	aeq0, aeq3, 1
    10a3:	fc00f0113f 	{ ae_lp24x2.i	aep1, a1, 24; ae_satq48s	aeq0, aeq0 }
    10a8:	e42114c1af 	{ s32i.n	a10, a1, 48; ae_mulafs32p16s.lh	aeq0, aep0, aep1 }
    10ad:	04d892        	addmi	a9, a8, 0x400
    10b0:	31ff80        	srai	a15, a8, 31
    10b3:	628980        	saltu	a8, a9, a8
    10b6:	f8e3905f8f 	{ add	a5, a15, a8; ae_roundsp16q48sym	aep0, aeq0 }
    10bb:	ea2314b1bf 	{ s32i.n	a11, a1, 44; ae_mulfs32p16s.ll	aeq0, aep0, aep1 }
    10c0:	419b90        	srli	a9, a9, 11
    10c3:	0155b0        	slli	a5, a5, 21
    10c6:	f8e390a95f 	{ add	a10, a9, a5; ae_roundsp16q48sym	aep0, aeq0 }
    10cb:	fbe951        	l32r	a5, 70 (cb4 <fxlog10>)
    10ce:	360224        	ae_trunca16p24s.l	a2, aep0
    10d1:	0005e0        	callx8	a5
    10d4:	afa052        	movi	a5, 175
    10d7:	1122d0        	slli	a2, a2, 3
    10da:	a22d           	ae_clamps16	a2, a2
    10dc:	c02a20        	sub	a2, a10, a2
    10df:	a22d           	ae_clamps16	a2, a2
    10e1:	49d552        	addmi	a5, a5, 0x4900
    10e4:	d12250        	mul16s	a2, a2, a5
    10e7:	01d282        	addmi	a8, a2, 0x100
    10ea:	315f20        	srai	a5, a2, 31
    10ed:	622820        	saltu	a2, a8, a2
    10f0:	252a           	add.n	a2, a5, a2
    10f2:	418980        	srli	a8, a8, 9
    10f5:	012290        	slli	a2, a2, 23
    10f8:	a82a           	add.n	a10, a8, a2
    10fa:	fbdc21        	l32r	a2, 6c (950 <fxexp>)
    10fd:	0002e0        	callx8	a2
    1100:	e128           	l32i.n	a2, a1, 56
    1102:	f1f8           	l32i.n	a15, a1, 60
    1104:	360a34        	ae_cvtq48a32s	aeq0, a10
    1107:	422d           	ae_l16ui.n	a2, a2, 0
    1109:	300224        	ae_cvtp24a16x2.ll	aep0, a2, a2
    110c:	d4e2300f5e 	{ l32i	a5, a15, 0; ae_mulfq32sp16s.l	aeq0, aeq0, aep0 }
    1111:	360054        	ae_sllisq56s	aeq0, aeq0, 1
    1114:	fc00c0008f 	{ movi	a8, 0; ae_satq48s	aeq0, aeq0 }
    1119:	fc2440ffbf 	{ movi	a11, 255; ae_roundsq32asym	aeq0, aeq0 }
    111e:	ef1516        	beqz	a5, 1013 <calc_amt+0x143>
    1121:	368204        	ae_trunca32q48	a2, aeq0
    1124:	0388           	l32i.n	a8, a3, 0
    1126:	40e5a0        	nsa	a10, a5
    1129:	8acd           	ae_sext16	a12, a10
    112b:	539280        	max	a9, a2, a8
    112e:	7fdb82        	addmi	a8, a11, 0x7f00
    1131:	022957        	blt	a9, a5, 1137 <calc_amt+0x267>
    1134:	ffb6c6        	j	1013 <calc_amt+0x143>
    1137:	360934        	ae_cvtq48a32s	aeq0, a9
    113a:	fc24fe8c0f 	{ ae_slaasq56s	aeq0, aeq0, a12; nop }
    113f:	fc00fec57f 	{ ae_cvtq48a32s	aeq1, a5; ae_satq48s	aeq0, aeq0 }
    1144:	f1cc22        	addi	a2, a12, -15
    1147:	fc24fe924f 	{ ae_slaasq56s	aeq1, aeq1, a2; nop }
    114c:	fd04ff0eef 	{ ae_trunca32q48	a14, aeq0; ae_satq48s	aeq1, aeq1 }
    1151:	369f04        	ae_trunca32q48	a15, aeq1
    1154:	d22ef0        	quos	a2, a14, a15
    1157:	a28d           	ae_clamps16	a8, a2
    1159:	ffad86        	j	1013 <calc_amt+0x143>

0000115c <calc_amt+0x28c>:
    115c:	fbc621        	l32r	a2, 74 (e58 <inv_mel_filter>)
    115f:	1021a2        	l32i	a10, a1, 64
    1162:	1221b2        	l32i	a11, a1, 72
    1165:	1121c2        	l32i	a12, a1, 68
    1168:	0002e0        	callx8	a2
    116b:	f01d           	retw.n

0000116d <calc_amt+0x29d>:
    116d:	000000                                        ...

00001170 <fn_ini_fb_noise_est>:
    1170:	004136        	entry	a1, 32
    1173:	fbc141        	l32r	a4, 78 (90e4 <xt_memset>)
    1176:	0b0c           	movi.n	a11, 0
    1178:	0ea2c2        	movi	a12, 0x20e
    117b:	02ad           	mov.n	a10, a2
    117d:	0004e0        	callx8	a4
    1180:	fbaa41        	l32r	a4, 28 (90f8 <xt_memcpy>)
    1183:	cc0c           	movi.n	a12, 12
    1185:	02ad           	mov.n	a10, a2
    1187:	03bd           	mov.n	a11, a3
    1189:	0004e0        	callx8	a4
    118c:	01a142        	movi	a4, 0x101
    118f:	18c222        	addi	a2, a2, 24
    1192:	00a132        	movi	a3, 0x100
    1195:	038476        	loop	a4, 119c <fn_ini_fb_noise_est+0x2c>
    1198:	0239           	s32i.n	a3, a2, 0
    119a:	224b           	addi.n	a2, a2, 4

0000119c <fn_ini_fb_noise_est+0x2c>:
    119c:	f01d           	retw.n

0000119e <fn_ini_fb_noise_est+0x2e>:
	...

000011a0 <fn_fb_noise_est>:
    11a0:	004136        	entry	a1, 32
    11a3:	18c262        	addi	a6, a2, 24
    11a6:	067d           	mov.n	a7, a6
    11a8:	508704        	ae_lp24f.iu	aep0, a7, 0
    11ab:	077416        	beqz	a4, 1226 <fn_fb_noise_est+0x86>
    11ae:	2238           	l32i.n	a3, a2, 8
    11b0:	81a042        	movi	a4, 129
    11b3:	413830        	srli	a3, a3, 8
    11b6:	399334        	ae_movpa24x2	aep1, a3, a3
    11b9:	0b8476        	loop	a4, 11c8 <fn_fb_noise_est+0x28>
    11bc:	010144        	ae_mulfp24s.hh	aeq0, aep0, aep1
    11bf:	1b8d04        	ae_roundsp24q48asym	aep0, aeq0
    11c2:	528704        	ae_sp24f.l.iu	aep0, a7, 0
    11c5:	508714        	ae_lp24f.iu	aep0, a7, 4

000011c8 <fn_fb_noise_est+0x28>:
    11c8:	3238           	l32i.n	a3, a2, 12
    11ca:	80a042        	movi	a4, 128
    11cd:	413830        	srli	a3, a3, 8
    11d0:	399334        	ae_movpa24x2	aep1, a3, a3
    11d3:	f03d           	nop.n
    11d5:	0b8476        	loop	a4, 11e4 <fn_fb_noise_est+0x44>
    11d8:	010144        	ae_mulfp24s.hh	aeq0, aep0, aep1
    11db:	1b8d04        	ae_roundsp24q48asym	aep0, aeq0
    11de:	528704        	ae_sp24f.l.iu	aep0, a7, 0
    11e1:	508714        	ae_lp24f.iu	aep0, a7, 4

000011e4 <fn_fb_noise_est+0x44>:
    11e4:	4238           	l32i.n	a3, a2, 16
    11e6:	80a042        	movi	a4, 128
    11e9:	508604        	ae_lp24f.iu	aep0, a6, 0
    11ec:	413830        	srli	a3, a3, 8
    11ef:	399334        	ae_movpa24x2	aep1, a3, a3
    11f2:	fcc532        	addi	a3, a5, -4
    11f5:	0e8476        	loop	a4, 1207 <fn_fb_noise_est+0x67>
    11f8:	010174        	ae_mulfp24s.ll	aeq0, aep0, aep1
    11fb:	1b8d24        	ae_roundsp24q48asym	aep2, aeq0
    11fe:	07a074        	ae_addsp24s	aep7, aep2, aep0
    1201:	52f314        	ae_sp24f.l.iu	aep7, a3, 4
    1204:	508614        	ae_lp24f.iu	aep0, a6, 4

00001207 <fn_fb_noise_est+0x67>:
    1207:	5228           	l32i.n	a2, a2, 20
    1209:	81a042        	movi	a4, 129
    120c:	412820        	srli	a2, a2, 8
    120f:	399224        	ae_movpa24x2	aep1, a2, a2
    1212:	0e8476        	loop	a4, 1224 <fn_fb_noise_est+0x84>
    1215:	010174        	ae_mulfp24s.ll	aeq0, aep0, aep1
    1218:	1b8d24        	ae_roundsp24q48asym	aep2, aeq0
    121b:	07a074        	ae_addsp24s	aep7, aep2, aep0
    121e:	52f314        	ae_sp24f.l.iu	aep7, a3, 4
    1221:	508614        	ae_lp24f.iu	aep0, a6, 4
    1224:	f01d           	retw.n

00001226 <fn_fb_noise_est+0x86>:
    1226:	0248           	l32i.n	a4, a2, 0
    1228:	1288           	l32i.n	a8, a2, 4
    122a:	01a192        	movi	a9, 0x101
    122d:	414840        	srli	a4, a4, 8
    1230:	418880        	srli	a8, a8, 8
    1233:	399484        	ae_movpa24x2	aep1, a4, a8
    1236:	50a304        	ae_lp24f.iu	aep2, a3, 0
    1239:	118976        	loop	a9, 124e <fn_fb_noise_est+0xae>
    123c:	010144        	ae_mulfp24s.hh	aeq0, aep0, aep1
    123f:	012134        	ae_mulafp24s.ll	aeq0, aep2, aep1
    1242:	1b8d74        	ae_roundsp24q48asym	aep7, aeq0
    1245:	52f704        	ae_sp24f.l.iu	aep7, a7, 0
    1248:	508714        	ae_lp24f.iu	aep0, a7, 4
    124b:	50a314        	ae_lp24f.iu	aep2, a3, 4

0000124e <fn_fb_noise_est+0xae>:
    124e:	ffe486        	j	11e4 <fn_fb_noise_est+0x44>

00001251 <fn_fb_noise_est+0xb1>:
    1251:	000000                                        ...

00001254 <fn_ini_st_noise_est>:
    1254:	004136        	entry	a1, 32
    1257:	fb8841        	l32r	a4, 78 (90e4 <xt_memset>)
    125a:	0b0c           	movi.n	a11, 0
    125c:	5ea3c2        	movi	a12, 0x35e
    125f:	02ad           	mov.n	a10, a2
    1261:	0004e0        	callx8	a4
    1264:	98a472        	movi	a7, 0x498
    1267:	6ca682        	movi	a8, 0x66c
    126a:	757c           	movi.n	a5, -9
    126c:	940c           	movi.n	a4, 9
    126e:	115550        	slli	a5, a5, 11
    1271:	c60c           	movi.n	a6, 12
    1273:	727a           	add.n	a7, a2, a7
    1275:	828a           	add.n	a8, a2, a8

00001277 <fn_ini_st_noise_est+0x23>:
    1277:	079d           	mov.n	a9, a7
    1279:	0859           	s32i.n	a5, a8, 0
    127b:	038676        	loop	a6, 1282 <fn_ini_st_noise_est+0x2e>
    127e:	0959           	s32i.n	a5, a9, 0
    1280:	994b           	addi.n	a9, a9, 4

00001282 <fn_ini_st_noise_est+0x2e>:
    1282:	440b           	addi.n	a4, a4, -1
    1284:	30c772        	addi	a7, a7, 48
    1287:	884b           	addi.n	a8, a8, 4
    1289:	fea456        	bnez	a4, 1277 <fn_ini_st_noise_est+0x23>
    128c:	fb6741        	l32r	a4, 28 (90f8 <xt_memcpy>)
    128f:	4c1c           	movi.n	a12, 20
    1291:	02ad           	mov.n	a10, a2
    1293:	03bd           	mov.n	a11, a3
    1295:	0004e0        	callx8	a4
    1298:	eda042        	movi	a4, 237
    129b:	28c222        	addi	a2, a2, 40
    129e:	00a132        	movi	a3, 0x100
    12a1:	038476        	loop	a4, 12a8 <fn_ini_st_noise_est+0x54>
    12a4:	0239           	s32i.n	a3, a2, 0
    12a6:	224b           	addi.n	a2, a2, 4
    12a8:	f01d           	retw.n

000012aa <fn_ini_st_noise_est+0x56>:
	...

000012ac <fn_st_noise_est>:
    12ac:	00c136        	entry	a1, 96
    12af:	06d2f2        	addmi	a15, a2, 0x600
    12b2:	050c           	movi.n	a5, 0
    12b4:	460c           	movi.n	a6, 4
    12b6:	2ca4e2        	movi	a14, 0x42c
    12b9:	fb7081        	l32r	a8, 7c (e6c0 <sb_ptn>)
    12bc:	170c           	movi.n	a7, 1
    12be:	39a664        	ae_movpa24x2	aep2, a6, a6
    12c1:	62ea           	add.n	a6, a2, a14
    12c3:	fe7c           	movi.n	a14, -1
    12c5:	d1f9           	s32i.n	a15, a1, 52
    12c7:	5d5f52        	s16i	a5, a15, 186
    12ca:	ff7c           	movi.n	a15, -1
    12cc:	c149           	s32i.n	a4, a1, 48
    12ce:	e139           	s32i.n	a3, a1, 56
    12d0:	990c           	movi.n	a9, 9
    12d2:	117710        	slli	a7, a7, 15
    12d5:	9129           	s32i.n	a2, a1, 36
    12d7:	01ee10        	slli	a14, a14, 31
    12da:	41f1f0        	srli	a15, a15, 1
    12dd:	fc20b7213f 	{ ae_sp24x2s.i	aep2, a1, 24; ae_zerop48	aep0 }

000012e2 <fn_st_noise_est+0x36>:
    12e2:	0f5d           	mov.n	a5, a15
    12e4:	282d           	ae_l16si.n	a2, a8, 0
    12e6:	38fd           	ae_l16si.n	a15, a8, 2
    12e8:	a189           	s32i.n	a8, a1, 40
    12ea:	040c           	movi.n	a4, 0
    12ec:	c08f20        	sub	a8, a15, a2
    12ef:	0e3d           	mov.n	a3, a14
    12f1:	f199           	s32i.n	a9, a1, 60
    12f3:	8149           	s32i.n	a4, a1, 32
    12f5:	1618a6        	blti	a8, 1, 130f <fn_st_noise_est+0x63>
    12f8:	0e2142        	l32i	a4, a1, 56
    12fb:	a02240        	addx4	a2, a2, a4
    12fe:	509204        	ae_lp24f.iu	aep1, a2, 0
    1301:	0a8876        	loop	a8, 130f <fn_st_noise_est+0x63>
    1304:	079214        	ae_addsp24s	aep1, aep1, aep2
    1307:	0f1194        	ae_sraip24	aep1, aep1, 3
    130a:	d8212e921f 	{ ae_lp24f.iu	aep1, a2, 4; ae_addsp24s	aep0, aep0, aep1 }

0000130f <fn_st_noise_est+0x63>:
    130f:	20c122        	addi	a2, a1, 32
    1312:	520204        	ae_sp24f.l.i	aep0, a2, 0
    1315:	8128           	l32i.n	a2, a1, 32
    1317:	21a820        	srai	a10, a2, 8
    131a:	fb5521        	l32r	a2, 70 (cb4 <fxlog10>)
    131d:	0002e0        	callx8	a2
    1320:	fb5841        	l32r	a4, 80 (d49a <mel_tab64+0x33a>)
    1323:	058d           	mov.n	a8, a5
    1325:	05bd           	mov.n	a11, a5
    1327:	829a40        	mull	a9, a10, a4
    132a:	05cd           	mov.n	a12, a5
    132c:	b159           	s32i.n	a5, a1, 44
    132e:	f57c           	movi.n	a5, -1
    1330:	a97a           	add.n	a10, a9, a7
    1332:	114500        	slli	a4, a5, 16
    1335:	3190a0        	srai	a9, a10, 16
    1338:	105a40        	and	a5, a10, a4
    133b:	31afa0        	srai	a10, a10, 31
    133e:	f5f090        	extui	a15, a9, 16, 16
    1341:	11aa00        	slli	a10, a10, 16
    1344:	122622        	l32i	a2, a6, 72
    1347:	aafa           	add.n	a10, a10, a15
    1349:	f77c           	movi.n	a7, -1
    134b:	53fa70        	max	a15, a10, a7
    134e:	734530        	maxu	a4, a5, a3
    1351:	7a1b           	addi.n	a7, a10, 1
    1353:	a353a0        	movltz	a5, a3, a10
    1356:	835470        	moveqz	a5, a4, a7
    1359:	a3b5f0        	movltz	a11, a5, a15
    135c:	63a580        	minu	a10, a5, a8
    135f:	c05290        	sub	a5, a2, a9
    1362:	722290        	salt	a2, a2, a9
    1365:	170c           	movi.n	a7, 1
    1367:	302270        	xor	a2, a2, a7
    136a:	9178           	l32i.n	a7, a1, 36
    136c:	96d8           	l32i.n	a13, a6, 36
    136e:	93abf0        	movnez	a10, a11, a15
    1371:	0b0c           	movi.n	a11, 0
    1373:	902270        	addx2	a2, a2, a7
    1376:	43bfb0        	min	a11, a15, a11
    1379:	c0fd90        	sub	a15, a13, a9
    137c:	a54d           	ae_clamps16	a4, a5
    137e:	225d           	ae_l16si.n	a5, a2, 0
    1380:	7229d0        	salt	a2, a9, a13
    1383:	6e0c           	movi.n	a14, 6
    1385:	4d0c           	movi.n	a13, 4
    1387:	93ed20        	movnez	a14, a13, a2
    138a:	27ea           	add.n	a2, a7, a14
    138c:	222d           	ae_l16si.n	a2, a2, 0
    138e:	affd           	ae_clamps16	a15, a15
    1390:	d1e540        	mul16s	a14, a5, a4
    1393:	d122f0        	mul16s	a2, a2, a15
    1396:	0497d2        	l16si	a13, a7, 8
    1399:	9042a0        	addx2	a4, a2, a10
    139c:	1122f0        	slli	a2, a2, 1
    139f:	312f20        	srai	a2, a2, 31
    13a2:	6274a0        	saltu	a7, a4, a10
    13a5:	2b2a           	add.n	a2, a11, a2
    13a7:	227a           	add.n	a2, a2, a7
    13a9:	08fd           	mov.n	a15, a8
    13ab:	738430        	maxu	a8, a4, a3
    13ae:	521b           	addi.n	a5, a2, 1
    13b0:	a34320        	movltz	a4, a3, a2
    13b3:	834850        	moveqz	a4, a8, a5
    13b6:	f87c           	movi.n	a8, -1
    13b8:	532280        	max	a2, a2, a8
    13bb:	a3c420        	movltz	a12, a4, a2
    13be:	6344f0        	minu	a4, a4, a15
    13c1:	170c           	movi.n	a7, 1
    13c3:	934c20        	movnez	a4, a12, a2
    13c6:	112710        	slli	a2, a7, 15
    13c9:	0699           	s32i.n	a9, a6, 0
    13cb:	119ef0        	slli	a9, a14, 1
    13ce:	242a           	add.n	a2, a4, a2
    13d0:	314f90        	srai	a4, a9, 31
    13d3:	905ea0        	addx2	a5, a14, a10
    13d6:	4b4a           	add.n	a4, a11, a4
    13d8:	62c5a0        	saltu	a12, a5, a10
    13db:	44ca           	add.n	a4, a4, a12
    13dd:	b1a8           	l32i.n	a10, a1, 44
    13df:	73b530        	maxu	a11, a5, a3
    13e2:	941b           	addi.n	a9, a4, 1
    13e4:	a35340        	movltz	a5, a3, a4
    13e7:	835b90        	moveqz	a5, a11, a9
    13ea:	534480        	max	a4, a4, a8
    13ed:	6375f0        	minu	a7, a5, a15
    13f0:	a3a540        	movltz	a10, a5, a4
    13f3:	1b0c           	movi.n	a11, 1
    13f5:	937a40        	movnez	a7, a10, a4
    13f8:	114b10        	slli	a4, a11, 15
    13fb:	474a           	add.n	a4, a7, a4
    13fd:	312020        	srai	a2, a2, 16
    1400:	314040        	srai	a4, a4, 16
    1403:	126642        	s32i	a4, a6, 72
    1406:	c04420        	sub	a4, a4, a2
    1409:	1c0c           	movi.n	a12, 1
    140b:	a44d           	ae_clamps16	a4, a4
    140d:	03ed           	mov.n	a14, a3
    140f:	117c10        	slli	a7, a12, 15
    1412:	9629           	s32i.n	a2, a6, 36
    1414:	10ad47        	bge	a13, a4, 1428 <fn_st_noise_est+0x17c>
    1417:	9128           	l32i.n	a2, a1, 36
    1419:	d138           	l32i.n	a3, a1, 52
    141b:	059222        	l16si	a2, a2, 10
    141e:	5d9342        	l16si	a4, a3, 186
    1421:	242a           	add.n	a2, a4, a2
    1423:	a22d           	ae_clamps16	a2, a2
    1425:	5d5322        	s16i	a2, a3, 186

00001428 <fn_st_noise_est+0x17c>:
    1428:	f198           	l32i.n	a9, a1, 60
    142a:	a188           	l32i.n	a8, a1, 40
    142c:	664b           	addi.n	a6, a6, 4
    142e:	990b           	addi.n	a9, a9, -1
    1430:	882b           	addi.n	a8, a8, 2
    1432:	fc20b0213f 	{ ae_lp24x2.i	aep2, a1, 24; ae_zerop48	aep0 }
    1437:	ea7956        	bnez	a9, 12e2 <fn_st_noise_est+0x36>
    143a:	d128           	l32i.n	a2, a1, 52
    143c:	91a8           	l32i.n	a10, a1, 36
    143e:	cb0c           	movi.n	a11, 12
    1440:	5d9252        	l16si	a5, a2, 186
    1443:	020c           	movi.n	a2, 0
    1445:	e80c           	movi.n	a8, 14
    1447:	725250        	salt	a5, a2, a5
    144a:	938b50        	movnez	a8, a11, a5
    144d:	5a8a           	add.n	a5, a10, a8
    144f:	255d           	ae_l16si.n	a5, a5, 0
    1451:	fb0c41        	l32r	a4, 84 (83ff8000 <_end+0x83fe919c>)
    1454:	166c           	movi.n	a6, -31
    1456:	2ca492        	movi	a9, 0x42c
    1459:	9c0c           	movi.n	a12, 9
    145b:	8a9a           	add.n	a8, a10, a9
    145d:	07dd           	mov.n	a13, a7
    145f:	f37c           	movi.n	a3, -1
    1461:	116660        	slli	a6, a6, 10
    1464:	1195f0        	slli	a9, a5, 1
    1467:	698c76        	loop	a12, 14d4 <fn_st_noise_est+0x228>
    146a:	0858           	l32i.n	a5, a8, 0
    146c:	872872        	l32i	a7, a8, 0x21c
    146f:	31af50        	srai	a10, a5, 31
    1472:	f5b050        	extui	a11, a5, 16, 16
    1475:	0afba0        	depbits	a10, a11, 0, 16
    1478:	11c500        	slli	a12, a5, 16
    147b:	c05750        	sub	a5, a7, a5
    147e:	737ce0        	maxu	a7, a12, a14
    1481:	a3cea0        	movltz	a12, a14, a10
    1484:	ba1b           	addi.n	a11, a10, 1
    1486:	a55d           	ae_clamps16	a5, a5
    1488:	83c7b0        	moveqz	a12, a7, a11
    148b:	53aa30        	max	a10, a10, a3
    148e:	0f7d           	mov.n	a7, a15
    1490:	a37ca0        	movltz	a7, a12, a10
    1493:	63ccf0        	minu	a12, a12, a15
    1496:	825950        	mull	a5, a9, a5
    1499:	93c7a0        	movnez	a12, a7, a10
    149c:	43ba20        	min	a11, a10, a2
    149f:	31af50        	srai	a10, a5, 31
    14a2:	5c5a           	add.n	a5, a12, a5
    14a4:	7baa           	add.n	a7, a11, a10
    14a6:	62a5c0        	saltu	a10, a5, a12
    14a9:	77aa           	add.n	a7, a7, a10
    14ab:	73c5e0        	maxu	a12, a5, a14
    14ae:	a71b           	addi.n	a10, a7, 1
    14b0:	a35e70        	movltz	a5, a14, a7
    14b3:	835ca0        	moveqz	a5, a12, a10
    14b6:	537730        	max	a7, a7, a3
    14b9:	0fcd           	mov.n	a12, a15
    14bb:	a3c570        	movltz	a12, a5, a7
    14be:	6355f0        	minu	a5, a5, a15
    14c1:	935c70        	movnez	a5, a12, a7
    14c4:	75da           	add.n	a7, a5, a13
    14c6:	725540        	salt	a5, a5, a4
    14c9:	317070        	srai	a7, a7, 16
    14cc:	937650        	movnez	a7, a6, a5
    14cf:	876872        	s32i	a7, a8, 0x21c
    14d2:	884b           	addi.n	a8, a8, 4

000014d4 <fn_st_noise_est+0x228>:
    14d4:	9188           	l32i.n	a8, a1, 36
    14d6:	b30c           	movi.n	a3, 11
    14d8:	020c           	movi.n	a2, 0
    14da:	06d842        	addmi	a4, a8, 0x600
    14dd:	5a9452        	l16si	a5, a4, 180
    14e0:	ff7c           	movi.n	a15, -1
    14e2:	06d872        	addmi	a7, a8, 0x600
    14e5:	551b           	addi.n	a5, a5, 1
    14e7:	856d           	ae_sext16	a6, a5
    14e9:	726360        	salt	a6, a3, a6
    14ec:	935260        	movnez	a5, a2, a6
    14ef:	f460f0        	extui	a6, a15, 0, 16
    14f2:	5a5452        	s16i	a5, a4, 180
    14f5:	028657        	bany	a6, a5, 14fb <fn_st_noise_est+0x24f>
    14f8:	003146        	j	15c1 <fn_st_noise_est+0x315>
    14fb:	5b9722        	l16si	a2, a7, 182
    14fe:	c1a8           	l32i.n	a10, a1, 48
    1500:	170c           	movi.n	a7, 1
    1502:	98a432        	movi	a3, 0x498
    1505:	a02280        	addx4	a2, a2, a8
    1508:	940c           	movi.n	a4, 9
    150a:	48a6f2        	movi	a15, 0x648
    150d:	223a           	add.n	a2, a2, a3
    150f:	8038f0        	add	a3, a8, a15
    1512:	117710        	slli	a7, a7, 15
    1515:	0d8476        	loop	a4, 1526 <fn_st_noise_est+0x27a>
    1518:	0348           	l32i.n	a4, a3, 0
    151a:	0258           	l32i.n	a5, a2, 0
    151c:	334b           	addi.n	a3, a3, 4
    151e:	434450        	min	a4, a4, a5
    1521:	0249           	s32i.n	a4, a2, 0
    1523:	30c222        	addi	a2, a2, 48

00001526 <fn_st_noise_est+0x27a>:
    1526:	48a632        	movi	a3, 0x648
    1529:	72a022        	movi	a2, 114
    152c:	950c           	movi.n	a5, 9
    152e:	040c           	movi.n	a4, 0
    1530:	1cd222        	addmi	a2, a2, 0x1c00
    1533:	383a           	add.n	a3, a8, a3
    1535:	168576        	loop	a5, 154f <fn_st_noise_est+0x2a3>
    1538:	0358           	l32i.n	a5, a3, 0
    153a:	9368           	l32i.n	a6, a3, 36
    153c:	334b           	addi.n	a3, a3, 4
    153e:	c05560        	sub	a5, a5, a6
    1541:	a55d           	ae_clamps16	a5, a5
    1543:	d15520        	mul16s	a5, a5, a2
    1546:	557a           	add.n	a5, a5, a7
    1548:	315050        	srai	a5, a5, 16
    154b:	454a           	add.n	a4, a5, a4
    154d:	a44d           	ae_clamps16	a4, a4

0000154f <fn_st_noise_est+0x2a3>:
    154f:	facf21        	l32r	a2, 8c (e700 <vad_thrd_bands>)
    1552:	ffa072        	movi	a7, 255
    1555:	7fd772        	addmi	a7, a7, 0x7f00
    1558:	099252        	l16si	a5, a2, 18
    155b:	48a662        	movi	a6, 0x648
    155e:	06d832        	addmi	a3, a8, 0x600
    1561:	724540        	salt	a4, a5, a4
    1564:	facb51        	l32r	a5, 90 (e6e0 <score_bands>)
    1567:	934740        	movnez	a4, a7, a4
    156a:	9f0c           	movi.n	a15, 9
    156c:	686a           	add.n	a6, a8, a6
    156e:	5c5342        	s16i	a4, a3, 184
    1571:	268f76        	loop	a15, 159b <fn_st_noise_est+0x2ef>
    1574:	0678           	l32i.n	a7, a6, 0
    1576:	9688           	l32i.n	a8, a6, 36
    1578:	22fd           	ae_l16si.n	a15, a2, 0
    157a:	849d           	ae_sext16	a9, a4
    157c:	c07780        	sub	a7, a7, a8
    157f:	a77d           	ae_clamps16	a7, a7
    1581:	c077f0        	sub	a7, a7, a15
    1584:	a77d           	ae_clamps16	a7, a7
    1586:	126672        	s32i	a7, a6, 72
    1589:	0817a6        	blti	a7, 1, 1595 <fn_st_noise_est+0x2e9>
    158c:	257d           	ae_l16si.n	a7, a5, 0
    158e:	497a           	add.n	a4, a9, a7
    1590:	a44d           	ae_clamps16	a4, a4
    1592:	5c5342        	s16i	a4, a3, 184

00001595 <fn_st_noise_est+0x2e9>:
    1595:	552b           	addi.n	a5, a5, 2
    1597:	222b           	addi.n	a2, a2, 2
    1599:	664b           	addi.n	a6, a6, 4

0000159b <fn_st_noise_est+0x2ef>:
    159b:	9188           	l32i.n	a8, a1, 36
    159d:	842d           	ae_sext16	a2, a4
    159f:	089832        	l16si	a3, a8, 16
    15a2:	0a9842        	l16si	a4, a8, 20
    15a5:	022237        	blt	a2, a3, 15ab <fn_st_noise_est+0x2ff>
    15a8:	005a46        	j	1715 <fn_st_noise_est+0x469>
    15ab:	022427        	blt	a4, a2, 15b1 <fn_st_noise_est+0x305>
    15ae:	003ac6        	j	169d <fn_st_noise_est+0x3f1>
    15b1:	099832        	l16si	a3, a8, 18
    15b4:	8848           	l32i.n	a4, a8, 32
    15b6:	022327        	blt	a3, a2, 15bc <fn_st_noise_est+0x310>
    15b9:	003946        	j	16a2 <fn_st_noise_est+0x3f6>
    15bc:	042d           	mov.n	a2, a4
    15be:	003886        	j	16a4 <fn_st_noise_est+0x3f8>

000015c1 <fn_st_noise_est+0x315>:
    15c1:	06d8a2        	addmi	a10, a8, 0x600
    15c4:	5b9a42        	l16si	a4, a10, 182
    15c7:	9f0c           	movi.n	a15, 9
    15c9:	98a472        	movi	a7, 0x498
    15cc:	441b           	addi.n	a4, a4, 1
    15ce:	846d           	ae_sext16	a6, a4
    15d0:	723360        	salt	a3, a3, a6
    15d3:	fa9561        	l32r	a6, 28 (90f8 <xt_memcpy>)
    15d6:	832430        	moveqz	a2, a4, a3
    15d9:	48a6e2        	movi	a14, 0x648
    15dc:	12c152        	addi	a5, a1, 18
    15df:	a1f9           	s32i.n	a15, a1, 40
    15e1:	b1a9           	s32i.n	a10, a1, 44
    15e3:	5b5a22        	s16i	a2, a10, 182
    15e6:	787a           	add.n	a7, a8, a7
    15e8:	48ea           	add.n	a4, a8, a14
    15ea:	000d06        	j	1622 <fn_st_noise_est+0x376>

000015ed <fn_st_noise_est+0x341>:
    15ed:	089122        	l16si	a2, a1, 16
    15f0:	099132        	l16si	a3, a1, 18
    15f3:	0a9182        	l16si	a8, a1, 20
    15f6:	0b9192        	l16si	a9, a1, 22
    15f9:	b1e8           	l32i.n	a14, a1, 44
    15fb:	223a           	add.n	a2, a2, a3
    15fd:	889a           	add.n	a8, a8, a9
    15ff:	5b9e32        	l16si	a3, a14, 182
    1602:	a1a8           	l32i.n	a10, a1, 40
    1604:	228a           	add.n	a2, a2, a8
    1606:	222b           	addi.n	a2, a2, 2
    1608:	212220        	srai	a2, a2, 2
    160b:	aa0b           	addi.n	a10, a10, -1
    160d:	a03370        	addx4	a3, a3, a7
    1610:	a22d           	ae_clamps16	a2, a2
    1612:	04f8           	l32i.n	a15, a4, 0
    1614:	9429           	s32i.n	a2, a4, 36
    1616:	30c772        	addi	a7, a7, 48
    1619:	444b           	addi.n	a4, a4, 4
    161b:	03f9           	s32i.n	a15, a3, 0
    161d:	a1a9           	s32i.n	a10, a1, 40
    161f:	06ea16        	beqz	a10, 1691 <fn_st_noise_est+0x3e5>
    1622:	0788           	l32i.n	a8, a7, 0
    1624:	ffa032        	movi	a3, 255
    1627:	7fd332        	addmi	a3, a3, 0x7f00
    162a:	fa97f1        	l32r	a15, 88 (7fff7fff <_end+0x7ffe919b>)
    162d:	0a5132        	s16i	a3, a1, 20
    1630:	274b           	addi.n	a2, a7, 4
    1632:	41f9           	s32i.n	a15, a1, 16
    1634:	a30c           	movi.n	a3, 10
    1636:	889d           	ae_sext16	a9, a8
    1638:	0b5182        	s16i	a8, a1, 22
    163b:	0288           	l32i.n	a8, a2, 0
    163d:	0a91a2        	l16si	a10, a1, 20
    1640:	2c0c           	movi.n	a12, 2
    1642:	11a897        	bge	a8, a9, 1657 <fn_st_noise_est+0x3ab>
    1645:	10c1a2        	addi	a10, a1, 16
    1648:	3c0c           	movi.n	a12, 3
    164a:	05bd           	mov.n	a11, a5
    164c:	0006e0        	callx8	a6
    164f:	0288           	l32i.n	a8, a2, 0
    1651:	0b5182        	s16i	a8, a1, 22
    1654:	000b06        	j	1684 <fn_st_noise_est+0x3d8>

00001657 <fn_st_noise_est+0x3ab>:
    1657:	0fa8a7        	bge	a8, a10, 166a <fn_st_noise_est+0x3be>
    165a:	10c1a2        	addi	a10, a1, 16
    165d:	05bd           	mov.n	a11, a5
    165f:	0006e0        	callx8	a6
    1662:	0288           	l32i.n	a8, a2, 0
    1664:	0a5182        	s16i	a8, a1, 20
    1667:	000646        	j	1684 <fn_st_noise_est+0x3d8>

0000166a <fn_st_noise_est+0x3be>:
    166a:	099192        	l16si	a9, a1, 18
    166d:	0891a2        	l16si	a10, a1, 16
    1670:	0aa897        	bge	a8, a9, 167e <fn_st_noise_est+0x3d2>
    1673:	999d           	ae_zext16	a9, a9
    1675:	095182        	s16i	a8, a1, 18
    1678:	085192        	s16i	a9, a1, 16
    167b:	000146        	j	1684 <fn_st_noise_est+0x3d8>

0000167e <fn_st_noise_est+0x3d2>:
    167e:	02a8a7        	bge	a8, a10, 1684 <fn_st_noise_est+0x3d8>
    1681:	085182        	s16i	a8, a1, 16
    1684:	f65316        	beqz	a3, 15ed <fn_st_noise_est+0x341>
    1687:	0b9192        	l16si	a9, a1, 22
    168a:	330b           	addi.n	a3, a3, -1
    168c:	224b           	addi.n	a2, a2, 4
    168e:	ffea46        	j	163b <fn_st_noise_est+0x38f>

00001691 <fn_st_noise_est+0x3e5>:
    1691:	c1a8           	l32i.n	a10, a1, 48
    1693:	9188           	l32i.n	a8, a1, 36
    1695:	170c           	movi.n	a7, 1
    1697:	117710        	slli	a7, a7, 15
    169a:	ffa206        	j	1526 <fn_st_noise_est+0x27a>

0000169d <fn_st_noise_est+0x3f1>:
    169d:	6828           	l32i.n	a2, a8, 24
    169f:	000046        	j	16a4 <fn_st_noise_est+0x3f8>

000016a2 <fn_st_noise_est+0x3f6>:
    16a2:	7828           	l32i.n	a2, a8, 28
    16a4:	00af32        	movi	a3, 0xffffff00
    16a7:	360334        	ae_cvtq48a32s	aeq0, a3
    16aa:	fa7431        	l32r	a3, 7c (e6c0 <sb_ptn>)
    16ad:	414820        	srli	a4, a2, 8
    16b0:	8129           	s32i.n	a2, a1, 32
    16b2:	398444        	ae_movpa24x2	aep0, a4, a4
    16b5:	020c           	movi.n	a2, 0
    16b7:	940c           	movi.n	a4, 9
    16b9:	001086        	j	16ff <fn_st_noise_est+0x453>

000016bc <fn_st_noise_est+0x410>:
    16bc:	221b           	addi.n	a2, a2, 1
    16be:	90f230        	addx2	a15, a2, a3
    16c1:	266d           	ae_l16si.n	a6, a6, 0
    16c3:	2f7d           	ae_l16si.n	a7, a15, 0
    16c5:	e158           	l32i.n	a5, a1, 56
    16c7:	a0c6b0        	addx4	a12, a6, a11
    16ca:	2ea677        	bge	a6, a7, 16fc <fn_st_noise_est+0x450>
    16cd:	c09760        	sub	a9, a7, a6
    16d0:	a05650        	addx4	a5, a6, a5
    16d3:	28cc62        	addi	a6, a12, 40
    16d6:	9188           	l32i.n	a8, a1, 36
    16d8:	fcc672        	addi	a7, a6, -4
    16db:	605504        	ae_lq32f.iu	aeq1, a5, 0
    16de:	609604        	ae_lq32f.iu	aeq2, a6, 0
    16e1:	178976        	loop	a9, 16fc <fn_st_noise_est+0x450>
    16e4:	01c1e4        	ae_andq56	aeq3, aeq1, aeq0
    16e7:	01afc4        	ae_subq56	aeq2, aeq2, aeq3
    16ea:	09ae14        	ae_truncp24q48x2	aep1, aeq2, aeq2
    16ed:	011834        	ae_mulafp24s.ll	aeq1, aep1, aep0
    16f0:	1b9d14        	ae_roundsp24q48asym	aep1, aeq1
    16f3:	529714        	ae_sp24f.l.iu	aep1, a7, 4
    16f6:	605514        	ae_lq32f.iu	aeq1, a5, 4
    16f9:	609614        	ae_lq32f.iu	aeq2, a6, 4

000016fc <fn_st_noise_est+0x450>:
    16fc:	151247        	beq	a2, a4, 1715 <fn_st_noise_est+0x469>

000016ff <fn_st_noise_est+0x453>:
    16ff:	a05280        	addx4	a5, a2, a8
    1702:	06d552        	addmi	a5, a5, 0x600
    1705:	242552        	l32i	a5, a5, 144
    1708:	906230        	addx2	a6, a2, a3
    170b:	91b8           	l32i.n	a11, a1, 36
    170d:	ab15a6        	blti	a5, 1, 16bc <fn_st_noise_est+0x410>
    1710:	221b           	addi.n	a2, a2, 1
    1712:	fff986        	j	16fc <fn_st_noise_est+0x450>

00001715 <fn_st_noise_est+0x469>:
    1715:	9838           	l32i.n	a3, a8, 36
    1717:	eda042        	movi	a4, 237
    171a:	fcca22        	addi	a2, a10, -4
    171d:	413830        	srli	a3, a3, 8
    1720:	398334        	ae_movpa24x2	aep0, a3, a3
    1723:	28c832        	addi	a3, a8, 40
    1726:	509304        	ae_lp24f.iu	aep1, a3, 0
    1729:	0e8476        	loop	a4, 173b <fn_st_noise_est+0x48f>
    172c:	011074        	ae_mulfp24s.ll	aeq0, aep1, aep0
    172f:	1b8d24        	ae_roundsp24q48asym	aep2, aeq0
    1732:	07a174        	ae_addsp24s	aep7, aep2, aep1
    1735:	52f214        	ae_sp24f.l.iu	aep7, a2, 4
    1738:	509314        	ae_lp24f.iu	aep1, a3, 4

0000173b <fn_st_noise_est+0x48f>:
    173b:	b4a322        	movi	a2, 0x3b4
    173e:	aa2a           	add.n	a10, a10, a2
    1740:	fa5521        	l32r	a2, 94 (90d0 <memset>)
    1743:	0b0c           	movi.n	a11, 0
    1745:	0c5c           	movi.n	a12, 80
    1747:	0002e0        	callx8	a2
    174a:	f01d           	retw.n

0000174c <fn_ini_analysis_frame>:
    174c:	004136        	entry	a1, 32
    174f:	fa4a41        	l32r	a4, 78 (90e4 <xt_memset>)
    1752:	0b0c           	movi.n	a11, 0
    1754:	c8a3c2        	movi	a12, 0x3c8
    1757:	02ad           	mov.n	a10, a2
    1759:	0004e0        	callx8	a4
    175c:	07d222        	addmi	a2, a2, 0x700
    175f:	226232        	s32i	a3, a2, 136
    1762:	f01d           	retw.n

00001764 <fn_analysis_frame>:
    1764:	006136        	entry	a1, 48
    1767:	07d272        	addmi	a7, a2, 0x700
    176a:	222772        	l32i	a7, a7, 136
    176d:	c8a382        	movi	a8, 0x3c8
    1770:	a28b           	addi.n	a10, a2, 8
    1772:	300664        	ae_cvtp24a16x2.ll	aep0, a6, a6
    1775:	3149           	s32i.n	a4, a1, 12
    1777:	5c1566        	bnei	a5, 1, 17d7 <fn_analysis_frame+0x73>
    177a:	1298           	l32i.n	a9, a2, 4
    177c:	0022d2        	l32i	a13, a2, 0
    177f:	fa4651        	l32r	a5, 98 (15cc64 <_end+0x14de00>)
    1782:	fa4661        	l32r	a6, 9c (7af1aa <_end+0x7a0346>)
    1785:	399654        	ae_movpa24x2	aep1, a6, a5
    1788:	c4a3e2        	movi	a14, 0x3c4
    178b:	419890        	srli	a9, a9, 8
    178e:	4158d0        	srli	a5, a13, 8
    1791:	78a0f2        	movi	a15, 120
    1794:	39b954        	ae_movpa24x2	aep3, a9, a5
    1797:	44a304        	ae_lp16x2f.iu	aep2, a3, 0
    179a:	8052e0        	add	a5, a2, a14
    179d:	2d8f76        	loop	a15, 17ce <fn_analysis_frame+0x6a>
    17a0:	fc443e2bcf 	{ ae_selp24.hh	aep7, aep2, aep3; ae_cvtq48p24s.h	aeq0, aep2 }
    17a5:	ec643e22ef 	{ ae_selp24.lh	aep3, aep2, aep2; ae_mulsafp24s.hh.ll	aeq0, aep1, aep3 }
    17aa:	fd4c2da31f 	{ ae_lp16x2f.iu	aep2, a3, 4; ae_cvtq48p24s.l	aeq1, aep2 }
    17af:	051f84        	ae_mulsafp24s.hh.ll	aeq1, aep1, aep7
    17b2:	060934        	ae_roundsq32asym	aeq0, aeq0
    17b5:	065934        	ae_roundsq32asym	aeq1, aeq1
    17b8:	030214        	ae_mulfq32sp16s.l	aeq0, aeq0, aep0
    17bb:	030a54        	ae_mulfq32sp16s.l	aeq1, aeq1, aep0
    17be:	360114        	ae_sllisq56s	aeq0, aeq0, 4
    17c1:	fc247ad1cf 	{ ae_sllisq56s	aeq3, aeq1, 4; ae_roundsq32asym	aeq0, aeq0 }
    17c6:	fc3c79c51f 	{ ae_sq32f.iu	aeq0, a5, 4; ae_roundsq32asym	aeq0, aeq3 }
    17cb:	624514        	ae_sq32f.iu	aeq0, a5, 4

000017ce <fn_analysis_frame+0x6a>:
    17ce:	1ab384        	ae_selp24.lh	aep0, aep3, aep3
    17d1:	5e0204        	ae_sp24x2f.i	aep0, a2, 0
    17d4:	000b06        	j	1804 <fn_analysis_frame+0xa0>

000017d7 <fn_analysis_frame+0x73>:
    17d7:	c4a352        	movi	a5, 0x3c4
    17da:	78a062        	movi	a6, 120
    17dd:	fcc332        	addi	a3, a3, -4
    17e0:	525a           	add.n	a5, a2, a5
    17e2:	1e8676        	loop	a6, 1804 <fn_analysis_frame+0xa0>
    17e5:	449314        	ae_lp16x2f.iu	aep1, a3, 4
    17e8:	0a0984        	ae_cvtq48p24s.h	aeq0, aep1
    17eb:	0a4184        	ae_cvtq48p24s.l	aeq1, aep1
    17ee:	030214        	ae_mulfq32sp16s.l	aeq0, aeq0, aep0
    17f1:	030a54        	ae_mulfq32sp16s.l	aeq1, aeq1, aep0
    17f4:	360114        	ae_sllisq56s	aeq0, aeq0, 4
    17f7:	fc247ad14f 	{ ae_sllisq56s	aeq1, aeq1, 4; ae_roundsq32asym	aeq0, aeq0 }
    17fc:	ff2c79c51f 	{ ae_sq32f.iu	aeq0, a5, 4; ae_roundsq32asym	aeq3, aeq1 }
    1801:	627514        	ae_sq32f.iu	aeq3, a5, 4

00001804 <fn_analysis_frame+0xa0>:
    1804:	fa2761        	l32r	a6, a0 (b6a0 <window>)
    1807:	428a           	add.n	a4, a2, a8
    1809:	0a8d           	mov.n	a8, a10
    180b:	f0a092        	movi	a9, 240
    180e:	08d722        	addmi	a2, a7, 0x800
    1811:	fcc752        	addi	a5, a7, -4
    1814:	203aa0        	or	a3, a10, a10
    1817:	601804        	ae_lq32f.iu	aeq0, a8, 0
    181a:	448604        	ae_lp16x2f.iu	aep0, a6, 0
    181d:	198976        	loop	a9, 183a <fn_analysis_frame+0xd6>
    1820:	030204        	ae_mulfq32sp16s.h	aeq0, aeq0, aep0
    1823:	060934        	ae_roundsq32asym	aeq0, aeq0
    1826:	624514        	ae_sq32f.iu	aeq0, a5, 4
    1829:	601814        	ae_lq32f.iu	aeq0, a8, 4
    182c:	d4e22d861f 	{ ae_lp16x2f.iu	aep0, a6, 4; ae_mulfq32sp16s.l	aeq0, aeq0, aep0 }
    1831:	060934        	ae_roundsq32asym	aeq0, aeq0
    1834:	624514        	ae_sq32f.iu	aeq0, a5, 4
    1837:	601814        	ae_lq32f.iu	aeq0, a8, 4

0000183a <fn_analysis_frame+0xd6>:
    183a:	80a752        	movi	a5, 0x780
    183d:	a75a           	add.n	a10, a7, a5
    183f:	fa1551        	l32r	a5, 94 (90d0 <memset>)
    1842:	0b0c           	movi.n	a11, 0
    1844:	80a0c2        	movi	a12, 128
    1847:	0005e0        	callx8	a5
    184a:	fa1651        	l32r	a5, a4 (5038 <real_512_fft>)
    184d:	07ad           	mov.n	a10, a7
    184f:	02bd           	mov.n	a11, a2
    1851:	0005e0        	callx8	a5
    1854:	3158           	l32i.n	a5, a1, 12
    1856:	fcca62        	addi	a6, a10, -4
    1859:	866d           	ae_sext16	a6, a6
    185b:	f8c552        	addi	a5, a5, -8
    185e:	5c8204        	ae_lp24x2f.iu	aep0, a2, 0
    1861:	1416a6        	blti	a6, 1, 1879 <fn_analysis_frame+0x115>
    1864:	01a172        	movi	a7, 0x101
    1867:	031664        	wur.ae_sar	a6
    186a:	088776        	loop	a7, 1876 <fn_analysis_frame+0x112>
    186d:	0b0084        	ae_sllssp24s	aep0, aep0
    1870:	5e8514        	ae_sp24x2f.iu	aep0, a5, 8
    1873:	5c8214        	ae_lp24x2f.iu	aep0, a2, 8
    1876:	000506        	j	188e <fn_analysis_frame+0x12a>

00001879 <fn_analysis_frame+0x115>:
    1879:	606060        	neg	a6, a6
    187c:	01a172        	movi	a7, 0x101
    187f:	031664        	wur.ae_sar	a6
    1882:	088776        	loop	a7, 188e <fn_analysis_frame+0x12a>
    1885:	0b0384        	ae_srasp24	aep0, aep0
    1888:	5e8514        	ae_sp24x2f.iu	aep0, a5, 8
    188b:	5c8214        	ae_lp24x2f.iu	aep0, a2, 8

0000188e <fn_analysis_frame+0x12a>:
    188e:	f9e621        	l32r	a2, 28 (90f8 <xt_memcpy>)
    1891:	e0a1c2        	movi	a12, 0x1e0
    1894:	03ad           	mov.n	a10, a3
    1896:	04bd           	mov.n	a11, a4
    1898:	0002e0        	callx8	a2
    189b:	f01d           	retw.n

0000189d <fn_analysis_frame+0x139>:
    189d:	000000                                        ...

000018a0 <fn_analysis_frame_32>:
    18a0:	008136        	entry	a1, 64
    18a3:	07d2e2        	addmi	a14, a2, 0x700
    18a6:	222e92        	l32i	a9, a14, 136
    18a9:	02fd           	mov.n	a15, a2
    18ab:	038d           	mov.n	a8, a3
    18ad:	c8a3a2        	movi	a10, 0x3c8
    18b0:	728b           	addi.n	a7, a2, 8
    18b2:	7149           	s32i.n	a4, a1, 28
    18b4:	021526        	beqi	a5, 1, 18ba <fn_analysis_frame_32+0x1a>
    18b7:	009886        	j	1b1d <fn_analysis_frame_32+0x27d>
    18ba:	1fe8           	l32i.n	a14, a15, 4
    18bc:	0f48           	l32i.n	a4, a15, 0
    18be:	0838           	l32i.n	a3, a8, 0
    18c0:	f9faa1        	l32r	a10, a8 (ff0a1cac <_end+0xff092e48>)
    18c3:	6199           	s32i.n	a9, a1, 24
    18c5:	2158e0        	srai	a5, a14, 8
    18c8:	f9f991        	l32r	a9, ac (2b98c8 <_end+0x2aaa64>)
    18cb:	5179           	s32i.n	a7, a1, 20
    18cd:	212840        	srai	a2, a4, 8
    18d0:	31ef30        	srai	a14, a3, 31
    18d3:	f57030        	extui	a7, a3, 16, 16
    18d6:	b245a0        	mulsh	a4, a5, a10
    18d9:	0af7e0        	depbits	a14, a7, 0, 16
    18dc:	4e4a           	add.n	a4, a14, a4
    18de:	b2e290        	mulsh	a14, a2, a9
    18e1:	822290        	mull	a2, a2, a9
    18e4:	4129           	s32i.n	a2, a1, 16
    18e6:	44ea           	add.n	a4, a4, a14
    18e8:	8275a0        	mull	a7, a5, a10
    18eb:	41e8           	l32i.n	a14, a1, 16
    18ed:	113300        	slli	a3, a3, 16
    18f0:	237a           	add.n	a2, a3, a7
    18f2:	1c0c           	movi.n	a12, 1
    18f4:	623230        	saltu	a3, a2, a3
    18f7:	11cc10        	slli	a12, a12, 15
    18fa:	e2ea           	add.n	a14, a2, a14
    18fc:	734a           	add.n	a7, a3, a4
    18fe:	623e20        	saltu	a3, a14, a2
    1901:	4eca           	add.n	a4, a14, a12
    1903:	f52040        	extui	a2, a4, 16, 16
    1906:	6244e0        	saltu	a4, a4, a14
    1909:	373a           	add.n	a3, a7, a3
    190b:	334a           	add.n	a3, a3, a4
    190d:	314030        	srai	a4, a3, 16
    1910:	fb7c           	movi.n	a11, -1
    1912:	741b           	addi.n	a7, a4, 1
    1914:	4179           	s32i.n	a7, a1, 16
    1916:	f77c           	movi.n	a7, -1
    1918:	01bb10        	slli	a11, a11, 31
    191b:	0bf320        	depbits	a2, a3, 16, 16
    191e:	7332b0        	maxu	a3, a2, a11
    1921:	53e470        	max	a14, a4, a7
    1924:	a32b40        	movltz	a2, a11, a4
    1927:	4148           	l32i.n	a4, a1, 16
    1929:	fd7c           	movi.n	a13, -1
    192b:	41d1d0        	srli	a13, a13, 1
    192e:	832340        	moveqz	a2, a3, a4
    1931:	0d3d           	mov.n	a3, a13
    1933:	6342d0        	minu	a4, a2, a13
    1936:	a332e0        	movltz	a3, a2, a14
    1939:	9343e0        	movnez	a4, a3, a14
    193c:	b22460        	mulsh	a2, a4, a6
    193f:	823460        	mull	a3, a4, a6
    1942:	11e2b0        	slli	a14, a2, 5
    1945:	41e9           	s32i.n	a14, a1, 16
    1947:	ffa3e2        	movi	a14, 0x3ff
    194a:	724e20        	salt	a4, a14, a2
    194d:	4128           	l32i.n	a2, a1, 16
    194f:	45eb30        	extui	a14, a3, 27, 5
    1952:	1133b0        	slli	a3, a3, 5
    1955:	22ea           	add.n	a2, a2, a14
    1957:	e3ca           	add.n	a14, a3, a12
    1959:	4129           	s32i.n	a2, a1, 16
    195b:	f520e0        	extui	a2, a14, 16, 16
    195e:	623e30        	saltu	a3, a14, a3
    1961:	41e8           	l32i.n	a14, a1, 16
    1963:	3e3a           	add.n	a3, a14, a3
    1965:	0bf320        	depbits	a2, a3, 16, 16
    1968:	31e030        	srai	a14, a3, 16
    196b:	030c           	movi.n	a3, 0
    196d:	93e340        	movnez	a14, a3, a4
    1970:	3e1b           	addi.n	a3, a14, 1
    1972:	932b40        	movnez	a2, a11, a4
    1975:	4139           	s32i.n	a3, a1, 16
    1977:	534e70        	max	a4, a14, a7
    197a:	7372b0        	maxu	a7, a2, a11
    197d:	a32be0        	movltz	a2, a11, a14
    1980:	41e8           	l32i.n	a14, a1, 16
    1982:	8327e0        	moveqz	a2, a7, a14
    1985:	0ded           	mov.n	a14, a13
    1987:	6372d0        	minu	a7, a2, a13
    198a:	a3e240        	movltz	a14, a2, a4
    198d:	937e40        	movnez	a7, a14, a4
    1990:	f26f72        	s32i	a7, a15, 0x3c8
    1993:	0878           	l32i.n	a7, a8, 0
    1995:	1838           	l32i.n	a3, a8, 4
    1997:	b2e590        	mulsh	a14, a5, a9
    199a:	212870        	srai	a2, a7, 8
    199d:	41e9           	s32i.n	a14, a1, 16
    199f:	31ef30        	srai	a14, a3, 31
    19a2:	f57030        	extui	a7, a3, 16, 16
    19a5:	0af7e0        	depbits	a14, a7, 0, 16
    19a8:	4178           	l32i.n	a7, a1, 16
    19aa:	829590        	mull	a9, a5, a9
    19ad:	113300        	slli	a3, a3, 16
    19b0:	b242a0        	mulsh	a4, a2, a10
    19b3:	8222a0        	mull	a2, a2, a10
    19b6:	e7ea           	add.n	a14, a7, a14
    19b8:	393a           	add.n	a3, a9, a3
    19ba:	4e4a           	add.n	a4, a14, a4
    19bc:	62e390        	saltu	a14, a3, a9
    19bf:	232a           	add.n	a2, a3, a2
    19c1:	4e4a           	add.n	a4, a14, a4
    19c3:	623230        	saltu	a3, a2, a3
    19c6:	a2ca           	add.n	a10, a2, a12
    19c8:	622a20        	saltu	a2, a10, a2
    19cb:	343a           	add.n	a3, a4, a3
    19cd:	232a           	add.n	a2, a3, a2
    19cf:	f5e0a0        	extui	a14, a10, 16, 16
    19d2:	313020        	srai	a3, a2, 16
    19d5:	0bf2e0        	depbits	a14, a2, 16, 16
    19d8:	735eb0        	maxu	a5, a14, a11
    19db:	431b           	addi.n	a4, a3, 1
    19dd:	a3eb30        	movltz	a14, a11, a3
    19e0:	f77c           	movi.n	a7, -1
    19e2:	83e540        	moveqz	a14, a5, a4
    19e5:	533370        	max	a3, a3, a7
    19e8:	0d9d           	mov.n	a9, a13
    19ea:	634ed0        	minu	a4, a14, a13
    19ed:	a39e30        	movltz	a9, a14, a3
    19f0:	934930        	movnez	a4, a9, a3
    19f3:	823460        	mull	a3, a4, a6
    19f6:	b22460        	mulsh	a2, a4, a6
    19f9:	455b30        	extui	a5, a3, 27, 5
    19fc:	1133b0        	slli	a3, a3, 5
    19ff:	93ca           	add.n	a9, a3, a12
    1a01:	11a2b0        	slli	a10, a2, 5
    1a04:	ffa3e2        	movi	a14, 0x3ff
    1a07:	4a5a           	add.n	a4, a10, a5
    1a09:	623930        	saltu	a3, a9, a3
    1a0c:	343a           	add.n	a3, a4, a3
    1a0e:	722e20        	salt	a2, a14, a2
    1a11:	f5e090        	extui	a14, a9, 16, 16
    1a14:	0bf3e0        	depbits	a14, a3, 16, 16
    1a17:	314030        	srai	a4, a3, 16
    1a1a:	0a0c           	movi.n	a10, 0
    1a1c:	934a20        	movnez	a4, a10, a2
    1a1f:	93eb20        	movnez	a14, a11, a2
    1a22:	73ceb0        	maxu	a12, a14, a11
    1a25:	241b           	addi.n	a2, a4, 1
    1a27:	a3eb40        	movltz	a14, a11, a4
    1a2a:	83ec20        	moveqz	a14, a12, a2
    1a2d:	535470        	max	a5, a4, a7
    1a30:	0d7d           	mov.n	a7, a13
    1a32:	a37e50        	movltz	a7, a14, a5
    1a35:	639ed0        	minu	a9, a14, a13
    1a38:	939750        	movnez	a9, a7, a5
    1a3b:	d0a3a2        	movi	a10, 0x3d0
    1a3e:	eea0c2        	movi	a12, 238
    1a41:	f36f92        	s32i	a9, a15, 0x3cc
    1a44:	083d           	mov.n	a3, a8
    1a46:	4faa           	add.n	a4, a15, a10
    1a48:	41f9           	s32i.n	a15, a1, 16
    1a4a:	b98c76        	loop	a12, 1b07 <fn_analysis_frame_32+0x267>
    1a4d:	1378           	l32i.n	a7, a3, 4
    1a4f:	23e8           	l32i.n	a14, a3, 8
    1a51:	f995a1        	l32r	a10, a8 (ff0a1cac <_end+0xff092e48>)
    1a54:	0328           	l32i.n	a2, a3, 0
    1a56:	217870        	srai	a7, a7, 8
    1a59:	f994c1        	l32r	a12, ac (2b98c8 <_end+0x2aaa64>)
    1a5c:	b297a0        	mulsh	a9, a7, a10
    1a5f:	31ffe0        	srai	a15, a14, 31
    1a62:	f550e0        	extui	a5, a14, 16, 16
    1a65:	0af5f0        	depbits	a15, a5, 0, 16
    1a68:	212820        	srai	a2, a2, 8
    1a6b:	8277a0        	mull	a7, a7, a10
    1a6e:	b252c0        	mulsh	a5, a2, a12
    1a71:	9f9a           	add.n	a9, a15, a9
    1a73:	11fe00        	slli	a15, a14, 16
    1a76:	8222c0        	mull	a2, a2, a12
    1a79:	7f7a           	add.n	a7, a15, a7
    1a7b:	1c0c           	movi.n	a12, 1
    1a7d:	595a           	add.n	a5, a9, a5
    1a7f:	6297f0        	saltu	a9, a7, a15
    1a82:	272a           	add.n	a2, a7, a2
    1a84:	11ac10        	slli	a10, a12, 15
    1a87:	595a           	add.n	a5, a9, a5
    1a89:	e2aa           	add.n	a14, a2, a10
    1a8b:	627270        	saltu	a7, a2, a7
    1a8e:	622e20        	saltu	a2, a14, a2
    1a91:	557a           	add.n	a5, a5, a7
    1a93:	252a           	add.n	a2, a5, a2
    1a95:	f590e0        	extui	a9, a14, 16, 16
    1a98:	315020        	srai	a5, a2, 16
    1a9b:	0bf290        	depbits	a9, a2, 16, 16
    1a9e:	7329b0        	maxu	a2, a9, a11
    1aa1:	f51b           	addi.n	a15, a5, 1
    1aa3:	a39b50        	movltz	a9, a11, a5
    1aa6:	fc7c           	movi.n	a12, -1
    1aa8:	8392f0        	moveqz	a9, a2, a15
    1aab:	5355c0        	max	a5, a5, a12
    1aae:	0ded           	mov.n	a14, a13
    1ab0:	6379d0        	minu	a7, a9, a13
    1ab3:	a3e950        	movltz	a14, a9, a5
    1ab6:	937e50        	movnez	a7, a14, a5
    1ab9:	825760        	mull	a5, a7, a6
    1abc:	b22760        	mulsh	a2, a7, a6
    1abf:	45eb50        	extui	a14, a5, 27, 5
    1ac2:	ffa3f2        	movi	a15, 0x3ff
    1ac5:	1155b0        	slli	a5, a5, 5
    1ac8:	1172b0        	slli	a7, a2, 5
    1acb:	722f20        	salt	a2, a15, a2
    1ace:	f5aa           	add.n	a15, a5, a10
    1ad0:	77ea           	add.n	a7, a7, a14
    1ad2:	625f50        	saltu	a5, a15, a5
    1ad5:	575a           	add.n	a5, a7, a5
    1ad7:	f590f0        	extui	a9, a15, 16, 16
    1ada:	0bf590        	depbits	a9, a5, 16, 16
    1add:	317050        	srai	a7, a5, 16
    1ae0:	0a0c           	movi.n	a10, 0
    1ae2:	937a20        	movnez	a7, a10, a2
    1ae5:	939b20        	movnez	a9, a11, a2
    1ae8:	7329b0        	maxu	a2, a9, a11
    1aeb:	571b           	addi.n	a5, a7, 1
    1aed:	a39b70        	movltz	a9, a11, a7
    1af0:	839250        	moveqz	a9, a2, a5
    1af3:	53c7c0        	max	a12, a7, a12
    1af6:	0ded           	mov.n	a14, a13
    1af8:	a3e9c0        	movltz	a14, a9, a12
    1afb:	63f9d0        	minu	a15, a9, a13
    1afe:	93fec0        	movnez	a15, a14, a12
    1b01:	04f9           	s32i.n	a15, a4, 0
    1b03:	334b           	addi.n	a3, a3, 4
    1b05:	444b           	addi.n	a4, a4, 4

00001b07 <fn_analysis_frame_32+0x267>:
    1b07:	41f8           	l32i.n	a15, a1, 16
    1b09:	ee2822        	l32i	a2, a8, 0x3b8
    1b0c:	5178           	l32i.n	a7, a1, 20
    1b0e:	0f29           	s32i.n	a2, a15, 0
    1b10:	6198           	l32i.n	a9, a1, 24
    1b12:	ef2822        	l32i	a2, a8, 0x3bc
    1b15:	c8a3a2        	movi	a10, 0x3c8
    1b18:	1f29           	s32i.n	a2, a15, 4
    1b1a:	000846        	j	1b3f <fn_analysis_frame_32+0x29f>

00001b1d <fn_analysis_frame_32+0x27d>:
    1b1d:	c4a322        	movi	a2, 0x3c4
    1b20:	f0a042        	movi	a4, 240
    1b23:	300664        	ae_cvtp24a16x2.ll	aep0, a6, a6
    1b26:	601804        	ae_lq32f.iu	aeq0, a8, 0
    1b29:	3f2a           	add.n	a3, a15, a2
    1b2b:	f03d           	nop.n
    1b2d:	0e8476        	loop	a4, 1b3f <fn_analysis_frame_32+0x29f>
    1b30:	030214        	ae_mulfq32sp16s.l	aeq0, aeq0, aep0
    1b33:	360114        	ae_sllisq56s	aeq0, aeq0, 4
    1b36:	060934        	ae_roundsq32asym	aeq0, aeq0
    1b39:	624314        	ae_sq32f.iu	aeq0, a3, 4
    1b3c:	601814        	ae_lq32f.iu	aeq0, a8, 4

00001b3f <fn_analysis_frame_32+0x29f>:
    1b3f:	f95851        	l32r	a5, a0 (b6a0 <window>)
    1b42:	2faa           	add.n	a2, a15, a10
    1b44:	076d           	mov.n	a6, a7
    1b46:	f0a0f2        	movi	a15, 240
    1b49:	5129           	s32i.n	a2, a1, 20
    1b4b:	08d922        	addmi	a2, a9, 0x800
    1b4e:	fcc942        	addi	a4, a9, -4
    1b51:	073d           	mov.n	a3, a7
    1b53:	601604        	ae_lq32f.iu	aeq0, a6, 0
    1b56:	448504        	ae_lp16x2f.iu	aep0, a5, 0
    1b59:	198f76        	loop	a15, 1b76 <fn_analysis_frame_32+0x2d6>
    1b5c:	030204        	ae_mulfq32sp16s.h	aeq0, aeq0, aep0
    1b5f:	060934        	ae_roundsq32asym	aeq0, aeq0
    1b62:	624414        	ae_sq32f.iu	aeq0, a4, 4
    1b65:	601614        	ae_lq32f.iu	aeq0, a6, 4
    1b68:	d4e22d851f 	{ ae_lp16x2f.iu	aep0, a5, 4; ae_mulfq32sp16s.l	aeq0, aeq0, aep0 }
    1b6d:	060934        	ae_roundsq32asym	aeq0, aeq0
    1b70:	624414        	ae_sq32f.iu	aeq0, a4, 4
    1b73:	601614        	ae_lq32f.iu	aeq0, a6, 4

00001b76 <fn_analysis_frame_32+0x2d6>:
    1b76:	80a742        	movi	a4, 0x780
    1b79:	a94a           	add.n	a10, a9, a4
    1b7b:	f94641        	l32r	a4, 94 (90d0 <memset>)
    1b7e:	0b0c           	movi.n	a11, 0
    1b80:	80a0c2        	movi	a12, 128
    1b83:	095d           	mov.n	a5, a9
    1b85:	0004e0        	callx8	a4
    1b88:	f94741        	l32r	a4, a4 (5038 <real_512_fft>)
    1b8b:	05ad           	mov.n	a10, a5
    1b8d:	02bd           	mov.n	a11, a2
    1b8f:	0004e0        	callx8	a4
    1b92:	072142        	l32i	a4, a1, 28
    1b95:	fcca52        	addi	a5, a10, -4
    1b98:	855d           	ae_sext16	a5, a5
    1b9a:	f8c442        	addi	a4, a4, -8
    1b9d:	5c8204        	ae_lp24x2f.iu	aep0, a2, 0
    1ba0:	1415a6        	blti	a5, 1, 1bb8 <fn_analysis_frame_32+0x318>
    1ba3:	01a162        	movi	a6, 0x101
    1ba6:	031654        	wur.ae_sar	a5
    1ba9:	088676        	loop	a6, 1bb5 <fn_analysis_frame_32+0x315>
    1bac:	0b0084        	ae_sllssp24s	aep0, aep0
    1baf:	5e8414        	ae_sp24x2f.iu	aep0, a4, 8
    1bb2:	5c8214        	ae_lp24x2f.iu	aep0, a2, 8
    1bb5:	000506        	j	1bcd <fn_analysis_frame_32+0x32d>

00001bb8 <fn_analysis_frame_32+0x318>:
    1bb8:	605050        	neg	a5, a5
    1bbb:	01a162        	movi	a6, 0x101
    1bbe:	031654        	wur.ae_sar	a5
    1bc1:	088676        	loop	a6, 1bcd <fn_analysis_frame_32+0x32d>
    1bc4:	0b0384        	ae_srasp24	aep0, aep0
    1bc7:	5e8414        	ae_sp24x2f.iu	aep0, a4, 8
    1bca:	5c8214        	ae_lp24x2f.iu	aep0, a2, 8

00001bcd <fn_analysis_frame_32+0x32d>:
    1bcd:	f91621        	l32r	a2, 28 (90f8 <xt_memcpy>)
    1bd0:	51b8           	l32i.n	a11, a1, 20
    1bd2:	e0a1c2        	movi	a12, 0x1e0
    1bd5:	03ad           	mov.n	a10, a3
    1bd7:	0002e0        	callx8	a2
    1bda:	f01d           	retw.n

00001bdc <fn_ini_syn_frame>:
    1bdc:	004136        	entry	a1, 32
    1bdf:	f92641        	l32r	a4, 78 (90e4 <xt_memset>)
    1be2:	0b0c           	movi.n	a11, 0
    1be4:	e8a1c2        	movi	a12, 0x1e8
    1be7:	02ad           	mov.n	a10, a2
    1be9:	0004e0        	callx8	a4
    1bec:	f26232        	s32i	a3, a2, 0x3c8
    1bef:	f01d           	retw.n

00001bf1 <fn_ini_syn_frame+0x15>:
    1bf1:	000000                                        ...

00001bf4 <fn_syn_frame>:
    1bf4:	004136        	entry	a1, 32
    1bf7:	f92e71        	l32r	a7, b0 (5128 <real_512_ifft>)
    1bfa:	f22262        	l32i	a6, a2, 0x3c8
    1bfd:	03ad           	mov.n	a10, a3
    1bff:	04bd           	mov.n	a11, a4
    1c01:	0007e0        	callx8	a7
    1c04:	f92771        	l32r	a7, a0 (b6a0 <window>)
    1c07:	9a4b           	addi.n	a9, a10, 4
    1c09:	208440        	or	a8, a4, a4
    1c0c:	899d           	ae_sext16	a9, a9
    1c0e:	fcc632        	addi	a3, a6, -4
    1c11:	601804        	ae_lq32f.iu	aeq0, a8, 0
    1c14:	448704        	ae_lp16x2f.iu	aep0, a7, 0
    1c17:	f0a0a2        	movi	a10, 240
    1c1a:	2f19a6        	blti	a9, 1, 1c4d <fn_syn_frame+0x59>
    1c1d:	298a76        	loop	a10, 1c4a <fn_syn_frame+0x56>
    1c20:	fc24fe890f 	{ ae_slaasq56s	aeq0, aeq0, a9; nop }
    1c25:	030204        	ae_mulfq32sp16s.h	aeq0, aeq0, aep0
    1c28:	060844        	ae_satq48s	aeq0, aeq0
    1c2b:	098c14        	ae_truncp24q48x2	aep1, aeq0, aeq0
    1c2e:	529314        	ae_sp24f.l.iu	aep1, a3, 4
    1c31:	60d814        	ae_lq32f.iu	aeq3, a8, 4
    1c34:	fc24feb90f 	{ ae_slaasq56s	aeq0, aeq3, a9; nop }
    1c39:	d4e22d871f 	{ ae_lp16x2f.iu	aep0, a7, 4; ae_mulfq32sp16s.l	aeq0, aeq0, aep0 }
    1c3e:	060844        	ae_satq48s	aeq0, aeq0
    1c41:	098c74        	ae_truncp24q48x2	aep7, aeq0, aeq0
    1c44:	52f314        	ae_sp24f.l.iu	aep7, a3, 4
    1c47:	601814        	ae_lq32f.iu	aeq0, a8, 4

00001c4a <fn_syn_frame+0x56>:
    1c4a:	000b06        	j	1c7a <fn_syn_frame+0x86>

00001c4d <fn_syn_frame+0x59>:
    1c4d:	298a76        	loop	a10, 1c7a <fn_syn_frame+0x86>
    1c50:	fc24fe890f 	{ ae_slaasq56s	aeq0, aeq0, a9; nop }
    1c55:	060934        	ae_roundsq32asym	aeq0, aeq0
    1c58:	030204        	ae_mulfq32sp16s.h	aeq0, aeq0, aep0
    1c5b:	1b8d14        	ae_roundsp24q48asym	aep1, aeq0
    1c5e:	529314        	ae_sp24f.l.iu	aep1, a3, 4
    1c61:	60d814        	ae_lq32f.iu	aeq3, a8, 4
    1c64:	fc24feb90f 	{ ae_slaasq56s	aeq0, aeq3, a9; nop }
    1c69:	060934        	ae_roundsq32asym	aeq0, aeq0
    1c6c:	d4e22d871f 	{ ae_lp16x2f.iu	aep0, a7, 4; ae_mulfq32sp16s.l	aeq0, aeq0, aep0 }
    1c71:	1b8d74        	ae_roundsp24q48asym	aep7, aeq0
    1c74:	52f314        	ae_sp24f.l.iu	aep7, a3, 4
    1c77:	601814        	ae_lq32f.iu	aeq0, a8, 4

00001c7a <fn_syn_frame+0x86>:
    1c7a:	328b           	addi.n	a3, a2, 8
    1c7c:	068d           	mov.n	a8, a6
    1c7e:	78a092        	movi	a9, 120
    1c81:	f8c472        	addi	a7, a4, -8
    1c84:	5c8304        	ae_lp24x2f.iu	aep0, a3, 0
    1c87:	5c9804        	ae_lp24x2f.iu	aep1, a8, 0
    1c8a:	0b8976        	loop	a9, 1c99 <fn_syn_frame+0xa5>
    1c8d:	078104        	ae_addsp24s	aep0, aep0, aep1
    1c90:	5e8714        	ae_sp24x2f.iu	aep0, a7, 8
    1c93:	5c8314        	ae_lp24x2f.iu	aep0, a3, 8
    1c96:	5c9814        	ae_lp24x2f.iu	aep1, a8, 8

00001c99 <fn_syn_frame+0xa5>:
    1c99:	021526        	beqi	a5, 1, 1c9f <fn_syn_frame+0xab>
    1c9c:	004a86        	j	1dca <fn_syn_frame+0x1d6>
    1c9f:	12a8           	l32i.n	a10, a2, 4
    1ca1:	02b8           	l32i.n	a11, a2, 0
    1ca3:	0498           	l32i.n	a9, a4, 0
    1ca5:	f90331        	l32r	a3, b4 (f5e354 <_end+0xf4f4f0>)
    1ca8:	f90451        	l32r	a5, b8 (ffd46738 <_end+0xffd378d4>)
    1cab:	21f8a0        	srai	a15, a10, 8
    1cae:	f8fad1        	l32r	a13, 98 (15cc64 <_end+0x14de00>)
    1cb1:	f8fae1        	l32r	a14, 9c (7af1aa <_end+0x7a0346>)
    1cb4:	398ed4        	ae_movpa24x2	aep0, a14, a13
    1cb7:	b2af30        	mulsh	a10, a15, a3
    1cba:	31df90        	srai	a13, a9, 31
    1cbd:	f5e090        	extui	a14, a9, 16, 16
    1cc0:	21b8b0        	srai	a11, a11, 8
    1cc3:	82ff30        	mull	a15, a15, a3
    1cc6:	0afed0        	depbits	a13, a14, 0, 16
    1cc9:	b2eb50        	mulsh	a14, a11, a5
    1ccc:	119900        	slli	a9, a9, 16
    1ccf:	82bb50        	mull	a11, a11, a5
    1cd2:	ddaa           	add.n	a13, a13, a10
    1cd4:	f9fa           	add.n	a15, a9, a15
    1cd6:	170c           	movi.n	a7, 1
    1cd8:	ddea           	add.n	a13, a13, a14
    1cda:	629f90        	saltu	a9, a15, a9
    1cdd:	bfba           	add.n	a11, a15, a11
    1cdf:	017790        	slli	a7, a7, 23
    1ce2:	99da           	add.n	a9, a9, a13
    1ce4:	62fbf0        	saltu	a15, a11, a15
    1ce7:	db7a           	add.n	a13, a11, a7
    1ce9:	62bdb0        	saltu	a11, a13, a11
    1cec:	99fa           	add.n	a9, a9, a15
    1cee:	99ba           	add.n	a9, a9, a11
    1cf0:	75d8d0        	extui	a13, a13, 24, 8
    1cf3:	11b980        	slli	a11, a9, 8
    1cf6:	31f890        	srai	a15, a9, 24
    1cf9:	f87c           	movi.n	a8, -1
    1cfb:	bdba           	add.n	a11, a13, a11
    1cfd:	14e8           	l32i.n	a14, a4, 4
    1cff:	f59090        	extui	a9, a9, 16, 16
    1d02:	11df80        	slli	a13, a15, 8
    1d05:	0a79d0        	depbits	a13, a9, 0, 8
    1d08:	119b80        	slli	a9, a11, 8
    1d0b:	018810        	slli	a8, a8, 31
    1d0e:	f8eba1        	l32r	a10, bc (7fffff00 <_end+0x7fff109c>)
    1d11:	73f980        	maxu	a15, a9, a8
    1d14:	bd1b           	addi.n	a11, a13, 1
    1d16:	a398d0        	movltz	a9, a8, a13
    1d19:	839fb0        	moveqz	a9, a15, a11
    1d1c:	fc7c           	movi.n	a12, -1
    1d1e:	31bfe0        	srai	a11, a14, 31
    1d21:	f5f0e0        	extui	a15, a14, 16, 16
    1d24:	0affb0        	depbits	a11, a15, 0, 16
    1d27:	0afd           	mov.n	a15, a10
    1d29:	53ddc0        	max	a13, a13, a12
    1d2c:	a3f9d0        	movltz	a15, a9, a13
    1d2f:	6399a0        	minu	a9, a9, a10
    1d32:	939fd0        	movnez	a9, a15, a13
    1d35:	0499           	s32i.n	a9, a4, 0
    1d37:	12d8           	l32i.n	a13, a2, 4
    1d39:	219890        	srai	a9, a9, 8
    1d3c:	b2f930        	mulsh	a15, a9, a3
    1d3f:	829930        	mull	a9, a9, a3
    1d42:	2138d0        	srai	a3, a13, 8
    1d45:	82d350        	mull	a13, a3, a5
    1d48:	b25350        	mulsh	a5, a3, a5
    1d4b:	11ee00        	slli	a14, a14, 16
    1d4e:	deda           	add.n	a13, a14, a13
    1d50:	5b5a           	add.n	a5, a11, a5
    1d52:	62ede0        	saltu	a14, a13, a14
    1d55:	9d9a           	add.n	a9, a13, a9
    1d57:	55ea           	add.n	a5, a5, a14
    1d59:	62d9d0        	saltu	a13, a9, a13
    1d5c:	797a           	add.n	a7, a9, a7
    1d5e:	55fa           	add.n	a5, a5, a15
    1d60:	629790        	saltu	a9, a7, a9
    1d63:	55da           	add.n	a5, a5, a13
    1d65:	559a           	add.n	a5, a5, a9
    1d67:	31e850        	srai	a14, a5, 24
    1d6a:	119580        	slli	a9, a5, 8
    1d6d:	757870        	extui	a7, a7, 24, 8
    1d70:	779a           	add.n	a7, a7, a9
    1d72:	f55050        	extui	a5, a5, 16, 16
    1d75:	11fe80        	slli	a15, a14, 8
    1d78:	0a75f0        	depbits	a15, a5, 0, 8
    1d7b:	117780        	slli	a7, a7, 8
    1d7e:	73e780        	maxu	a14, a7, a8
    1d81:	df1b           	addi.n	a13, a15, 1
    1d83:	a378f0        	movltz	a7, a8, a15
    1d86:	53cfc0        	max	a12, a15, a12
    1d89:	93e7d0        	movnez	a14, a7, a13
    1d8c:	0afd           	mov.n	a15, a10
    1d8e:	a3fec0        	movltz	a15, a14, a12
    1d91:	635ea0        	minu	a5, a14, a10
    1d94:	348b           	addi.n	a3, a4, 8
    1d96:	935fc0        	movnez	a5, a15, a12
    1d99:	509304        	ae_lp24f.iu	aep1, a3, 0
    1d9c:	1459           	s32i.n	a5, a4, 4
    1d9e:	fc2c00eebf 	{ movi	a11, 238; ae_cvtq48p24s.l	aeq0, aep1 }
    1da3:	5023f4        	ae_lp24f.i	aep2, a3, -4
    1da6:	5013e4        	ae_lp24f.i	aep1, a3, -8
    1da9:	138b76        	loop	a11, 1dc0 <fn_syn_frame+0x1cc>
    1dac:	012004        	ae_mulafp24s.hh	aeq0, aep2, aep0
    1daf:	ee05bf207f 	{ ae_movp48	aep1, aep2; ae_mulsfp24s.ll	aeq0, aep1, aep0 }
    1db4:	1b8d24        	ae_roundsp24q48asym	aep2, aeq0
    1db7:	52a304        	ae_sp24f.l.iu	aep2, a3, 0
    1dba:	50b314        	ae_lp24f.iu	aep3, a3, 4
    1dbd:	0a0384        	ae_cvtq48p24s.l	aeq0, aep3
    1dc0:	ee2432        	l32i	a3, a4, 0x3b8
    1dc3:	0239           	s32i.n	a3, a2, 0
    1dc5:	ef2432        	l32i	a3, a4, 0x3bc
    1dc8:	1239           	s32i.n	a3, a2, 4

00001dca <fn_syn_frame+0x1d6>:
    1dca:	b8a332        	movi	a3, 0x3b8
    1dcd:	78a042        	movi	a4, 120
    1dd0:	363a           	add.n	a3, a6, a3
    1dd2:	058476        	loop	a4, 1ddb <fn_syn_frame+0x1e7>
    1dd5:	5c8314        	ae_lp24x2f.iu	aep0, a3, 8
    1dd8:	5e8214        	ae_sp24x2f.iu	aep0, a2, 8

00001ddb <fn_syn_frame+0x1e7>:
    1ddb:	f01d           	retw.n

00001ddd <fn_syn_frame+0x1e9>:
    1ddd:	000000                                        ...

00001de0 <fn_ini_calc_sup_gain>:
    1de0:	006136        	entry	a1, 48
    1de3:	025d           	mov.n	a5, a2
    1de5:	f8a421        	l32r	a2, 78 (90e4 <xt_memset>)
    1de8:	0b0c           	movi.n	a11, 0
    1dea:	0aa2c2        	movi	a12, 0x20a
    1ded:	05ad           	mov.n	a10, a5
    1def:	3149           	s32i.n	a4, a1, 12
    1df1:	060c           	movi.n	a6, 0
    1df3:	0002e0        	callx8	a2
    1df6:	f88c21        	l32r	a2, 28 (90f8 <xt_memcpy>)
    1df9:	6c0c           	movi.n	a12, 6
    1dfb:	05ad           	mov.n	a10, a5
    1dfd:	03bd           	mov.n	a11, a3
    1dff:	0002e0        	callx8	a2
    1e02:	041342        	l16ui	a4, a3, 8
    1e05:	2159           	s32i.n	a5, a1, 8
    1e07:	f89721        	l32r	a2, 64 (e640 <all_amt_tab>)
    1e0a:	549c           	beqz.n	a4, 1e23 <fn_ini_calc_sup_gain+0x43>
    1e0c:	940b           	addi.n	a9, a4, -1
    1e0e:	897d           	ae_sext16	a7, a9
    1e10:	a07770        	addx4	a7, a7, a7
    1e13:	b02720        	addx8	a2, a7, a2
    1e16:	227d           	ae_l16si.n	a7, a2, 0
    1e18:	a02750        	addx4	a2, a7, a5
    1e1b:	22cb           	addi.n	a2, a2, 12
    1e1d:	0517e6        	bgei	a7, 1, 1e26 <fn_ini_calc_sup_gain+0x46>
    1e20:	000546        	j	1e39 <fn_ini_calc_sup_gain+0x59>

00001e23 <fn_ini_calc_sup_gain+0x43>:
    1e23:	01a172        	movi	a7, 0x101
    1e26:	2158           	l32i.n	a5, a1, 8
    1e28:	00a182        	movi	a8, 0x100
    1e2b:	65cb           	addi.n	a6, a5, 12
    1e2d:	038776        	loop	a7, 1e34 <fn_ini_calc_sup_gain+0x54>
    1e30:	0689           	s32i.n	a8, a6, 0
    1e32:	664b           	addi.n	a6, a6, 4

00001e34 <fn_ini_calc_sup_gain+0x54>:
    1e34:	160c           	movi.n	a6, 1
    1e36:	09e416        	beqz	a4, 1ed8 <fn_ini_calc_sup_gain+0xf8>

00001e39 <fn_ini_calc_sup_gain+0x59>:
    1e39:	059382        	l16si	a8, a3, 10
    1e3c:	f88a51        	l32r	a5, 64 (e640 <all_amt_tab>)
    1e3f:	894d           	ae_sext16	a4, a9
    1e41:	04c896        	bltz	a8, 1e91 <fn_ini_calc_sup_gain+0xb1>
    1e44:	090616        	beqz	a6, 1ed8 <fn_ini_calc_sup_gain+0xf8>
    1e47:	a04440        	addx4	a4, a4, a4
    1e4a:	b04450        	addx8	a4, a4, a5
    1e4d:	9458           	l32i.n	a5, a4, 36
    1e4f:	f67c           	movi.n	a6, -1
    1e51:	ff7c           	movi.n	a15, -1
    1e53:	983d           	ae_zext16	a3, a8
    1e55:	016610        	slli	a6, a6, 31
    1e58:	4141f0        	srli	a4, a15, 1
    1e5b:	05a8           	l32i.n	a10, a5, 0
    1e5d:	f89881        	l32r	a8, c0 (9140 <__ashldi3>)
    1e60:	03cd           	mov.n	a12, a3
    1e62:	31bfa0        	srai	a11, a10, 31
    1e65:	0008e0        	callx8	a8
    1e68:	738a60        	maxu	a8, a10, a6
    1e6b:	a3a6b0        	movltz	a10, a6, a11
    1e6e:	9b1b           	addi.n	a9, a11, 1
    1e70:	ff7c           	movi.n	a15, -1
    1e72:	83a890        	moveqz	a10, a8, a9
    1e75:	04ed           	mov.n	a14, a4
    1e77:	539bf0        	max	a9, a11, a15
    1e7a:	a3ea90        	movltz	a14, a10, a9
    1e7d:	63aa40        	minu	a10, a10, a4
    1e80:	93ae90        	movnez	a10, a14, a9
    1e83:	770b           	addi.n	a7, a7, -1
    1e85:	02a9           	s32i.n	a10, a2, 0
    1e87:	554b           	addi.n	a5, a5, 4
    1e89:	224b           	addi.n	a2, a2, 4
    1e8b:	fcc756        	bnez	a7, 1e5b <fn_ini_calc_sup_gain+0x7b>
    1e8e:	001186        	j	1ed8 <fn_ini_calc_sup_gain+0xf8>

00001e91 <fn_ini_calc_sup_gain+0xb1>:
    1e91:	043616        	beqz	a6, 1ed8 <fn_ini_calc_sup_gain+0xf8>
    1e94:	f87451        	l32r	a5, 64 (e640 <all_amt_tab>)
    1e97:	894d           	ae_sext16	a4, a9
    1e99:	a04440        	addx4	a4, a4, a4
    1e9c:	b04450        	addx8	a4, a4, a5
    1e9f:	ff7c           	movi.n	a15, -1
    1ea1:	f88751        	l32r	a5, c0 (9140 <__ashldi3>)
    1ea4:	9448           	l32i.n	a4, a4, 36
    1ea6:	30c8f0        	xor	a12, a8, a15
    1ea9:	1a0c           	movi.n	a10, 1
    1eab:	0b0c           	movi.n	a11, 0
    1ead:	603080        	neg	a3, a8
    1eb0:	0005e0        	callx8	a5
    1eb3:	0a5d           	mov.n	a5, a10
    1eb5:	0b6d           	mov.n	a6, a11
    1eb7:	0488           	l32i.n	a8, a4, 0
    1eb9:	03cd           	mov.n	a12, a3
    1ebb:	770b           	addi.n	a7, a7, -1
    1ebd:	319f80        	srai	a9, a8, 31
    1ec0:	a58a           	add.n	a10, a5, a8
    1ec2:	628a50        	saltu	a8, a10, a5
    1ec5:	969a           	add.n	a9, a6, a9
    1ec7:	b98a           	add.n	a11, a9, a8
    1ec9:	f87e81        	l32r	a8, c4 (9158 <__ashrdi3>)
    1ecc:	0008e0        	callx8	a8
    1ecf:	02a9           	s32i.n	a10, a2, 0
    1ed1:	444b           	addi.n	a4, a4, 4
    1ed3:	224b           	addi.n	a2, a2, 4
    1ed5:	fde756        	bnez	a7, 1eb7 <fn_ini_calc_sup_gain+0xd7>
    1ed8:	2128           	l32i.n	a2, a1, 8
    1eda:	3138           	l32i.n	a3, a1, 12
    1edc:	04d222        	addmi	a2, a2, 0x400
    1edf:	4239           	s32i.n	a3, a2, 16
    1ee1:	f01d           	retw.n

00001ee3 <fn_ini_calc_sup_gain+0x103>:
	...

00001ee4 <fn_calc_sup_gain>:
    1ee4:	010136        	entry	a1, 128
    1ee7:	02bd           	mov.n	a11, a2
    1ee9:	041222        	l16ui	a2, a2, 8
    1eec:	1361b2        	s32i	a11, a1, 76
    1eef:	156152        	s32i	a5, a1, 84
    1ef2:	e2bc           	beqz.n	a2, 1f34 <fn_calc_sup_gain+0x50>
    1ef4:	220b           	addi.n	a2, a2, -1
    1ef6:	f85b61        	l32r	a6, 64 (e640 <all_amt_tab>)
    1ef9:	827d           	ae_sext16	a7, a2
    1efb:	a02770        	addx4	a2, a7, a7
    1efe:	b02260        	addx8	a2, a2, a6
    1f01:	04db52        	addmi	a5, a11, 0x400
    1f04:	226d           	ae_l16si.n	a6, a2, 0
    1f06:	116142        	s32i	a4, a1, 68
    1f09:	4548           	l32i.n	a4, a5, 16
    1f0b:	962d           	ae_zext16	a2, a6
    1f0d:	03ad           	mov.n	a10, a3
    1f0f:	a05640        	addx4	a5, a6, a4
    1f12:	b06640        	addx8	a6, a6, a4
    1f15:	126162        	s32i	a6, a1, 72
    1f18:	f86c61        	l32r	a6, c8 (da0 <mel_filter>)
    1f1b:	05bd           	mov.n	a11, a5
    1f1d:	07cd           	mov.n	a12, a7
    1f1f:	0006e0        	callx8	a6
    1f22:	1121a2        	l32i	a10, a1, 68
    1f25:	04bd           	mov.n	a11, a4
    1f27:	07cd           	mov.n	a12, a7
    1f29:	0006e0        	callx8	a6
    1f2c:	1321b2        	l32i	a11, a1, 76
    1f2f:	053d           	mov.n	a3, a5
    1f31:	000146        	j	1f3a <fn_calc_sup_gain+0x56>

00001f34 <fn_calc_sup_gain+0x50>:
    1f34:	01a122        	movi	a2, 0x101
    1f37:	126152        	s32i	a5, a1, 72
    1f3a:	4b6d           	ae_l16ui.n	a6, a11, 0
    1f3c:	116142        	s32i	a4, a1, 68
    1f3f:	fe2480015f 	{ movi	a5, 1; ae_zeroq56	aeq2 }
    1f44:	41b616        	beqz	a6, 2363 <fn_calc_sup_gain+0x47f>
    1f47:	822d           	ae_sext16	a2, a2
    1f49:	021626        	beqi	a6, 1, 1f4f <fn_calc_sup_gain+0x6b>
    1f4c:	012d86        	j	2406 <fn_calc_sup_gain+0x522>
    1f4f:	0212e6        	bgei	a2, 1, 1f55 <fn_calc_sup_gain+0x71>
    1f52:	01afc6        	j	2615 <fn_calc_sup_gain+0x731>
    1f55:	112152        	l32i	a5, a1, 68
    1f58:	1221a2        	l32i	a10, a1, 72
    1f5b:	ff7c           	movi.n	a15, -1
    1f5d:	f77c           	movi.n	a7, -1
    1f5f:	140c           	movi.n	a4, 1
    1f61:	cbcb           	addi.n	a12, a11, 12
    1f63:	41f1f0        	srli	a15, a15, 1
    1f66:	017710        	slli	a7, a7, 31
    1f69:	014490        	slli	a4, a4, 23
    1f6c:	fe7c           	movi.n	a14, -1
    1f6e:	0d0c           	movi.n	a13, 0
    1f70:	176122        	s32i	a2, a1, 92
    1f73:	0528           	l32i.n	a2, a5, 0
    1f75:	0368           	l32i.n	a6, a3, 0
    1f77:	8159           	s32i.n	a5, a1, 32
    1f79:	090c           	movi.n	a9, 0
    1f7b:	c05620        	sub	a5, a6, a2
    1f7e:	728920        	salt	a8, a9, a2
    1f81:	726560        	salt	a6, a5, a6
    1f84:	306860        	xor	a6, a8, a6
    1f87:	61a9           	s32i.n	a10, a1, 24
    1f89:	568c           	beqz.n	a6, 1f92 <fn_calc_sup_gain+0xae>
    1f8b:	076d           	mov.n	a6, a7
    1f8d:	a36f50        	movltz	a6, a15, a5
    1f90:	065d           	mov.n	a5, a6
    1f92:	060c           	movi.n	a6, 0
    1f94:	0cad           	mov.n	a10, a12
    1f96:	080c           	movi.n	a8, 0
    1f98:	06b216        	beqz	a2, 2007 <fn_calc_sup_gain+0x123>
    1f9b:	060c           	movi.n	a6, 0
    1f9d:	536560        	max	a6, a5, a6
    1fa0:	418860        	srli	a8, a6, 8
    1fa3:	ffa0a2        	movi	a10, 255
    1fa6:	40e250        	nsa	a5, a2
    1fa9:	360234        	ae_cvtq48a32s	aeq0, a2
    1fac:	7fda62        	addmi	a6, a10, 0x7f00
    1faf:	20a827        	bge	a8, a2, 1fd3 <fn_calc_sup_gain+0xef>
    1fb2:	364834        	ae_cvtq48a32s	aeq1, a8
    1fb5:	856d           	ae_sext16	a6, a5
    1fb7:	fc24fe964f 	{ ae_slaasq56s	aeq1, aeq1, a6; nop }
    1fbc:	fd04cf166e 	{ addi	a6, a6, -15; ae_satq48s	aeq1, aeq1 }
    1fc1:	fc24fe868f 	{ ae_slaasq56s	aeq2, aeq0, a6; nop }
    1fc6:	fe80ff19ef 	{ ae_trunca32q48	a9, aeq1; ae_satq48s	aeq2, aeq2 }
    1fcb:	36aa04        	ae_trunca32q48	a10, aeq2
    1fce:	d269a0        	quos	a6, a9, a10
    1fd1:	a66d           	ae_clamps16	a6, a6
    1fd3:	0c88           	l32i.n	a8, a12, 0
    1fd5:	a0adb0        	addx4	a10, a13, a11
    1fd8:	aacb           	addi.n	a10, a10, 12
    1fda:	219880        	srai	a9, a8, 8
    1fdd:	ffa082        	movi	a8, 255
    1fe0:	7fd882        	addmi	a8, a8, 0x7f00
    1fe3:	20a927        	bge	a9, a2, 2007 <fn_calc_sup_gain+0x123>
    1fe6:	364934        	ae_cvtq48a32s	aeq1, a9
    1fe9:	852d           	ae_sext16	a2, a5
    1feb:	fc24fe924f 	{ ae_slaasq56s	aeq1, aeq1, a2; nop }
    1ff0:	fd04cf122e 	{ addi	a2, a2, -15; ae_satq48s	aeq1, aeq1 }
    1ff5:	fc24fe820f 	{ ae_slaasq56s	aeq0, aeq0, a2; nop }
    1ffa:	fc00ff18ef 	{ ae_trunca32q48	a8, aeq1; ae_satq48s	aeq0, aeq0 }
    1fff:	368904        	ae_trunca32q48	a9, aeq0
    2002:	d22890        	quos	a2, a8, a9
    2005:	a28d           	ae_clamps16	a8, a2
    2007:	029b92        	l16si	a9, a11, 4
    200a:	115800        	slli	a5, a8, 16
    200d:	3b8d           	ae_l16si.n	a8, a11, 2
    200f:	1661c2        	s32i	a12, a1, 88
    2012:	86cd           	ae_sext16	a12, a6
    2014:	118800        	slli	a8, a8, 16
    2017:	119900        	slli	a9, a9, 16
    201a:	41d9           	s32i.n	a13, a1, 16
    201c:	a139           	s32i.n	a3, a1, 40
    201e:	113600        	slli	a3, a6, 16
    2021:	31dfc0        	srai	a13, a12, 31
    2024:	21a9           	s32i.n	a10, a1, 8
    2026:	21b850        	srai	a11, a5, 8
    2029:	21a830        	srai	a10, a3, 8
    202c:	115c80        	slli	a5, a12, 8
    202f:	7538c0        	extui	a3, a12, 24, 8
    2032:	11cd80        	slli	a12, a13, 8
    2035:	218880        	srai	a8, a8, 8
    2038:	219890        	srai	a9, a9, 8
    203b:	0a73c0        	depbits	a12, a3, 0, 8
    203e:	82d8b0        	mull	a13, a8, a11
    2041:	b288b0        	mulsh	a8, a8, a11
    2044:	82b9a0        	mull	a11, a9, a10
    2047:	b299a0        	mulsh	a9, a9, a10
    204a:	f80fa1        	l32r	a10, 88 (7fff7fff <_end+0x7ffe919b>)
    204d:	736570        	maxu	a6, a5, a7
    2050:	3c1b           	addi.n	a3, a12, 1
    2052:	a357c0        	movltz	a5, a7, a12
    2055:	835630        	moveqz	a5, a6, a3
    2058:	020c           	movi.n	a2, 0
    205a:	53cce0        	max	a12, a12, a14
    205d:	72ec20        	salt	a14, a12, a2
    2060:	6265a0        	saltu	a6, a5, a10
    2063:	83e6c0        	moveqz	a14, a6, a12
    2066:	cbda           	add.n	a12, a11, a13
    2068:	698a           	add.n	a6, a9, a8
    206a:	628cb0        	saltu	a8, a12, a11
    206d:	903c40        	addx2	a3, a12, a4
    2070:	11dcf0        	slli	a13, a12, 1
    2073:	059fc0        	extui	a9, a12, 31, 1
    2076:	668a           	add.n	a6, a6, a8
    2078:	62a3d0        	saltu	a10, a3, a13
    207b:	906690        	addx2	a6, a6, a9
    207e:	66aa           	add.n	a6, a6, a10
    2080:	754830        	extui	a4, a3, 24, 8
    2083:	119680        	slli	a9, a6, 8
    2086:	31a860        	srai	a10, a6, 24
    2089:	849a           	add.n	a8, a4, a9
    208b:	f56060        	extui	a6, a6, 16, 16
    208e:	119a80        	slli	a9, a10, 8
    2091:	11b880        	slli	a11, a8, 8
    2094:	0a7690        	depbits	a9, a6, 0, 8
    2097:	fd7c           	movi.n	a13, -1
    2099:	738b70        	maxu	a8, a11, a7
    209c:	c91b           	addi.n	a12, a9, 1
    209e:	a3b790        	movltz	a11, a7, a9
    20a1:	5339d0        	max	a3, a9, a13
    20a4:	f80691        	l32r	a9, bc (7fffff00 <_end+0x7fff109c>)
    20a7:	83b8c0        	moveqz	a11, a8, a12
    20aa:	140c           	movi.n	a4, 1
    20ac:	09ad           	mov.n	a10, a9
    20ae:	639b90        	minu	a9, a11, a9
    20b1:	a3ab30        	movltz	a10, a11, a3
    20b4:	939a30        	movnez	a9, a10, a3
    20b7:	213890        	srai	a3, a9, 8
    20ba:	828390        	mull	a8, a3, a9
    20bd:	b2c390        	mulsh	a12, a3, a9
    20c0:	418780        	srli	a8, a8, 7
    20c3:	01dc70        	slli	a13, a12, 25
    20c6:	116410        	slli	a6, a4, 15
    20c9:	88da           	add.n	a8, a8, a13
    20cb:	b86a           	add.n	a11, a8, a6
    20cd:	21a7c0        	srai	a10, a12, 7
    20d0:	628b80        	saltu	a8, a11, a8
    20d3:	8a8a           	add.n	a8, a10, a8
    20d5:	f5c0b0        	extui	a12, a11, 16, 16
    20d8:	31d080        	srai	a13, a8, 16
    20db:	0bf8c0        	depbits	a12, a8, 16, 16
    20de:	73bc70        	maxu	a11, a12, a7
    20e1:	ad1b           	addi.n	a10, a13, 1
    20e3:	a3c7d0        	movltz	a12, a7, a13
    20e6:	83cba0        	moveqz	a12, a11, a10
    20e9:	a56a           	add.n	a10, a5, a6
    20eb:	83afe0        	moveqz	a10, a15, a14
    20ee:	31ef90        	srai	a14, a9, 31
    20f1:	f47c           	movi.n	a4, -1
    20f3:	1461e2        	s32i	a14, a1, 80
    20f6:	0f8d           	mov.n	a8, a15
    20f8:	53ed40        	max	a14, a13, a4
    20fb:	a38ce0        	movltz	a8, a12, a14
    20fe:	639cf0        	minu	a9, a12, a15
    2101:	9398e0        	movnez	a9, a8, a14
    2104:	0b0c           	movi.n	a11, 0
    2106:	536a           	add.n	a5, a3, a6
    2108:	438e20        	min	a8, a14, a2
    210b:	08ea16        	beqz	a10, 219d <fn_calc_sup_gain+0x2b9>
    210e:	142142        	l32i	a4, a1, 80
    2111:	b93a           	add.n	a11, a9, a3
    2113:	62db90        	saltu	a13, a11, a9
    2116:	c84a           	add.n	a12, a8, a4
    2118:	ccda           	add.n	a12, a12, a13
    211a:	73eb70        	maxu	a14, a11, a7
    211d:	f67c           	movi.n	a6, -1
    211f:	dc1b           	addi.n	a13, a12, 1
    2121:	a3b7c0        	movltz	a11, a7, a12
    2124:	53cc60        	max	a12, a12, a6
    2127:	83bed0        	moveqz	a11, a14, a13
    212a:	0f4d           	mov.n	a4, a15
    212c:	a34bc0        	movltz	a4, a11, a12
    212f:	63bbf0        	minu	a11, a11, a15
    2132:	93b4c0        	movnez	a11, a4, a12
    2135:	436c20        	min	a6, a12, a2
    2138:	05cfb0        	extui	a12, a11, 31, 1
    213b:	90c6c0        	addx2	a12, a6, a12
    213e:	11bbf0        	slli	a11, a11, 1
    2141:	734b70        	maxu	a4, a11, a7
    2144:	ec1b           	addi.n	a14, a12, 1
    2146:	a3b7c0        	movltz	a11, a7, a12
    2149:	83b4e0        	moveqz	a11, a4, a14
    214c:	f47c           	movi.n	a4, -1
    214e:	53cc40        	max	a12, a12, a4
    2151:	0f6d           	mov.n	a6, a15
    2153:	a36bc0        	movltz	a6, a11, a12
    2156:	63bbf0        	minu	a11, a11, a15
    2159:	93b6c0        	movnez	a11, a6, a12
    215c:	80a062        	movi	a6, 128
    215f:	db6a           	add.n	a13, a11, a6
    2161:	43cc20        	min	a12, a12, a2
    2164:	62bdb0        	saltu	a11, a13, a11
    2167:	bcba           	add.n	a11, a12, a11
    2169:	41c8d0        	srli	a12, a13, 8
    216c:	8b7bc0        	depbits	a12, a11, 24, 8
    216f:	ffa0e2        	movi	a14, 255
    2172:	7fdeb2        	addmi	a11, a14, 0x7f00
    2175:	24aca7        	bge	a12, a10, 219d <fn_calc_sup_gain+0x2b9>
    2178:	40eab0        	nsa	a11, a10
    217b:	360c34        	ae_cvtq48a32s	aeq0, a12
    217e:	8bcd           	ae_sext16	a12, a11
    2180:	364a34        	ae_cvtq48a32s	aeq1, a10
    2183:	f1cca2        	addi	a10, a12, -15
    2186:	fc24fe8c0f 	{ ae_slaasq56s	aeq0, aeq0, a12; nop }
    218b:	fc00fe9a4f 	{ ae_slaasq56s	aeq1, aeq1, a10; ae_satq48s	aeq0, aeq0 }
    2190:	ff04ff0def 	{ ae_trunca32q48	a13, aeq0; ae_satq48s	aeq3, aeq1 }
    2195:	36be04        	ae_trunca32q48	a14, aeq3
    2198:	d2ade0        	quos	a10, a13, a14
    219b:	aabd           	ae_clamps16	a11, a10
    219d:	8bbd           	ae_sext16	a11, a11
    219f:	31cfb0        	srai	a12, a11, 31
    21a2:	45dbb0        	extui	a13, a11, 27, 5
    21a5:	11ecb0        	slli	a14, a12, 5
    21a8:	a94b           	addi.n	a10, a9, 4
    21aa:	0a4de0        	depbits	a14, a13, 0, 5
    21ad:	11bbb0        	slli	a11, a11, 5
    21b0:	629a90        	saltu	a9, a10, a9
    21b3:	736b70        	maxu	a6, a11, a7
    21b6:	a3b7e0        	movltz	a11, a7, a14
    21b9:	de1b           	addi.n	a13, a14, 1
    21bb:	889a           	add.n	a8, a8, a9
    21bd:	539e40        	max	a9, a14, a4
    21c0:	83b6d0        	moveqz	a11, a6, a13
    21c3:	0fed           	mov.n	a14, a15
    21c5:	41a3a0        	srli	a10, a10, 3
    21c8:	a3eb90        	movltz	a14, a11, a9
    21cb:	63bbf0        	minu	a11, a11, a15
    21ce:	db28a0        	depbits	a10, a8, 29, 3
    21d1:	93be90        	movnez	a11, a14, a9
    21d4:	436920        	min	a6, a9, a2
    21d7:	9baa           	add.n	a9, a11, a10
    21d9:	218380        	srai	a8, a8, 3
    21dc:	868a           	add.n	a8, a6, a8
    21de:	62a9b0        	saltu	a10, a9, a11
    21e1:	88aa           	add.n	a8, a8, a10
    21e3:	73d970        	maxu	a13, a9, a7
    21e6:	a81b           	addi.n	a10, a8, 1
    21e8:	a39780        	movltz	a9, a7, a8
    21eb:	839da0        	moveqz	a9, a13, a10
    21ee:	538840        	max	a8, a8, a4
    21f1:	0fed           	mov.n	a14, a15
    21f3:	a3e980        	movltz	a14, a9, a8
    21f6:	63a9f0        	minu	a10, a9, a15
    21f9:	f7b461        	l32r	a6, cc (c44 <fxsqrt_ie>)
    21fc:	93ae80        	movnez	a10, a14, a8
    21ff:	0f4d           	mov.n	a4, a15
    2201:	0006e0        	callx8	a6
    2204:	318f50        	srai	a8, a5, 31
    2207:	11c5f0        	slli	a12, a5, 1
    220a:	739c70        	maxu	a9, a12, a7
    220d:	fe7c           	movi.n	a14, -1
    220f:	a3c780        	movltz	a12, a7, a8
    2212:	b81b           	addi.n	a11, a8, 1
    2214:	83c9b0        	moveqz	a12, a9, a11
    2217:	5388e0        	max	a8, a8, a14
    221a:	04dd           	mov.n	a13, a4
    221c:	a3dc80        	movltz	a13, a12, a8
    221f:	635c40        	minu	a5, a12, a4
    2222:	935d80        	movnez	a5, a13, a8
    2225:	04fd           	mov.n	a15, a4
    2227:	07c516        	beqz	a5, 22a7 <fn_calc_sup_gain+0x3c3>
    222a:	318fa0        	srai	a8, a10, 31
    222d:	8597a0        	extui	a9, a10, 23, 9
    2230:	11da70        	slli	a13, a10, 9
    2233:	0a8980        	depbits	a8, a9, 0, 9
    2236:	734d70        	maxu	a4, a13, a7
    2239:	b81b           	addi.n	a11, a8, 1
    223b:	a3d780        	movltz	a13, a7, a8
    223e:	83d4b0        	moveqz	a13, a4, a11
    2241:	5388e0        	max	a8, a8, a14
    2244:	0f6d           	mov.n	a6, a15
    2246:	a36d80        	movltz	a6, a13, a8
    2249:	63adf0        	minu	a10, a13, a15
    224c:	142142        	l32i	a4, a1, 80
    224f:	93a680        	movnez	a10, a6, a8
    2252:	432820        	min	a2, a8, a2
    2255:	6a3a           	add.n	a6, a10, a3
    2257:	224a           	add.n	a2, a2, a4
    2259:	6286a0        	saltu	a8, a6, a10
    225c:	228a           	add.n	a2, a2, a8
    225e:	73b670        	maxu	a11, a6, a7
    2261:	821b           	addi.n	a8, a2, 1
    2263:	a36720        	movltz	a6, a7, a2
    2266:	5322e0        	max	a2, a2, a14
    2269:	836b80        	moveqz	a6, a11, a8
    226c:	0fcd           	mov.n	a12, a15
    226e:	a3c620        	movltz	a12, a6, a2
    2271:	6366f0        	minu	a6, a6, a15
    2274:	936c20        	movnez	a6, a12, a2
    2277:	ffa0d2        	movi	a13, 255
    227a:	7fdd22        	addmi	a2, a13, 0x7f00
    227d:	26a657        	bge	a6, a5, 22a7 <fn_calc_sup_gain+0x3c3>
    2280:	40e520        	nsa	a2, a5
    2283:	360634        	ae_cvtq48a32s	aeq0, a6
    2286:	822d           	ae_sext16	a2, a2
    2288:	fc24fe820f 	{ ae_slaasq56s	aeq0, aeq0, a2; nop }
    228d:	fc00fec57f 	{ ae_cvtq48a32s	aeq1, a5; ae_satq48s	aeq0, aeq0 }
    2292:	f1c222        	addi	a2, a2, -15
    2295:	fc24fe924f 	{ ae_slaasq56s	aeq1, aeq1, a2; nop }
    229a:	fd04ff0cef 	{ ae_trunca32q48	a12, aeq0; ae_satq48s	aeq1, aeq1 }
    229f:	369d04        	ae_trunca32q48	a13, aeq1
    22a2:	d22cd0        	quos	a2, a12, a13
    22a5:	a22d           	ae_clamps16	a2, a2
    22a7:	61a8           	l32i.n	a10, a1, 24
    22a9:	1321b2        	l32i	a11, a1, 76
    22ac:	828d           	ae_sext16	a8, a2
    22ae:	6a2d           	ae_s16i.n	a2, a10, 0
    22b0:	039b52        	l16si	a5, a11, 6
    22b3:	a138           	l32i.n	a3, a1, 40
    22b5:	140c           	movi.n	a4, 1
    22b7:	532850        	max	a2, a8, a5
    22ba:	6a2d           	ae_s16i.n	a2, a10, 0
    22bc:	112200        	slli	a2, a2, 16
    22bf:	212820        	srai	a2, a2, 8
    22c2:	b26220        	mulsh	a6, a2, a2
    22c5:	822220        	mull	a2, a2, a2
    22c8:	0398           	l32i.n	a9, a3, 0
    22ca:	014490        	slli	a4, a4, 23
    22cd:	058f20        	extui	a8, a2, 31, 1
    22d0:	11c2f0        	slli	a12, a2, 1
    22d3:	902240        	addx2	a2, a2, a4
    22d6:	906680        	addx2	a6, a6, a8
    22d9:	6282c0        	saltu	a8, a2, a12
    22dc:	668a           	add.n	a6, a6, a8
    22de:	f52020        	extui	a2, a2, 16, 16
    22e1:	215890        	srai	a5, a9, 8
    22e4:	f77691        	l32r	a9, bc (7fffff00 <_end+0x7fff109c>)
    22e7:	0bf620        	depbits	a2, a6, 16, 16
    22ea:	00afd2        	movi	a13, 0xffffff00
    22ed:	1022d0        	and	a2, a2, a13
    22f0:	f58060        	extui	a8, a6, 16, 16
    22f3:	632290        	minu	a2, a2, a9
    22f6:	932980        	movnez	a2, a9, a8
    22f9:	412820        	srli	a2, a2, 8
    22fc:	828520        	mull	a8, a5, a2
    22ff:	b22520        	mulsh	a2, a5, a2
    2302:	05cf80        	extui	a12, a8, 31, 1
    2305:	11d8f0        	slli	a13, a8, 1
    2308:	906840        	addx2	a6, a8, a4
    230b:	9022c0        	addx2	a2, a2, a12
    230e:	75c860        	extui	a12, a6, 24, 8
    2311:	6266d0        	saltu	a6, a6, a13
    2314:	226a           	add.n	a2, a2, a6
    2316:	116280        	slli	a6, a2, 8
    2319:	31d820        	srai	a13, a2, 24
    231c:	5c6a           	add.n	a5, a12, a6
    231e:	f52020        	extui	a2, a2, 16, 16
    2321:	11cd80        	slli	a12, a13, 8
    2324:	0a72c0        	depbits	a12, a2, 0, 8
    2327:	112580        	slli	a2, a5, 8
    232a:	735270        	maxu	a5, a2, a7
    232d:	dc1b           	addi.n	a13, a12, 1
    232f:	a327c0        	movltz	a2, a7, a12
    2332:	8325d0        	moveqz	a2, a5, a13
    2335:	53cce0        	max	a12, a12, a14
    2338:	09dd           	mov.n	a13, a9
    233a:	a3d2c0        	movltz	a13, a2, a12
    233d:	632290        	minu	a2, a2, a9
    2340:	932dc0        	movnez	a2, a13, a12
    2343:	81c8           	l32i.n	a12, a1, 32
    2345:	2188           	l32i.n	a8, a1, 8
    2347:	172192        	l32i	a9, a1, 92
    234a:	41d8           	l32i.n	a13, a1, 16
    234c:	5c4b           	addi.n	a5, a12, 4
    234e:	1621c2        	l32i	a12, a1, 88
    2351:	0829           	s32i.n	a2, a8, 0
    2353:	290b           	addi.n	a2, a9, -1
    2355:	dd1b           	addi.n	a13, a13, 1
    2357:	cc4b           	addi.n	a12, a12, 4
    2359:	aa2b           	addi.n	a10, a10, 2
    235b:	334b           	addi.n	a3, a3, 4
    235d:	c0f256        	bnez	a2, 1f70 <fn_calc_sup_gain+0x8c>
    2360:	00ac46        	j	2615 <fn_calc_sup_gain+0x731>

00002363 <fn_calc_sup_gain+0x47f>:
    2363:	827d           	ae_sext16	a7, a2
    2365:	0217e6        	bgei	a7, 1, 236b <fn_calc_sup_gain+0x487>
    2368:	00aa46        	j	2615 <fn_calc_sup_gain+0x731>
    236b:	5b5d           	ae_l16ui.n	a5, a11, 2
    236d:	021b62        	l16ui	a6, a11, 4
    2370:	300564        	ae_cvtp24a16x2.ll	aep0, a5, a6
    2373:	112152        	l32i	a5, a1, 68
    2376:	122162        	l32i	a6, a1, 72
    2379:	2bcb           	addi.n	a2, a11, 12
    237b:	ffa042        	movi	a4, 255
    237e:	601304        	ae_lq32f.iu	aeq0, a3, 0
    2381:	7fd442        	addmi	a4, a4, 0x7f00
    2384:	609204        	ae_lq32f.iu	aeq2, a2, 0
    2387:	605504        	ae_lq32f.iu	aeq1, a5, 0
    238a:	0020f0        	nop
    238d:	728776        	loop	a7, 2403 <fn_calc_sup_gain+0x51f>
    2390:	fa763f19ef 	{ ae_trunca32q48	a9, aeq1; ae_addq56	aeq2, aeq2, aeq1 }
    2395:	fe80d3844f 	{ or	a8, a4, a4; ae_satq48s	aeq2, aeq2 }
    239a:	d7623ec97f 	{ ae_cvtq48a32s	aeq1, a9; ae_mulfq32sp16s.h	aeq2, aeq2, aep0 }
    239f:	038014        	ae_mulafq32sp16s.l	aeq2, aeq0, aep0
    23a2:	1bad14        	ae_roundsp24q48asym	aep1, aeq2
    23a5:	0097d4        	ae_cvta32p24.h	a7, aep1
    23a8:	368734        	ae_cvtq48a32s	aeq2, a7
    23ab:	37ac           	beqz.n	a7, 23d2 <fn_calc_sup_gain+0x4ee>
    23ad:	23a977        	bge	a9, a7, 23d4 <fn_calc_sup_gain+0x4f0>
    23b0:	40e780        	nsa	a8, a7
    23b3:	88dd           	ae_sext16	a13, a8
    23b5:	f1cd72        	addi	a7, a13, -15
    23b8:	fc24fe9d4f 	{ ae_slaasq56s	aeq1, aeq1, a13; nop }
    23bd:	fd04fea78f 	{ ae_slaasq56s	aeq2, aeq2, a7; ae_satq48s	aeq1, aeq1 }
    23c2:	fe80ff1eef 	{ ae_trunca32q48	a14, aeq1; ae_satq48s	aeq2, aeq2 }
    23c7:	36af04        	ae_trunca32q48	a15, aeq2
    23ca:	d27ef0        	quos	a7, a14, a15
    23cd:	a78d           	ae_clamps16	a8, a7
    23cf:	000046        	j	23d4 <fn_calc_sup_gain+0x4f0>

000023d2 <fn_calc_sup_gain+0x4ee>:
    23d2:	080c           	movi.n	a8, 0
    23d4:	fb42603bfe 	{ l16si	a15, a11, 6; ae_truncp24q48x2	aep7, aeq0, aeq0 }
    23d9:	c07480        	sub	a7, a4, a8
    23dc:	877d           	ae_sext16	a7, a7
    23de:	5377f0        	max	a7, a7, a15
    23e1:	301774        	ae_cvtp24a16x2.ll	aep1, a7, a7
    23e4:	011944        	ae_mulfp24s.hh	aeq1, aep1, aep1
    23e7:	667d           	ae_s16i.n	a7, a6, 0
    23e9:	f96f80266e 	{ addi	a6, a6, 2; ae_roundsp24q48asym	aep2, aeq1 }
    23ee:	012744        	ae_mulfp24s.hh	aeq0, aep2, aep7
    23f1:	1b8d14        	ae_roundsp24q48asym	aep1, aeq0
    23f4:	0a0184        	ae_cvtq48p24s.l	aeq0, aep1
    23f7:	624204        	ae_sq32f.iu	aeq0, a2, 0
    23fa:	609214        	ae_lq32f.iu	aeq2, a2, 4
    23fd:	601314        	ae_lq32f.iu	aeq0, a3, 4
    2400:	605514        	ae_lq32f.iu	aeq1, a5, 4

00002403 <fn_calc_sup_gain+0x51f>:
    2403:	008386        	j	2615 <fn_calc_sup_gain+0x731>

00002406 <fn_calc_sup_gain+0x522>:
    2406:	0212e6        	bgei	a2, 1, 240c <fn_calc_sup_gain+0x528>
    2409:	008206        	j	2615 <fn_calc_sup_gain+0x731>
    240c:	5b6d           	ae_l16ui.n	a6, a11, 2
    240e:	021b72        	l16ui	a7, a11, 4
    2411:	300674        	ae_cvtp24a16x2.ll	aep0, a6, a7
    2414:	112162        	l32i	a6, a1, 68
    2417:	115510        	slli	a5, a5, 15
    241a:	360534        	ae_cvtq48a32s	aeq0, a5
    241d:	122152        	l32i	a5, a1, 72
    2420:	ffa0c2        	movi	a12, 255
    2423:	4bcb           	addi.n	a4, a11, 12
    2425:	560154        	ae_sp24x2s.i	aep0, a1, 40
    2428:	50a304        	ae_lp24f.iu	aep2, a3, 0
    242b:	7fdcc2        	addmi	a12, a12, 0x7f00
    242e:	170c           	movi.n	a7, 1
    2430:	fd4c2e840f 	{ ae_lp24f.iu	aep0, a4, 0; ae_cvtq48p24s.l	aeq1, aep2 }
    2435:	509604        	ae_lp24f.iu	aep1, a6, 0
    2438:	fc2c3a016f 	{ ae_sq56s.i	aeq0, a1, 48; ae_cvtq48p24s.l	aeq0, aep1 }
    243d:	f92ac0008f 	{ movi	a8, 0; ae_subq56	aeq1, aeq1, aeq0 }
    2442:	064944        	ae_satq48s	aeq1, aeq1
    2445:	09a104        	ae_ltq56s	b0, aeq1, aeq2
    2448:	d38700        	movt	a8, a7, b0
    244b:	188c           	beqz.n	a8, 2450 <fn_calc_sup_gain+0x56c>
    244d:	0a5084        	ae_zeroq56	aeq1
    2450:	d4500000bf 	{ movi	a11, 0; ae_eqq56	b0, aeq0, aeq2 }
    2455:	080c           	movi.n	a8, 0
    2457:	090c           	movi.n	a9, 0
    2459:	d3b700        	movt	a11, a7, b0
    245c:	0a0c           	movi.n	a10, 0
    245e:	070b56        	bnez	a11, 24d2 <fn_calc_sup_gain+0x5ee>
    2461:	355234        	ae_sraiq56	aeq1, aeq1, 8
    2464:	d5480000af 	{ movi	a10, 0; ae_leq56s	b0, aeq0, aeq1 }
    2469:	0c9d           	mov.n	a9, a12
    246b:	364b04        	ae_nsaq56s	a11, aeq0
    246e:	d3a700        	movt	a10, a7, b0
    2471:	3aec           	bnez.n	a10, 2498 <fn_calc_sup_gain+0x5b4>
    2473:	f8cb92        	addi	a9, a11, -8
    2476:	119900        	slli	a9, a9, 16
    2479:	319090        	srai	a9, a9, 16
    247c:	fc24fe994f 	{ ae_slaasq56s	aeq1, aeq1, a9; nop }
    2481:	fd04cf199e 	{ addi	a9, a9, -15; ae_satq48s	aeq1, aeq1 }
    2486:	fc24fe898f 	{ ae_slaasq56s	aeq2, aeq0, a9; nop }
    248b:	fe80ff1fef 	{ ae_trunca32q48	a15, aeq1; ae_satq48s	aeq2, aeq2 }
    2490:	36aa04        	ae_trunca32q48	a10, aeq2
    2493:	d29fa0        	quos	a9, a15, a10
    2496:	a99d           	ae_clamps16	a9, a9
    2498:	fd0c0000bf 	{ movi	a11, 0; ae_cvtq48p24s.l	aeq1, aep0 }
    249d:	355234        	ae_sraiq56	aeq1, aeq1, 8
    24a0:	d54813accf 	{ or	a10, a12, a12; ae_leq56s	b0, aeq0, aeq1 }
    24a5:	364d04        	ae_nsaq56s	a13, aeq0
    24a8:	d3b700        	movt	a11, a7, b0
    24ab:	3bec           	bnez.n	a11, 24d2 <fn_calc_sup_gain+0x5ee>
    24ad:	f8cda2        	addi	a10, a13, -8
    24b0:	11aa00        	slli	a10, a10, 16
    24b3:	31a0a0        	srai	a10, a10, 16
    24b6:	fc24fe9a4f 	{ ae_slaasq56s	aeq1, aeq1, a10; nop }
    24bb:	fd04cf1aae 	{ addi	a10, a10, -15; ae_satq48s	aeq1, aeq1 }
    24c0:	fc24fe8acf 	{ ae_slaasq56s	aeq3, aeq0, a10; nop }
    24c5:	fc84ff1fef 	{ ae_trunca32q48	a15, aeq1; ae_satq48s	aeq0, aeq3 }
    24ca:	368b04        	ae_trunca32q48	a11, aeq0
    24cd:	d2afb0        	quos	a10, a15, a11
    24d0:	aaad           	ae_clamps16	a10, a10
    24d2:	300aa4        	ae_cvtp24a16x2.ll	aep0, a10, a10
    24d5:	541154        	ae_lp24x2.i	aep1, a1, 40
    24d8:	e82098f99f 	{ ae_cvtp24a16x2.ll	aep7, a9, a9; ae_mulfp24s.hh	aeq0, aep0, aep1 }
    24dd:	e23fbde16f 	{ ae_lq56.i	aeq3, a1, 48; ae_mulafp24s.ll	aeq0, aep7, aep1 }
    24e2:	11d900        	slli	a13, a9, 16
    24e5:	f8678000ff 	{ movi	a15, 0; ae_roundsp24q48asym	aep0, aeq0 }
    24ea:	21e8d0        	srai	a14, a13, 8
    24ed:	fc0c3ece7f 	{ ae_cvtq48a32s	aeq1, a14; ae_cvtq48p24s.l	aeq0, aep0 }
    24f2:	e900ba014f 	{ ae_sq56s.i	aeq0, a1, 32; ae_mulfp24s.hh	aeq2, aep0, aep0 }
    24f7:	fbee3da14f 	{ ae_lq56.i	aeq1, a1, 32; ae_addq56	aeq3, aeq1, aeq3 }
    24fc:	fd24bb120f 	{ ae_sraiq56	aeq0, aeq1, 8; ae_zeroq56	aeq1 }
    2501:	d4cc3f317f 	{ ae_movq56	aeq1, aeq3; ae_eqq56	b0, aeq3, aeq1 }
    2506:	fe347de16f 	{ ae_lq56.i	aeq3, a1, 48; ae_roundsq32asym	aeq2, aeq2 }
    250b:	fae23a213f 	{ ae_sq56s.i	aeq2, a1, 24; ae_addq56	aeq2, aeq0, aeq2 }
    2510:	fe80fa011f 	{ ae_sq56s.i	aeq0, a1, 8; ae_satq48s	aeq2, aeq2 }
    2515:	f8e63b228f 	{ ae_sraiq56	aeq2, aeq2, 8; ae_addq56	aeq0, aeq0, aeq3 }
    251a:	fe3456f70f 	{ movt	a15, a7, b0; ae_roundsq32asym	aeq2, aeq2 }
    251f:	d55437217f 	{ ae_sp24x2s.i	aep2, a1, 56; ae_leq56s	b0, aeq1, aeq2 }
    2524:	630124        	ae_sq56s.i	aeq0, a1, 16
    2527:	ffec           	bnez.n	a15, 255a <fn_calc_sup_gain+0x676>
    2529:	090c           	movi.n	a9, 0
    252b:	0c8d           	mov.n	a8, a12
    252d:	d39700        	movt	a9, a7, b0
    2530:	69ec           	bnez.n	a9, 255a <fn_calc_sup_gain+0x676>
    2532:	365804        	ae_nsaq56s	a8, aeq1
    2535:	f8c882        	addi	a8, a8, -8
    2538:	118800        	slli	a8, a8, 16
    253b:	318080        	srai	a8, a8, 16
    253e:	fc24fea88f 	{ ae_slaasq56s	aeq2, aeq2, a8; nop }
    2543:	fe80cf188e 	{ addi	a8, a8, -15; ae_satq48s	aeq2, aeq2 }
    2548:	fc24fe98cf 	{ ae_slaasq56s	aeq3, aeq1, a8; nop }
    254d:	fd84ff2fef 	{ ae_trunca32q48	a15, aeq2; ae_satq48s	aeq1, aeq3 }
    2552:	369904        	ae_trunca32q48	a9, aeq1
    2555:	d28f90        	quos	a8, a15, a9
    2558:	a88d           	ae_clamps16	a8, a8
    255a:	610134        	ae_lq56.i	aeq0, a1, 24
    255d:	888d           	ae_sext16	a8, a8
    255f:	364834        	ae_cvtq48a32s	aeq1, a8
    2562:	3500f4        	ae_sraiq56	aeq0, aeq0, 3
    2565:	fc247a915f 	{ ae_slliq56	aeq1, aeq1, 5; ae_roundsq32asym	aeq0, aeq0 }
    256a:	f866137ccf 	{ or	a7, a12, a12; ae_addq56	aeq0, aeq0, aeq1 }
    256f:	368a04        	ae_trunca32q48	a10, aeq0
    2572:	f6d681        	l32r	a8, cc (c44 <fxsqrt_ie>)
    2575:	0008e0        	callx8	a8
    2578:	fe24bd812f 	{ ae_lq56.i	aeq0, a1, 16; ae_zeroq56	aeq2 }
    257d:	350054        	ae_slliq56	aeq0, aeq0, 1
    2580:	fc00d3c77f 	{ or	a12, a7, a7; ae_satq48s	aeq0, aeq0 }
    2585:	170c           	movi.n	a7, 1
    2587:	118a70        	slli	a8, a10, 9
    258a:	090c           	movi.n	a9, 0
    258c:	d4503ec87f 	{ ae_cvtq48a32s	aeq1, a8; ae_eqq56	b0, aeq0, aeq2 }
    2591:	61c114        	ae_lq56.i	aeq3, a1, 8
    2594:	f97e3131be 	{ l32i	a11, a1, 76; ae_addq56	aeq1, aeq3, aeq1 }
    2599:	fd04d6970f 	{ movt	a9, a7, b0; ae_satq48s	aeq1, aeq1 }
    259e:	080c           	movi.n	a8, 0
    25a0:	d54830117f 	{ ae_lp24x2.i	aep1, a1, 56; ae_leq56s	b0, aeq0, aeq1 }
    25a5:	d98c           	beqz.n	a9, 25b6 <fn_calc_sup_gain+0x6d2>
    25a7:	658d           	ae_s16i.n	a8, a5, 0
    25a9:	039b92        	l16si	a9, a11, 6
    25ac:	88fd           	ae_sext16	a15, a8
    25ae:	538f90        	max	a8, a15, a9
    25b1:	658d           	ae_s16i.n	a8, a5, 0
    25b3:	000286        	j	25c1 <fn_calc_sup_gain+0x6dd>

000025b6 <fn_calc_sup_gain+0x6d2>:
    25b6:	080c           	movi.n	a8, 0
    25b8:	d38700        	movt	a8, a7, b0
    25bb:	b8ac           	beqz.n	a8, 25ea <fn_calc_sup_gain+0x706>
    25bd:	0c8d           	mov.n	a8, a12
    25bf:	65cd           	ae_s16i.n	a12, a5, 0
    25c1:	300884        	ae_cvtp24a16x2.ll	aep0, a8, a8
    25c4:	ea018ff22e 	{ addi	a2, a2, -1; ae_mulfp24s.ll	aeq0, aep0, aep0 }
    25c9:	552b           	addi.n	a5, a5, 2
    25cb:	1b8d04        	ae_roundsp24q48asym	aep0, aeq0
    25ce:	010174        	ae_mulfp24s.ll	aeq0, aep0, aep1
    25d1:	1b8d04        	ae_roundsp24q48asym	aep0, aeq0
    25d4:	528404        	ae_sp24f.l.iu	aep0, a4, 0
    25d7:	50a314        	ae_lp24f.iu	aep2, a3, 4
    25da:	fd4c2e961f 	{ ae_lp24f.iu	aep1, a6, 4; ae_cvtq48p24s.l	aeq1, aep2 }
    25df:	fc2c2e841f 	{ ae_lp24f.iu	aep0, a4, 4; ae_cvtq48p24s.l	aeq0, aep1 }
    25e4:	e55256        	bnez	a2, 243d <fn_calc_sup_gain+0x559>
    25e7:	000a86        	j	2615 <fn_calc_sup_gain+0x731>

000025ea <fn_calc_sup_gain+0x706>:
    25ea:	364804        	ae_nsaq56s	a8, aeq0
    25ed:	f8c882        	addi	a8, a8, -8
    25f0:	118800        	slli	a8, a8, 16
    25f3:	318080        	srai	a8, a8, 16
    25f6:	fc24fe984f 	{ ae_slaasq56s	aeq1, aeq1, a8; nop }
    25fb:	fd04cf188e 	{ addi	a8, a8, -15; ae_satq48s	aeq1, aeq1 }
    2600:	fc24fe88cf 	{ ae_slaasq56s	aeq3, aeq0, a8; nop }
    2605:	fc84ff1fef 	{ ae_trunca32q48	a15, aeq1; ae_satq48s	aeq0, aeq3 }
    260a:	368904        	ae_trunca32q48	a9, aeq0
    260d:	d28f90        	quos	a8, a15, a9
    2610:	a88d           	ae_clamps16	a8, a8
    2612:	ffe446        	j	25a7 <fn_calc_sup_gain+0x6c3>

00002615 <fn_calc_sup_gain+0x731>:
    2615:	041b22        	l16ui	a2, a11, 8
    2618:	0bad           	mov.n	a10, a11
    261a:	1121b2        	l32i	a11, a1, 68
    261d:	a28c           	beqz.n	a2, 262b <fn_calc_sup_gain+0x747>
    261f:	f6ac21        	l32r	a2, d0 (ed0 <calc_amt>)
    2622:	1221c2        	l32i	a12, a1, 72
    2625:	1521d2        	l32i	a13, a1, 84
    2628:	0002e0        	callx8	a2
    262b:	f01d           	retw.n

0000262d <fn_calc_sup_gain+0x749>:
    262d:	000000                                        ...

00002630 <fn_ini_win_detection>:
    2630:	004136        	entry	a1, 32
    2633:	f69151        	l32r	a5, 78 (90e4 <xt_memset>)
    2636:	0b0c           	movi.n	a11, 0
    2638:	64a2c2        	movi	a12, 0x264
    263b:	02ad           	mov.n	a10, a2
    263d:	0005e0        	callx8	a5
    2640:	f67a51        	l32r	a5, 28 (90f8 <xt_memcpy>)
    2643:	8c1c           	movi.n	a12, 24
    2645:	02ad           	mov.n	a10, a2
    2647:	03bd           	mov.n	a11, a3
    2649:	0005e0        	callx8	a5
    264c:	9238           	l32i.n	a3, a2, 36
    264e:	029252        	l16si	a5, a2, 4
    2651:	1e0c           	movi.n	a14, 1
    2653:	185252        	s16i	a5, a2, 48
    2656:	195252        	s16i	a5, a2, 50
    2659:	015e80        	slli	a5, a14, 24
    265c:	04d2f2        	addmi	a15, a2, 0x400
    265f:	335a           	add.n	a3, a3, a5
    2661:	306f42        	s32i	a4, a15, 192
    2664:	2e6f32        	s32i	a3, a15, 184
    2667:	f01d           	retw.n

00002669 <fn_ini_win_detection+0x39>:
    2669:	000000                                        ...

0000266c <fn_win_detection>:
    266c:	00a136        	entry	a1, 80
    266f:	fc2094516f 	{ s32i.n	a6, a1, 20; ae_zerop48	aep0 }
    2674:	071262        	l16ui	a6, a2, 14
    2677:	0f0c           	movi.n	a15, 0
    2679:	9179           	s32i.n	a7, a1, 36
    267b:	868d           	ae_sext16	a8, a6
    267d:	6129           	s32i.n	a2, a1, 24
    267f:	41f9           	s32i.n	a15, a1, 16
    2681:	1e68a6        	blti	a8, 6, 26a3 <fn_win_detection+0x37>
    2684:	fcc662        	addi	a6, a6, -4
    2687:	10c522        	addi	a2, a5, 16
    268a:	4f0c           	movi.n	a15, 4
    268c:	216160        	srai	a6, a6, 1
    268f:	5ca204        	ae_lp24x2f.iu	aep2, a2, 0
    2692:	399ff4        	ae_movpa24x2	aep1, a15, a15
    2695:	0a8676        	loop	a6, 26a3 <fn_win_detection+0x37>
    2698:	07a124        	ae_addsp24s	aep2, aep2, aep1
    269b:	0f21a4        	ae_sraip24	aep2, aep2, 3
    269e:	d8412fa21f 	{ ae_lp24x2f.iu	aep2, a2, 8; ae_addsp24s	aep0, aep0, aep2 }

000026a3 <fn_win_detection+0x37>:
    26a3:	1a8894        	ae_selp24.hh	aep1, aep0, aep0
    26a6:	d82100016f 	{ movi	a6, 1; ae_addsp24s	aep0, aep0, aep1 }
    26ab:	520144        	ae_sp24f.l.i	aep0, a1, 16
    26ae:	4128           	l32i.n	a2, a1, 16
    26b0:	116610        	slli	a6, a6, 15
    26b3:	21a820        	srai	a10, a2, 8
    26b6:	f66e21        	l32r	a2, 70 (cb4 <fxlog10>)
    26b9:	0002e0        	callx8	a2
    26bc:	f67151        	l32r	a5, 80 (d49a <mel_tab64+0x33a>)
    26bf:	61e8           	l32i.n	a14, a1, 24
    26c1:	825a50        	mull	a5, a10, a5
    26c4:	029e82        	l16si	a8, a14, 4
    26c7:	556a           	add.n	a5, a5, a6
    26c9:	f56050        	extui	a6, a5, 16, 16
    26cc:	315050        	srai	a5, a5, 16
    26cf:	725580        	salt	a5, a5, a8
    26d2:	189e22        	l16si	a2, a14, 48
    26d5:	936850        	movnez	a6, a8, a5
    26d8:	866d           	ae_sext16	a6, a6
    26da:	690c           	movi.n	a9, 6
    26dc:	8b0c           	movi.n	a11, 8
    26de:	72f260        	salt	a15, a2, a6
    26e1:	93b9f0        	movnez	a11, a9, a15
    26e4:	8eba           	add.n	a8, a14, a11
    26e6:	288d           	ae_l16si.n	a8, a8, 0
    26e8:	c0f620        	sub	a15, a6, a2
    26eb:	af9d           	ae_clamps16	a9, a15
    26ed:	d18980        	mul16s	a8, a9, a8
    26f0:	199ec2        	l16si	a12, a14, 50
    26f3:	40d882        	addmi	a8, a8, 0x4000
    26f6:	1188f0        	slli	a8, a8, 1
    26f9:	318080        	srai	a8, a8, 16
    26fc:	282a           	add.n	a2, a8, a2
    26fe:	c0b6c0        	sub	a11, a6, a12
    2701:	ad0c           	movi.n	a13, 10
    2703:	ca0c           	movi.n	a10, 12
    2705:	726c60        	salt	a6, a12, a6
    2708:	93ad60        	movnez	a10, a13, a6
    270b:	a22d           	ae_clamps16	a2, a2
    270d:	6eaa           	add.n	a6, a14, a10
    270f:	185e22        	s16i	a2, a14, 48
    2712:	266d           	ae_l16si.n	a6, a6, 0
    2714:	2e5d           	ae_l16si.n	a5, a14, 0
    2716:	abdd           	ae_clamps16	a13, a11
    2718:	d1fd60        	mul16s	a15, a13, a6
    271b:	225a           	add.n	a2, a2, a5
    271d:	40df52        	addmi	a5, a15, 0x4000
    2720:	1155f0        	slli	a5, a5, 1
    2723:	315050        	srai	a5, a5, 16
    2726:	55ca           	add.n	a5, a5, a12
    2728:	a55d           	ae_clamps16	a5, a5
    272a:	a22d           	ae_clamps16	a2, a2
    272c:	195e52        	s16i	a5, a14, 50
    272f:	04a257        	bge	a2, a5, 2737 <fn_win_detection+0xcb>
    2732:	120c           	movi.n	a2, 1
    2734:	0003c6        	j	2747 <fn_win_detection+0xdb>

00002737 <fn_win_detection+0xcb>:
    2737:	1a1e22        	l16ui	a2, a14, 52
    273a:	1b9e52        	l16si	a5, a14, 54
    273d:	3e6d           	ae_l16si.n	a6, a14, 2
    273f:	091266        	bnei	a2, 1, 274c <fn_win_detection+0xe0>
    2742:	06a657        	bge	a6, a5, 274c <fn_win_detection+0xe0>
    2745:	020c           	movi.n	a2, 0
    2747:	de29           	s32i.n	a2, a14, 52
    2749:	000106        	j	2751 <fn_win_detection+0xe5>

0000274c <fn_win_detection+0xe0>:
    274c:	551b           	addi.n	a5, a5, 1
    274e:	1b5e52        	s16i	a5, a14, 54
    2751:	51b8           	l32i.n	a11, a1, 20
    2753:	9ec8           	l32i.n	a12, a14, 36
    2755:	7ef8           	l32i.n	a15, a14, 28
    2757:	4e88           	l32i.n	a8, a14, 16
    2759:	142192        	l32i	a9, a1, 80
    275c:	04de52        	addmi	a5, a14, 0x400
    275f:	04ad           	mov.n	a10, a4
    2761:	6b2d           	ae_s16i.n	a2, a11, 0
    2763:	38a262        	movi	a6, 0x238
    2766:	412ec0        	srli	a2, a12, 14
    2769:	7199           	s32i.n	a9, a1, 28
    276b:	8159           	s32i.n	a5, a1, 32
    276d:	070c           	movi.n	a7, 0
    276f:	4158f0        	srli	a5, a15, 8
    2772:	38a4b2        	movi	a11, 0x438
    2775:	38ce42        	addi	a4, a14, 56
    2778:	38a192        	movi	a9, 0x138
    277b:	6e6a           	add.n	a6, a14, a6
    277d:	398574        	ae_movpa24x2	aep0, a5, a7
    2780:	5e9a           	add.n	a5, a14, a9
    2782:	feba           	add.n	a15, a14, a11
    2784:	04bd           	mov.n	a11, a4
    2786:	418880        	srli	a8, a8, 8
    2789:	04d222        	addmi	a2, a2, 0x400
    278c:	0d4c           	movi.n	a13, 64
    278e:	a129           	s32i.n	a2, a1, 40
    2790:	5cd304        	ae_lp24x2f.iu	aep5, a3, 0
    2793:	5cea04        	ae_lp24x2f.iu	aep6, a10, 0
    2796:	4179           	s32i.n	a7, a1, 16
    2798:	399884        	ae_movpa24x2	aep1, a8, a8
    279b:	5ca604        	ae_lp24x2f.iu	aep2, a6, 0
    279e:	50bb04        	ae_lp24f.iu	aep3, a11, 0
    27a1:	50c504        	ae_lp24f.iu	aep4, a5, 0
    27a4:	020c           	movi.n	a2, 0
    27a6:	178d76        	loop	a13, 27c1 <fn_win_detection+0x155>
    27a9:	0301d0        	rsr.lend	a13
    27ac:	1300d0        	wsr.lbeg	a13
    27af:	f64ad1        	l32r	a13, d8 (28e8 <fn_win_detection+0x27c>)
    27b2:	0020f0        	nop
    27b5:	1301d0        	wsr.lend	a13
    27b8:	002000        	isync
    27bb:	0302d0        	rsr.lcount	a13
    27be:	01cdd2        	addi	a13, a13, 1
    27c1:	db1570a1de 	{ l32i	a13, a1, 40; ae_addsp24s	aep7, aep5, aep0 }
    27c6:	db1901019f 	{ movi	a9, 0x101; ae_addsp24s	aep6, aep6, aep0 }
    27cb:	f0de94b1af 	{ s32i.n	a10, a1, 44; ae_mulzaafp24s.hh.ll	aeq0, aep7, aep6 }
    27d0:	04f694        	ae_mulzsafp24s.hl.lh	aeq2, aep7, aep6
    27d3:	f1dafac20f 	{ ae_sllisq56s	aeq0, aeq0, 8; ae_mulzaafp24s.hh.ll	aeq3, aep6, aep6 }
    27d8:	f0fefae28f 	{ ae_sllisq56s	aeq2, aeq2, 8; ae_mulzaafp24s.hh.ll	aeq1, aep7, aep7 }
    27dd:	fc00faf2cf 	{ ae_sllisq56s	aeq3, aeq3, 8; ae_satq48s	aeq0, aeq0 }
    27e2:	fb67bad24f 	{ ae_sllisq56s	aeq1, aeq1, 8; ae_roundsp24q48asym	aep6, aeq0 }
    27e7:	060a44        	ae_satq48s	aeq0, aeq2
    27ea:	068b44        	ae_satq48s	aeq2, aeq3
    27ed:	1b8d74        	ae_roundsp24q48asym	aep7, aeq0
    27f0:	07e2d4        	ae_subsp24s	aep5, aep6, aep2
    27f3:	07f2e4        	ae_subsp24s	aep6, aep7, aep2
    27f6:	064944        	ae_satq48s	aeq1, aeq1
    27f9:	1bad74        	ae_roundsp24q48asym	aep7, aeq2
    27fc:	01d944        	ae_mulfp24s.hh	aeq3, aep5, aep1
    27ff:	1b9d54        	ae_roundsp24q48asym	aep5, aeq1
    2802:	016964        	ae_mulfp24s.lh	aeq1, aep6, aep1
    2805:	07f4e4        	ae_subsp24s	aep6, aep7, aep4
    2808:	01e144        	ae_mulfp24s.hh	aeq2, aep6, aep1
    280b:	07d3d4        	ae_subsp24s	aep5, aep5, aep3
    280e:	1bbd64        	ae_roundsp24q48asym	aep6, aeq3
    2811:	01d944        	ae_mulfp24s.hh	aeq3, aep5, aep1
    2814:	1bad74        	ae_roundsp24q48asym	aep7, aeq2
    2817:	07c744        	ae_addsp24s	aep4, aep4, aep7
    281a:	1bbd74        	ae_roundsp24q48asym	aep7, aeq3
    281d:	07b734        	ae_addsp24s	aep3, aep3, aep7
    2820:	01bc74        	ae_mulfp24s.ll	aeq3, aep3, aep4
    2823:	1b9d74        	ae_roundsp24q48asym	aep7, aeq1
    2826:	fc3c40ffcf 	{ movi	a12, 255; ae_roundsq32asym	aeq0, aeq3 }
    282b:	dbc93f08ef 	{ ae_trunca32q48	a8, aeq0; ae_addsp24s	aep6, aep2, aep6 }
    2830:	07a774        	ae_addsp24s	aep7, aep2, aep7
    2833:	1aef24        	ae_selp24.hl	aep2, aep6, aep7
    2836:	f04ab6a60f 	{ ae_sp24x2f.iu	aep2, a6, 0; ae_mulzaafp24s.hh.ll	aeq0, aep2, aep2 }
    283b:	52bb04        	ae_sp24f.l.iu	aep3, a11, 0
    283e:	52c504        	ae_sp24f.l.iu	aep4, a5, 0
    2841:	2f2897        	blt	a8, a9, 2874 <fn_win_detection+0x208>
    2844:	7fdcd2        	addmi	a13, a12, 0x7f00
    2847:	fc247ec87f 	{ ae_cvtq48a32s	aeq1, a8; ae_roundsq32asym	aeq0, aeq0 }
    284c:	368904        	ae_trunca32q48	a9, aeq0
    284f:	40e8a0        	nsa	a10, a8
    2852:	8acd           	ae_sext16	a12, a10
    2854:	1ca987        	bge	a9, a8, 2874 <fn_win_detection+0x208>
    2857:	360934        	ae_cvtq48a32s	aeq0, a9
    285a:	f1cc82        	addi	a8, a12, -15
    285d:	fc24fe8c0f 	{ ae_slaasq56s	aeq0, aeq0, a12; nop }
    2862:	fc00fe984f 	{ ae_slaasq56s	aeq1, aeq1, a8; ae_satq48s	aeq0, aeq0 }
    2867:	fd04ff0def 	{ ae_trunca32q48	a13, aeq0; ae_satq48s	aeq1, aeq1 }
    286c:	369e04        	ae_trunca32q48	a14, aeq1
    286f:	d28de0        	quos	a8, a13, a14
    2872:	a8dd           	ae_clamps16	a13, a8
    2874:	119d00        	slli	a9, a13, 16
    2877:	219890        	srai	a9, a9, 8
    287a:	318f70        	srai	a8, a7, 31
    287d:	797a           	add.n	a7, a9, a7
    287f:	fa7c           	movi.n	a10, -1
    2881:	04e8           	l32i.n	a14, a4, 0
    2883:	629790        	saltu	a9, a7, a9
    2886:	889a           	add.n	a8, a8, a9
    2888:	01aa10        	slli	a10, a10, 31
    288b:	73c7a0        	maxu	a12, a7, a10
    288e:	981b           	addi.n	a9, a8, 1
    2890:	a37a80        	movltz	a7, a10, a8
    2893:	837c90        	moveqz	a7, a12, a9
    2896:	319f20        	srai	a9, a2, 31
    2899:	31cfe0        	srai	a12, a14, 31
    289c:	2e2a           	add.n	a2, a14, a2
    289e:	9c9a           	add.n	a9, a12, a9
    28a0:	62e2e0        	saltu	a14, a2, a14
    28a3:	99ea           	add.n	a9, a9, a14
    28a5:	73c2a0        	maxu	a12, a2, a10
    28a8:	a32a90        	movltz	a2, a10, a9
    28ab:	e91b           	addi.n	a14, a9, 1
    28ad:	832ce0        	moveqz	a2, a12, a14
    28b0:	f603e1        	l32r	a14, bc (7fffff00 <_end+0x7fff109c>)
    28b3:	fa7c           	movi.n	a10, -1
    28b5:	5388a0        	max	a8, a8, a10
    28b8:	0ecd           	mov.n	a12, a14
    28ba:	a3c780        	movltz	a12, a7, a8
    28bd:	6377e0        	minu	a7, a7, a14
    28c0:	5399a0        	max	a9, a9, a10
    28c3:	b1a8           	l32i.n	a10, a1, 44
    28c5:	937c80        	movnez	a7, a12, a8
    28c8:	0ecd           	mov.n	a12, a14
    28ca:	6fdd           	ae_s16i.n	a13, a15, 0
    28cc:	a3c290        	movltz	a12, a2, a9
    28cf:	6322e0        	minu	a2, a2, a14
    28d2:	932c90        	movnez	a2, a12, a9
    28d5:	444b           	addi.n	a4, a4, 4
    28d7:	ff2b           	addi.n	a15, a15, 2
    28d9:	5cd314        	ae_lp24x2f.iu	aep5, a3, 8
    28dc:	5cea14        	ae_lp24x2f.iu	aep6, a10, 8
    28df:	5ca614        	ae_lp24x2f.iu	aep2, a6, 8
    28e2:	50bb14        	ae_lp24f.iu	aep3, a11, 4
    28e5:	50c514        	ae_lp24f.iu	aep4, a5, 4

000028e8 <fn_win_detection+0x27c>:
    28e8:	61b8           	l32i.n	a11, a1, 24
    28ea:	7158           	l32i.n	a5, a1, 28
    28ec:	fc7c           	movi.n	a12, -1
    28ee:	04db32        	addmi	a3, a11, 0x400
    28f1:	2e2342        	l32i	a4, a3, 184
    28f4:	01cc10        	slli	a12, a12, 31
    28f7:	4179           	s32i.n	a7, a1, 16
    28f9:	021526        	beqi	a5, 1, 28ff <fn_win_detection+0x293>
    28fc:	0030c6        	j	29c3 <fn_win_detection+0x357>
    28ff:	ab68           	l32i.n	a6, a11, 40
    2901:	212620        	srai	a2, a2, 6
    2904:	00af52        	movi	a5, 0xffffff00
    2907:	102250        	and	a2, a2, a5
    290a:	02a267        	bge	a2, a6, 2910 <fn_win_detection+0x2a4>
    290d:	002c86        	j	29c3 <fn_win_detection+0x357>
    2910:	315f40        	srai	a5, a4, 31
    2913:	312f70        	srai	a2, a7, 31
    2916:	626740        	saltu	a6, a7, a4
    2919:	c02250        	sub	a2, a2, a5
    291c:	c06260        	sub	a6, a2, a6
    291f:	c08740        	sub	a8, a7, a4
    2922:	7398c0        	maxu	a9, a8, a12
    2925:	261b           	addi.n	a2, a6, 1
    2927:	a38c60        	movltz	a8, a12, a6
    292a:	838920        	moveqz	a8, a9, a2
    292d:	f27c           	movi.n	a2, -1
    292f:	536620        	max	a6, a6, a2
    2932:	0efd           	mov.n	a15, a14
    2934:	a3f860        	movltz	a15, a8, a6
    2937:	6388e0        	minu	a8, a8, a14
    293a:	938f60        	movnez	a8, a15, a6
    293d:	216880        	srai	a6, a8, 8
    2940:	04a477        	bge	a4, a7, 2948 <fn_win_detection+0x2dc>
    2943:	5b88           	l32i.n	a8, a11, 20
    2945:	000046        	j	294a <fn_win_detection+0x2de>

00002948 <fn_win_detection+0x2dc>:
    2948:	6b88           	l32i.n	a8, a11, 24
    294a:	218880        	srai	a8, a8, 8
    294d:	190c           	movi.n	a9, 1
    294f:	82a680        	mull	a10, a6, a8
    2952:	019990        	slli	a9, a9, 23
    2955:	b2d680        	mulsh	a13, a6, a8
    2958:	05ffa0        	extui	a15, a10, 31, 1
    295b:	909a90        	addx2	a9, a10, a9
    295e:	11aaf0        	slli	a10, a10, 1
    2961:	906df0        	addx2	a6, a13, a15
    2964:	62d9a0        	saltu	a13, a9, a10
    2967:	66da           	add.n	a6, a6, a13
    2969:	759890        	extui	a9, a9, 24, 8
    296c:	118680        	slli	a8, a6, 8
    296f:	31f860        	srai	a15, a6, 24
    2972:	898a           	add.n	a8, a9, a8
    2974:	f56060        	extui	a6, a6, 16, 16
    2977:	119f80        	slli	a9, a15, 8
    297a:	0a7690        	depbits	a9, a6, 0, 8
    297d:	116880        	slli	a6, a8, 8
    2980:	73f6c0        	maxu	a15, a6, a12
    2983:	d91b           	addi.n	a13, a9, 1
    2985:	a36c90        	movltz	a6, a12, a9
    2988:	836fd0        	moveqz	a6, a15, a13
    298b:	539920        	max	a9, a9, a2
    298e:	0efd           	mov.n	a15, a14
    2990:	a3f690        	movltz	a15, a6, a9
    2993:	6366e0        	minu	a6, a6, a14
    2996:	936f90        	movnez	a6, a15, a9
    2999:	0d0c           	movi.n	a13, 0
    299b:	464a           	add.n	a4, a6, a4
    299d:	4389d0        	min	a8, a9, a13
    29a0:	585a           	add.n	a5, a8, a5
    29a2:	626460        	saltu	a6, a4, a6
    29a5:	556a           	add.n	a5, a5, a6
    29a7:	73a4c0        	maxu	a10, a4, a12
    29aa:	651b           	addi.n	a6, a5, 1
    29ac:	a34c50        	movltz	a4, a12, a5
    29af:	53d520        	max	a13, a5, a2
    29b2:	834a60        	moveqz	a4, a10, a6
    29b5:	0efd           	mov.n	a15, a14
    29b7:	a3f4d0        	movltz	a15, a4, a13
    29ba:	6344e0        	minu	a4, a4, a14
    29bd:	934fd0        	movnez	a4, a15, a13
    29c0:	2e6342        	s32i	a4, a3, 184
    29c3:	8b28           	l32i.n	a2, a11, 32
    29c5:	250c           	movi.n	a5, 2
    29c7:	9b38           	l32i.n	a3, a11, 36
    29c9:	022427        	blt	a4, a2, 29cf <fn_win_detection+0x363>
    29cc:	725430        	salt	a5, a4, a3
    29cf:	04db22        	addmi	a2, a11, 0x400
    29d2:	9148           	l32i.n	a4, a1, 36
    29d4:	2f2232        	l32i	a3, a2, 188
    29d7:	316f70        	srai	a6, a7, 31
    29da:	645d           	ae_s16i.n	a5, a4, 0
    29dc:	074d           	mov.n	a4, a7
    29de:	022377        	blt	a3, a7, 29e4 <fn_win_detection+0x378>
    29e1:	002606        	j	2a7d <fn_win_detection+0x411>
    29e4:	314f30        	srai	a4, a3, 31
    29e7:	628730        	saltu	a8, a7, a3
    29ea:	c06640        	sub	a6, a6, a4
    29ed:	c06680        	sub	a6, a6, a8
    29f0:	c09730        	sub	a9, a7, a3
    29f3:	73a9c0        	maxu	a10, a9, a12
    29f6:	f57c           	movi.n	a5, -1
    29f8:	861b           	addi.n	a8, a6, 1
    29fa:	a39c60        	movltz	a9, a12, a6
    29fd:	839a80        	moveqz	a9, a10, a8
    2a00:	0efd           	mov.n	a15, a14
    2a02:	536650        	max	a6, a6, a5
    2a05:	a3f960        	movltz	a15, a9, a6
    2a08:	6399e0        	minu	a9, a9, a14
    2a0b:	f5b281        	l32r	a8, d4 (333334 <_end+0x3244d0>)
    2a0e:	939f60        	movnez	a9, a15, a6
    2a11:	219890        	srai	a9, a9, 8
    2a14:	1d0c           	movi.n	a13, 1
    2a16:	82f980        	mull	a15, a9, a8
    2a19:	016d90        	slli	a6, a13, 23
    2a1c:	6f6a           	add.n	a6, a15, a6
    2a1e:	b28980        	mulsh	a8, a9, a8
    2a21:	62a6f0        	saltu	a10, a6, a15
    2a24:	88aa           	add.n	a8, a8, a10
    2a26:	756860        	extui	a6, a6, 24, 8
    2a29:	119880        	slli	a9, a8, 8
    2a2c:	31d880        	srai	a13, a8, 24
    2a2f:	669a           	add.n	a6, a6, a9
    2a31:	119d80        	slli	a9, a13, 8
    2a34:	f58080        	extui	a8, a8, 16, 16
    2a37:	0a7890        	depbits	a9, a8, 0, 8
    2a3a:	116680        	slli	a6, a6, 8
    2a3d:	73f6c0        	maxu	a15, a6, a12
    2a40:	891b           	addi.n	a8, a9, 1
    2a42:	a36c90        	movltz	a6, a12, a9
    2a45:	836f80        	moveqz	a6, a15, a8
    2a48:	539950        	max	a9, a9, a5
    2a4b:	0efd           	mov.n	a15, a14
    2a4d:	a3f690        	movltz	a15, a6, a9
    2a50:	6366e0        	minu	a6, a6, a14
    2a53:	936f90        	movnez	a6, a15, a9
    2a56:	0d0c           	movi.n	a13, 0
    2a58:	a63a           	add.n	a10, a6, a3
    2a5a:	4389d0        	min	a8, a9, a13
    2a5d:	484a           	add.n	a4, a8, a4
    2a5f:	626a60        	saltu	a6, a10, a6
    2a62:	446a           	add.n	a4, a4, a6
    2a64:	73dac0        	maxu	a13, a10, a12
    2a67:	a3ac40        	movltz	a10, a12, a4
    2a6a:	641b           	addi.n	a6, a4, 1
    2a6c:	535450        	max	a5, a4, a5
    2a6f:	93da60        	movnez	a13, a10, a6
    2a72:	0efd           	mov.n	a15, a14
    2a74:	a3fd50        	movltz	a15, a13, a5
    2a77:	634de0        	minu	a4, a13, a14
    2a7a:	934f50        	movnez	a4, a15, a5
    2a7d:	bb38           	l32i.n	a3, a11, 44
    2a7f:	2f6242        	s32i	a4, a2, 188
    2a82:	5158           	l32i.n	a5, a1, 20
    2a84:	03a347        	bge	a3, a4, 2a8b <fn_win_detection+0x41f>
    2a87:	020c           	movi.n	a2, 0
    2a89:	652d           	ae_s16i.n	a2, a5, 0
    2a8b:	8128           	l32i.n	a2, a1, 32
    2a8d:	302222        	l32i	a2, a2, 192
    2a90:	0279           	s32i.n	a7, a2, 0
    2a92:	f01d           	retw.n

00002a94 <fn_calc_pow>:
    2a94:	004136        	entry	a1, 32
    2a97:	1fa457        	bge	a4, a5, 2aba <fn_calc_pow+0x26>
    2a9a:	c04540        	sub	a4, a5, a4
    2a9d:	5c8204        	ae_lp24x2f.iu	aep0, a2, 0
    2aa0:	fcc332        	addi	a3, a3, -4
    2aa3:	f03d           	nop.n
    2aa5:	118476        	loop	a4, 2aba <fn_calc_pow+0x26>
    2aa8:	040004        	ae_mulzaafp24s.hh.ll	aeq0, aep0, aep0
    2aab:	360114        	ae_sllisq56s	aeq0, aeq0, 4
    2aae:	060844        	ae_satq48s	aeq0, aeq0
    2ab1:	060934        	ae_roundsq32asym	aeq0, aeq0
    2ab4:	624314        	ae_sq32f.iu	aeq0, a3, 4
    2ab7:	5c8214        	ae_lp24x2f.iu	aep0, a2, 8

00002aba <fn_calc_pow+0x26>:
    2aba:	f01d           	retw.n

00002abc <fn_low_bin_noise_est>:
    2abc:	006136        	entry	a1, 48
    2abf:	04d292        	addmi	a9, a2, 0x400
    2ac2:	282982        	l32i	a8, a9, 160
    2ac5:	3d99f2        	l16si	a15, a9, 122
    2ac8:	31f9           	s32i.n	a15, a1, 12
    2aca:	05fd           	mov.n	a15, a5
    2acc:	021626        	beqi	a6, 1, 2ad2 <fn_low_bin_noise_est+0x16>
    2acf:	006f86        	j	2c91 <fn_low_bin_noise_est+0x1d5>
    2ad2:	04d262        	addmi	a6, a2, 0x400
    2ad5:	820662        	l8ui	a6, a6, 130
    2ad8:	3178           	l32i.n	a7, a1, 12
    2ada:	f578b1        	l32r	a11, bc (7fffff00 <_end+0x7fff109c>)
    2add:	2ce657        	bbsi	a6, 5, 2b0d <fn_low_bin_noise_est+0x51>
    2ae0:	04d262        	addmi	a6, a2, 0x400
    2ae3:	3e9692        	l16si	a9, a6, 124
    2ae6:	31f8           	l32i.n	a15, a1, 12
    2ae8:	08bd           	mov.n	a11, a8
    2aea:	99ad           	ae_zext16	a10, a9
    2aec:	116ff0        	slli	a6, a15, 1
    2aef:	0219e6        	bgei	a9, 1, 2af5 <fn_low_bin_noise_est+0x39>
    2af2:	004106        	j	2bfa <fn_low_bin_noise_est+0x13e>
    2af5:	11caf0        	slli	a12, a10, 1
    2af8:	090c           	movi.n	a9, 0
    2afa:	20a550        	or	a10, a5, a5
    2afd:	098c76        	loop	a12, 2b0a <fn_low_bin_noise_est+0x4e>
    2b00:	0a78           	l32i.n	a7, a10, 0
    2b02:	0b79           	s32i.n	a7, a11, 0
    2b04:	aa4b           	addi.n	a10, a10, 4
    2b06:	991b           	addi.n	a9, a9, 1
    2b08:	bb4b           	addi.n	a11, a11, 4

00002b0a <fn_low_bin_noise_est+0x4e>:
    2b0a:	003b86        	j	2bfc <fn_low_bin_noise_est+0x140>

00002b0d <fn_low_bin_noise_est+0x51>:
    2b0d:	076d           	mov.n	a6, a7
    2b0f:	0217e6        	bgei	a7, 1, 2b15 <fn_low_bin_noise_est+0x59>
    2b12:	007b46        	j	2d03 <fn_low_bin_noise_est+0x247>
    2b15:	fd7c           	movi.n	a13, -1
    2b17:	1c0c           	movi.n	a12, 1
    2b19:	f8a3e2        	movi	a14, 0x3f8
    2b1c:	22ea           	add.n	a2, a2, a14
    2b1e:	01dd10        	slli	a13, a13, 31
    2b21:	08ed           	mov.n	a14, a8
    2b23:	01cc90        	slli	a12, a12, 23
    2b26:	cd8676        	loop	a6, 2bf7 <fn_low_bin_noise_est+0x13b>
    2b29:	227d           	ae_l16si.n	a7, a2, 0
    2b2b:	05f8           	l32i.n	a15, a5, 0
    2b2d:	ffa3a2        	movi	a10, 0x3ff
    2b30:	117700        	slli	a7, a7, 16
    2b33:	2168f0        	srai	a6, a15, 8
    2b36:	21f870        	srai	a15, a7, 8
    2b39:	b27f60        	mulsh	a7, a15, a6
    2b3c:	826f60        	mull	a6, a15, a6
    2b3f:	1197b0        	slli	a9, a7, 5
    2b42:	727a70        	salt	a7, a10, a7
    2b45:	45ab60        	extui	a10, a6, 27, 5
    2b48:	1166b0        	slli	a6, a6, 5
    2b4b:	99aa           	add.n	a9, a9, a10
    2b4d:	a6ca           	add.n	a10, a6, a12
    2b4f:	626a60        	saltu	a6, a10, a6
    2b52:	696a           	add.n	a6, a9, a6
    2b54:	75a8a0        	extui	a10, a10, 24, 8
    2b57:	119680        	slli	a9, a6, 8
    2b5a:	9a9a           	add.n	a9, a10, a9
    2b5c:	31a860        	srai	a10, a6, 24
    2b5f:	f56060        	extui	a6, a6, 16, 16
    2b62:	11aa80        	slli	a10, a10, 8
    2b65:	119980        	slli	a9, a9, 8
    2b68:	0a76a0        	depbits	a10, a6, 0, 8
    2b6b:	060c           	movi.n	a6, 0
    2b6d:	93a670        	movnez	a10, a6, a7
    2b70:	939d70        	movnez	a9, a13, a7
    2b73:	7369d0        	maxu	a6, a9, a13
    2b76:	7a1b           	addi.n	a7, a10, 1
    2b78:	a39da0        	movltz	a9, a13, a10
    2b7b:	839670        	moveqz	a9, a6, a7
    2b7e:	f77c           	movi.n	a7, -1
    2b80:	536a70        	max	a6, a10, a7
    2b83:	0bad           	mov.n	a10, a11
    2b85:	a3a960        	movltz	a10, a9, a6
    2b88:	6399b0        	minu	a9, a9, a11
    2b8b:	939a60        	movnez	a9, a10, a6
    2b8e:	0e99           	s32i.n	a9, a14, 0
    2b90:	1598           	l32i.n	a9, a5, 4
    2b92:	222b           	addi.n	a2, a2, 2
    2b94:	558b           	addi.n	a5, a5, 8
    2b96:	216890        	srai	a6, a9, 8
    2b99:	b2a6f0        	mulsh	a10, a6, a15
    2b9c:	8266f0        	mull	a6, a6, a15
    2b9f:	ffa3f2        	movi	a15, 0x3ff
    2ba2:	727fa0        	salt	a7, a15, a10
    2ba5:	45fb60        	extui	a15, a6, 27, 5
    2ba8:	119ab0        	slli	a9, a10, 5
    2bab:	1166b0        	slli	a6, a6, 5
    2bae:	99fa           	add.n	a9, a9, a15
    2bb0:	f6ca           	add.n	a15, a6, a12
    2bb2:	626f60        	saltu	a6, a15, a6
    2bb5:	696a           	add.n	a6, a9, a6
    2bb7:	75a8f0        	extui	a10, a15, 24, 8
    2bba:	119680        	slli	a9, a6, 8
    2bbd:	31f860        	srai	a15, a6, 24
    2bc0:	9a9a           	add.n	a9, a10, a9
    2bc2:	11af80        	slli	a10, a15, 8
    2bc5:	f56060        	extui	a6, a6, 16, 16
    2bc8:	119980        	slli	a9, a9, 8
    2bcb:	0a76a0        	depbits	a10, a6, 0, 8
    2bce:	0f0c           	movi.n	a15, 0
    2bd0:	93af70        	movnez	a10, a15, a7
    2bd3:	939d70        	movnez	a9, a13, a7
    2bd6:	7379d0        	maxu	a7, a9, a13
    2bd9:	fa1b           	addi.n	a15, a10, 1
    2bdb:	a39da0        	movltz	a9, a13, a10
    2bde:	8397f0        	moveqz	a9, a7, a15
    2be1:	f77c           	movi.n	a7, -1
    2be3:	536a70        	max	a6, a10, a7
    2be6:	0bfd           	mov.n	a15, a11
    2be8:	a3f960        	movltz	a15, a9, a6
    2beb:	6399b0        	minu	a9, a9, a11
    2bee:	939f60        	movnez	a9, a15, a6
    2bf1:	1e99           	s32i.n	a9, a14, 4
    2bf3:	08fd           	mov.n	a15, a8
    2bf5:	ee8b           	addi.n	a14, a14, 8

00002bf7 <fn_low_bin_noise_est+0x13b>:
    2bf7:	002586        	j	2c91 <fn_low_bin_noise_est+0x1d5>

00002bfa <fn_low_bin_noise_est+0x13e>:
    2bfa:	090c           	movi.n	a9, 0
    2bfc:	08fd           	mov.n	a15, a8
    2bfe:	022967        	blt	a9, a6, 2c04 <fn_low_bin_noise_est+0x148>
    2c01:	002306        	j	2c91 <fn_low_bin_noise_est+0x1d5>
    2c04:	04d272        	addmi	a7, a2, 0x400
    2c07:	3c9772        	l16si	a7, a7, 120
    2c0a:	c0e960        	sub	a14, a9, a6
    2c0d:	f52bd1        	l32r	a13, bc (7fffff00 <_end+0x7fff109c>)
    2c10:	fb7c           	movi.n	a11, -1
    2c12:	60f0e0        	neg	a15, a14
    2c15:	117700        	slli	a7, a7, 16
    2c18:	a02980        	addx4	a2, a9, a8
    2c1b:	a05950        	addx4	a5, a9, a5
    2c1e:	01bb10        	slli	a11, a11, 31
    2c21:	fc7c           	movi.n	a12, -1
    2c23:	21e870        	srai	a14, a7, 8
    2c26:	ffa3a2        	movi	a10, 0x3ff
    2c29:	648f76        	loop	a15, 2c91 <fn_low_bin_noise_est+0x1d5>
    2c2c:	0578           	l32i.n	a7, a5, 0
    2c2e:	554b           	addi.n	a5, a5, 4
    2c30:	217870        	srai	a7, a7, 8
    2c33:	82fe70        	mull	a15, a14, a7
    2c36:	b27e70        	mulsh	a7, a14, a7
    2c39:	456bf0        	extui	a6, a15, 27, 5
    2c3c:	1197b0        	slli	a9, a7, 5
    2c3f:	696a           	add.n	a6, a9, a6
    2c41:	190c           	movi.n	a9, 1
    2c43:	11ffb0        	slli	a15, a15, 5
    2c46:	019990        	slli	a9, a9, 23
    2c49:	9f9a           	add.n	a9, a15, a9
    2c4b:	62f9f0        	saltu	a15, a9, a15
    2c4e:	66fa           	add.n	a6, a6, a15
    2c50:	759890        	extui	a9, a9, 24, 8
    2c53:	11f680        	slli	a15, a6, 8
    2c56:	99fa           	add.n	a9, a9, a15
    2c58:	31f860        	srai	a15, a6, 24
    2c5b:	f56060        	extui	a6, a6, 16, 16
    2c5e:	11ff80        	slli	a15, a15, 8
    2c61:	0a76f0        	depbits	a15, a6, 0, 8
    2c64:	116980        	slli	a6, a9, 8
    2c67:	727a70        	salt	a7, a10, a7
    2c6a:	090c           	movi.n	a9, 0
    2c6c:	93f970        	movnez	a15, a9, a7
    2c6f:	936b70        	movnez	a6, a11, a7
    2c72:	7396b0        	maxu	a9, a6, a11
    2c75:	7f1b           	addi.n	a7, a15, 1
    2c77:	a36bf0        	movltz	a6, a11, a15
    2c7a:	836970        	moveqz	a6, a9, a7
    2c7d:	0d9d           	mov.n	a9, a13
    2c7f:	53ffc0        	max	a15, a15, a12
    2c82:	a396f0        	movltz	a9, a6, a15
    2c85:	6366d0        	minu	a6, a6, a13
    2c88:	9369f0        	movnez	a6, a9, a15
    2c8b:	0269           	s32i.n	a6, a2, 0
    2c8d:	08fd           	mov.n	a15, a8
    2c8f:	224b           	addi.n	a2, a2, 4

00002c91 <fn_low_bin_noise_est+0x1d5>:
    2c91:	3178           	l32i.n	a7, a1, 12
    2c93:	6c17a6        	blti	a7, 1, 2d03 <fn_low_bin_noise_est+0x247>
    2c96:	b02780        	addx8	a2, a7, a8
    2c99:	5c8f04        	ae_lp24x2f.iu	aep0, a15, 0
    2c9c:	fcc252        	addi	a5, a2, -4
    2c9f:	118776        	loop	a7, 2cb4 <fn_low_bin_noise_est+0x1f8>
    2ca2:	040004        	ae_mulzaafp24s.hh.ll	aeq0, aep0, aep0
    2ca5:	360114        	ae_sllisq56s	aeq0, aeq0, 4
    2ca8:	060844        	ae_satq48s	aeq0, aeq0
    2cab:	060934        	ae_roundsq32asym	aeq0, aeq0
    2cae:	624514        	ae_sq32f.iu	aeq0, a5, 4
    2cb1:	5c8f14        	ae_lp24x2f.iu	aep0, a15, 8

00002cb4 <fn_low_bin_noise_est+0x1f8>:
    2cb4:	f50281        	l32r	a8, bc (7fffff00 <_end+0x7fff109c>)
    2cb7:	f57c           	movi.n	a5, -1
    2cb9:	015510        	slli	a5, a5, 31
    2cbc:	f67c           	movi.n	a6, -1
    2cbe:	190c           	movi.n	a9, 1
    2cc0:	00a1a2        	movi	a10, 0x100
    2cc3:	3c8776        	loop	a7, 2d03 <fn_low_bin_noise_est+0x247>
    2cc6:	0478           	l32i.n	a7, a4, 0
    2cc8:	02b8           	l32i.n	a11, a2, 0
    2cca:	08fd           	mov.n	a15, a8
    2ccc:	31cf70        	srai	a12, a7, 31
    2ccf:	31dfb0        	srai	a13, a11, 31
    2cd2:	62e7b0        	saltu	a14, a7, a11
    2cd5:	c0ccd0        	sub	a12, a12, a13
    2cd8:	c077b0        	sub	a7, a7, a11
    2cdb:	c0bce0        	sub	a11, a12, a14
    2cde:	73d750        	maxu	a13, a7, a5
    2ce1:	eb1b           	addi.n	a14, a11, 1
    2ce3:	a375b0        	movltz	a7, a5, a11
    2ce6:	53bb60        	max	a11, a11, a6
    2ce9:	837de0        	moveqz	a7, a13, a14
    2cec:	a3f7b0        	movltz	a15, a7, a11
    2cef:	637780        	minu	a7, a7, a8
    2cf2:	937fb0        	movnez	a7, a15, a11
    2cf5:	72b790        	salt	a11, a7, a9
    2cf8:	937ab0        	movnez	a7, a10, a11
    2cfb:	0379           	s32i.n	a7, a3, 0
    2cfd:	444b           	addi.n	a4, a4, 4
    2cff:	224b           	addi.n	a2, a2, 4
    2d01:	334b           	addi.n	a3, a3, 4

00002d03 <fn_low_bin_noise_est+0x247>:
    2d03:	f01d           	retw.n

00002d05 <fn_low_bin_noise_est+0x249>:
    2d05:	000000                                        ...

00002d08 <fn_low_bin_compensate_phase>:
    2d08:	00a136        	entry	a1, 80
    2d0b:	04d222        	addmi	a2, a2, 0x400
    2d0e:	a129           	s32i.n	a2, a1, 40
    2d10:	3d9222        	l16si	a2, a2, 122
    2d13:	f4ee71        	l32r	a7, cc (c44 <fxsqrt_ie>)
    2d16:	046d           	mov.n	a6, a4
    2d18:	0212e6        	bgei	a2, 1, 2d1e <fn_low_bin_compensate_phase+0x16>
    2d1b:	0046c6        	j	2e3a <fn_low_bin_compensate_phase+0x132>
    2d1e:	20c122        	addi	a2, a1, 32
    2d21:	5c9304        	ae_lp24x2f.iu	aep1, a3, 0
    2d24:	050c           	movi.n	a5, 0
    2d26:	5c8604        	ae_lp24x2f.iu	aep0, a6, 0
    2d29:	f00294912f 	{ s32i.n	a2, a1, 36; ae_mulzaafp24s.hh.ll	aeq0, aep0, aep0 }

00002d2e <fn_low_bin_compensate_phase+0x26>:
    2d2e:	9128           	l32i.n	a2, a1, 36
    2d30:	561124        	ae_sp24x2s.i	aep1, a1, 16
    2d33:	360054        	ae_sllisq56s	aeq0, aeq0, 1
    2d36:	fc00d4b16f 	{ s32i.n	a6, a1, 44; ae_satq48s	aeq0, aeq0 }
    2d3b:	fb67cfff6f 	{ movi	a6, -1; ae_roundsp24q48asym	aep7, aeq0 }
    2d40:	4e7204        	ae_sp24s.l.i	aep7, a2, 0
    2d43:	81a8           	l32i.n	a10, a1, 32
    2d45:	0007e0        	callx8	a7
    2d48:	312fa0        	srai	a2, a10, 31
    2d4b:	418da0        	srli	a8, a10, 13
    2d4e:	0122d0        	slli	a2, a2, 19
    2d51:	228a           	add.n	a2, a2, a8
    2d53:	019ad0        	slli	a9, a10, 19
    2d56:	016610        	slli	a6, a6, 31
    2d59:	73a960        	maxu	a10, a9, a6
    2d5c:	821b           	addi.n	a8, a2, 1
    2d5e:	a39620        	movltz	a9, a6, a2
    2d61:	fb7c           	movi.n	a11, -1
    2d63:	839a80        	moveqz	a9, a10, a8
    2d66:	41a1b0        	srli	a10, a11, 1
    2d69:	fd7c           	movi.n	a13, -1
    2d6b:	0acd           	mov.n	a12, a10
    2d6d:	5322d0        	max	a2, a2, a13
    2d70:	a3c920        	movltz	a12, a9, a2
    2d73:	6399a0        	minu	a9, a9, a10
    2d76:	0478           	l32i.n	a7, a4, 0
    2d78:	ffa0f2        	movi	a15, 255
    2d7b:	939c20        	movnez	a9, a12, a2
    2d7e:	1e0c           	movi.n	a14, 1
    2d80:	7fdf62        	addmi	a6, a15, 0x7f00
    2d83:	5389e0        	max	a8, a9, a14
    2d86:	062d           	mov.n	a2, a6
    2d88:	26a787        	bge	a7, a8, 2db2 <fn_low_bin_compensate_phase+0xaa>
    2d8b:	40e820        	nsa	a2, a8
    2d8e:	360734        	ae_cvtq48a32s	aeq0, a7
    2d91:	822d           	ae_sext16	a2, a2
    2d93:	fc24fe820f 	{ ae_slaasq56s	aeq0, aeq0, a2; nop }
    2d98:	fc00fec87f 	{ ae_cvtq48a32s	aeq1, a8; ae_satq48s	aeq0, aeq0 }
    2d9d:	f1c222        	addi	a2, a2, -15
    2da0:	fc24fe924f 	{ ae_slaasq56s	aeq1, aeq1, a2; nop }
    2da5:	fd04ff0eef 	{ ae_trunca32q48	a14, aeq0; ae_satq48s	aeq1, aeq1 }
    2daa:	369f04        	ae_trunca32q48	a15, aeq1
    2dad:	d22ef0        	quos	a2, a14, a15
    2db0:	a22d           	ae_clamps16	a2, a2
    2db2:	1498           	l32i.n	a9, a4, 4
    2db4:	540124        	ae_lp24x2.i	aep0, a1, 16
    2db7:	40e870        	nsa	a7, a8
    2dba:	23a987        	bge	a9, a8, 2de1 <fn_low_bin_compensate_phase+0xd9>
    2dbd:	360934        	ae_cvtq48a32s	aeq0, a9
    2dc0:	877d           	ae_sext16	a7, a7
    2dc2:	fc24fe870f 	{ ae_slaasq56s	aeq0, aeq0, a7; nop }
    2dc7:	fc00fec87f 	{ ae_cvtq48a32s	aeq1, a8; ae_satq48s	aeq0, aeq0 }
    2dcc:	f1c772        	addi	a7, a7, -15
    2dcf:	fc24fe974f 	{ ae_slaasq56s	aeq1, aeq1, a7; nop }
    2dd4:	fd04ff0eef 	{ ae_trunca32q48	a14, aeq0; ae_satq48s	aeq1, aeq1 }
    2dd9:	369f04        	ae_trunca32q48	a15, aeq1
    2ddc:	d27ef0        	quos	a7, a14, a15
    2ddf:	a76d           	ae_clamps16	a6, a7
    2de1:	040004        	ae_mulzaafp24s.hh.ll	aeq0, aep0, aep0
    2de4:	f4ba71        	l32r	a7, cc (c44 <fxsqrt_ie>)
    2de7:	360054        	ae_sllisq56s	aeq0, aeq0, 1
    2dea:	060844        	ae_satq48s	aeq0, aeq0
    2ded:	1b8d74        	ae_roundsp24q48asym	aep7, aeq0
    2df0:	4e7174        	ae_sp24s.l.i	aep7, a1, 28
    2df3:	71a8           	l32i.n	a10, a1, 28
    2df5:	0007e0        	callx8	a7
    2df8:	9aed           	ae_zext16	a14, a10
    2dfa:	300224        	ae_cvtp24a16x2.ll	aep0, a2, a2
    2dfd:	301ee4        	ae_cvtp24a16x2.ll	aep1, a14, a14
    2e00:	ea0598a66f 	{ ae_cvtp24a16x2.ll	aep2, a6, a6; ae_mulfp24s.ll	aeq0, aep1, aep0 }
    2e05:	ea45f0a1fe 	{ l32i	a15, a1, 40; ae_mulfp24s.ll	aeq1, aep1, aep2 }
    2e0a:	3600d4        	ae_sllisq56s	aeq0, aeq0, 3
    2e0d:	fc00fad0ff 	{ ae_sllisq56s	aeq3, aeq1, 3; ae_satq48s	aeq0, aeq0 }
    2e12:	fb67a3df2e 	{ l16si	a2, a15, 122; ae_roundsp24q48asym	aep6, aeq0 }
    2e17:	fc84f0b16e 	{ l32i	a6, a1, 44; ae_satq48s	aeq0, aeq3 }
    2e1c:	fb67c0155e 	{ addi	a5, a5, 1; ae_roundsp24q48asym	aep7, aeq0 }
    2e21:	dcf900844e 	{ addi	a4, a4, 8; ae_selp24.hh	aep0, aep6, aep7 }
    2e26:	5e8304        	ae_sp24x2f.iu	aep0, a3, 0
    2e29:	5c9314        	ae_lp24x2f.iu	aep1, a3, 8
    2e2c:	5c8614        	ae_lp24x2f.iu	aep0, a6, 8
    2e2f:	f002bf033f 	{ nop; ae_mulzaafp24s.hh.ll	aeq0, aep0, aep0 }
    2e34:	02a527        	bge	a5, a2, 2e3a <fn_low_bin_compensate_phase+0x132>
    2e37:	ffbcc6        	j	2d2e <fn_low_bin_compensate_phase+0x26>
    2e3a:	f01d           	retw.n

00002e3c <fn_calc_zp_gain>:
    2e3c:	008136        	entry	a1, 64
    2e3f:	08a462        	movi	a6, 0x408
    2e42:	01a372        	movi	a7, 0x301
    2e45:	626a           	add.n	a6, a2, a6
    2e47:	1177e0        	slli	a7, a7, 2
    2e4a:	7159           	s32i.n	a5, a1, 28
    2e4c:	4169           	s32i.n	a6, a1, 16
    2e4e:	627a           	add.n	a6, a2, a7
    2e50:	01a152        	movi	a5, 0x101
    2e53:	fcc272        	addi	a7, a2, -4
    2e56:	5c8304        	ae_lp24x2f.iu	aep0, a3, 0

00002e59 <fn_calc_zp_gain+0x1d>:
    2e59:	f0028007af 	{ movi	a10, 7; ae_mulzaafp24s.hh.ll	aeq0, aep0, aep0 }
    2e5e:	360054        	ae_sllisq56s	aeq0, aeq0, 1
    2e61:	060934        	ae_roundsq32asym	aeq0, aeq0
    2e64:	368804        	ae_trunca32q48	a8, aeq0
    2e67:	40e890        	nsa	a9, a8
    2e6a:	899d           	ae_sext16	a9, a9
    2e6c:	401900        	ssl	a9
    2e6f:	a1b800        	sll	a11, a8
    2e72:	f49a81        	l32r	a8, dc (8f8 <HIFI_sqrt_ie>)
    2e75:	c0aa90        	sub	a10, a10, a9
    2e78:	0008e0        	callx8	a8
    2e7b:	feca82        	addi	a8, a10, -2
    2e7e:	40eb90        	nsa	a9, a11
    2e81:	118800        	slli	a8, a8, 16
    2e84:	89cd           	ae_sext16	a12, a9
    2e86:	ff7c           	movi.n	a15, -1
    2e88:	319080        	srai	a9, a8, 16
    2e8b:	41a1f0        	srli	a10, a15, 1
    2e8e:	162c97        	blt	a12, a9, 2ea8 <fn_calc_zp_gain+0x6c>
    2e91:	401900        	ssl	a9
    2e94:	60f090        	neg	a15, a9
    2e97:	0a0c           	movi.n	a10, 0
    2e99:	a1cb00        	sll	a12, a11
    2e9c:	400f00        	ssr	a15
    2e9f:	728a80        	salt	a8, a10, a8
    2ea2:	b1a0b0        	sra	a10, a11
    2ea5:	93ac80        	movnez	a10, a12, a8
    2ea8:	ff24beca3f 	{ ae_cvtq48a32s	aeq0, a10; ae_zeroq56	aeq3 }
    2ead:	624614        	ae_sq32f.iu	aeq0, a6, 4
    2eb0:	624714        	ae_sq32f.iu	aeq0, a7, 4
    2eb3:	627614        	ae_sq32f.iu	aeq3, a6, 4
    2eb6:	550b           	addi.n	a5, a5, -1
    2eb8:	5c8314        	ae_lp24x2f.iu	aep0, a3, 8
    2ebb:	f9a556        	bnez	a5, 2e59 <fn_calc_zp_gain+0x1d>
    2ebe:	81a132        	movi	a3, 0x181
    2ec1:	4168           	l32i.n	a6, a1, 16
    2ec3:	1133d0        	slli	a3, a3, 3
    2ec6:	323a           	add.n	a3, a2, a3
    2ec8:	f47a51        	l32r	a5, b0 (5128 <real_512_ifft>)
    2ecb:	20a330        	or	a10, a3, a3
    2ece:	20b660        	or	a11, a6, a6
    2ed1:	0005e0        	callx8	a5
    2ed4:	fecaf2        	addi	a15, a10, -2
    2ed7:	205660        	or	a5, a6, a6
    2eda:	8f6d           	ae_sext16	a6, a15
    2edc:	601504        	ae_lq32f.iu	aeq0, a5, 0
    2edf:	00a272        	movi	a7, 0x200
    2ee2:	1316a6        	blti	a6, 1, 2ef9 <fn_calc_zp_gain+0xbd>
    2ee5:	0d8776        	loop	a7, 2ef6 <fn_calc_zp_gain+0xba>
    2ee8:	fc24fe860f 	{ ae_slaasq56s	aeq0, aeq0, a6; nop }
    2eed:	060844        	ae_satq48s	aeq0, aeq0
    2ef0:	624504        	ae_sq32f.iu	aeq0, a5, 0
    2ef3:	601514        	ae_lq32f.iu	aeq0, a5, 4

00002ef6 <fn_calc_zp_gain+0xba>:
    2ef6:	000506        	j	2f0e <fn_calc_zp_gain+0xd2>

00002ef9 <fn_calc_zp_gain+0xbd>:
    2ef9:	f03d           	nop.n
    2efb:	f03d           	nop.n
    2efd:	0d8776        	loop	a7, 2f0e <fn_calc_zp_gain+0xd2>
    2f00:	fc24fe860f 	{ ae_slaasq56s	aeq0, aeq0, a6; nop }
    2f05:	060934        	ae_roundsq32asym	aeq0, aeq0
    2f08:	624504        	ae_sq32f.iu	aeq0, a5, 0
    2f0b:	601514        	ae_lq32f.iu	aeq0, a5, 4

00002f0e <fn_calc_zp_gain+0xd2>:
    2f0e:	f47481        	l32r	a8, e0 (fffe7961 <_end+0xfffd8afd>)
    2f11:	dca472        	movi	a7, 0x4dc
    2f14:	6ba092        	movi	a9, 107
    2f17:	563c           	movi.n	a6, 53
    2f19:	553c           	movi.n	a5, 53
    2f1b:	727a           	add.n	a7, a2, a7
    2f1d:	108976        	loop	a9, 2f31 <fn_calc_zp_gain+0xf5>
    2f20:	0798           	l32i.n	a9, a7, 0
    2f22:	774b           	addi.n	a7, a7, 4
    2f24:	72f890        	salt	a15, a8, a9
    2f27:	53a980        	max	a10, a9, a8
    2f2a:	9356f0        	movnez	a5, a6, a15
    2f2d:	661b           	addi.n	a6, a6, 1
    2f2f:	0a8d           	mov.n	a8, a10

00002f31 <fn_calc_zp_gain+0xf5>:
    2f31:	f46ca1        	l32r	a10, e4 (e720 <scale_tab>)
    2f34:	4178           	l32i.n	a7, a1, 16
    2f36:	fb7c           	movi.n	a11, -1
    2f38:	1165e0        	slli	a6, a5, 2
    2f3b:	11d5f0        	slli	a13, a5, 1
    2f3e:	fe7c           	movi.n	a14, -1
    2f40:	4f1c           	movi.n	a15, 20
    2f42:	6169           	s32i.n	a6, a1, 24
    2f44:	51d9           	s32i.n	a13, a1, 20
    2f46:	01bb10        	slli	a11, a11, 31
    2f49:	fc7c           	movi.n	a12, -1
    2f4b:	4161e0        	srli	a6, a14, 1
    2f4e:	ea8f76        	loop	a15, 303c <fn_calc_zp_gain+0x200>
    2f51:	5158           	l32i.n	a5, a1, 20
    2f53:	5a5a           	add.n	a5, a10, a5
    2f55:	255d           	ae_l16si.n	a5, a5, 0
    2f57:	31df50        	srai	a13, a5, 31
    2f5a:	e5e150        	extui	a14, a5, 17, 15
    2f5d:	11dd10        	slli	a13, a13, 15
    2f60:	ddea           	add.n	a13, a13, a14
    2f62:	115510        	slli	a5, a5, 15
    2f65:	73f5b0        	maxu	a15, a5, a11
    2f68:	ed1b           	addi.n	a14, a13, 1
    2f6a:	a35bd0        	movltz	a5, a11, a13
    2f6d:	835fe0        	moveqz	a5, a15, a14
    2f70:	53ddc0        	max	a13, a13, a12
    2f73:	06fd           	mov.n	a15, a6
    2f75:	a3f5d0        	movltz	a15, a5, a13
    2f78:	635560        	minu	a5, a5, a6
    2f7b:	935fd0        	movnez	a5, a15, a13
    2f7e:	0d0c           	movi.n	a13, 0
    2f80:	056516        	beqz	a5, 2fda <fn_calc_zp_gain+0x19e>
    2f83:	2add           	ae_l16si.n	a13, a10, 0
    2f85:	31efd0        	srai	a14, a13, 31
    2f88:	c5f3d0        	extui	a15, a13, 19, 13
    2f8b:	11ee30        	slli	a14, a14, 13
    2f8e:	eefa           	add.n	a14, a14, a15
    2f90:	11dd30        	slli	a13, a13, 13
    2f93:	73fdb0        	maxu	a15, a13, a11
    2f96:	a3dbe0        	movltz	a13, a11, a14
    2f99:	8e1b           	addi.n	a8, a14, 1
    2f9b:	83df80        	moveqz	a13, a15, a8
    2f9e:	539ec0        	max	a9, a14, a12
    2fa1:	06fd           	mov.n	a15, a6
    2fa3:	a3fd90        	movltz	a15, a13, a9
    2fa6:	63ed60        	minu	a14, a13, a6
    2fa9:	93ef90        	movnez	a14, a15, a9
    2fac:	ffa0f2        	movi	a15, 255
    2faf:	7fdfd2        	addmi	a13, a15, 0x7f00
    2fb2:	24ae57        	bge	a14, a5, 2fda <fn_calc_zp_gain+0x19e>
    2fb5:	40e580        	nsa	a8, a5
    2fb8:	88dd           	ae_sext16	a13, a8
    2fba:	360e34        	ae_cvtq48a32s	aeq0, a14
    2fbd:	364534        	ae_cvtq48a32s	aeq1, a5
    2fc0:	f1cd52        	addi	a5, a13, -15
    2fc3:	fc24fe8d0f 	{ ae_slaasq56s	aeq0, aeq0, a13; nop }
    2fc8:	fc00fe954f 	{ ae_slaasq56s	aeq1, aeq1, a5; ae_satq48s	aeq0, aeq0 }
    2fcd:	fd04ff0eef 	{ ae_trunca32q48	a14, aeq0; ae_satq48s	aeq1, aeq1 }
    2fd2:	369f04        	ae_trunca32q48	a15, aeq1
    2fd5:	d25ef0        	quos	a5, a14, a15
    2fd8:	a5dd           	ae_clamps16	a13, a5

00002fda <fn_calc_zp_gain+0x19e>:
    2fda:	6158           	l32i.n	a5, a1, 24
    2fdc:	8d8d           	ae_sext16	a8, a13
    2fde:	1e0c           	movi.n	a14, 1
    2fe0:	575a           	add.n	a5, a7, a5
    2fe2:	0558           	l32i.n	a5, a5, 0
    2fe4:	11ee10        	slli	a14, a14, 15
    2fe7:	829580        	mull	a9, a5, a8
    2fea:	b25580        	mulsh	a5, a5, a8
    2fed:	25fd90        	extui	a15, a9, 29, 3
    2ff0:	11d9d0        	slli	a13, a9, 3
    2ff3:	b099e0        	addx8	a9, a9, a14
    2ff6:	b085f0        	addx8	a8, a5, a15
    2ff9:	62d9d0        	saltu	a13, a9, a13
    2ffc:	55a5f2        	movi	a15, 0x555
    2fff:	90eff0        	addx2	a14, a15, a15
    3002:	f59090        	extui	a9, a9, 16, 16
    3005:	88da           	add.n	a8, a8, a13
    3007:	725e50        	salt	a5, a14, a5
    300a:	0bf890        	depbits	a9, a8, 16, 16
    300d:	318080        	srai	a8, a8, 16
    3010:	0e0c           	movi.n	a14, 0
    3012:	938e50        	movnez	a8, a14, a5
    3015:	939b50        	movnez	a9, a11, a5
    3018:	7359b0        	maxu	a5, a9, a11
    301b:	a39b80        	movltz	a9, a11, a8
    301e:	d81b           	addi.n	a13, a8, 1
    3020:	8395d0        	moveqz	a9, a5, a13
    3023:	07d8           	l32i.n	a13, a7, 0
    3025:	06fd           	mov.n	a15, a6
    3027:	5388c0        	max	a8, a8, a12
    302a:	a3f980        	movltz	a15, a9, a8
    302d:	635960        	minu	a5, a9, a6
    3030:	935f80        	movnez	a5, a15, a8
    3033:	01a5d7        	bge	a5, a13, 3038 <fn_calc_zp_gain+0x1fc>
    3036:	0759           	s32i.n	a5, a7, 0
    3038:	774b           	addi.n	a7, a7, 4
    303a:	aa2b           	addi.n	a10, a10, 2

0000303c <fn_calc_zp_gain+0x200>:
    303c:	01a352        	movi	a5, 0x301
    303f:	1155e0        	slli	a5, a5, 2
    3042:	0ca472        	movi	a7, 0x40c
    3045:	381c           	movi.n	a8, 19
    3047:	525a           	add.n	a5, a2, a5
    3049:	727a           	add.n	a7, a2, a7
    304b:	088876        	loop	a8, 3057 <fn_calc_zp_gain+0x21b>
    304e:	0788           	l32i.n	a8, a7, 0
    3050:	0589           	s32i.n	a8, a5, 0
    3052:	774b           	addi.n	a7, a7, 4
    3054:	fcc552        	addi	a5, a5, -4
    3057:	f41351        	l32r	a5, a4 (5038 <real_512_fft>)
    305a:	41a8           	l32i.n	a10, a1, 16
    305c:	03bd           	mov.n	a11, a3
    305e:	0005e0        	callx8	a5
    3061:	205330        	or	a5, a3, a3
    3064:	601504        	ae_lq32f.iu	aeq0, a5, 0
    3067:	02a272        	movi	a7, 0x202
    306a:	131aa6        	blti	a10, 1, 3081 <fn_calc_zp_gain+0x245>
    306d:	0d8776        	loop	a7, 307e <fn_calc_zp_gain+0x242>
    3070:	fc24fe8a0f 	{ ae_slaasq56s	aeq0, aeq0, a10; nop }
    3075:	060844        	ae_satq48s	aeq0, aeq0
    3078:	624504        	ae_sq32f.iu	aeq0, a5, 0
    307b:	601514        	ae_lq32f.iu	aeq0, a5, 4
    307e:	000506        	j	3096 <fn_calc_zp_gain+0x25a>

00003081 <fn_calc_zp_gain+0x245>:
    3081:	f03d           	nop.n
    3083:	f03d           	nop.n
    3085:	0d8776        	loop	a7, 3096 <fn_calc_zp_gain+0x25a>
    3088:	fc24fe8a0f 	{ ae_slaasq56s	aeq0, aeq0, a10; nop }
    308d:	060934        	ae_roundsq32asym	aeq0, aeq0
    3090:	624504        	ae_sq32f.iu	aeq0, a5, 0
    3093:	601514        	ae_lq32f.iu	aeq0, a5, 4

00003096 <fn_calc_zp_gain+0x25a>:
    3096:	5c8304        	ae_lp24x2f.iu	aep0, a3, 0
    3099:	f00281017f 	{ movi	a7, 0x101; ae_mulzaafp24s.hh.ll	aeq0, aep0, aep0 }
    309e:	750c           	movi.n	a5, 7
    30a0:	000646        	j	30bd <fn_calc_zp_gain+0x281>

000030a3 <fn_calc_zp_gain+0x267>:
    30a3:	0a0c           	movi.n	a10, 0
    30a5:	7198           	l32i.n	a9, a1, 28
    30a7:	8a8d           	ae_sext16	a8, a10
    30a9:	770b           	addi.n	a7, a7, -1
    30ab:	538890        	max	a8, a8, a9
    30ae:	648d           	ae_s16i.n	a8, a4, 0
    30b0:	5c8314        	ae_lp24x2f.iu	aep0, a3, 8
    30b3:	f00280422e 	{ addi	a2, a2, 4; ae_mulzaafp24s.hh.ll	aeq0, aep0, aep0 }
    30b8:	442b           	addi.n	a4, a4, 2
    30ba:	07c716        	beqz	a7, 313a <fn_calc_zp_gain+0x2fe>
    30bd:	360054        	ae_sllisq56s	aeq0, aeq0, 1
    30c0:	060934        	ae_roundsq32asym	aeq0, aeq0
    30c3:	368804        	ae_trunca32q48	a8, aeq0
    30c6:	40e890        	nsa	a9, a8
    30c9:	899d           	ae_sext16	a9, a9
    30cb:	401900        	ssl	a9
    30ce:	a1b800        	sll	a11, a8
    30d1:	f40281        	l32r	a8, dc (8f8 <HIFI_sqrt_ie>)
    30d4:	c0a590        	sub	a10, a5, a9
    30d7:	0008e0        	callx8	a8
    30da:	feca82        	addi	a8, a10, -2
    30dd:	119800        	slli	a9, a8, 16
    30e0:	40ebf0        	nsa	a15, a11
    30e3:	8fcd           	ae_sext16	a12, a15
    30e5:	31a090        	srai	a10, a9, 16
    30e8:	068d           	mov.n	a8, a6
    30ea:	162ca7        	blt	a12, a10, 3104 <fn_calc_zp_gain+0x2c8>
    30ed:	401a00        	ssl	a10
    30f0:	6080a0        	neg	a8, a10
    30f3:	0e0c           	movi.n	a14, 0
    30f5:	a1fb00        	sll	a15, a11
    30f8:	400800        	ssr	a8
    30fb:	729e90        	salt	a9, a14, a9
    30fe:	b180b0        	sra	a8, a11
    3101:	938f90        	movnez	a8, a15, a9
    3104:	0298           	l32i.n	a9, a2, 0
    3106:	ffa0a2        	movi	a10, 255
    3109:	7fdaa2        	addmi	a10, a10, 0x7f00
    310c:	f93916        	beqz	a9, 30a3 <fn_calc_zp_gain+0x267>
    310f:	92a897        	bge	a8, a9, 30a5 <fn_calc_zp_gain+0x269>
    3112:	40e9a0        	nsa	a10, a9
    3115:	8add           	ae_sext16	a13, a10
    3117:	360834        	ae_cvtq48a32s	aeq0, a8
    311a:	364934        	ae_cvtq48a32s	aeq1, a9
    311d:	f1cd82        	addi	a8, a13, -15
    3120:	fc24fe8d0f 	{ ae_slaasq56s	aeq0, aeq0, a13; nop }
    3125:	fc00fe984f 	{ ae_slaasq56s	aeq1, aeq1, a8; ae_satq48s	aeq0, aeq0 }
    312a:	fd04ff0eef 	{ ae_trunca32q48	a14, aeq0; ae_satq48s	aeq1, aeq1 }
    312f:	369f04        	ae_trunca32q48	a15, aeq1
    3132:	d28ef0        	quos	a8, a14, a15
    3135:	a8ad           	ae_clamps16	a10, a8
    3137:	ffda86        	j	30a5 <fn_calc_zp_gain+0x269>

0000313a <fn_calc_zp_gain+0x2fe>:
    313a:	f01d           	retw.n

0000313c <fn_ini_pitch_detection>:
    313c:	004136        	entry	a1, 32
    313f:	f3ce51        	l32r	a5, 78 (90e4 <xt_memset>)
    3142:	0b0c           	movi.n	a11, 0
    3144:	2c1c           	movi.n	a12, 18
    3146:	02ad           	mov.n	a10, a2
    3148:	0005e0        	callx8	a5
    314b:	f3b751        	l32r	a5, 28 (90f8 <xt_memcpy>)
    314e:	ec0c           	movi.n	a12, 14
    3150:	02ad           	mov.n	a10, a2
    3152:	03bd           	mov.n	a11, a3
    3154:	0005e0        	callx8	a5
    3157:	8249           	s32i.n	a4, a2, 32
    3159:	f01d           	retw.n

0000315b <fn_ini_pitch_detection+0x1f>:
	...

0000315c <fn_pitch_detection>:
    315c:	008136        	entry	a1, 64
    315f:	82a8           	l32i.n	a10, a2, 32
    3161:	0a92e2        	l16si	a14, a2, 20
    3164:	ff7c           	movi.n	a15, -1
    3166:	08da52        	addmi	a5, a10, 0x800
    3169:	5149           	s32i.n	a4, a1, 20
    316b:	014f10        	slli	a4, a15, 31
    316e:	7129           	s32i.n	a2, a1, 28
    3170:	4159           	s32i.n	a5, a1, 16
    3172:	61a9           	s32i.n	a10, a1, 24
    3174:	021ee6        	bgei	a14, 1, 317a <fn_pitch_detection+0x1e>
    3177:	002206        	j	3203 <fn_pitch_detection+0xa7>
    317a:	f3db51        	l32r	a5, e8 (d49a784c <_end+0xd49989e8>)
    317d:	0a2d           	mov.n	a2, a10
    317f:	f67c           	movi.n	a6, -1

00003181 <fn_pitch_detection+0x25>:
    3181:	0378           	l32i.n	a7, a3, 0
    3183:	a71b           	addi.n	a10, a7, 1
    3185:	f3ba71        	l32r	a7, 70 (cb4 <fxlog10>)
    3188:	0007e0        	callx8	a7
    318b:	7178           	l32i.n	a7, a1, 28
    318d:	fba0c2        	movi	a12, 251
    3190:	1daad2        	movi	a13, 0xfffffa1d
    3193:	0a9792        	l16si	a9, a7, 20
    3196:	b4dc72        	addmi	a7, a12, 0xffffb400
    3199:	537a70        	max	a7, a10, a7
    319c:	b0add0        	addx8	a10, a13, a13
    319f:	77aa           	add.n	a7, a7, a10
    31a1:	87ad           	ae_sext16	a10, a7
    31a3:	1d0c           	movi.n	a13, 1
    31a5:	82ba50        	mull	a11, a10, a5
    31a8:	a2ca50        	muluh	a12, a10, a5
    31ab:	31afa0        	srai	a10, a10, 31
    31ae:	82aa50        	mull	a10, a10, a5
    31b1:	11dd10        	slli	a13, a13, 15
    31b4:	dbda           	add.n	a13, a11, a13
    31b6:	acaa           	add.n	a10, a12, a10
    31b8:	62bdb0        	saltu	a11, a13, a11
    31bb:	aaba           	add.n	a10, a10, a11
    31bd:	f5b0d0        	extui	a11, a13, 16, 16
    31c0:	fe7c           	movi.n	a14, -1
    31c2:	0bfab0        	depbits	a11, a10, 16, 16
    31c5:	31a0a0        	srai	a10, a10, 16
    31c8:	41e1e0        	srli	a14, a14, 1
    31cb:	73cb40        	maxu	a12, a11, a4
    31ce:	a3b4a0        	movltz	a11, a4, a10
    31d1:	da1b           	addi.n	a13, a10, 1
    31d3:	ff7c           	movi.n	a15, -1
    31d5:	53aaf0        	max	a10, a10, a15
    31d8:	0e8d           	mov.n	a8, a14
    31da:	83bcd0        	moveqz	a11, a12, a13
    31dd:	a38ba0        	movltz	a8, a11, a10
    31e0:	63bbe0        	minu	a11, a11, a14
    31e3:	93b8a0        	movnez	a11, a8, a10
    31e6:	f62b           	addi.n	a15, a6, 2
    31e8:	02b9           	s32i.n	a11, a2, 0
    31ea:	334b           	addi.n	a3, a3, 4
    31ec:	661b           	addi.n	a6, a6, 1
    31ee:	224b           	addi.n	a2, a2, 4
    31f0:	8d2f97        	blt	a15, a9, 3181 <fn_pitch_detection+0x25>
    31f3:	61a8           	l32i.n	a10, a1, 24
    31f5:	261b           	addi.n	a2, a6, 1
    31f7:	0af6b6        	bltui	a6, 0x100, 3205 <fn_pitch_detection+0xa9>
    31fa:	fea132        	movi	a3, 0x1fe
    31fd:	1eb367        	bgeu	a3, a6, 321f <fn_pitch_detection+0xc3>
    3200:	000e46        	j	323d <fn_pitch_detection+0xe1>

00003203 <fn_pitch_detection+0xa7>:
    3203:	020c           	movi.n	a2, 0
    3205:	ffae42        	movi	a4, 0xfffffeff
    3208:	e24a           	add.n	a14, a2, a4
    320a:	6040e0        	neg	a4, a14
    320d:	ff7c           	movi.n	a15, -1
    320f:	a032a0        	addx4	a3, a2, a10
    3212:	012f20        	slli	a2, a15, 30
    3215:	038476        	loop	a4, 321c <fn_pitch_detection+0xc0>
    3218:	0329           	s32i.n	a2, a3, 0
    321a:	334b           	addi.n	a3, a3, 4

0000321c <fn_pitch_detection+0xc0>:
    321c:	01a122        	movi	a2, 0x101

0000321f <fn_pitch_detection+0xc3>:
    321f:	fed242        	addmi	a4, a2, 0xfffffe00
    3222:	00a252        	movi	a5, 0x200
    3225:	c0f520        	sub	a15, a5, a2
    3228:	604040        	neg	a4, a4
    322b:	a032a0        	addx4	a3, a2, a10
    322e:	a02fa0        	addx4	a2, a15, a10
    3231:	088476        	loop	a4, 323d <fn_pitch_detection+0xe1>
    3234:	0248           	l32i.n	a4, a2, 0
    3236:	0349           	s32i.n	a4, a3, 0
    3238:	fcc222        	addi	a2, a2, -4
    323b:	334b           	addi.n	a3, a3, 4

0000323d <fn_pitch_detection+0xe1>:
    323d:	4168           	l32i.n	a6, a1, 16
    323f:	f39921        	l32r	a2, a4 (5038 <real_512_fft>)
    3242:	06bd           	mov.n	a11, a6
    3244:	0002e0        	callx8	a2
    3247:	7128           	l32i.n	a2, a1, 28
    3249:	0a3d           	mov.n	a3, a10
    324b:	19aca2        	movi	a10, 0xfffffc19
    324e:	049242        	l16si	a4, a2, 8
    3251:	059252        	l16si	a5, a2, 10
    3254:	235b           	addi.n	a2, a3, 5
    3256:	61f8           	l32i.n	a15, a1, 24
    3258:	36a457        	bge	a4, a5, 3292 <fn_pitch_detection+0x136>
    325b:	b03460        	addx8	a3, a4, a6
    325e:	c09540        	sub	a9, a5, a4
    3261:	a084f0        	addx4	a8, a4, a15
    3264:	19ac62        	movi	a6, 0xfffffc19
    3267:	5c8304        	ae_lp24x2f.iu	aep0, a3, 0
    326a:	fcc852        	addi	a5, a8, -4
    326d:	218976        	loop	a9, 3292 <fn_pitch_detection+0x136>
    3270:	010044        	ae_mulfp24s.hh	aeq0, aep0, aep0
    3273:	010034        	ae_mulafp24s.ll	aeq0, aep0, aep0
    3276:	350074        	ae_sraiq56	aeq0, aeq0, 1
    3279:	060934        	ae_roundsq32asym	aeq0, aeq0
    327c:	368804        	ae_trunca32q48	a8, aeq0
    327f:	624514        	ae_sq32f.iu	aeq0, a5, 4
    3282:	5c8314        	ae_lp24x2f.iu	aep0, a3, 8
    3285:	72f680        	salt	a15, a6, a8
    3288:	53a860        	max	a10, a8, a6
    328b:	9374f0        	movnez	a7, a4, a15
    328e:	441b           	addi.n	a4, a4, 1
    3290:	0a6d           	mov.n	a6, a10
    3292:	f38e31        	l32r	a3, cc (c44 <fxsqrt_ie>)
    3295:	0003e0        	callx8	a3
    3298:	823d           	ae_sext16	a3, a2
    329a:	f38921        	l32r	a2, c0 (9140 <__ashldi3>)
    329d:	31bfa0        	srai	a11, a10, 31
    32a0:	03cd           	mov.n	a12, a3
    32a2:	0002e0        	callx8	a2
    32a5:	fd7c           	movi.n	a13, -1
    32a7:	f27c           	movi.n	a2, -1
    32a9:	01dd10        	slli	a13, a13, 31
    32ac:	71f8           	l32i.n	a15, a1, 28
    32ae:	fc7c           	movi.n	a12, -1
    32b0:	734ad0        	maxu	a4, a10, a13
    32b3:	535b20        	max	a5, a11, a2
    32b6:	a3adb0        	movltz	a10, a13, a11
    32b9:	bb1b           	addi.n	a11, a11, 1
    32bb:	4121c0        	srli	a2, a12, 1
    32be:	83a4b0        	moveqz	a10, a4, a11
    32c1:	02ed           	mov.n	a14, a2
    32c3:	0f68           	l32i.n	a6, a15, 0
    32c5:	a3ea50        	movltz	a14, a10, a5
    32c8:	632a20        	minu	a2, a10, a2
    32cb:	932e50        	movnez	a2, a14, a5
    32ce:	51e8           	l32i.n	a14, a1, 20
    32d0:	022267        	blt	a2, a6, 32d6 <fn_pitch_detection+0x17a>
    32d3:	003106        	j	339b <fn_pitch_detection+0x23f>
    32d6:	1f48           	l32i.n	a4, a15, 4
    32d8:	0e9f52        	l16si	a5, a15, 28
    32db:	02a247        	bge	a2, a4, 32e1 <fn_pitch_detection+0x185>
    32de:	002746        	j	337f <fn_pitch_detection+0x223>
    32e1:	052d           	mov.n	a2, a5
    32e3:	098516        	beqz	a5, 337f <fn_pitch_detection+0x223>
    32e6:	875d           	ae_sext16	a5, a7
    32e8:	069f42        	l16si	a4, a15, 12
    32eb:	c02250        	sub	a2, a2, a5
    32ee:	602120        	abs	a2, a2
    32f1:	022427        	blt	a4, a2, 32f7 <fn_pitch_detection+0x19b>
    32f4:	0028c6        	j	339b <fn_pitch_detection+0x23f>
    32f7:	6128           	l32i.n	a2, a1, 24
    32f9:	0b0c           	movi.n	a11, 0
    32fb:	0c5c           	movi.n	a12, 80
    32fd:	a02520        	addx4	a2, a5, a2
    3300:	d8c2a2        	addi	a10, a2, -40
    3303:	f36421        	l32r	a2, 94 (90d0 <memset>)
    3306:	4159           	s32i.n	a5, a1, 16
    3308:	060c           	movi.n	a6, 0
    330a:	0f4d           	mov.n	a4, a15
    330c:	0002e0        	callx8	a2
    330f:	049422        	l16si	a2, a4, 8
    3312:	059452        	l16si	a5, a4, 10
    3315:	19aca2        	movi	a10, 0xfffffc19
    3318:	6148           	l32i.n	a4, a1, 24
    331a:	22a257        	bge	a2, a5, 3340 <fn_pitch_detection+0x1e4>
    331d:	c05520        	sub	a5, a5, a2
    3320:	19aca2        	movi	a10, 0xfffffc19
    3323:	a04240        	addx4	a4, a2, a4
    3326:	108576        	loop	a5, 333a <fn_pitch_detection+0x1de>
    3329:	0458           	l32i.n	a5, a4, 0
    332b:	0a6d           	mov.n	a6, a10
    332d:	444b           	addi.n	a4, a4, 4
    332f:	53a5a0        	max	a10, a5, a10
    3332:	725650        	salt	a5, a6, a5
    3335:	937250        	movnez	a7, a2, a5
    3338:	221b           	addi.n	a2, a2, 1

0000333a <fn_pitch_detection+0x1de>:
    333a:	872d           	ae_sext16	a2, a7
    333c:	060c           	movi.n	a6, 0
    333e:	4129           	s32i.n	a2, a1, 16

00003340 <fn_pitch_detection+0x1e4>:
    3340:	f36321        	l32r	a2, cc (c44 <fxsqrt_ie>)
    3343:	0002e0        	callx8	a2
    3346:	f35e21        	l32r	a2, c0 (9140 <__ashldi3>)
    3349:	31bfa0        	srai	a11, a10, 31
    334c:	03cd           	mov.n	a12, a3
    334e:	0002e0        	callx8	a2
    3351:	fd7c           	movi.n	a13, -1
    3353:	71f8           	l32i.n	a15, a1, 28
    3355:	f57c           	movi.n	a5, -1
    3357:	01dd10        	slli	a13, a13, 31
    335a:	f27c           	movi.n	a2, -1
    335c:	733ad0        	maxu	a3, a10, a13
    335f:	a3adb0        	movltz	a10, a13, a11
    3362:	4b1b           	addi.n	a4, a11, 1
    3364:	415150        	srli	a5, a5, 1
    3367:	532b20        	max	a2, a11, a2
    336a:	83a340        	moveqz	a10, a3, a4
    336d:	05bd           	mov.n	a11, a5
    336f:	1fc8           	l32i.n	a12, a15, 4
    3371:	51e8           	l32i.n	a14, a1, 20
    3373:	a3ba20        	movltz	a11, a10, a2
    3376:	635a50        	minu	a5, a10, a5
    3379:	935b20        	movnez	a5, a11, a2
    337c:	07a5c7        	bge	a5, a12, 3387 <fn_pitch_detection+0x22b>
    337f:	070c           	movi.n	a7, 0
    3381:	0e5f72        	s16i	a7, a15, 28
    3384:	005c46        	j	34f9 <fn_pitch_detection+0x39d>

00003387 <fn_pitch_detection+0x22b>:
    3387:	0e9f22        	l16si	a2, a15, 28
    338a:	4138           	l32i.n	a3, a1, 16
    338c:	069fc2        	l16si	a12, a15, 12
    338f:	c02230        	sub	a2, a2, a3
    3392:	602120        	abs	a2, a2
    3395:	722c20        	salt	a2, a12, a2
    3398:	937620        	movnez	a7, a6, a2
    339b:	f27c           	movi.n	a2, -1
    339d:	f42020        	extui	a2, a2, 0, 16
    33a0:	0e5f72        	s16i	a7, a15, 28
    33a3:	3c0277        	bnone	a2, a7, 33e3 <fn_pitch_detection+0x287>
    33a6:	01a142        	movi	a4, 0x101
    33a9:	878d           	ae_sext16	a8, a7
    33ab:	0e2d           	mov.n	a2, a14
    33ad:	068476        	loop	a4, 33b7 <fn_pitch_detection+0x25b>
    33b0:	089f42        	l16si	a4, a15, 16
    33b3:	624d           	ae_s16i.n	a4, a2, 0
    33b5:	222b           	addi.n	a2, a2, 2

000033b7 <fn_pitch_detection+0x25b>:
    33b7:	6138           	l32i.n	a3, a1, 24
    33b9:	481b           	addi.n	a4, a8, 1
    33bb:	4149           	s32i.n	a4, a1, 16
    33bd:	a09830        	addx4	a9, a8, a3
    33c0:	fcc922        	addi	a2, a9, -4
    33c3:	a04430        	addx4	a4, a4, a3
    33c6:	0228           	l32i.n	a2, a2, 0
    33c8:	0458           	l32i.n	a5, a4, 0
    33ca:	060c           	movi.n	a6, 0
    33cc:	5189           	s32i.n	a8, a1, 20
    33ce:	425a           	add.n	a4, a2, a5
    33d0:	72a560        	salt	a10, a5, a6
    33d3:	72b420        	salt	a11, a4, a2
    33d6:	30aab0        	xor	a10, a10, a11
    33d9:	bacc           	bnez.n	a10, 33e8 <fn_pitch_detection+0x28c>
    33db:	f37c           	movi.n	a3, -1
    33dd:	413130        	srli	a3, a3, 1
    33e0:	000406        	j	33f4 <fn_pitch_detection+0x298>

000033e3 <fn_pitch_detection+0x287>:
    33e3:	070c           	movi.n	a7, 0
    33e5:	004406        	j	34f9 <fn_pitch_detection+0x39d>

000033e8 <fn_pitch_detection+0x28c>:
    33e8:	f37c           	movi.n	a3, -1
    33ea:	0dad           	mov.n	a10, a13
    33ec:	413130        	srli	a3, a3, 1
    33ef:	a3a340        	movltz	a10, a3, a4
    33f2:	0a4d           	mov.n	a4, a10
    33f4:	0998           	l32i.n	a9, a9, 0
    33f6:	31af40        	srai	a10, a4, 31
    33f9:	11c9f0        	slli	a12, a9, 1
    33fc:	31bf90        	srai	a11, a9, 31
    33ff:	738cd0        	maxu	a8, a12, a13
    3402:	9b1b           	addi.n	a9, a11, 1
    3404:	a3cdb0        	movltz	a12, a13, a11
    3407:	83c890        	moveqz	a12, a8, a9
    340a:	c09250        	sub	a9, a2, a5
    340d:	f87c           	movi.n	a8, -1
    340f:	725650        	salt	a5, a6, a5
    3412:	722920        	salt	a2, a9, a2
    3415:	305520        	xor	a5, a5, a2
    3418:	532b80        	max	a2, a11, a8
    341b:	03bd           	mov.n	a11, a3
    341d:	a3bc20        	movltz	a11, a12, a2
    3420:	63cc30        	minu	a12, a12, a3
    3423:	436260        	min	a6, a2, a6
    3426:	93cb20        	movnez	a12, a11, a2
    3429:	c024c0        	sub	a2, a4, a12
    342c:	c06a60        	sub	a6, a10, a6
    342f:	62c4c0        	saltu	a12, a4, a12
    3432:	c046c0        	sub	a4, a6, a12
    3435:	73a2d0        	maxu	a10, a2, a13
    3438:	a32d40        	movltz	a2, a13, a4
    343b:	b41b           	addi.n	a11, a4, 1
    343d:	534480        	max	a4, a4, a8
    3440:	03cd           	mov.n	a12, a3
    3442:	832ab0        	moveqz	a2, a10, a11
    3445:	a3c240        	movltz	a12, a2, a4
    3448:	632230        	minu	a2, a2, a3
    344b:	932c40        	movnez	a2, a12, a4
    344e:	358c           	beqz.n	a5, 3455 <fn_pitch_detection+0x2f9>
    3450:	a3d390        	movltz	a13, a3, a9
    3453:	0d9d           	mov.n	a9, a13
    3455:	5138           	l32i.n	a3, a1, 20
    3457:	114990        	slli	a4, a9, 7
    345a:	160c           	movi.n	a6, 1
    345c:	115390        	slli	a5, a3, 7
    345f:	d22420        	quos	a2, a4, a2
    3462:	0166b0        	slli	a6, a6, 21
    3465:	225a           	add.n	a2, a2, a5
    3467:	d22620        	quos	a2, a6, a2
    346a:	10c2b2        	addi	a11, a2, 16
    346d:	2fc2c2        	addi	a12, a2, 47
    3470:	b3cbb0        	movgez	a12, a11, a11
    3473:	2155c0        	srai	a5, a12, 5
    3476:	114500        	slli	a4, a5, 16
    3479:	21df40        	srai	a13, a4, 15
    347c:	6dea           	add.n	a6, a13, a14
    347e:	0d9f82        	l16si	a8, a15, 26
    3481:	fec6a2        	addi	a10, a6, -2
    3484:	6a8d           	ae_s16i.n	a8, a10, 0
    3486:	099f92        	l16si	a9, a15, 18
    3489:	669d           	ae_s16i.n	a9, a6, 0
    348b:	0d9f92        	l16si	a9, a15, 26
    348e:	769d           	ae_s16i.n	a9, a6, 2
    3490:	0443e6        	bgei	a3, 4, 3498 <fn_pitch_detection+0x33c>
    3493:	855d           	ae_sext16	a5, a5
    3495:	0010c6        	j	34dc <fn_pitch_detection+0x380>

00003498 <fn_pitch_detection+0x33c>:
    3498:	4148           	l32i.n	a4, a1, 16
    349a:	08c2d2        	addi	a13, a2, 8
    349d:	a33430        	movltz	a3, a4, a3
    34a0:	213130        	srai	a3, a3, 1
    34a3:	ffc352        	addi	a5, a3, -1
    34a6:	113df0        	slli	a3, a13, 1
    34a9:	2f8576        	loop	a5, 34dc <fn_pitch_detection+0x380>
    34ac:	1fc342        	addi	a4, a3, 31
    34af:	b34330        	movgez	a4, a3, a3
    34b2:	216540        	srai	a6, a4, 5
    34b5:	114600        	slli	a4, a6, 16
    34b8:	218f40        	srai	a8, a4, 15
    34bb:	88ea           	add.n	a8, a8, a14
    34bd:	0c9f52        	l16si	a5, a15, 24
    34c0:	fec892        	addi	a9, a8, -2
    34c3:	695d           	ae_s16i.n	a5, a9, 0
    34c5:	079f52        	l16si	a5, a15, 14
    34c8:	685d           	ae_s16i.n	a5, a8, 0
    34ca:	0b9f82        	l16si	a8, a15, 22
    34cd:	865d           	ae_sext16	a5, a6
    34cf:	0c9f62        	l16si	a6, a15, 24
    34d2:	06a587        	bge	a5, a8, 34dc <fn_pitch_detection+0x380>
    34d5:	9085e0        	addx2	a8, a5, a14
    34d8:	332a           	add.n	a3, a3, a2
    34da:	786d           	ae_s16i.n	a6, a8, 2

000034dc <fn_pitch_detection+0x380>:
    34dc:	f30421        	l32r	a2, ec (feffff <_end+0xfe119b>)
    34df:	352b           	addi.n	a3, a5, 2
    34e1:	01a162        	movi	a6, 0x101
    34e4:	112247        	blt	a2, a4, 34f9 <fn_pitch_detection+0x39d>
    34e7:	120c           	movi.n	a2, 1
    34e9:	c04630        	sub	a4, a6, a3
    34ec:	112240        	slli	a2, a2, 12
    34ef:	9033e0        	addx2	a3, a3, a14
    34f2:	038476        	loop	a4, 34f9 <fn_pitch_detection+0x39d>
    34f5:	632d           	ae_s16i.n	a2, a3, 0
    34f7:	332b           	addi.n	a3, a3, 2
    34f9:	872d           	ae_sext16	a2, a7
    34fb:	f01d           	retw.n

000034fd <fn_pitch_detection+0x3a1>:
    34fd:	000000                                        ...

00003500 <fn_ini_mic_chk_status>:
    3500:	004136        	entry	a1, 32
    3503:	f2dd41        	l32r	a4, 78 (90e4 <xt_memset>)
    3506:	0b0c           	movi.n	a11, 0
    3508:	9c0c           	movi.n	a12, 9
    350a:	02ad           	mov.n	a10, a2
    350c:	0004e0        	callx8	a4
    350f:	f2c641        	l32r	a4, 28 (90f8 <xt_memcpy>)
    3512:	6c0c           	movi.n	a12, 6
    3514:	02ad           	mov.n	a10, a2
    3516:	03bd           	mov.n	a11, a3
    3518:	0004e0        	callx8	a4
    351b:	333d           	ae_l16si.n	a3, a3, 2
    351d:	9aa142        	movi	a4, 0x19a
    3520:	334a           	add.n	a3, a3, a4
    3522:	075232        	s16i	a3, a2, 14
    3525:	f01d           	retw.n

00003527 <fn_ini_mic_chk_status+0x27>:
	...

00003528 <fn_mic_chk_status>:
    3528:	006136        	entry	a1, 48
    352b:	021526        	beqi	a5, 1, 3531 <fn_mic_chk_status+0x9>
    352e:	003cc6        	j	3625 <fn_mic_chk_status+0xfd>
    3531:	021626        	beqi	a6, 1, 3537 <fn_mic_chk_status+0xf>
    3534:	003b46        	j	3625 <fn_mic_chk_status+0xfd>
    3537:	fd2482005f 	{ movi	a5, 0x200; ae_zeroq56	aeq1 }
    353c:	fe0c58855f 	{ ae_cvtp24a16x2.ll	aep0, a5, a5; ae_movq56	aeq2, aeq1 }
    3541:	045d           	mov.n	a5, a4
    3543:	601304        	ae_lq32f.iu	aeq0, a3, 0
    3546:	60d504        	ae_lq32f.iu	aeq3, a5, 0
    3549:	420174        	ae_sp16f.l.i	aep0, a1, 14
    354c:	074c           	movi.n	a7, 64
    354e:	400174        	ae_lp16f.i	aep0, a1, 14
    3551:	f03d           	nop.n
    3553:	f03d           	nop.n
    3555:	098776        	loop	a7, 3562 <fn_mic_chk_status+0x3a>
    3558:	f683fd751f 	{ ae_lq32f.iu	aeq3, a5, 4; ae_mulafq32sp16s.l	aeq1, aeq3, aep0 }
    355d:	f582bd131f 	{ ae_lq32f.iu	aeq0, a3, 4; ae_mulafq32sp16s.l	aeq2, aeq0, aep0 }

00003562 <fn_mic_chk_status+0x3a>:
    3562:	369a04        	ae_trunca32q48	a10, aeq1
    3565:	f2c261        	l32r	a6, 70 (cb4 <fxlog10>)
    3568:	36a504        	ae_trunca32q48	a5, aeq2
    356b:	0006e0        	callx8	a6
    356e:	0a3d           	mov.n	a3, a10
    3570:	05ad           	mov.n	a10, a5
    3572:	0006e0        	callx8	a6
    3575:	fc24a0227e 	{ l16si	a7, a2, 4; ae_zeroq56	aeq0 }
    357a:	ff0460328e 	{ l16si	a8, a2, 6; ae_movq56	aeq3, aeq0 }
    357f:	01a052        	movi	a5, 1
    3582:	115540        	slli	a5, a5, 12
    3585:	300554        	ae_cvtp24a16x2.ll	aep0, a5, a5
    3588:	a05740        	addx4	a5, a7, a4
    358b:	a04840        	addx4	a4, a8, a4
    358e:	08a0f2        	movi	a15, 8
    3591:	605504        	ae_lq32f.iu	aeq1, a5, 0
    3594:	609404        	ae_lq32f.iu	aeq2, a4, 0
    3597:	420164        	ae_sp16f.l.i	aep0, a1, 12
    359a:	400164        	ae_lp16f.i	aep0, a1, 12
    359d:	098f76        	loop	a15, 35aa <fn_mic_chk_status+0x82>
    35a0:	f583fd351f 	{ ae_lq32f.iu	aeq1, a5, 4; ae_mulafq32sp16s.l	aeq3, aeq1, aep0 }
    35a5:	f682bd541f 	{ ae_lq32f.iu	aeq2, a4, 4; ae_mulafq32sp16s.l	aeq0, aeq2, aep0 }
    35aa:	c043a0        	sub	a4, a3, a10
    35ad:	36ba04        	ae_trunca32q48	a10, aeq3
    35b0:	368304        	ae_trunca32q48	a3, aeq0
    35b3:	a45d           	ae_clamps16	a5, a4
    35b5:	0006e0        	callx8	a6
    35b8:	0a4d           	mov.n	a4, a10
    35ba:	03ad           	mov.n	a10, a3
    35bc:	0006e0        	callx8	a6
    35bf:	069232        	l16si	a3, a2, 12
    35c2:	049262        	l16si	a6, a2, 8
    35c5:	079272        	l16si	a7, a2, 14
    35c8:	c05530        	sub	a5, a5, a3
    35cb:	a55d           	ae_clamps16	a5, a5
    35cd:	c044a0        	sub	a4, a4, a10
    35d0:	d15560        	mul16s	a5, a5, a6
    35d3:	a44d           	ae_clamps16	a4, a4
    35d5:	0592e2        	l16si	a14, a2, 10
    35d8:	c04470        	sub	a4, a4, a7
    35db:	415f50        	srli	a5, a5, 15
    35de:	a44d           	ae_clamps16	a4, a4
    35e0:	855d           	ae_sext16	a5, a5
    35e2:	089282        	l16si	a8, a2, 16
    35e5:	22fd           	ae_l16si.n	a15, a2, 0
    35e7:	d144e0        	mul16s	a4, a4, a14
    35ea:	353a           	add.n	a3, a5, a3
    35ec:	e97c           	movi.n	a9, -2
    35ee:	a33d           	ae_clamps16	a3, a3
    35f0:	1d0c           	movi.n	a13, 1
    35f2:	109890        	and	a9, a8, a9
    35f5:	2088d0        	or	a8, a8, a13
    35f8:	065232        	s16i	a3, a2, 12
    35fb:	723f30        	salt	a3, a15, a3
    35fe:	41ef40        	srli	a14, a4, 15
    3601:	838930        	moveqz	a8, a9, a3
    3604:	8e3d           	ae_sext16	a3, a14
    3606:	32bd           	ae_l16si.n	a11, a2, 2
    3608:	337a           	add.n	a3, a3, a7
    360a:	a33d           	ae_clamps16	a3, a3
    360c:	dc7c           	movi.n	a12, -3
    360e:	2d0c           	movi.n	a13, 2
    3610:	075232        	s16i	a3, a2, 14
    3613:	72f3b0        	salt	a15, a3, a11
    3616:	1058c0        	and	a5, a8, a12
    3619:	2038d0        	or	a3, a8, a13
    361c:	8335f0        	moveqz	a3, a5, a15
    361f:	085232        	s16i	a3, a2, 16
    3622:	000246        	j	362f <fn_mic_chk_status+0x107>

00003625 <fn_mic_chk_status+0xfd>:
    3625:	468c           	beqz.n	a6, 362d <fn_mic_chk_status+0x105>
    3627:	081232        	l16ui	a3, a2, 16
    362a:	000046        	j	362f <fn_mic_chk_status+0x107>

0000362d <fn_mic_chk_status+0x105>:
    362d:	430c           	movi.n	a3, 4
    362f:	832d           	ae_sext16	a2, a3
    3631:	f01d           	retw.n

00003633 <fn_mic_chk_status+0x10b>:
	...

00003634 <biquad_sec>:
    3634:	004136        	entry	a1, 32
    3637:	0368           	l32i.n	a6, a3, 0
    3639:	1388           	l32i.n	a8, a3, 4
    363b:	0458           	l32i.n	a5, a4, 0
    363d:	219860        	srai	a9, a6, 8
    3640:	23c8           	l32i.n	a12, a3, 8
    3642:	82e920        	mull	a14, a9, a2
    3645:	218880        	srai	a8, a8, 8
    3648:	14a8           	l32i.n	a10, a4, 4
    364a:	82f850        	mull	a15, a8, a5
    364d:	b29920        	mulsh	a9, a9, a2
    3650:	33b8           	l32i.n	a11, a3, 12
    3652:	41e7e0        	srli	a14, a14, 7
    3655:	21c8c0        	srai	a12, a12, 8
    3658:	b28850        	mulsh	a8, a8, a5
    365b:	43d8           	l32i.n	a13, a3, 16
    365d:	2468           	l32i.n	a6, a4, 8
    365f:	9b69e0        	depbits	a14, a9, 25, 7
    3662:	213790        	srai	a3, a9, 7
    3665:	4197f0        	srli	a9, a15, 7
    3668:	82fca0        	mull	a15, a12, a10
    366b:	9b6890        	depbits	a9, a8, 25, 7
    366e:	218780        	srai	a8, a8, 7
    3671:	b2aca0        	mulsh	a10, a12, a10
    3674:	838a           	add.n	a8, a3, a8
    3676:	4137f0        	srli	a3, a15, 7
    3679:	21b8b0        	srai	a11, a11, 8
    367c:	34c8           	l32i.n	a12, a4, 12
    367e:	9e9a           	add.n	a9, a14, a9
    3680:	9b6a30        	depbits	a3, a10, 25, 7
    3683:	82fb60        	mull	a15, a11, a6
    3686:	21a7a0        	srai	a10, a10, 7
    3689:	21d8d0        	srai	a13, a13, 8
    368c:	393a           	add.n	a3, a9, a3
    368e:	b2bb60        	mulsh	a11, a11, a6
    3691:	a8aa           	add.n	a10, a8, a10
    3693:	4187f0        	srli	a8, a15, 7
    3696:	62e9e0        	saltu	a14, a9, a14
    3699:	62f390        	saltu	a15, a3, a9
    369c:	829dc0        	mull	a9, a13, a12
    369f:	eeaa           	add.n	a14, a14, a10
    36a1:	9b6b80        	depbits	a8, a11, 25, 7
    36a4:	b2adc0        	mulsh	a10, a13, a12
    36a7:	419790        	srli	a9, a9, 7
    36aa:	05df80        	extui	a13, a8, 31, 1
    36ad:	21b7b0        	srai	a11, a11, 7
    36b0:	908830        	addx2	a8, a8, a3
    36b3:	9b6a90        	depbits	a9, a10, 25, 7
    36b6:	170c           	movi.n	a7, 1
    36b8:	90bbd0        	addx2	a11, a11, a13
    36bb:	fefa           	add.n	a15, a14, a15
    36bd:	21a7a0        	srai	a10, a10, 7
    36c0:	623830        	saltu	a3, a8, a3
    36c3:	989a           	add.n	a9, a8, a9
    36c5:	117710        	slli	a7, a7, 15
    36c8:	bfba           	add.n	a11, a15, a11
    36ca:	33aa           	add.n	a3, a3, a10
    36cc:	3b3a           	add.n	a3, a11, a3
    36ce:	628980        	saltu	a8, a9, a8
    36d1:	797a           	add.n	a7, a9, a7
    36d3:	629790        	saltu	a9, a7, a9
    36d6:	338a           	add.n	a3, a3, a8
    36d8:	339a           	add.n	a3, a3, a9
    36da:	f57070        	extui	a7, a7, 16, 16
    36dd:	fd7c           	movi.n	a13, -1
    36df:	fe7c           	movi.n	a14, -1
    36e1:	0bf370        	depbits	a7, a3, 16, 16
    36e4:	01cd10        	slli	a12, a13, 31
    36e7:	41d1e0        	srli	a13, a14, 1
    36ea:	319030        	srai	a9, a3, 16
    36ed:	07ed           	mov.n	a14, a7
    36ef:	ff7c           	movi.n	a15, -1
    36f1:	a91b           	addi.n	a10, a9, 1
    36f3:	7377c0        	maxu	a7, a7, a12
    36f6:	a3ec90        	movltz	a14, a12, a9
    36f9:	53b9f0        	max	a11, a9, a15
    36fc:	937ea0        	movnez	a7, a14, a10
    36ff:	0dfd           	mov.n	a15, a13
    3701:	6337d0        	minu	a3, a7, a13
    3704:	a3f7b0        	movltz	a15, a7, a11
    3707:	933fb0        	movnez	a3, a15, a11
    370a:	0429           	s32i.n	a2, a4, 0
    370c:	1459           	s32i.n	a5, a4, 4
    370e:	3469           	s32i.n	a6, a4, 12
    3710:	032d           	mov.n	a2, a3
    3712:	2439           	s32i.n	a3, a4, 8
    3714:	f01d           	retw.n

00003716 <biquad_sec+0xe2>:
	...

00003718 <fn_ini_over_subtract>:
    3718:	004136        	entry	a1, 32
    371b:	f25731        	l32r	a3, 78 (90e4 <xt_memset>)
    371e:	0b0c           	movi.n	a11, 0
    3720:	ac3c           	movi.n	a12, 58
    3722:	02ad           	mov.n	a10, a2
    3724:	0003e0        	callx8	a3
    3727:	f01d           	retw.n

00003729 <fn_ini_over_subtract+0x11>:
    3729:	000000                                        ...

0000372c <fn_over_subtract>:
    372c:	006136        	entry	a1, 48
    372f:	f27081        	l32r	a8, f0 (e890 <biquad_coef>)
    3732:	2159           	s32i.n	a5, a1, 8
    3734:	1149           	s32i.n	a4, a1, 4
    3736:	fc2480f07f 	{ movi	a7, 240; ae_zeroq56	aeq0 }
    373b:	690c           	movi.n	a9, 6
    373d:	408304        	ae_lp16f.iu	aep0, a3, 0
    3740:	fd0c00c2ae 	{ addi	a10, a2, 12; ae_cvtq48p24s.l	aeq1, aep0 }

00003745 <fn_over_subtract+0x19>:
    3745:	408314        	ae_lp16f.iu	aep0, a3, 2
    3748:	0abd           	mov.n	a11, a10
    374a:	20c880        	or	a12, a8, a8
    374d:	408976        	loop	a9, 3791 <fn_over_subtract+0x65>
    3750:	0cdd           	mov.n	a13, a12
    3752:	5c9d04        	ae_lp24x2f.iu	aep1, a13, 0
    3755:	0bed           	mov.n	a14, a11
    3757:	f9052fad1f 	{ ae_lp24x2f.iu	aep2, a13, 8; ae_mulfq32sp24s.h	aeq2, aeq1, aep1 }
    375c:	5cbd14        	ae_lp24x2f.iu	aep3, a13, 8
    375f:	60de04        	ae_lq32f.iu	aeq3, a14, 0
    3762:	f7c7bf1def 	{ ae_trunca32q48	a13, aeq1; ae_mulafq32sp24s.l	aeq2, aeq3, aep1 }
    3767:	605e14        	ae_lq32f.iu	aeq1, a14, 4
    376a:	f54bbd7e1f 	{ ae_lq32f.iu	aeq3, a14, 4; ae_mulafq32sp24s.h	aeq2, aeq1, aep2 }
    376f:	f7cbbd3e1f 	{ ae_lq32f.iu	aeq1, a14, 4; ae_mulafq32sp24s.l	aeq2, aeq3, aep2 }
    3774:	f7cbb00bee 	{ l32i	a14, a11, 0; ae_mulafq32sp24s.l	aeq2, aeq3, aep2 }
    3779:	f54fb02b5e 	{ l32i	a5, a11, 8; ae_mulafq32sp24s.h	aeq2, aeq1, aep3 }
    377e:	1be9           	s32i.n	a14, a11, 4
    3780:	fd34418cce 	{ addi	a12, a12, 24; ae_roundsq32asym	aeq1, aeq2 }
    3785:	369f04        	ae_trunca32q48	a15, aeq1
    3788:	0bd9           	s32i.n	a13, a11, 0
    378a:	3b59           	s32i.n	a5, a11, 12
    378c:	2bf9           	s32i.n	a15, a11, 8
    378e:	10cbb2        	addi	a11, a11, 16

00003791 <fn_over_subtract+0x65>:
    3791:	fd048ff77e 	{ addi	a7, a7, -1; ae_absq56	aeq1, aeq1 }
    3796:	0109c4        	ae_addq56	aeq0, aeq0, aeq1
    3799:	060934        	ae_roundsq32asym	aeq0, aeq0
    379c:	0a4084        	ae_cvtq48p24s.l	aeq1, aep0
    379f:	fa2756        	bnez	a7, 3745 <fn_over_subtract+0x19>
    37a2:	368904        	ae_trunca32q48	a9, aeq0
    37a5:	12c8           	l32i.n	a12, a2, 4
    37a7:	0b0c           	movi.n	a11, 0
    37a9:	f37c           	movi.n	a3, -1
    37ab:	c0a9c0        	sub	a10, a9, a12
    37ae:	728bc0        	salt	a8, a11, a12
    37b1:	72da90        	salt	a13, a10, a9
    37b4:	f77c           	movi.n	a7, -1
    37b6:	3088d0        	xor	a8, a8, a13
    37b9:	413130        	srli	a3, a3, 1
    37bc:	017710        	slli	a7, a7, 31
    37bf:	31dfc0        	srai	a13, a12, 31
    37c2:	588c           	beqz.n	a8, 37cb <fn_over_subtract+0x9f>
    37c4:	078d           	mov.n	a8, a7
    37c6:	a383a0        	movltz	a8, a3, a10
    37c9:	08ad           	mov.n	a10, a8

000037cb <fn_over_subtract+0x9f>:
    37cb:	fa8b           	addi.n	a15, a10, 8
    37cd:	31efa0        	srai	a14, a10, 31
    37d0:	62afa0        	saltu	a10, a15, a10
    37d3:	eeaa           	add.n	a14, a14, a10
    37d5:	01ae40        	slli	a10, a14, 28
    37d8:	41f4f0        	srli	a15, a15, 4
    37db:	ffaa           	add.n	a15, a15, a10
    37dd:	21e4e0        	srai	a14, a14, 4
    37e0:	deda           	add.n	a13, a14, a13
    37e2:	efca           	add.n	a14, a15, a12
    37e4:	62cef0        	saltu	a12, a14, a15
    37e7:	ddca           	add.n	a13, a13, a12
    37e9:	02a8           	l32i.n	a10, a2, 0
    37eb:	738e70        	maxu	a8, a14, a7
    37ee:	f47c           	movi.n	a4, -1
    37f0:	cd1b           	addi.n	a12, a13, 1
    37f2:	a3e7d0        	movltz	a14, a7, a13
    37f5:	83e8c0        	moveqz	a14, a8, a12
    37f8:	038d           	mov.n	a8, a3
    37fa:	53dd40        	max	a13, a13, a4
    37fd:	725ba0        	salt	a5, a11, a10
    3800:	a38ed0        	movltz	a8, a14, a13
    3803:	63be30        	minu	a11, a14, a3
    3806:	93b8d0        	movnez	a11, a8, a13
    3809:	c0d9a0        	sub	a13, a9, a10
    380c:	72ed90        	salt	a14, a13, a9
    380f:	3085e0        	xor	a8, a5, a14
    3812:	31cfa0        	srai	a12, a10, 31
    3815:	12b9           	s32i.n	a11, a2, 4
    3817:	3169           	s32i.n	a6, a1, 12
    3819:	588c           	beqz.n	a8, 3822 <fn_over_subtract+0xf6>
    381b:	078d           	mov.n	a8, a7
    381d:	a383d0        	movltz	a8, a3, a13
    3820:	08dd           	mov.n	a13, a8
    3822:	72ea90        	salt	a14, a10, a9
    3825:	80a0f2        	movi	a15, 128
    3828:	850c           	movi.n	a5, 8
    382a:	935fe0        	movnez	a5, a15, a14
    382d:	460c           	movi.n	a6, 4
    382f:	f5da           	add.n	a15, a5, a13
    3831:	a06e60        	addx4	a6, a14, a6
    3834:	fe1c           	movi.n	a14, 31
    3836:	318fd0        	srai	a8, a13, 31
    3839:	625f50        	saltu	a5, a15, a5
    383c:	400600        	ssr	a6
    383f:	585a           	add.n	a5, a8, a5
    3841:	30e6e0        	xor	a14, a6, a14
    3844:	b18050        	sra	a8, a5
    3847:	401e00        	ssl	a14
    384a:	1155f0        	slli	a5, a5, 1
    384d:	a15500        	sll	a5, a5
    3850:	400600        	ssr	a6
    3853:	91d0f0        	srl	a13, a15
    3856:	205d50        	or	a5, a13, a5
    3859:	c8ca           	add.n	a12, a8, a12
    385b:	85aa           	add.n	a8, a5, a10
    385d:	625850        	saltu	a5, a8, a5
    3860:	5c5a           	add.n	a5, a12, a5
    3862:	73a870        	maxu	a10, a8, a7
    3865:	651b           	addi.n	a6, a5, 1
    3867:	a38750        	movltz	a8, a7, a5
    386a:	f222e1        	l32r	a14, f4 (a3d70b <_end+0xa2e8a7>)
    386d:	534540        	max	a4, a5, a4
    3870:	03fd           	mov.n	a15, a3
    3872:	838a60        	moveqz	a8, a10, a6
    3875:	a3f840        	movltz	a15, a8, a4
    3878:	638830        	minu	a8, a8, a3
    387b:	938f40        	movnez	a8, a15, a4
    387e:	0289           	s32i.n	a8, a2, 0
    3880:	522be7        	blt	a11, a14, 38d6 <fn_over_subtract+0x1aa>
    3883:	057816        	beqz	a8, 38de <fn_over_subtract+0x1b2>
    3886:	592b           	addi.n	a5, a9, 2
    3888:	314f90        	srai	a4, a9, 31
    388b:	626590        	saltu	a6, a5, a9
    388e:	41a250        	srli	a10, a5, 2
    3891:	446a           	add.n	a4, a4, a6
    3893:	eb14a0        	depbits	a10, a4, 30, 2
    3896:	58aa87        	bge	a10, a8, 38f2 <fn_over_subtract+0x1c6>
    3899:	40e840        	nsa	a4, a8
    389c:	360a34        	ae_cvtq48a32s	aeq0, a10
    389f:	844d           	ae_sext16	a4, a4
    38a1:	fc24fe840f 	{ ae_slaasq56s	aeq0, aeq0, a4; nop }
    38a6:	fc00fec87f 	{ ae_cvtq48a32s	aeq1, a8; ae_satq48s	aeq0, aeq0 }
    38ab:	f1c442        	addi	a4, a4, -15
    38ae:	fc24fe944f 	{ ae_slaasq56s	aeq1, aeq1, a4; nop }
    38b3:	fd04ff0fef 	{ ae_trunca32q48	a15, aeq0; ae_satq48s	aeq1, aeq1 }
    38b8:	369504        	ae_trunca32q48	a5, aeq1
    38bb:	ffa062        	movi	a6, 255
    38be:	11e8           	l32i.n	a14, a1, 4
    38c0:	d24f50        	quos	a4, a15, a5
    38c3:	a44d           	ae_clamps16	a4, a4
    38c5:	848d           	ae_sext16	a8, a4
    38c7:	1fd662        	addmi	a6, a6, 0x1f00
    38ca:	365242        	s16i	a4, a2, 108
    38cd:	2c2687        	blt	a6, a8, 38fd <fn_over_subtract+0x1d1>
    38d0:	6cc2a2        	addi	a10, a2, 108
    38d3:	000446        	j	38e8 <fn_over_subtract+0x1bc>

000038d6 <fn_over_subtract+0x1aa>:
    38d6:	180c           	movi.n	a8, 1
    38d8:	118830        	slli	a8, a8, 13
    38db:	000646        	j	38f8 <fn_over_subtract+0x1cc>

000038de <fn_over_subtract+0x1b2>:
    38de:	11e8           	l32i.n	a14, a1, 4
    38e0:	040c           	movi.n	a4, 0
    38e2:	6cc2a2        	addi	a10, a2, 108
    38e5:	365242        	s16i	a4, a2, 108
    38e8:	180c           	movi.n	a8, 1
    38ea:	118830        	slli	a8, a8, 13
    38ed:	6a8d           	ae_s16i.n	a8, a10, 0
    38ef:	000286        	j	38fd <fn_over_subtract+0x1d1>

000038f2 <fn_over_subtract+0x1c6>:
    38f2:	ffa082        	movi	a8, 255
    38f5:	7fd882        	addmi	a8, a8, 0x7f00
    38f8:	11e8           	l32i.n	a14, a1, 4
    38fa:	365282        	s16i	a8, a2, 108
    38fd:	80a242        	movi	a4, 0x280
    3900:	055c           	movi.n	a5, 80
    3902:	2299           	s32i.n	a9, a2, 8
    3904:	0b0c           	movi.n	a11, 0
    3906:	fc7c           	movi.n	a12, -1
    3908:	0a0c           	movi.n	a10, 0
    390a:	090c           	movi.n	a9, 0
    390c:	de4a           	add.n	a13, a14, a4
    390e:	3e8576        	loop	a5, 3950 <fn_over_subtract+0x224>
    3911:	0d48           	l32i.n	a4, a13, 0
    3913:	03fd           	mov.n	a15, a3
    3915:	dd4b           	addi.n	a13, a13, 4
    3917:	20c462        	addi	a6, a4, 32
    391a:	315f40        	srai	a5, a4, 31
    391d:	624640        	saltu	a4, a6, a4
    3920:	454a           	add.n	a4, a5, a4
    3922:	215640        	srai	a5, a4, 6
    3925:	416660        	srli	a6, a6, 6
    3928:	014460        	slli	a4, a4, 26
    392b:	464a           	add.n	a4, a6, a4
    392d:	64aa           	add.n	a6, a4, a10
    392f:	559a           	add.n	a5, a5, a9
    3931:	624640        	saltu	a4, a6, a4
    3934:	454a           	add.n	a4, a5, a4
    3936:	73a670        	maxu	a10, a6, a7
    3939:	541b           	addi.n	a5, a4, 1
    393b:	a36740        	movltz	a6, a7, a4
    393e:	836a50        	moveqz	a6, a10, a5
    3941:	5344c0        	max	a4, a4, a12
    3944:	a3f640        	movltz	a15, a6, a4
    3947:	63a630        	minu	a10, a6, a3
    394a:	4394b0        	min	a9, a4, a11
    394d:	93af40        	movnez	a10, a15, a4

00003950 <fn_over_subtract+0x224>:
    3950:	40a142        	movi	a4, 0x140
    3953:	055c           	movi.n	a5, 80
    3955:	4e4a           	add.n	a4, a14, a4
    3957:	0c0c           	movi.n	a12, 0
    3959:	fd7c           	movi.n	a13, -1
    395b:	0b0c           	movi.n	a11, 0
    395d:	0e0c           	movi.n	a14, 0
    395f:	3e8576        	loop	a5, 39a1 <fn_over_subtract+0x275>
    3962:	0458           	l32i.n	a5, a4, 0
    3964:	444b           	addi.n	a4, a4, 4
    3966:	20c5f2        	addi	a15, a5, 32
    3969:	316f50        	srai	a6, a5, 31
    396c:	625f50        	saltu	a5, a15, a5
    396f:	565a           	add.n	a5, a6, a5
    3971:	216650        	srai	a6, a5, 6
    3974:	41f6f0        	srli	a15, a15, 6
    3977:	015560        	slli	a5, a5, 26
    397a:	5f5a           	add.n	a5, a15, a5
    397c:	b5ba           	add.n	a11, a5, a11
    397e:	66ea           	add.n	a6, a6, a14
    3980:	625b50        	saltu	a5, a11, a5
    3983:	565a           	add.n	a5, a6, a5
    3985:	73fb70        	maxu	a15, a11, a7
    3988:	651b           	addi.n	a6, a5, 1
    398a:	a3b750        	movltz	a11, a7, a5
    398d:	5355d0        	max	a5, a5, a13
    3990:	83bf60        	moveqz	a11, a15, a6
    3993:	03fd           	mov.n	a15, a3
    3995:	a3fb50        	movltz	a15, a11, a5
    3998:	63bb30        	minu	a11, a11, a3
    399b:	43e5c0        	min	a14, a5, a12
    399e:	93bf50        	movnez	a11, a15, a5
    39a1:	07bb16        	beqz	a11, 3a20 <fn_over_subtract+0x2f4>
    39a4:	314fb0        	srai	a4, a11, 31
    39a7:	c06ab0        	sub	a6, a10, a11
    39aa:	c04940        	sub	a4, a9, a4
    39ad:	625ab0        	saltu	a5, a10, a11
    39b0:	c04450        	sub	a4, a4, a5
    39b3:	06ed           	mov.n	a14, a6
    39b5:	fd7c           	movi.n	a13, -1
    39b7:	736670        	maxu	a6, a6, a7
    39ba:	a3e740        	movltz	a14, a7, a4
    39bd:	f41b           	addi.n	a15, a4, 1
    39bf:	936ef0        	movnez	a6, a14, a15
    39c2:	5344d0        	max	a4, a4, a13
    39c5:	03dd           	mov.n	a13, a3
    39c7:	5c0c           	movi.n	a12, 5
    39c9:	a3d640        	movltz	a13, a6, a4
    39cc:	63e630        	minu	a14, a6, a3
    39cf:	01cc90        	slli	a12, a12, 23
    39d2:	93ed40        	movnez	a14, a13, a4
    39d5:	090c           	movi.n	a9, 0
    39d7:	724ec0        	salt	a4, a14, a12
    39da:	839e40        	moveqz	a9, a14, a4
    39dd:	392b           	addi.n	a3, a9, 2
    39df:	62f390        	saltu	a15, a3, a9
    39e2:	314f90        	srai	a4, a9, 31
    39e5:	413230        	srli	a3, a3, 2
    39e8:	44fa           	add.n	a4, a4, a15
    39ea:	eb1430        	depbits	a3, a4, 30, 2
    39ed:	37a3b7        	bge	a3, a11, 3a28 <fn_over_subtract+0x2fc>
    39f0:	40eb40        	nsa	a4, a11
    39f3:	84dd           	ae_sext16	a13, a4
    39f5:	360334        	ae_cvtq48a32s	aeq0, a3
    39f8:	364b34        	ae_cvtq48a32s	aeq1, a11
    39fb:	f1cd32        	addi	a3, a13, -15
    39fe:	fc24fe8d0f 	{ ae_slaasq56s	aeq0, aeq0, a13; nop }
    3a03:	fc00fe934f 	{ ae_slaasq56s	aeq1, aeq1, a3; ae_satq48s	aeq0, aeq0 }
    3a08:	fd04ff0eef 	{ ae_trunca32q48	a14, aeq0; ae_satq48s	aeq1, aeq1 }
    3a0d:	369f04        	ae_trunca32q48	a15, aeq1
    3a10:	ffa052        	movi	a5, 255
    3a13:	1fd552        	addmi	a5, a5, 0x1f00
    3a16:	d23ef0        	quos	a3, a14, a15
    3a19:	a33d           	ae_clamps16	a3, a3
    3a1b:	837d           	ae_sext16	a7, a3
    3a1d:	0d2577        	blt	a5, a7, 3a2e <fn_over_subtract+0x302>

00003a20 <fn_over_subtract+0x2f4>:
    3a20:	170c           	movi.n	a7, 1
    3a22:	117730        	slli	a7, a7, 13
    3a25:	000146        	j	3a2e <fn_over_subtract+0x302>

00003a28 <fn_over_subtract+0x2fc>:
    3a28:	ffa072        	movi	a7, 255
    3a2b:	7fd772        	addmi	a7, a7, 0x7f00
    3a2e:	389242        	l16si	a4, a2, 112
    3a31:	533780        	max	a3, a7, a8
    3a34:	375272        	s16i	a7, a2, 110
    3a37:	0da347        	bge	a3, a4, 3a48 <fn_over_subtract+0x31c>
    3a3a:	c03340        	sub	a3, a3, a4
    3a3d:	a33d           	ae_clamps16	a3, a3
    3a3f:	338b           	addi.n	a3, a3, 8
    3a41:	213430        	srai	a3, a3, 4
    3a44:	334a           	add.n	a3, a3, a4
    3a46:	a33d           	ae_clamps16	a3, a3
    3a48:	3158           	l32i.n	a5, a1, 12
    3a4a:	00a142        	movi	a4, 0x100
    3a4d:	385232        	s16i	a3, a2, 112
    3a50:	242457        	blt	a4, a5, 3a78 <fn_over_subtract+0x34c>
    3a53:	2128           	l32i.n	a2, a1, 8
    3a55:	ffaef2        	movi	a15, 0xfffffeff
    3a58:	300334        	ae_cvtp24a16x2.ll	aep0, a3, a3
    3a5b:	35fa           	add.n	a3, a5, a15
    3a5d:	a02520        	addx4	a2, a5, a2
    3a60:	603030        	neg	a3, a3
    3a63:	601204        	ae_lq32f.iu	aeq0, a2, 0
    3a66:	0e8376        	loop	a3, 3a78 <fn_over_subtract+0x34c>
    3a69:	030214        	ae_mulfq32sp16s.l	aeq0, aeq0, aep0
    3a6c:	350094        	ae_slliq56	aeq0, aeq0, 2
    3a6f:	060934        	ae_roundsq32asym	aeq0, aeq0
    3a72:	624204        	ae_sq32f.iu	aeq0, a2, 0
    3a75:	601214        	ae_lq32f.iu	aeq0, a2, 4

00003a78 <fn_over_subtract+0x34c>:
    3a78:	f01d           	retw.n

00003a7a <fn_over_subtract+0x34e>:
	...

00003a7c <fn_ini_noise_cancellation>:
    3a7c:	004136        	entry	a1, 32
    3a7f:	6ba2c2        	movi	a12, 0x26b
    3a82:	f17d71        	l32r	a7, 78 (90e4 <xt_memset>)
    3a85:	11cce0        	slli	a12, a12, 2
    3a88:	0b0c           	movi.n	a11, 0
    3a8a:	02ad           	mov.n	a10, a2
    3a8c:	0007e0        	callx8	a7
    3a8f:	13d272        	addmi	a7, a2, 0x1300
    3a92:	275742        	s16i	a4, a7, 78
    3a95:	126732        	s32i	a3, a7, 72
    3a98:	285752        	s16i	a5, a7, 80
    3a9b:	156762        	s32i	a6, a7, 84
    3a9e:	f01d           	retw.n

00003aa0 <dot_prod_q31>:
    3aa0:	004136        	entry	a1, 32
    3aa3:	0358           	l32i.n	a5, a3, 0
    3aa5:	0268           	l32i.n	a6, a2, 0
    3aa7:	215850        	srai	a5, a5, 8
    3aaa:	216860        	srai	a6, a6, 8
    3aad:	827650        	mull	a7, a6, a5
    3ab0:	b26650        	mulsh	a6, a6, a5
    3ab3:	058f70        	extui	a8, a7, 31, 1
    3ab6:	1157f0        	slli	a5, a7, 1
    3ab9:	906680        	addx2	a6, a6, a8
    3abc:	2f24a6        	blti	a4, 2, 3aef <dot_prod_q31+0x4f>
    3abf:	440b           	addi.n	a4, a4, -1
    3ac1:	334b           	addi.n	a3, a3, 4
    3ac3:	224b           	addi.n	a2, a2, 4
    3ac5:	268476        	loop	a4, 3aef <dot_prod_q31+0x4f>
    3ac8:	0248           	l32i.n	a4, a2, 0
    3aca:	0378           	l32i.n	a7, a3, 0
    3acc:	224b           	addi.n	a2, a2, 4
    3ace:	214840        	srai	a4, a4, 8
    3ad1:	217870        	srai	a7, a7, 8
    3ad4:	828470        	mull	a8, a4, a7
    3ad7:	b24470        	mulsh	a4, a4, a7
    3ada:	05ef80        	extui	a14, a8, 31, 1
    3add:	9044e0        	addx2	a4, a4, a14
    3ae0:	905850        	addx2	a5, a8, a5
    3ae3:	1188f0        	slli	a8, a8, 1
    3ae6:	62f580        	saltu	a15, a5, a8
    3ae9:	446a           	add.n	a4, a4, a6
    3aeb:	334b           	addi.n	a3, a3, 4
    3aed:	64fa           	add.n	a6, a4, a15

00003aef <dot_prod_q31+0x4f>:
    3aef:	120c           	movi.n	a2, 1
    3af1:	112210        	slli	a2, a2, 15
    3af4:	252a           	add.n	a2, a5, a2
    3af6:	625250        	saltu	a5, a2, a5
    3af9:	f52020        	extui	a2, a2, 16, 16
    3afc:	565a           	add.n	a5, a6, a5
    3afe:	f37c           	movi.n	a3, -1
    3b00:	0bf520        	depbits	a2, a5, 16, 16
    3b03:	f77c           	movi.n	a7, -1
    3b05:	315050        	srai	a5, a5, 16
    3b08:	013310        	slli	a3, a3, 31
    3b0b:	02cd           	mov.n	a12, a2
    3b0d:	f47c           	movi.n	a4, -1
    3b0f:	417170        	srli	a7, a7, 1
    3b12:	732230        	maxu	a2, a2, a3
    3b15:	a3c350        	movltz	a12, a3, a5
    3b18:	d51b           	addi.n	a13, a5, 1
    3b1a:	932cd0        	movnez	a2, a12, a13
    3b1d:	53e540        	max	a14, a5, a4
    3b20:	07fd           	mov.n	a15, a7
    3b22:	a3f2e0        	movltz	a15, a2, a14
    3b25:	632270        	minu	a2, a2, a7
    3b28:	932fe0        	movnez	a2, a15, a14
    3b2b:	f01d           	retw.n

00003b2d <dot_prod_q31+0x8d>:
    3b2d:	000000                                        ...

00003b30 <fn_noise_cancellation>:
    3b30:	00c136        	entry	a1, 96
    3b33:	05bd           	mov.n	a11, a5
    3b35:	13d2a2        	addmi	a10, a2, 0x1300
    3b38:	f17051        	l32r	a5, f8 (e920 <nc_biquad_coef>)
    3b3b:	c4a792        	movi	a9, 0x7c4
    3b3e:	152aa2        	l32i	a10, a10, 84
    3b41:	2c0c           	movi.n	a12, 2
    3b43:	e1a9           	s32i.n	a10, a1, 56
    3b45:	f0a062        	movi	a6, 240
    3b48:	408304        	ae_lp16f.iu	aep0, a3, 0
    3b4b:	fc0c2c940f 	{ ae_lp16f.iu	aep1, a4, 0; ae_cvtq48p24s.l	aeq0, aep0 }
    3b50:	14c272        	addi	a7, a2, 20
    3b53:	28c282        	addi	a8, a2, 40
    3b56:	7129           	s32i.n	a2, a1, 28
    3b58:	929a           	add.n	a9, a2, a9
    3b5a:	0c2d           	mov.n	a2, a12
    3b5c:	0bad           	mov.n	a10, a11
    3b5e:	c1b9           	s32i.n	a11, a1, 48

00003b60 <fn_noise_cancellation+0x30>:
    3b60:	408314        	ae_lp16f.iu	aep0, a3, 2
    3b63:	07bd           	mov.n	a11, a7
    3b65:	05cd           	mov.n	a12, a5
    3b67:	448276        	loop	a2, 3baf <fn_noise_cancellation+0x7f>
    3b6a:	0cdd           	mov.n	a13, a12
    3b6c:	5cad04        	ae_lp24x2f.iu	aep2, a13, 0
    3b6f:	5cbd14        	ae_lp24x2f.iu	aep3, a13, 8
    3b72:	f4cbe2        	addi	a14, a11, -12
    3b75:	0efd           	mov.n	a15, a14
    3b77:	5ccd14        	ae_lp24x2f.iu	aep4, a13, 8
    3b7a:	605f04        	ae_lq32f.iu	aeq1, a15, 0
    3b7d:	f8083f0def 	{ ae_trunca32q48	a13, aeq0; ae_mulfq32sp24s.h	aeq0, aeq0, aep2 }
    3b82:	f4cbbd7f1f 	{ ae_lq32f.iu	aeq3, a15, 4; ae_mulafq32sp24s.l	aeq0, aeq1, aep2 }
    3b87:	f64fbd5f1f 	{ ae_lq32f.iu	aeq2, a15, 4; ae_mulafq32sp24s.h	aeq0, aeq3, aep3 }
    3b8c:	f6cebd7f1f 	{ ae_lq32f.iu	aeq3, a15, 4; ae_mulafq32sp24s.l	aeq0, aeq2, aep3 }
    3b91:	f6ceb00efe 	{ l32i	a15, a14, 0; ae_mulafq32sp24s.l	aeq0, aeq2, aep3 }
