
Build/lib/pisplit_ecnr_position_independent.splitload.lib:     file format elf32-xtensa-le


Disassembly of section .text:

00000000 <_init-0x4a0>:
       0:	000004ec 00009a0c 0000a7ac 00000000     ................
      10:	0000a77c 00000000 0000a794 0000c3d0     |...............
      20:	0000a7f8 00002c80 0000a811 00002d94     .....,.......-..
      30:	0000a828 000036e4 0000a83f 0000444c     (....6..?...LD..
      40:	0000a85a 00006854 0000a86e 00004394     Z...Th..n....C..
      50:	0000a885 00006550 0000a899 000043f0     ....Pe.......C..
      60:	0000a8b0 000044a8 0000a8ce 00005ff8     .....D......._..
      70:	0000a8e7 000099ec 0000a8f7 00002c8c     .............,..
      80:	0000a911 000044f8 0000a933 00002c78     .....D..3...x,..
      90:	0000a7c0 00000680 0000c3d4 0000be40     ............@...
      a0:	0000bb40 0000bbb0 00009a44 0000c3dc     @.......D.......
      b0:	00009a58 0000be20 dacccccd 0dfffffe     X... ...........
      c0:	00b33333 fb4ccccd fcb33333 7fff0000     33....L.33......
      d0:	00009aa0 00000830 33334ccd 7fe70019     ....0....L33....
      e0:	7e1401ec 000049cc 00009a30 00147ae1     ...~.I..0....z..
      f0:	0000133c 00533333 005851ec 005ae148     <...33S..QX.H.Z.
     100:	005ccccd 002ccccd 00466666 0000c148     ..\...,.ffF.H...
     110:	7ffffffe 005a8200 c28f0000 cccd0000     ......Z.........
     120:	e6660000 f3330000 0ccd0000 199a0000     ..f...3.........
     130:	33330000 3d710000 004ccccd 006ccccd     ..33..q=..L...l.
     140:	0059999a 00733333 0070a3d7 007e147b     ..Y.33s...p.{.~.
     150:	007fbe77 00000e44 0039999a 005d70a4     w...D.....9..p].
     160:	00666666 00014001 000ccccd 00001448     fff..@......H...
     170:	00009adc 000aaaab 000006d8 00cccccd     ................
     180:	0099999a 00435e51 0159999a 13ffffff     ....Q^C...Y.....
     190:	f570a3d7 2428f5c4 00002040 00300040     ..p...($@ ..@.0.
     1a0:	00200018 00c00100 00600040 00002574     .. .....@.`.t%..
     1b0:	00002558 002aaa00 0000bab0 000088fc     X%....*.........
     1c0:	000087f4 000025f4 0000265c 000026f4     .....%..\&...&..
     1d0:	00009900 00002d08 0000234c 0000666c     .....-..L#..lf..
     1e0:	0000c3d8 000045e8 00005eec 0000bcc0     .....E...^......
     1f0:	0000bce0 0000bd20 0000bd60 00011111     .... ...`.......
     200:	0000360c 00002f9c 0000313c 00002fd0     .6.../..<1.../..
     210:	000031c8 000032f8 00002798 000029d4     .1...2...'...)..
     220:	00003398 0000326c 00003088 00004ab8     .3..l2...0...J..
     230:	00004d3c 00005008 00004e84 000053f4     <M...P...N...S..
     240:	00005568 00002d38 000058e0 00005a30     hU..8-...X..0Z..
     250:	00005298 00002c34 0000770c 000065ec     .R..4,...w...e..
     260:	00003564 000034f8 00003184 00006894     d5...4...1...h..
     270:	00006594 0d330000 0e390000 000069e0     .e....3...9..i..
     280:	000ccccc 00393e4b 00155555 00175e97     ....K>9.UU...^..
     290:	00004508 00004a54 000049ec c0010000     .E..TJ...I......
     2a0:	3fff0000 00005d60 00005e20 0000af80     ...?`].. ^......
     2b0:	0000ae70 0000a950 0000b190 0000af00     p...P...........
     2c0:	0000aad0 0000b3a0 0000af50 0000ac90     ........P.......
     2d0:	007fff00 0000be80 00006134 0000c0a0     ........4a......
     2e0:	0000ee09 00000734 0000998c 000062c8     ....4........b..
     2f0:	00001a84 00007900 00001ad4 00007a98     .....y.......z..
     300:	00007bd0 00007f14 00008068 000082e0     .{......h.......
     310:	000005b0 00008644 0000c2c0 000066b0     ....D........f..
     320:	000068ec 00038e39 00035e51 ffe9ffe9     .h..9...Q^......
     330:	0000b5b0 0000926c 7f5c00a4 7ff00010     ....l.....\.....
     340:	00009578 034ccccd 00d9999a fe266666     x.....L.....ff&.
     350:	01eb851f 04cccccd 023fffff 0059999b     ..........?...Y.
     360:	ffa66666 0000e667 0000e001 000078d8     ff..g........x..
     370:	46666666 2666599a 1b333333 1e666666     fffF.Yf&333.fff.
     380:	7ccd0333 23333333 1ccccccd 00333333     3..|333#....333.
     390:	7eb80148 40004000 6666199a 00266666     H..~.@.@..ffff&.
     3a0:	599a2666 007ccccd 7fbe0042 7f1b00e5     f&.Y..|.B.......
     3b0:	00006940 6ccd1333 799a0666 5999999a     @i..3..lf..y...Y
     3c0:	0000bb20 10000001 00006b40 00007d20      .......@k.. }..
     3d0:	75c30a3d 00006990 0000be70 000e38e4     =..u.i..p....8..
     3e0:	00124925 0000be60 00000884 00000e34     %I..`.......4...
     3f0:	00008140 00008210 80000001 00008c60     @...........`...
     400:	0000b9b0 000089bc 00008920 00008c90     ........ .......
     410:	00008ee4 00008f0c 00008f38 00008f88     ........8.......
     420:	00008f60 00008fec 00008fc4 00009238     `...........8...
     430:	000091cc 003eb852 00333334 00266667     ....R.>.433.gf&.
     440:	0019999a ffc147ae ffcccccc ffd99999     .....G..........
     450:	ffe66666 fff33333 ffe00001 00028f5e     ff..33......^...
     460:	fe924dd3 04d24dd3 0effffff 077fffff     .M...M..........
     470:	0021eb86 00666667 cb333334 fb333334     ..!.gff.433.433.
     480:	00009340 00009420 000094b4 0399999a     @... ...........
     490:	0299999a 000098a8 0000a784 000004b8     ................

000004a0 <_init>:
     4a0:	008136        	entry	a1, 64
     4a3:	fed781        	l32r	a8, 0 (4ec <frame_dummy>)
     4a6:	f03d           	nop.n
     4a8:	0008e0        	callx8	a8
     4ab:	fed681        	l32r	a8, 4 (9a0c <__do_global_ctors_aux>)
     4ae:	f03d           	nop.n
     4b0:	0008e0        	callx8	a8
     4b3:	f01d           	retw.n

000004b5 <_init+0x15>:
     4b5:	000000                                        ...

000004b8 <__do_global_dtors_aux>:
     4b8:	004136        	entry	a1, 32
     4bb:	fed321        	l32r	a2, 8 (a7ac <__do_global_dtors_aux.completed>)
     4be:	000232        	l8ui	a3, a2, 0
     4c1:	23ec           	bnez.n	a3, 4e7 <__do_global_dtors_aux+0x2f>

000004c3 <__do_global_dtors_aux+0xb>:
     4c3:	1248           	l32i.n	a4, a2, 4
     4c5:	0438           	l32i.n	a3, a4, 0
     4c7:	444b           	addi.n	a4, a4, 4
     4c9:	738c           	beqz.n	a3, 4d4 <__do_global_dtors_aux+0x1c>
     4cb:	1249           	s32i.n	a4, a2, 4
     4cd:	0003e0        	callx8	a3
     4d0:	fffbc6        	j	4c3 <__do_global_dtors_aux+0xb>

000004d3 <__do_global_dtors_aux+0x1b>:
	...

000004d4 <__do_global_dtors_aux+0x1c>:
     4d4:	fece31        	l32r	a3, c (0 <_text_start>)
     4d7:	fecea1        	l32r	a10, 10 (a77c <__FRAME_END__>)
     4da:	438c           	beqz.n	a3, 4e2 <__do_global_dtors_aux+0x2a>
     4dc:	fecc81        	l32r	a8, c (0 <_text_start>)
     4df:	0008e0        	callx8	a8
     4e2:	130c           	movi.n	a3, 1
     4e4:	004232        	s8i	a3, a2, 0
     4e7:	f01d           	retw.n

000004e9 <__do_global_dtors_aux+0x31>:
     4e9:	000000                                        ...

000004ec <frame_dummy>:
     4ec:	004136        	entry	a1, 32
     4ef:	fec921        	l32r	a2, 14 (0 <_text_start>)
     4f2:	fec7a1        	l32r	a10, 10 (a77c <__FRAME_END__>)
     4f5:	fec8b1        	l32r	a11, 18 (a794 <frame_dummy.object>)
     4f8:	428c           	beqz.n	a2, 500 <frame_dummy+0x14>
     4fa:	fec681        	l32r	a8, 14 (0 <_text_start>)
     4fd:	0008e0        	callx8	a8

00000500 <frame_dummy+0x14>:
     500:	f01d           	retw.n

00000502 <frame_dummy+0x16>:
	...

00000504 <_start>:
     504:	004136        	entry	a1, 32
     507:	fec531        	l32r	a3, 1c (c3d0 <printf_ptr>)
     50a:	0228           	l32i.n	a2, a2, 0
     50c:	fec5a1        	l32r	a10, 20 (a7f8 <export_parameter_array+0x38>)
     50f:	fec5b1        	l32r	a11, 24 (2c80 <get_aec_nr_memsize>)
     512:	0329           	s32i.n	a2, a3, 0
     514:	0002e0        	callx8	a2
     517:	0328           	l32i.n	a2, a3, 0
     519:	fec3a1        	l32r	a10, 28 (a811 <export_parameter_array+0x51>)
     51c:	fec4b1        	l32r	a11, 2c (2d94 <Voice_WB_TX_Init>)
     51f:	0002e0        	callx8	a2
     522:	0328           	l32i.n	a2, a3, 0
     524:	fec3a1        	l32r	a10, 30 (a828 <export_parameter_array+0x68>)
     527:	fec3b1        	l32r	a11, 34 (36e4 <Voice_WB_TX_Prcs>)
     52a:	0002e0        	callx8	a2
     52d:	0328           	l32i.n	a2, a3, 0
     52f:	fec2a1        	l32r	a10, 38 (a83f <export_parameter_array+0x7f>)
     532:	fec2b1        	l32r	a11, 3c (444c <EC_REF_GAIN_READBACK>)
     535:	0002e0        	callx8	a2
     538:	0328           	l32i.n	a2, a3, 0
     53a:	fec1a1        	l32r	a10, 40 (a85a <export_parameter_array+0x9a>)
     53d:	fec1b1        	l32r	a11, 44 (6854 <NB_RX_NR_init>)
     540:	0002e0        	callx8	a2
     543:	0328           	l32i.n	a2, a3, 0
     545:	fec0a1        	l32r	a10, 48 (a86e <export_parameter_array+0xae>)
     548:	fec1b1        	l32r	a11, 4c (4394 <Voice_NB_RX_Prcs>)
     54b:	0002e0        	callx8	a2
     54e:	0328           	l32i.n	a2, a3, 0
     550:	fec0a1        	l32r	a10, 50 (a885 <export_parameter_array+0xc5>)
     553:	fec0b1        	l32r	a11, 54 (6550 <WB_RX_NR_init>)
     556:	0002e0        	callx8	a2
     559:	0328           	l32i.n	a2, a3, 0
     55b:	febfa1        	l32r	a10, 58 (a899 <export_parameter_array+0xd9>)
     55e:	febfb1        	l32r	a11, 5c (43f0 <Voice_WB_RX_Prcs>)
     561:	0002e0        	callx8	a2
     564:	0328           	l32i.n	a2, a3, 0
     566:	febea1        	l32r	a10, 60 (a8b0 <export_parameter_array+0xf0>)
     569:	febeb1        	l32r	a11, 64 (44a8 <EC_PreLim_Coef_READBACK>)
     56c:	0002e0        	callx8	a2
     56f:	0328           	l32i.n	a2, a3, 0
     571:	febda1        	l32r	a10, 68 (a8ce <export_parameter_array+0x10e>)
     574:	febeb1        	l32r	a11, 6c (5ff8 <AEC_NR_Write_FLASH>)
     577:	0002e0        	callx8	a2
     57a:	0328           	l32i.n	a2, a3, 0
     57c:	febda1        	l32r	a10, 70 (a8e7 <export_parameter_array+0x127>)
     57f:	febdb1        	l32r	a11, 74 (99ec <EQ_update>)
     582:	0002e0        	callx8	a2
     585:	0328           	l32i.n	a2, a3, 0
     587:	febca1        	l32r	a10, 78 (a8f7 <export_parameter_array+0x137>)
     58a:	febcb1        	l32r	a11, 7c (2c8c <get_txnr_pitch_last>)
     58d:	0002e0        	callx8	a2
     590:	0328           	l32i.n	a2, a3, 0
     592:	febba1        	l32r	a10, 80 (a911 <export_parameter_array+0x151>)
     595:	febbb1        	l32r	a11, 84 (44f8 <DaulMIC_power_Coef_READBACK>)
     598:	0002e0        	callx8	a2
     59b:	0328           	l32i.n	a2, a3, 0
     59d:	febaa1        	l32r	a10, 88 (a933 <export_parameter_array+0x173>)
     5a0:	febbb1        	l32r	a11, 8c (2c78 <get_ECNR_SVN>)
     5a3:	0002e0        	callx8	a2
     5a6:	feba21        	l32r	a2, 90 (a7c0 <export_parameter_array>)
     5a9:	f01d           	retw.n

000005ab <_start+0xa7>:
     5ab:	00000000                                 .....

000005b0 <comfort_noise_gen_wb>:
     5b0:	008136        	entry	a1, 64
     5b3:	15d2e2        	addmi	a14, a2, 0x1500
     5b6:	fc20bd0e0f 	{ ae_lq32f.i	aeq0, a14, 0; ae_zerop48	aep0 }
     5bb:	f8424fc38e 	{ addi	a8, a3, -4; ae_truncp24q48x2	aep1, aeq0, aeq0 }
     5c0:	0bd272        	addmi	a7, a2, 0xb00
     5c3:	f88427d73e 	{ l16si	a3, a7, 250; ae_mulfq32sp24s.l	aeq0, aeq0, aep1 }
     5c8:	468814        	ae_sp16x2f.iu	aep0, a8, 4
     5cb:	fb4273881f 	{ ae_sp16x2f.iu	aep0, a8, 4; ae_truncp24q48x2	aep7, aeq0, aeq0 }
     5d0:	31a452        	movi	a5, 0x431
     5d3:	1155e0        	slli	a5, a5, 2
     5d6:	70a462        	movi	a6, 0x470
     5d9:	15d2f2        	addmi	a15, a2, 0x1500
     5dc:	468814        	ae_sp16x2f.iu	aep0, a8, 4
     5df:	726a           	add.n	a7, a2, a6
     5e1:	040c           	movi.n	a4, 0
     5e3:	71f9           	s32i.n	a15, a1, 28
     5e5:	525a           	add.n	a5, a2, a5
     5e7:	561124        	ae_sp24x2s.i	aep1, a1, 16
     5ea:	682b           	addi.n	a6, a8, 2
     5ec:	567114        	ae_sp24x2s.i	aep7, a1, 8
     5ef:	000b06        	j	61f <comfort_noise_gen_wb+0x6f>

000005f2 <comfort_noise_gen_wb+0x42>:
     5f2:	081524        	ae_mulfq32sp24s.l	aeq0, aeq0, aep1
     5f5:	301894        	ae_cvtp24a16x2.ll	aep1, a8, a9
     5f8:	d4e640144e 	{ addi	a4, a4, 1; ae_mulfq32sp16s.l	aeq1, aeq0, aep1 }
     5fd:	d56640eeff 	{ movi	a15, 238; ae_mulfq32sp16s.h	aeq3, aeq0, aep1 }
     602:	d4e340477e 	{ addi	a7, a7, 4; ae_mulfq32sp16s.l	aeq1, aeq1, aep0 }
     607:	0302d4        	ae_mulfq32sp16s.l	aeq0, aeq3, aep0
     60a:	fc24fe9a4f 	{ ae_slaasq56s	aeq1, aeq1, a10; nop }
     60f:	fbebbe8a0f 	{ ae_slaasq56s	aeq0, aeq0, a10; ae_roundsp16q48sym	aep6, aeq1 }
     614:	fbe3f2e61f 	{ ae_sp16f.l.iu	aep6, a6, 2; ae_roundsp16q48sym	aep7, aeq0 }
     619:	42f614        	ae_sp16f.l.iu	aep7, a6, 2
     61c:	4f14f7        	beq	a4, a15, 66f <comfort_noise_gen_wb+0xbf>
     61f:	07b8           	l32i.n	a11, a7, 0
     621:	fe9c81        	l32r	a8, 94 (680 <HIFI_sqrt>)
     624:	03ad           	mov.n	a10, a3
     626:	0008e0        	callx8	a8
     629:	fe9b81        	l32r	a8, 98 (c3d4 <p_ecnr_mem>)
     62c:	71d8           	l32i.n	a13, a1, 28
     62e:	75a0e2        	movi	a14, 117
     631:	0888           	l32i.n	a8, a8, 0
     633:	f1a3f2        	movi	a15, 0x3f1
     636:	360b34        	ae_cvtq48a32s	aeq0, a11
     639:	1ad8c2        	addmi	a12, a8, 0x1a00
     63c:	179c92        	l16si	a9, a12, 46
     63f:	bbde82        	addmi	a8, a14, 0xffffbb00
     642:	059dd2        	l16si	a13, a13, 10
     645:	b0bff0        	addx8	a11, a15, a15
     648:	828980        	mull	a8, a9, a8
     64b:	8299b0        	mull	a9, a9, a11
     64e:	175c92        	s16i	a9, a12, 46
     651:	408514        	ae_lp16f.iu	aep0, a5, 2
     654:	9d24d7        	blt	a4, a13, 5f5 <comfort_noise_gen_wb+0x45>
     657:	3502b2        	l8ui	a11, a2, 53
     65a:	fe90c1        	l32r	a12, 9c (be40 <wb_sb_ptn>)
     65d:	541114        	ae_lp24x2.i	aep1, a1, 8
     660:	91b4b7        	bgeu	a4, a11, 5f5 <comfort_noise_gen_wb+0x45>
     663:	089cb2        	l16si	a11, a12, 16
     666:	88a4b7        	bge	a4, a11, 5f2 <comfort_noise_gen_wb+0x42>
     669:	541124        	ae_lp24x2.i	aep1, a1, 16
     66c:	ffe086        	j	5f2 <comfort_noise_gen_wb+0x42>

0000066f <comfort_noise_gen_wb+0xbf>:
     66f:	f30c           	movi.n	a3, 15
     671:	fc208fe62e 	{ addi	a2, a6, -2; ae_zerop48	aep0 }
     676:	028376        	loop	a3, 67c <comfort_noise_gen_wb+0xcc>
     679:	468214        	ae_sp16x2f.iu	aep0, a2, 4

0000067c <comfort_noise_gen_wb+0xcc>:
     67c:	f01d           	retw.n

0000067e <comfort_noise_gen_wb+0xce>:
	...

00000680 <HIFI_sqrt>:
     680:	004136        	entry	a1, 32
     683:	4b13a6        	blti	a3, 1, 6d2 <HIFI_sqrt+0x52>
     686:	40e340        	nsa	a4, a3
     689:	c02240        	sub	a2, a2, a4
     68c:	401400        	ssl	a4
     68f:	044020        	extui	a4, a2, 0, 1
     692:	a1c300        	sll	a12, a3
     695:	400400        	ssr	a4
     698:	b130c0        	sra	a3, a12
     69b:	656930        	extui	a6, a3, 25, 7
     69e:	fe80d1        	l32r	a13, a0 (bb40 <TABLE_SQRT>)
     6a1:	050c           	movi.n	a5, 0
     6a3:	f0c662        	addi	a6, a6, -16
     6a6:	535650        	max	a5, a6, a5
     6a9:	9055d0        	addx2	a5, a5, a13
     6ac:	456d           	ae_l16ui.n	a6, a5, 0
     6ae:	355d           	ae_l16si.n	a5, a5, 2
     6b0:	413930        	srli	a3, a3, 9
     6b3:	11f600        	slli	a15, a6, 16
     6b6:	c0e560        	sub	a14, a5, a6
     6b9:	300334        	ae_cvtp24a16x2.ll	aep0, a3, a3
     6bc:	113e00        	slli	a3, a14, 16
     6bf:	360f34        	ae_cvtq48a32s	aeq0, a15
     6c2:	364334        	ae_cvtq48a32s	aeq1, a3
     6c5:	d4e110242f 	{ add	a2, a4, a2; ae_mulaq32sp16u.l	aeq0, aeq1, aep0 }
     6ca:	212120        	srai	a2, a2, 1
     6cd:	368304        	ae_trunca32q48	a3, aeq0
     6d0:	f01d           	retw.n

000006d2 <HIFI_sqrt+0x52>:
     6d2:	020c           	movi.n	a2, 0
     6d4:	030c           	movi.n	a3, 0
     6d6:	f01d           	retw.n

000006d8 <Log2_norm>:
     6d8:	004136        	entry	a1, 32
     6db:	024d           	mov.n	a4, a2
     6dd:	ff7c           	movi.n	a15, -1
     6df:	012f10        	slli	a2, a15, 31
     6e2:	3214a6        	blti	a4, 1, 718 <Log2_norm+0x40>
     6e5:	156c           	movi.n	a5, -31
     6e7:	2d2357        	blt	a3, a5, 718 <Log2_norm+0x40>
     6ea:	022c           	movi.n	a2, 32
     6ec:	06a237        	bge	a2, a3, 6f6 <Log2_norm+0x1e>
     6ef:	f27c           	movi.n	a2, -1
     6f1:	412120        	srli	a2, a2, 1
     6f4:	f01d           	retw.n

000006f6 <Log2_norm+0x1e>:
     6f6:	fe6b51        	l32r	a5, a4 (bbb0 <TABLE_LOG2_1530>)
     6f9:	552840        	extui	a2, a4, 24, 6
     6fc:	1122e0        	slli	a2, a2, 2
     6ff:	603524        	ae_lq32f.xu	aeq0, a5, a2
     702:	604514        	ae_lq32f.i	aeq1, a5, 4
     705:	f92ae2044f 	{ ae_movpa24x2	aep0, a4, a4; ae_subq56	aeq1, aeq1, aeq0 }
     70a:	030174        	ae_mulaq32sp16u.l	aeq0, aeq1, aep0
     70d:	013360        	slli	a3, a3, 26
     710:	368f04        	ae_trunca32q48	a15, aeq0
     713:	2125f0        	srai	a2, a15, 5
     716:	223a           	add.n	a2, a2, a3
     718:	f01d           	retw.n

0000071a <Log2_norm+0x42>:
     71a:	00000000                                 ......

00000720 <COMPL_S16x2_fun>:
     720:	004136        	entry	a1, 32
     723:	f37c           	movi.n	a3, -1
     725:	013310        	slli	a3, a3, 31
     728:	114200        	slli	a4, a2, 16
     72b:	30f230        	xor	a15, a2, a3
     72e:	c02f40        	sub	a2, a15, a4
     731:	f01d           	retw.n

00000733 <COMPL_S16x2_fun+0x13>:
	...

00000734 <PD_INIT>:
     734:	004136        	entry	a1, 32
     737:	fe5851        	l32r	a5, 98 (c3d4 <p_ecnr_mem>)
     73a:	4da532        	movi	a3, 0x54d
     73d:	1133c0        	slli	a3, a3, 4
     740:	0548           	l32i.n	a4, a5, 0
     742:	fe5961        	l32r	a6, a8 (9a44 <xt_memset>)
     745:	0b0c           	movi.n	a11, 0
     747:	343a           	add.n	a3, a4, a3
     749:	f0a2c2        	movi	a12, 0x2f0
     74c:	03ad           	mov.n	a10, a3
     74e:	0006e0        	callx8	a6
     751:	fe5671        	l32r	a7, ac (c3dc <aec_nr_para>)
     754:	a4a082        	movi	a8, 164
     757:	7c0c           	movi.n	a12, 7
     759:	0768           	l32i.n	a6, a7, 0
     75b:	03ad           	mov.n	a10, a3
     75d:	b68a           	add.n	a11, a6, a8
     75f:	fe5461        	l32r	a6, b0 (9a58 <xt_memcpy>)
     762:	0006e0        	callx8	a6
     765:	882c           	movi.n	a8, 40
     767:	57d882        	addmi	a8, a8, 0x5700
     76a:	59d492        	addmi	a9, a4, 0x5900
     76d:	1a0c           	movi.n	a10, 1
     76f:	5d0c           	movi.n	a13, 5
     771:	7da5c2        	movi	a12, 0x57d
     774:	7459a2        	s16i	a10, a9, 232
     777:	11acc0        	slli	a10, a12, 4
     77a:	019df0        	slli	a9, a13, 17
     77d:	56d4e2        	addmi	a14, a4, 0x5600
     780:	848a           	add.n	a8, a4, a8
     782:	78a0d2        	movi	a13, 120
     785:	9e99           	s32i.n	a9, a14, 36
     787:	57d4f2        	addmi	a15, a4, 0x5700
     78a:	f66e82        	s32i	a8, a14, 0x3d8
     78d:	58dd82        	addmi	a8, a13, 0x5800
     790:	a4aa           	add.n	a10, a4, a10
     792:	c9a2e2        	movi	a14, 0x2c9
     795:	0738           	l32i.n	a3, a7, 0
     797:	9f99           	s32i.n	a9, a15, 36
     799:	b76fa2        	s32i	a10, a15, 0x2dc
     79c:	59d4b2        	addmi	a11, a4, 0x5900
     79f:	11aeb0        	slli	a10, a14, 5
     7a2:	848a           	add.n	a8, a4, a8
     7a4:	d8a0f2        	movi	a15, 216
     7a7:	386b82        	s32i	a8, a11, 224
     7aa:	59df82        	addmi	a8, a15, 0x5900
     7ad:	a4aa           	add.n	a10, a4, a10
     7af:	8c2c           	movi.n	a12, 40
     7b1:	396ba2        	s32i	a10, a11, 228
     7b4:	848a           	add.n	a8, a4, a8
     7b6:	56dca2        	addmi	a10, a12, 0x5600
     7b9:	346b82        	s32i	a8, a11, 208
     7bc:	84aa           	add.n	a8, a4, a10
     7be:	54d472        	addmi	a7, a4, 0x5400
     7c1:	c793d2        	l16si	a13, a3, 0x18e
     7c4:	c893e2        	l16si	a14, a3, 0x190
     7c7:	8b2c           	movi.n	a11, 40
     7c9:	ff7c           	movi.n	a15, -1
     7cb:	6f57d2        	s16i	a13, a7, 222
     7ce:	7057e2        	s16i	a14, a7, 224
     7d1:	4171f0        	srli	a7, a15, 1
     7d4:	089d           	mov.n	a9, a8
     7d6:	038b76        	loop	a11, 7dd <PD_INIT+0xa9>
     7d9:	0979           	s32i.n	a7, a9, 0
     7db:	994b           	addi.n	a9, a9, 4

000007dd <PD_INIT+0xa9>:
     7dd:	0558           	l32i.n	a5, a5, 0
     7df:	59d472        	addmi	a7, a4, 0x5900
     7e2:	17a5b2        	movi	a11, 0x517
     7e5:	356782        	s32i	a8, a7, 212
     7e8:	117bd0        	slli	a7, a11, 3
     7eb:	090c           	movi.n	a9, 0
     7ed:	1ad5a2        	addmi	a10, a5, 0x1a00
     7f0:	757a           	add.n	a7, a5, a7
     7f2:	1ad552        	addmi	a5, a5, 0x1a00
     7f5:	1a5a92        	s16i	a9, a10, 52
     7f8:	1a6572        	s32i	a7, a5, 104
     7fb:	d5a2d2        	movi	a13, 0x2d5
     7fe:	196522        	s32i	a2, a5, 100
     801:	117db0        	slli	a7, a13, 5
     804:	f2a0e2        	movi	a14, 242
     807:	5ad4c2        	addmi	a12, a4, 0x5a00
     80a:	3b23f2        	l32i	a15, a3, 236
     80d:	266cf2        	s32i	a15, a12, 152
     810:	b3ea           	add.n	a11, a3, a14
     812:	a47a           	add.n	a10, a4, a7
     814:	3c0c           	movi.n	a12, 3
     816:	0006e0        	callx8	a6
     819:	08d232        	addmi	a3, a2, 0x800
     81c:	5ad452        	addmi	a5, a4, 0x5a00
     81f:	77a1d2        	movi	a13, 0x177
     822:	246532        	s32i	a3, a5, 144
     825:	113dd0        	slli	a3, a13, 3
     828:	f23a           	add.n	a15, a2, a3
     82a:	2365f2        	s32i	a15, a5, 140
     82d:	f01d           	retw.n

0000082f <PD_INIT+0xfb>:
	...

00000830 <wind_noise_alpha>:
     830:	004136        	entry	a1, 32
     833:	f77c           	movi.n	a7, -1
     835:	017710        	slli	a7, a7, 31
     838:	2213a6        	blti	a3, 1, 85e <wind_noise_alpha+0x2e>
     83b:	944d           	ae_zext16	a4, a4
     83d:	824460        	mull	a4, a4, a6
     840:	414e40        	srli	a4, a4, 14
     843:	948d           	ae_zext16	a8, a4
     845:	114400        	slli	a4, a4, 16
     848:	c08840        	sub	a8, a8, a4
     84b:	024d           	mov.n	a4, a2
     84d:	887a           	add.n	a8, a8, a7
     84f:	038376        	loop	a3, 856 <wind_noise_alpha+0x26>
     852:	0489           	s32i.n	a8, a4, 0
     854:	444b           	addi.n	a4, a4, 4

00000856 <wind_noise_alpha+0x26>:
     856:	942c           	movi.n	a4, 41
     858:	04b437        	bgeu	a4, a3, 860 <wind_noise_alpha+0x30>
     85b:	0008c6        	j	882 <wind_noise_alpha+0x52>

0000085e <wind_noise_alpha+0x2e>:
     85e:	030c           	movi.n	a3, 0
     860:	954d           	ae_zext16	a4, a5
     862:	824460        	mull	a4, a4, a6
     865:	d6c3d2        	addi	a13, a3, -42
     868:	41fe40        	srli	a15, a4, 14
     86b:	a02320        	addx4	a2, a3, a2
     86e:	9f4d           	ae_zext16	a4, a15
     870:	113f00        	slli	a3, a15, 16
     873:	c03430        	sub	a3, a4, a3
     876:	60e0d0        	neg	a14, a13
     879:	337a           	add.n	a3, a3, a7
     87b:	038e76        	loop	a14, 882 <wind_noise_alpha+0x52>
     87e:	0239           	s32i.n	a3, a2, 0
     880:	224b           	addi.n	a2, a2, 4

00000882 <wind_noise_alpha+0x52>:
     882:	f01d           	retw.n

00000884 <PD_Noise_Est>:
     884:	00e136        	entry	a1, 112
     887:	fe04e1        	l32r	a14, 98 (c3d4 <p_ecnr_mem>)
     88a:	027d           	mov.n	a7, a2
     88c:	14d2f2        	addmi	a15, a2, 0x1400
     88f:	0e88           	l32i.n	a8, a14, 0
     891:	3a2fe2        	l32i	a14, a15, 232
     894:	a8a042        	movi	a4, 168
     897:	5ad442        	addmi	a4, a4, 0x5a00
     89a:	10ce22        	addi	a2, a14, 16
     89d:	605214        	ae_lq32f.iu	aeq1, a2, 4
     8a0:	609214        	ae_lq32f.iu	aeq2, a2, 4
     8a3:	f9ea3d721f 	{ ae_lq32f.iu	aeq3, a2, 4; ae_addq56	aeq1, aeq1, aeq2 }
     8a8:	f9ee3d721f 	{ ae_lq32f.iu	aeq3, a2, 4; ae_addq56	aeq1, aeq1, aeq3 }
     8ad:	f9ee00acaf 	{ movi	a10, 172; ae_addq56	aeq1, aeq1, aeq3 }
     8b2:	54d862        	addmi	a6, a8, 0x5400
     8b5:	603484        	ae_lq32f.xu	aeq0, a4, a8
     8b8:	5ad852        	addmi	a5, a8, 0x5a00
     8bb:	3550b4        	ae_sraiq56	aeq1, aeq1, 2
     8be:	f86633e6ce 	{ l32i	a12, a6, 248; ae_addq56	aeq0, aeq0, aeq1 }
     8c3:	5adaa2        	addmi	a10, a10, 0x5a00
     8c6:	4f9522        	l16si	a2, a5, 158
     8c9:	2525b2        	l32i	a11, a5, 148
     8cc:	5ad892        	addmi	a9, a8, 0x5a00
     8cf:	62da84        	ae_sq32f.xu	aeq1, a10, a8
     8d2:	030c           	movi.n	a3, 0
     8d4:	350074        	ae_sraiq56	aeq0, aeq0, 1
     8d7:	4e5532        	s16i	a3, a5, 156
     8da:	5ad8d2        	addmi	a13, a8, 0x5a00
     8dd:	9199           	s32i.n	a9, a1, 36
     8df:	f149           	s32i.n	a4, a1, 60
     8e1:	620404        	ae_sq32f.i	aeq0, a4, 0
     8e4:	c1a9           	s32i.n	a10, a1, 48
     8e6:	141ca6        	blti	a12, 1, 8fe <PD_Noise_Est+0x7a>
     8e9:	142ba6        	blti	a11, 2, 901 <PD_Noise_Est+0x7d>
     8ec:	5ad832        	addmi	a3, a8, 0x5a00
     8ef:	4d9332        	l16si	a3, a3, 154
     8f2:	f0c222        	addi	a2, a2, -16
     8f5:	1133f0        	slli	a3, a3, 1
     8f8:	432230        	min	a2, a2, a3
     8fb:	000c86        	j	931 <PD_Noise_Est+0xad>

000008fe <PD_Noise_Est+0x7a>:
     8fe:	101ba6        	blti	a11, 1, 912 <PD_Noise_Est+0x8e>
     901:	0a38           	l32i.n	a3, a10, 0
     903:	0513a6        	blti	a3, 1, 90c <PD_Noise_Est+0x88>
     906:	f8c222        	addi	a2, a2, -8
     909:	000906        	j	931 <PD_Noise_Est+0xad>

0000090c <PD_Noise_Est+0x88>:
     90c:	fec222        	addi	a2, a2, -2
     90f:	000786        	j	931 <PD_Noise_Est+0xad>

00000912 <PD_Noise_Est+0x8e>:
     912:	0e48           	l32i.n	a4, a14, 0
     914:	1e38           	l32i.n	a3, a14, 4
     916:	059d           	mov.n	a9, a5
     918:	f34a           	add.n	a15, a3, a4
     91a:	041fa6        	blti	a15, 1, 922 <PD_Noise_Est+0x9e>
     91d:	222b           	addi.n	a2, a2, 2
     91f:	000306        	j	92f <PD_Noise_Est+0xab>

00000922 <PD_Noise_Est+0x9e>:
     922:	0714e6        	bgei	a4, 1, 92d <PD_Noise_Est+0xa9>
     925:	0413e6        	bgei	a3, 1, 92d <PD_Noise_Est+0xa9>
     928:	220b           	addi.n	a2, a2, -1
     92a:	000046        	j	92f <PD_Noise_Est+0xab>

0000092d <PD_Noise_Est+0xa9>:
     92d:	221b           	addi.n	a2, a2, 1
     92f:	095d           	mov.n	a5, a9
     931:	030c           	movi.n	a3, 0
     933:	1ad8f2        	addmi	a15, a8, 0x1a00
     936:	532230        	max	a2, a2, a3
     939:	189f32        	l16si	a3, a15, 48
     93c:	f43c           	movi.n	a4, 63
     93e:	432240        	min	a2, a2, a4
     941:	1ad8a2        	addmi	a10, a8, 0x1a00
     944:	d159           	s32i.n	a5, a1, 52
     946:	4f5522        	s16i	a2, a5, 158
     949:	6189           	s32i.n	a8, a1, 24
     94b:	8169           	s32i.n	a6, a1, 32
     94d:	a179           	s32i.n	a7, a1, 40
     94f:	1061e2        	s32i	a14, a1, 64
     952:	e129           	s32i.n	a2, a1, 56
     954:	017396        	bltz	a3, 96f <PD_Noise_Est+0xeb>
     957:	1a9a52        	l16si	a5, a10, 52
     95a:	251ca6        	blti	a12, 1, 983 <PD_Noise_Est+0xff>
     95d:	149722        	l16si	a2, a7, 40
     960:	139732        	l16si	a3, a7, 38
     963:	fec542        	addi	a4, a5, -2
     966:	46a327        	bge	a3, a2, 9b0 <PD_Noise_Est+0x12c>
     969:	d8c542        	addi	a4, a5, -40
     96c:	001446        	j	9c1 <PD_Noise_Est+0x13d>

0000096f <PD_Noise_Est+0xeb>:
     96f:	020c           	movi.n	a2, 0
     971:	1a5a22        	s16i	a2, a10, 52
     974:	021ce6        	bgei	a12, 1, 97a <PD_Noise_Est+0xf6>
     977:	007986        	j	b61 <PD_Noise_Est+0x2dd>
     97a:	141722        	l16ui	a2, a7, 40
     97d:	131732        	l16ui	a3, a7, 38
     980:	0012c6        	j	9cf <PD_Noise_Est+0x14b>

00000983 <PD_Noise_Est+0xff>:
     983:	022ba6        	blti	a11, 2, 989 <PD_Noise_Est+0x105>
     986:	007246        	j	b53 <PD_Noise_Est+0x2cf>
     989:	fdca41        	l32r	a4, b4 (be20 <wb_score_bands>)
     98c:	171722        	l16ui	a2, a7, 46
     98f:	099432        	l16si	a3, a4, 18
     992:	346d           	ae_l16si.n	a6, a4, 2
     994:	029442        	l16si	a4, a4, 4
     997:	663a           	add.n	a6, a6, a3
     999:	464a           	add.n	a4, a6, a4
     99b:	022247        	blt	a2, a4, 9a1 <PD_Noise_Est+0x11d>
     99e:	006906        	j	b46 <PD_Noise_Est+0x2c2>
     9a1:	022237        	blt	a2, a3, 9a7 <PD_Noise_Est+0x123>
     9a4:	0068c6        	j	b4b <PD_Noise_Est+0x2c7>
     9a7:	1a5216        	beqz	a2, b50 <PD_Noise_Est+0x2cc>
     9aa:	fec552        	addi	a5, a5, -2
     9ad:	006886        	j	b53 <PD_Noise_Est+0x2cf>

000009b0 <PD_Noise_Est+0x12c>:
     9b0:	059237        	bne	a2, a3, 9b9 <PD_Noise_Est+0x135>
     9b3:	fac542        	addi	a4, a5, -6
     9b6:	0001c6        	j	9c1 <PD_Noise_Est+0x13d>

000009b9 <PD_Noise_Est+0x135>:
     9b9:	630b           	addi.n	a6, a3, -1
     9bb:	c06620        	sub	a6, a6, a2
     9be:	934560        	movnez	a4, a5, a6
     9c1:	050c           	movi.n	a5, 0
     9c3:	534450        	max	a4, a4, a5
     9c6:	ffa0f2        	movi	a15, 255
     9c9:	4344f0        	min	a4, a4, a15
     9cc:	1a5a42        	s16i	a4, a10, 52
     9cf:	822d           	ae_sext16	a2, a2
     9d1:	833d           	ae_sext16	a3, a3
     9d3:	0b0c           	movi.n	a11, 0
     9d5:	022327        	blt	a3, a2, 9db <PD_Noise_Est+0x157>
     9d8:	008006        	j	bdc <PD_Noise_Est+0x358>
     9db:	a148           	l32i.n	a4, a1, 40
     9dd:	48a422        	movi	a2, 0x448
     9e0:	530c           	movi.n	a3, 5
     9e2:	4e5d32        	s16i	a3, a13, 156
     9e5:	242a           	add.n	a2, a4, a2
     9e7:	601214        	ae_lq32f.iu	aeq0, a2, 4
     9ea:	605214        	ae_lq32f.iu	aeq1, a2, 4
     9ed:	f8663d721f 	{ ae_lq32f.iu	aeq3, a2, 4; ae_addq56	aeq0, aeq0, aeq1 }
     9f2:	f8e63d521f 	{ ae_lq32f.iu	aeq2, a2, 4; ae_addq56	aeq0, aeq0, aeq3 }
     9f7:	020c           	movi.n	a2, 0
     9f9:	fdafd1        	l32r	a13, b8 (dacccccd <_end+0xdacc08ed>)
     9fc:	f8e23ecdff 	{ ae_cvtq48a32s	aeq3, a13; ae_addq56	aeq0, aeq0, aeq2 }
     a01:	3500b4        	ae_sraiq56	aeq0, aeq0, 2
     a04:	d5580001ef 	{ movi	a14, 1; ae_leq56s	b0, aeq0, aeq3 }
     a09:	6198           	l32i.n	a9, a1, 24
     a0b:	0f0c           	movi.n	a15, 0
     a0d:	d32e00        	movt	a2, a14, b0
     a10:	0d0c           	movi.n	a13, 0
     a12:	71f9           	s32i.n	a15, a1, 28
     a14:	22ec           	bnez.n	a2, a3a <PD_Noise_Est+0x1b6>
     a16:	5ad922        	addmi	a2, a9, 0x5a00
     a19:	4c9222        	l16si	a2, a2, 152
     a1c:	f37c           	movi.n	a3, -1
     a1e:	013310        	slli	a3, a3, 31
     a21:	114200        	slli	a4, a2, 16
     a24:	305230        	xor	a5, a2, a3
     a27:	222b           	addi.n	a2, a2, 2
     a29:	212220        	srai	a2, a2, 2
     a2c:	11f200        	slli	a15, a2, 16
     a2f:	302230        	xor	a2, a2, a3
     a32:	c022f0        	sub	a2, a2, a15
     a35:	c0d540        	sub	a13, a5, a4
     a38:	7129           	s32i.n	a2, a1, 28
     a3a:	fda041        	l32r	a4, bc (dfffffe <_end+0xdff3c1e>)
     a3d:	3c2b           	addi.n	a3, a12, 2
     a3f:	5ad952        	addmi	a5, a9, 0x5a00
     a42:	2325a2        	l32i	a10, a5, 140
     a45:	21f230        	srai	a15, a3, 2
     a48:	725c40        	salt	a5, a12, a4
     a4b:	f27c           	movi.n	a2, -1
     a4d:	935f50        	movnez	a5, a15, a5
     a50:	fd9c81        	l32r	a8, c0 (b33333 <_end+0xb26f53>)
     a53:	012260        	slli	a2, a2, 26
     a56:	7f5a           	add.n	a7, a15, a5
     a58:	fd9b31        	l32r	a3, c4 (fb4ccccd <_end+0xfb4c08ed>)
     a5b:	472a           	add.n	a4, a7, a2
     a5d:	0a6d           	mov.n	a6, a10
     a5f:	232487        	blt	a4, a8, a86 <PD_Noise_Est+0x202>
     a62:	180c           	movi.n	a8, 1
     a64:	673a           	add.n	a6, a7, a3
     a66:	5ad9e2        	addmi	a14, a9, 0x5a00
     a69:	018880        	slli	a8, a8, 24
     a6c:	668a           	add.n	a6, a6, a8
     a6e:	242e72        	l32i	a7, a14, 144
     a71:	758860        	extui	a8, a6, 24, 8
     a74:	0a6d           	mov.n	a6, a10
     a76:	0c8876        	loop	a8, a86 <PD_Noise_Est+0x202>
     a79:	06d9           	s32i.n	a13, a6, 0
     a7b:	0788           	l32i.n	a8, a7, 0
     a7d:	664b           	addi.n	a6, a6, 4
     a7f:	1188f0        	slli	a8, a8, 1
     a82:	0789           	s32i.n	a8, a7, 0
     a84:	774b           	addi.n	a7, a7, 4

00000a86 <PD_Noise_Est+0x202>:
     a86:	fd8571        	l32r	a7, 9c (be40 <wb_sb_ptn>)
     a89:	7188           	l32i.n	a8, a1, 28
     a8b:	0689           	s32i.n	a8, a6, 0
     a8d:	059772        	l16si	a7, a7, 10
     a90:	5b0c           	movi.n	a11, 5
     a92:	9c7c           	movi.n	a12, -7
     a94:	e72b           	addi.n	a14, a7, 2
     a96:	016e80        	slli	a6, a14, 24
     a99:	136162        	s32i	a6, a1, 76
     a9c:	02a647        	bge	a6, a4, aa2 <PD_Noise_Est+0x21e>
     a9f:	004e46        	j	bdc <PD_Noise_Est+0x358>
     aa2:	6148           	l32i.n	a4, a1, 24
     aa4:	fd8991        	l32r	a9, c8 (fcb33333 <_end+0xfcb26f53>)
     aa7:	01cc90        	slli	a12, a12, 23
     aaa:	54d462        	addmi	a6, a4, 0x5400
     aad:	6d9662        	l16si	a6, a6, 218
     ab0:	5ad472        	addmi	a7, a4, 0x5a00
     ab3:	1e0c           	movi.n	a14, 1
     ab5:	904f50        	addx2	a4, a15, a5
     ab8:	852a           	add.n	a8, a5, a2
     aba:	242772        	l32i	a7, a7, 144
     abd:	25ca           	add.n	a2, a5, a12
     abf:	01ce80        	slli	a12, a14, 24
     ac2:	11e6e0        	slli	a14, a6, 2
     ac5:	443a           	add.n	a4, a4, a3
     ac7:	359a           	add.n	a3, a5, a9
     ac9:	b179           	s32i.n	a7, a1, 44
     acb:	1161c2        	s32i	a12, a1, 68
     ace:	1261e2        	s32i	a14, a1, 72

00000ad1 <PD_Noise_Est+0x24d>:
     ad1:	9f2a           	add.n	a9, a15, a2
     ad3:	b168           	l32i.n	a6, a1, 44
     ad5:	319890        	srai	a9, a9, 24
     ad8:	a0c9a0        	addx4	a12, a9, a10
     adb:	0a7d           	mov.n	a7, a10
     add:	0a0c           	movi.n	a10, 0
     adf:	e91b           	addi.n	a14, a9, 1
     ae1:	0ca9           	s32i.n	a10, a12, 0
     ae3:	07ad           	mov.n	a10, a7
     ae5:	01ce80        	slli	a12, a14, 24
     ae8:	5f3a           	add.n	a5, a15, a3
     aea:	a06960        	addx4	a6, a9, a6
     aed:	122172        	l32i	a7, a1, 72
     af0:	0679           	s32i.n	a7, a6, 0
     af2:	0bac57        	bge	a12, a5, b01 <PD_Noise_Est+0x27d>
     af5:	a05ea0        	addx4	a5, a14, a10
     af8:	e92b           	addi.n	a14, a9, 2
     afa:	7168           	l32i.n	a6, a1, 28
     afc:	01ce80        	slli	a12, a14, 24
     aff:	0569           	s32i.n	a6, a5, 0
     b01:	a09ea0        	addx4	a9, a14, a10
     b04:	2724c7        	blt	a4, a12, b2f <PD_Noise_Est+0x2ab>
     b07:	112162        	l32i	a6, a1, 68
     b0a:	015e80        	slli	a5, a14, 24
     b0d:	c05450        	sub	a5, a4, a5
     b10:	556a           	add.n	a5, a5, a6
     b12:	b1c8           	l32i.n	a12, a1, 44
     b14:	755850        	extui	a5, a5, 24, 8
     b17:	170c           	movi.n	a7, 1
     b19:	535570        	max	a5, a5, a7
     b1c:	a0eec0        	addx4	a14, a14, a12
     b1f:	0c8576        	loop	a5, b2f <PD_Noise_Est+0x2ab>
     b22:	09d9           	s32i.n	a13, a9, 0
     b24:	0e58           	l32i.n	a5, a14, 0
     b26:	994b           	addi.n	a9, a9, 4
     b28:	1155f0        	slli	a5, a5, 1
     b2b:	0e59           	s32i.n	a5, a14, 0
     b2d:	ee4b           	addi.n	a14, a14, 4

00000b2f <PD_Noise_Est+0x2ab>:
     b2f:	132162        	l32i	a6, a1, 76
     b32:	88fa           	add.n	a8, a8, a15
     b34:	7158           	l32i.n	a5, a1, 28
     b36:	ef8a           	add.n	a14, a15, a8
     b38:	0959           	s32i.n	a5, a9, 0
     b3a:	33fa           	add.n	a3, a3, a15
     b3c:	22fa           	add.n	a2, a2, a15
     b3e:	44fa           	add.n	a4, a4, a15
     b40:	8da6e7        	bge	a6, a14, ad1 <PD_Noise_Est+0x24d>
     b43:	002546        	j	bdc <PD_Noise_Est+0x358>

00000b46 <PD_Noise_Est+0x2c2>:
     b46:	552b           	addi.n	a5, a5, 2
     b48:	0001c6        	j	b53 <PD_Noise_Est+0x2cf>

00000b4b <PD_Noise_Est+0x2c7>:
     b4b:	551b           	addi.n	a5, a5, 1
     b4d:	000086        	j	b53 <PD_Noise_Est+0x2cf>

00000b50 <PD_Noise_Est+0x2cc>:
     b50:	e8c552        	addi	a5, a5, -24
     b53:	020c           	movi.n	a2, 0
     b55:	532520        	max	a2, a5, a2
     b58:	ffa032        	movi	a3, 255
     b5b:	432230        	min	a2, a2, a3
     b5e:	1a5a22        	s16i	a2, a10, 52
     b61:	54d832        	addmi	a3, a8, 0x5400
     b64:	6e9332        	l16si	a3, a3, 220
     b67:	0b0c           	movi.n	a11, 0
     b69:	6168           	l32i.n	a6, a1, 24
     b6b:	6d2237        	blt	a2, a3, bdc <PD_Noise_Est+0x358>
     b6e:	d8a042        	movi	a4, 216
     b71:	54d442        	addmi	a4, a4, 0x5400
     b74:	5ad632        	addmi	a3, a6, 0x5a00
     b77:	242332        	l32i	a3, a3, 144
     b7a:	410644        	ae_lp16f.x	aep0, a6, a4
     b7d:	4c1304        	ae_lp24.i	aep1, a3, 0
     b80:	ea2380ee5f 	{ movi	a5, 238; ae_mulp24s.ll	aeq0, aep0, aep1 }
     b85:	368f04        	ae_trunca32q48	a15, aeq0
     b88:	4f2b           	addi.n	a4, a15, 2
     b8a:	214240        	srai	a4, a4, 2
     b8d:	038576        	loop	a5, b94 <PD_Noise_Est+0x310>
     b90:	0349           	s32i.n	a4, a3, 0
     b92:	334b           	addi.n	a3, a3, 4

00000b94 <PD_Noise_Est+0x310>:
     b94:	54d632        	addmi	a3, a6, 0x5400
     b97:	6b9332        	l16si	a3, a3, 214
     b9a:	9148           	l32i.n	a4, a1, 36
     b9c:	6178           	l32i.n	a7, a1, 24
     b9e:	3a2237        	blt	a2, a3, bdc <PD_Noise_Est+0x358>
     ba1:	a2a032        	movi	a3, 162
     ba4:	252422        	l32i	a2, a4, 148
     ba7:	a4a042        	movi	a4, 164
     baa:	5ad332        	addmi	a3, a3, 0x5a00
     bad:	5ad442        	addmi	a4, a4, 0x5a00
     bb0:	250c           	movi.n	a5, 2
     bb2:	722250        	salt	a2, a2, a5
     bb5:	373a           	add.n	a3, a7, a3
     bb7:	474a           	add.n	a4, a7, a4
     bb9:	834320        	moveqz	a4, a3, a2
     bbc:	243d           	ae_l16si.n	a3, a4, 0
     bbe:	f67c           	movi.n	a6, -1
     bc0:	5ad7d2        	addmi	a13, a7, 0x5a00
     bc3:	016610        	slli	a6, a6, 31
     bc6:	232d22        	l32i	a2, a13, 140
     bc9:	30f360        	xor	a15, a3, a6
     bcc:	113300        	slli	a3, a3, 16
     bcf:	eea0e2        	movi	a14, 238
     bd2:	c03f30        	sub	a3, a15, a3
     bd5:	038e76        	loop	a14, bdc <PD_Noise_Est+0x358>
     bd8:	0239           	s32i.n	a3, a2, 0
     bda:	224b           	addi.n	a2, a2, 4

00000bdc <PD_Noise_Est+0x358>:
     bdc:	a1c8           	l32i.n	a12, a1, 40
     bde:	61d8           	l32i.n	a13, a1, 24
     be0:	1021e2        	l32i	a14, a1, 64
     be3:	171c22        	l16ui	a2, a12, 46
     be6:	431c           	movi.n	a3, 20
     be8:	54dda2        	addmi	a10, a13, 0x5400
     beb:	6d3327        	bltu	a3, a2, c5c <PD_Noise_Est+0x3d8>
     bee:	0872f6        	bgeui	a2, 7, bfa <PD_Noise_Est+0x376>
     bf1:	7da122        	movi	a2, 0x17d
     bf4:	1122d0        	slli	a2, a2, 3
     bf7:	000446        	j	c0c <PD_Noise_Est+0x388>

00000bfa <PD_Noise_Est+0x376>:
     bfa:	08b2f6        	bgeui	a2, 16, c06 <PD_Noise_Est+0x382>
     bfd:	fba222        	movi	a2, 0x2fb
     c00:	1122e0        	slli	a2, a2, 2
     c03:	000146        	j	c0c <PD_Noise_Est+0x388>

00000c06 <PD_Noise_Est+0x382>:
     c06:	bfa022        	movi	a2, 191
     c09:	1122c0        	slli	a2, a2, 4
     c0c:	2c2a           	add.n	a2, a12, a2
     c0e:	222d           	ae_l16si.n	a2, a2, 0
     c10:	fd2341        	l32r	a4, 9c (be40 <wb_sb_ptn>)
     c13:	f57c           	movi.n	a5, -1
     c15:	5add32        	addmi	a3, a13, 0x5a00
     c18:	015510        	slli	a5, a5, 31
     c1b:	960c           	movi.n	a6, 9
     c1d:	000ac6        	j	c4c <PD_Noise_Est+0x3c8>

00000c20 <PD_Noise_Est+0x39c>:
     c20:	bb1b           	addi.n	a11, a11, 1
     c22:	908b40        	addx2	a8, a11, a4
     c25:	297d           	ae_l16si.n	a7, a9, 0
     c27:	288d           	ae_l16si.n	a8, a8, 0
     c29:	1ca787        	bge	a7, a8, c49 <PD_Noise_Est+0x3c5>
     c2c:	232392        	l32i	a9, a3, 140
     c2f:	c08870        	sub	a8, a8, a7
     c32:	a07790        	addx4	a7, a7, a9
     c35:	108876        	loop	a8, c49 <PD_Noise_Est+0x3c5>
     c38:	478d           	ae_l16ui.n	a8, a7, 0
     c3a:	882a           	add.n	a8, a8, a2
     c3c:	119800        	slli	a9, a8, 16
     c3f:	308850        	xor	a8, a8, a5
     c42:	c08890        	sub	a8, a8, a9
     c45:	0789           	s32i.n	a8, a7, 0
     c47:	774b           	addi.n	a7, a7, 4

00000c49 <PD_Noise_Est+0x3c5>:
     c49:	0f1b67        	beq	a11, a6, c5c <PD_Noise_Est+0x3d8>

00000c4c <PD_Noise_Est+0x3c8>:
     c4c:	a07be0        	addx4	a7, a11, a14
     c4f:	0778           	l32i.n	a7, a7, 0
     c51:	909b40        	addx2	a9, a11, a4
     c54:	c817a6        	blti	a7, 1, c20 <PD_Noise_Est+0x39c>
     c57:	bb1b           	addi.n	a11, a11, 1
     c59:	fffb06        	j	c49 <PD_Noise_Est+0x3c5>

00000c5c <PD_Noise_Est+0x3d8>:
     c5c:	811a22        	l16ui	a2, a10, 0x102
     c5f:	f47c           	movi.n	a4, -1
     c61:	823d           	ae_sext16	a3, a2
     c63:	015396        	bltz	a3, c7c <PD_Noise_Est+0x3f8>
     c66:	021c42        	l16ui	a4, a12, 4
     c69:	531b           	addi.n	a5, a3, 1
     c6b:	90f440        	addx2	a15, a4, a4
     c6e:	113fe0        	slli	a3, a15, 2
     c71:	622230        	saltu	a2, a2, a3
     c74:	f37c           	movi.n	a3, -1
     c76:	933520        	movnez	a3, a5, a2
     c79:	000086        	j	c7f <PD_Noise_Est+0x3fb>

00000c7c <PD_Noise_Est+0x3f8>:
     c7c:	f43040        	extui	a3, a4, 0, 16
     c7f:	8168           	l32i.n	a6, a1, 32
     c81:	fd12b1        	l32r	a11, cc (7fff0000 <_end+0x7ffe3c20>)
     c84:	815a32        	s16i	a3, a10, 0x102
     c87:	3e2622        	l32i	a2, a6, 248
     c8a:	f148           	l32i.n	a4, a1, 60
     c8c:	55dd52        	addmi	a5, a13, 0x5500
     c8f:	928c           	beqz.n	a2, c9c <PD_Noise_Est+0x418>
     c91:	0448           	l32i.n	a4, a4, 0
     c93:	15e4d6        	bgez	a4, df5 <PD_Noise_Est+0x571>
     c96:	021542        	l16ui	a4, a5, 4
     c99:	158456        	bnez	a4, df5 <PD_Noise_Est+0x571>
     c9c:	9148           	l32i.n	a4, a1, 36
     c9e:	5add72        	addmi	a7, a13, 0x5a00
     ca1:	e158           	l32i.n	a5, a1, 56
     ca3:	252442        	l32i	a4, a4, 148
     ca6:	833d           	ae_sext16	a3, a3
     ca8:	855d           	ae_sext16	a5, a5
     caa:	0224a6        	blti	a4, 2, cb0 <PD_Noise_Est+0x42c>
     cad:	005106        	j	df5 <PD_Noise_Est+0x571>
     cb0:	4d9742        	l16si	a4, a7, 154
     cb3:	1e0c           	movi.n	a14, 1
     cb5:	11ee20        	slli	a14, a14, 14
     cb8:	022457        	blt	a4, a5, cbe <PD_Noise_Est+0x43a>
     cbb:	004d86        	j	df5 <PD_Noise_Est+0x571>
     cbe:	004396        	bltz	a3, cc6 <PD_Noise_Est+0x442>
     cc1:	0c5d           	mov.n	a5, a12
     cc3:	000a06        	j	cef <PD_Noise_Est+0x46b>

00000cc6 <PD_Noise_Est+0x442>:
     cc6:	0a9c22        	l16si	a2, a12, 20
     cc9:	0b9c32        	l16si	a3, a12, 22
     ccc:	0c9c42        	l16si	a4, a12, 24
     ccf:	c188           	l32i.n	a8, a1, 48
     cd1:	232a           	add.n	a2, a3, a2
     cd3:	224a           	add.n	a2, a2, a4
     cd5:	54ddf2        	addmi	a15, a13, 0x5400
     cd8:	0c5d           	mov.n	a5, a12
     cda:	08a8           	l32i.n	a10, a8, 0
     cdc:	6f9fc2        	l16si	a12, a15, 222
     cdf:	045122        	s16i	a2, a1, 8
     ce2:	82bd           	ae_sext16	a11, a2
     ce4:	fcfb21        	l32r	a2, d0 (9aa0 <cal_wind_score>)
     ce7:	0002e0        	callx8	a2
     cea:	3e2622        	l32i	a2, a6, 248
     ced:	0aed           	mov.n	a14, a10
     cef:	ffa032        	movi	a3, 255
     cf2:	3fd332        	addmi	a3, a3, 0x3f00
     cf5:	3e3a           	add.n	a3, a14, a3
     cf7:	058d           	mov.n	a8, a5
     cf9:	045132        	s16i	a3, a1, 8
     cfc:	099216        	beqz	a2, d99 <PD_Noise_Est+0x515>
     cff:	1cc522        	addi	a2, a5, 28
     d02:	400204        	ae_lp16f.i	aep0, a2, 0
     d05:	401144        	ae_lp16f.i	aep1, a1, 8
     d08:	e820b061de 	{ l32i	a13, a1, 24; ae_mulfp24s.hh	aeq0, aep0, aep1 }
     d0d:	af2c           	movi.n	a15, 42
     d0f:	3502f4        	ae_sraiq56	aeq0, aeq0, 11
     d12:	5add22        	addmi	a2, a13, 0x5a00
     d15:	620134        	ae_sq32f.i	aeq0, a1, 12
     d18:	242222        	l32i	a2, a2, 144
     d1b:	3138           	l32i.n	a3, a1, 12
     d1d:	038f76        	loop	a15, d24 <PD_Noise_Est+0x4a0>
     d20:	0239           	s32i.n	a3, a2, 0
     d22:	224b           	addi.n	a2, a2, 4

00000d24 <PD_Noise_Est+0x4a0>:
     d24:	d128           	l32i.n	a2, a1, 52
     d26:	343c           	movi.n	a4, 51
     d28:	5bd442        	addmi	a4, a4, 0x5b00
     d2b:	4f9232        	l16si	a3, a2, 158
     d2e:	4d9722        	l16si	a2, a7, 154
     d31:	6168           	l32i.n	a6, a1, 24
     d33:	113330        	slli	a3, a3, 13
     d36:	d14240        	mul16s	a4, a2, a4
     d39:	112220        	slli	a2, a2, 14
     d3c:	2ca437        	bge	a4, a3, d6c <PD_Noise_Est+0x4e8>
     d3f:	6168           	l32i.n	a6, a1, 24
     d41:	0bd822        	addmi	a2, a8, 0xb00
     d44:	15d842        	addmi	a4, a8, 0x1500
     d47:	5ad632        	addmi	a3, a6, 0x5a00
     d4a:	3a22d2        	l32i	a13, a2, 232
     d4d:	2323a2        	l32i	a10, a3, 140
     d50:	0494b2        	l16si	a11, a4, 8
     d53:	fce021        	l32r	a2, d4 (830 <wind_noise_alpha>)
     d56:	fce0c1        	l32r	a12, d8 (33334ccd <_end+0x333288ed>)
     d59:	085d           	mov.n	a5, a8
     d5b:	0002e0        	callx8	a2
     d5e:	509322        	l16si	a2, a3, 160
     d61:	06dd           	mov.n	a13, a6
     d63:	d12220        	mul16s	a2, a2, a2
     d66:	11b2f0        	slli	a11, a2, 1
     d69:	002106        	j	df1 <PD_Noise_Est+0x56d>

00000d6c <PD_Noise_Est+0x4e8>:
     d6c:	5fa237        	bge	a2, a3, dcf <PD_Noise_Est+0x54b>
     d6f:	6168           	l32i.n	a6, a1, 24
     d71:	0bd822        	addmi	a2, a8, 0xb00
     d74:	15d842        	addmi	a4, a8, 0x1500
     d77:	5ad632        	addmi	a3, a6, 0x5a00
     d7a:	2323a2        	l32i	a10, a3, 140
     d7d:	0494b2        	l16si	a11, a4, 8
     d80:	3a22c2        	l32i	a12, a2, 232
     d83:	3b22d2        	l32i	a13, a2, 236
     d86:	fcd321        	l32r	a2, d4 (830 <wind_noise_alpha>)
     d89:	085d           	mov.n	a5, a8
     d8b:	0002e0        	callx8	a2
     d8e:	509322        	l16si	a2, a3, 160
     d91:	06dd           	mov.n	a13, a6
     d93:	11b200        	slli	a11, a2, 16
     d96:	0015c6        	j	df1 <PD_Noise_Est+0x56d>

00000d99 <PD_Noise_Est+0x515>:
     d99:	15d522        	addmi	a2, a5, 0x1500
     d9c:	049232        	l16si	a3, a2, 8
     d9f:	6168           	l32i.n	a6, a1, 24
     da1:	040c           	movi.n	a4, 0
     da3:	0213e6        	bgei	a3, 1, da9 <PD_Noise_Est+0x525>
     da6:	ffde86        	j	d24 <PD_Noise_Est+0x4a0>
     da9:	5ad632        	addmi	a3, a6, 0x5a00
     dac:	242332        	l32i	a3, a3, 144
     daf:	400144        	ae_lp16f.i	aep0, a1, 8
     db2:	600304        	ae_lq32f.i	aeq0, a3, 0
     db5:	fcc352        	addi	a5, a3, -4
     db8:	d4e200144e 	{ addi	a4, a4, 1; ae_mulfq32sp16s.l	aeq0, aeq0, aep0 }
     dbd:	354054        	ae_slliq56	aeq1, aeq0, 1
     dc0:	601314        	ae_lq32f.iu	aeq0, a3, 4
     dc3:	625514        	ae_sq32f.iu	aeq1, a5, 4
     dc6:	049262        	l16si	a6, a2, 8
     dc9:	eb2467        	blt	a4, a6, db8 <PD_Noise_Est+0x534>
     dcc:	ffd506        	j	d24 <PD_Noise_Est+0x4a0>

00000dcf <PD_Noise_Est+0x54b>:
     dcf:	0bd822        	addmi	a2, a8, 0xb00
     dd2:	15d842        	addmi	a4, a8, 0x1500
     dd5:	5ad632        	addmi	a3, a6, 0x5a00
     dd8:	2323a2        	l32i	a10, a3, 140
     ddb:	0494b2        	l16si	a11, a4, 8
     dde:	3b22c2        	l32i	a12, a2, 236
     de1:	3c22d2        	l32i	a13, a2, 240
     de4:	fcbc21        	l32r	a2, d4 (830 <wind_noise_alpha>)
     de7:	085d           	mov.n	a5, a8
     de9:	0002e0        	callx8	a2
     dec:	fcb8b1        	l32r	a11, cc (7fff0000 <_end+0x7ffe3c20>)
     def:	06dd           	mov.n	a13, a6
     df1:	8168           	l32i.n	a6, a1, 32
     df3:	05cd           	mov.n	a12, a5
     df5:	15dc42        	addmi	a4, a12, 0x1500
     df8:	fcb921        	l32r	a2, dc (7fe70019 <_end+0x7fe63c39>)
     dfb:	4129           	s32i.n	a2, a1, 16
     dfd:	14a8           	l32i.n	a10, a4, 4
     dff:	fcb921        	l32r	a2, e4 (49cc <siir_safr>)
     e02:	fcb731        	l32r	a3, e0 (7e1401ec <_end+0x7e133e0c>)
     e05:	10c1c2        	addi	a12, a1, 16
     e08:	5139           	s32i.n	a3, a1, 20
     e0a:	0d5d           	mov.n	a5, a13
     e0c:	0002e0        	callx8	a2
     e0f:	55d552        	addmi	a5, a5, 0x5500
     e12:	029522        	l16si	a2, a5, 4
     e15:	3e2632        	l32i	a3, a6, 248
     e18:	3d0c           	movi.n	a13, 3
     e1a:	e21b           	addi.n	a14, a2, 1
     e1c:	0f0c           	movi.n	a15, 0
     e1e:	220b           	addi.n	a2, a2, -1
     e20:	14a9           	s32i.n	a10, a4, 4
     e22:	5362f0        	max	a6, a2, a15
     e25:	434ed0        	min	a4, a14, a13
     e28:	936430        	movnez	a6, a4, a3
     e2b:	020c           	movi.n	a2, 0
     e2d:	025562        	s16i	a6, a5, 4
     e30:	f01d           	retw.n

00000e32 <PD_Noise_Est+0x5ae>:
	...

00000e34 <PD_Noise_Gain>:
     e34:	004136        	entry	a1, 32
     e37:	fc9821        	l32r	a2, 98 (c3d4 <p_ecnr_mem>)
     e3a:	0228           	l32i.n	a2, a2, 0
     e3c:	5ad222        	addmi	a2, a2, 0x5a00
     e3f:	4e9222        	l16si	a2, a2, 156
     e42:	f01d           	retw.n

00000e44 <voiced_decision>:
     e44:	012136        	entry	a1, 144
     e47:	fc9441        	l32r	a4, 98 (c3d4 <p_ecnr_mem>)
     e4a:	eca052        	movi	a5, 236
     e4d:	14a182        	movi	a8, 0x114
     e50:	0468           	l32i.n	a6, a4, 0
     e52:	9ca0d2        	movi	a13, 156
     e55:	0b0c           	movi.n	a11, 0
     e57:	1ad662        	addmi	a6, a6, 0x1a00
     e5a:	192662        	l32i	a6, a6, 100
     e5d:	ec4c           	movi.n	a12, 78
     e5f:	156132        	s32i	a3, a1, 84
     e62:	e65a           	add.n	a14, a6, a5
     e64:	fca151        	l32r	a5, e8 (9a30 <memset>)
     e67:	f68a           	add.n	a15, a6, a8
     e69:	06ad           	mov.n	a10, a6
     e6b:	76da           	add.n	a7, a6, a13
     e6d:	1961e2        	s32i	a14, a1, 100
     e70:	81f9           	s32i.n	a15, a1, 32
     e72:	040c           	movi.n	a4, 0
     e74:	0005e0        	callx8	a5
     e77:	aca032        	movi	a3, 172
     e7a:	0b0c           	movi.n	a11, 0
     e7c:	a0a0c2        	movi	a12, 160
     e7f:	07ad           	mov.n	a10, a7
     e81:	323a           	add.n	a3, a2, a3
     e83:	186172        	s32i	a7, a1, 96
     e86:	0005e0        	callx8	a5
     e89:	54c152        	addi	a5, a1, 84
     e8c:	fc9871        	l32r	a7, ec (147ae1 <_end+0x13b701>)
     e8f:	9522f2        	l32i	a15, a2, 0x254
     e92:	60c504        	ae_lq32f.i	aeq3, a5, 0
     e95:	398774        	ae_movpa24x2	aep0, a7, a7
     e98:	180c           	movi.n	a8, 1
     e9a:	fb017ecf7f 	{ ae_cvtq48a32s	aeq1, a15; ae_mulfq32sp24s.h	aeq3, aeq3, aep0 }
     e9f:	3498b4        	ae_sraaq56	aeq2, aeq1, a8
     ea2:	f9ea53c22f 	{ or	a12, a2, a2; ae_addsq56s	aeq1, aeq1, aeq2 }
     ea7:	f9ef06819e 	{ addi	a9, a1, 104; ae_maxq56s	aeq1, aeq3, aeq1 }
     eac:	360434        	ae_cvtq48a32s	aeq0, a4
     eaf:	2a6242        	s32i	a4, a2, 168
     eb2:	630134        	ae_sq56s.i	aeq0, a1, 24
     eb5:	722c           	movi.n	a2, 39
     eb7:	150c           	movi.n	a5, 1
     eb9:	580c           	movi.n	a8, 5
     ebb:	070c           	movi.n	a7, 0
     ebd:	106192        	s32i	a9, a1, 64
     ec0:	621904        	ae_sq32f.i	aeq1, a9, 0

00000ec3 <voiced_decision+0x7f>:
     ec3:	609314        	ae_lq32f.iu	aeq2, a3, 4
     ec6:	d65400009f 	{ movi	a9, 0; ae_ltq56s	b0, aeq1, aeq2 }
     ecb:	01c442        	addi	a4, a4, 1
     ece:	61c134        	ae_lq56.i	aeq3, a1, 24
     ed1:	d39500        	movt	a9, a5, b0
     ed4:	d99c           	beqz.n	a9, ef5 <voiced_decision+0xb1>
     ed6:	f4c392        	addi	a9, a3, -12
     ed9:	058876        	loop	a8, ee2 <voiced_decision+0x9e>
     edc:	601914        	ae_lq32f.iu	aeq0, a9, 4
     edf:	01f0c4        	ae_maxq56s	aeq3, aeq0, aeq3

00000ee2 <voiced_decision+0x9e>:
     ee2:	d4d800009f 	{ movi	a9, 0; ae_eqq56	b0, aeq2, aeq3 }
     ee7:	87ad           	ae_sext16	a10, a7
     ee9:	90ba60        	addx2	a11, a10, a6
     eec:	d39500        	movt	a9, a5, b0
     eef:	298c           	beqz.n	a9, ef5 <voiced_decision+0xb1>
     ef1:	771b           	addi.n	a7, a7, 1
     ef3:	6b4d           	ae_s16i.n	a4, a11, 0

00000ef5 <voiced_decision+0xb1>:
     ef5:	ca9427        	bne	a4, a2, ec3 <voiced_decision+0x7f>
     ef8:	270b           	addi.n	a2, a7, -1
     efa:	827d           	ae_sext16	a7, a2
     efc:	0a5122        	s16i	a2, a1, 20
     eff:	4cc132        	addi	a3, a1, 76
     f02:	10c122        	addi	a2, a1, 16
     f05:	1761c2        	s32i	a12, a1, 92
     f08:	0217e6        	bgei	a7, 1, f0e <voiced_decision+0xca>
     f0b:	003086        	j	fd1 <voiced_decision+0x18d>
     f0e:	140c           	movi.n	a4, 1
     f10:	950c           	movi.n	a5, 9
     f12:	114410        	slli	a4, a4, 15
     f15:	115580        	slli	a5, a5, 8
     f18:	398554        	ae_movpa24x2	aep0, a5, a5
     f1b:	864b           	addi.n	a8, a6, 4
     f1d:	368434        	ae_cvtq48a32s	aeq2, a4
     f20:	166182        	s32i	a8, a1, 88
     f23:	090c           	movi.n	a9, 0
     f25:	050c           	movi.n	a5, 0
     f27:	560154        	ae_sp24x2s.i	aep0, a1, 40
     f2a:	632134        	ae_sq56s.i	aeq2, a1, 24
     f2d:	000f06        	j	f6d <voiced_decision+0x129>

00000f30 <voiced_decision+0xec>:
     f30:	adea           	add.n	a10, a13, a14
     f32:	fc6f81        	l32r	a8, f0 (133c <Xfrac_num_pd_td32>)
     f35:	9c0c           	movi.n	a12, 9
     f37:	0008e0        	callx8	a8
     f3a:	1721c2        	l32i	a12, a1, 92
     f3d:	618134        	ae_lq56.i	aeq2, a1, 24
     f40:	1361a2        	s32i	a10, a1, 76
     f43:	600304        	ae_lq32f.i	aeq0, a3, 0
     f46:	f8e3b1819e 	{ l32i	a9, a1, 96; ae_roundsp16q48sym	aep0, aeq0 }
     f4b:	420204        	ae_sp16f.l.i	aep0, a2, 0
     f4e:	0891d2        	l16si	a13, a1, 16
     f51:	858d           	ae_sext16	a8, a5
     f53:	1921e2        	l32i	a14, a1, 100
     f56:	a09890        	addx4	a9, a8, a9
     f59:	09a9           	s32i.n	a10, a9, 0
     f5b:	a09dc0        	addx4	a9, a13, a12
     f5e:	4519f2        	l16ui	a15, a9, 138
     f61:	9088e0        	addx2	a8, a8, a14
     f64:	551b           	addi.n	a5, a5, 1
     f66:	049d           	mov.n	a9, a4
     f68:	68fd           	ae_s16i.n	a15, a8, 0
     f6a:	67a477        	bge	a4, a7, fd5 <voiced_decision+0x191>
     f6d:	491b           	addi.n	a4, a9, 1
     f6f:	fc1451896f 	{ addx2	a8, a9, a6; ae_movq56	aeq0, aeq2 }
     f74:	90a460        	addx2	a10, a4, a6
     f77:	28bd           	ae_l16si.n	a11, a8, 0
     f79:	2a8d           	ae_l16si.n	a8, a10, 0
     f7b:	aca0e2        	movi	a14, 172
     f7e:	a0dbc0        	addx4	a13, a11, a12
     f81:	c0a8b0        	sub	a10, a8, a11
     f84:	a81a66        	bnei	a10, 1, f30 <voiced_decision+0xec>
     f87:	28a477        	bge	a4, a7, fb3 <voiced_decision+0x16f>
     f8a:	fc147161ae 	{ l32i	a10, a1, 88; ae_movq56	aeq0, aeq2 }
     f8f:	c0b740        	sub	a11, a7, a4
     f92:	08dd           	mov.n	a13, a8
     f94:	9099a0        	addx2	a9, a9, a10
     f97:	04ad           	mov.n	a10, a4
     f99:	168b76        	loop	a11, fb3 <voiced_decision+0x16f>
     f9c:	298d           	ae_l16si.n	a8, a9, 0
     f9e:	8d4d           	ae_sext16	a4, a13
     fa0:	992b           	addi.n	a9, a9, 2
     fa2:	c0b840        	sub	a11, a8, a4
     fa5:	0a4d           	mov.n	a4, a10
     fa7:	081b66        	bnei	a11, 1, fb3 <voiced_decision+0x16f>
     faa:	f8e2401aae 	{ addi	a10, a10, 1; ae_addsq56s	aeq0, aeq0, aeq2 }
     faf:	074d           	mov.n	a4, a7
     fb1:	08dd           	mov.n	a13, a8

00000fb3 <voiced_decision+0x16f>:
     fb3:	908460        	addx2	a8, a4, a6
     fb6:	400804        	ae_lp16f.i	aep0, a8, 0
     fb9:	541154        	ae_lp24x2.i	aep1, a1, 40
     fbc:	d82100144e 	{ addi	a4, a4, 1; ae_addsp24s	aep0, aep0, aep1 }
     fc1:	0a4884        	ae_cvtq48p24s.h	aeq1, aep0
     fc4:	061814        	ae_subsq56s	aeq0, aeq1, aeq0
     fc7:	620304        	ae_sq32f.i	aeq0, a3, 0
     fca:	1321a2        	l32i	a10, a1, 76
     fcd:	ffdc86        	j	f43 <voiced_decision+0xff>

00000fd0 <voiced_decision+0x18c>:
	...

00000fd1 <voiced_decision+0x18d>:
     fd1:	050c           	movi.n	a5, 0
     fd3:	040c           	movi.n	a4, 0
     fd5:	419477        	bne	a4, a7, 101a <voiced_decision+0x1d6>
     fd8:	904760        	addx2	a4, a7, a6
     fdb:	24bd           	ae_l16si.n	a11, a4, 0
     fdd:	aca0f2        	movi	a15, 172
     fe0:	4cfa           	add.n	a4, a12, a15
     fe2:	fc4361        	l32r	a6, f0 (133c <Xfrac_num_pd_td32>)
     fe5:	a0ab40        	addx4	a10, a11, a4
     fe8:	9c0c           	movi.n	a12, 9
     fea:	0006e0        	callx8	a6
     fed:	1361a2        	s32i	a10, a1, 76
     ff0:	600304        	ae_lq32f.i	aeq0, a3, 0
     ff3:	f8e3b1817e 	{ l32i	a7, a1, 96; ae_roundsp16q48sym	aep0, aeq0 }
     ff8:	420204        	ae_sp16f.l.i	aep0, a2, 0
     ffb:	089122        	l16si	a2, a1, 16
     ffe:	856d           	ae_sext16	a6, a5
    1000:	1921f2        	l32i	a15, a1, 100
    1003:	a02240        	addx4	a2, a2, a4
    1006:	a07670        	addx4	a7, a6, a7
    1009:	1721c2        	l32i	a12, a1, 92
    100c:	07a9           	s32i.n	a10, a7, 0
    100e:	dec222        	addi	a2, a2, -34
    1011:	9036f0        	addx2	a3, a6, a15
    1014:	422d           	ae_l16ui.n	a2, a2, 0
    1016:	551b           	addi.n	a5, a5, 1
    1018:	632d           	ae_s16i.n	a2, a3, 0
    101a:	858d           	ae_sext16	a8, a5
    101c:	0218e6        	bgei	a8, 1, 1022 <voiced_decision+0x1de>
    101f:	007146        	j	11e8 <voiced_decision+0x3a4>
    1022:	8138           	l32i.n	a3, a1, 32
    1024:	120c           	movi.n	a2, 1
    1026:	166182        	s32i	a8, a1, 88
    1029:	038876        	loop	a8, 1030 <voiced_decision+0x1ec>
    102c:	632d           	ae_s16i.n	a2, a3, 0
    102e:	332b           	addi.n	a3, a3, 2

00001030 <voiced_decision+0x1ec>:
    1030:	05dc62        	addmi	a6, a12, 0x500
    1033:	0c9622        	l16si	a2, a6, 24
    1036:	130c           	movi.n	a3, 1
    1038:	113300        	slli	a3, a3, 16
    103b:	0212e6        	bgei	a2, 1, 1041 <voiced_decision+0x1fd>
    103e:	006dc6        	j	11f9 <voiced_decision+0x3b5>
    1041:	360334        	ae_cvtq48a32s	aeq0, a3
    1044:	3a0c           	movi.n	a10, 3
    1046:	162182        	l32i	a8, a1, 88
    1049:	172132        	l32i	a3, a1, 92
    104c:	fc2ac1        	l32r	a12, f4 (533333 <_end+0x526f53>)
    104f:	fc2cf1        	l32r	a15, 100 (5ccccd <_end+0x5c08ed>)
    1052:	f90c           	movi.n	a9, 15
    1054:	39eff4        	ae_movpa24x2	aep6, a15, a15
    1057:	01aab0        	slli	a10, a10, 21
    105a:	fc2ab1        	l32r	a11, 104 (2ccccd <_end+0x2c08ed>)
    105d:	39bcc4        	ae_movpa24x2	aep3, a12, a12
    1060:	1821f2        	l32i	a15, a1, 96
    1063:	81c8           	l32i.n	a12, a1, 32
    1065:	119910        	slli	a9, a9, 15
    1068:	fc24d1        	l32r	a13, f8 (5851ec <_end+0x578e0c>)
    106b:	fc24e1        	l32r	a14, fc (5ae148 <_end+0x5a1d68>)
    106e:	399bb4        	ae_movpa24x2	aep1, a11, a11
    1071:	fc25b1        	l32r	a11, 108 (466666 <_end+0x45a286>)
    1074:	39faa4        	ae_movpa24x2	aep7, a10, a10
    1077:	6ca542        	movi	a4, 0x56c
    107a:	398994        	ae_movpa24x2	aep0, a9, a9
    107d:	39abb4        	ae_movpa24x2	aep2, a11, a11
    1080:	39cdd4        	ae_movpa24x2	aep4, a13, a13
    1083:	39dee4        	ae_movpa24x2	aep5, a14, a14
    1086:	922d           	ae_zext16	a2, a2
    1088:	630134        	ae_sq56s.i	aeq0, a1, 24
    108b:	10c372        	addi	a7, a3, 16
    108e:	880b           	addi.n	a8, a8, -1
    1090:	090c           	movi.n	a9, 0
    1092:	42a5b2        	movi	a11, 0x542
    1095:	50c1d2        	addi	a13, a1, 80
    1098:	1e0c           	movi.n	a14, 1
    109a:	a34a           	add.n	a10, a3, a4
    109c:	566174        	ae_sp24x2s.i	aep6, a1, 56
    109f:	567164        	ae_sp24x2s.i	aep7, a1, 48

000010a2 <voiced_decision+0x25e>:
    10a2:	604f04        	ae_lq32f.i	aeq1, a15, 0
    10a5:	d4634ff23e 	{ addi	a3, a2, -1; ae_mulfq32sp16s.h	aeq1, aeq1, aep0 }
    10aa:	0f28           	l32i.n	a2, a15, 0
    10ac:	610134        	ae_lq56.i	aeq0, a1, 24
    10af:	f86715439f 	{ sub	a4, a3, a9; ae_maxq56s	aeq0, aeq1, aeq0 }
    10b4:	21a937        	bge	a9, a3, 10d9 <voiced_decision+0x295>
    10b7:	068824        	ae_negq56	aeq2, aeq0
    10ba:	a039a0        	addx4	a3, a9, a10
    10bd:	188476        	loop	a4, 10d9 <voiced_decision+0x295>
    10c0:	0348           	l32i.n	a4, a3, 0
    10c2:	334b           	addi.n	a3, a3, 4
    10c4:	c04420        	sub	a4, a4, a2
    10c7:	146142        	s32i	a4, a1, 80
    10ca:	60cd04        	ae_lq32f.i	aeq3, a13, 0
    10cd:	d6d800004f 	{ movi	a4, 0; ae_ltq56s	b0, aeq2, aeq3 }
    10d2:	d34e00        	movt	a4, a14, b0
    10d5:	04cc           	bnez.n	a4, 10d9 <voiced_decision+0x295>
    10d7:	991b           	addi.n	a9, a9, 1

000010d9 <voiced_decision+0x295>:
    10d9:	172142        	l32i	a4, a1, 92
    10dc:	a03940        	addx4	a3, a9, a4
    10df:	05d332        	addmi	a3, a3, 0x500
    10e2:	1b2332        	l32i	a3, a3, 108
    10e5:	c02320        	sub	a2, a3, a2
    10e8:	602120        	abs	a2, a2
    10eb:	146122        	s32i	a2, a1, 80
    10ee:	608d04        	ae_lq32f.i	aeq2, a13, 0
    10f1:	d5c000003f 	{ movi	a3, 0; ae_leq56s	b0, aeq2, aeq0 }
    10f6:	902940        	addx2	a2, a9, a4
    10f9:	d33e00        	movt	a3, a14, b0
    10fc:	04a316        	beqz	a3, 114a <voiced_decision+0x306>
    10ff:	407704        	ae_lp16f.i	aep7, a7, 0
    1102:	4162b4        	ae_lp16f.x	aep6, a2, a11
    1105:	e9dccd8c3e 	{ addi	a3, a12, -40; ae_mulfp24s.hh	aeq3, aep7, aep6 }
    110a:	407304        	ae_lp16f.i	aep7, a3, 0
    110d:	fce43a015f 	{ ae_sq56s.i	aeq0, a1, 40; ae_cvtq48p24s.h	aeq0, aep7 }
    1112:	fbfffb00df 	{ ae_sraiq56	aeq3, aeq0, 1; ae_roundsp24q48sym	aep7, aeq3 }
    1117:	e8e4c0004f 	{ movi	a4, 0; ae_mulfp24s.hh	aeq1, aep1, aep7 }
    111c:	e8e880013f 	{ movi	a3, 1; ae_mulfp24s.hh	aeq0, aep2, aep7 }
    1121:	099304        	ae_ltq56s	b0, aeq3, aeq1
    1124:	098314        	ae_ltq56s	b1, aeq3, aeq0
    1127:	013f44        	ae_mulfp24s.hh	aeq1, aep3, aep7
    112a:	e8f0964e0f 	{ movt	a4, a14, b0; ae_mulfp24s.hh	aeq0, aep4, aep7 }
    112f:	05f456        	bnez	a4, 1192 <voiced_decision+0x34e>
    1132:	d6cc00003f 	{ movi	a3, 0; ae_ltq56s	b0, aeq3, aeq1 }
    1137:	d6c4563e1f 	{ movt	a3, a14, b1; ae_ltq56s	b1, aeq3, aeq0 }
    113c:	439c           	beqz.n	a3, 1154 <voiced_decision+0x310>
    113e:	05d222        	addmi	a2, a2, 0x500
    1141:	0d9222        	l16si	a2, a2, 26
    1144:	fbc222        	addi	a2, a2, -5
    1147:	001086        	j	118d <voiced_decision+0x349>

0000114a <voiced_decision+0x306>:
    114a:	120c           	movi.n	a2, 1
    114c:	6c2d           	ae_s16i.n	a2, a12, 0
    114e:	04f856        	bnez	a8, 11a1 <voiced_decision+0x35d>
    1151:	002906        	j	11f9 <voiced_decision+0x3b5>

00001154 <voiced_decision+0x310>:
    1154:	030c           	movi.n	a3, 0
    1156:	e8f4963e0f 	{ movt	a3, a14, b0; ae_mulfp24s.hh	aeq0, aep5, aep7 }
    115b:	a38c           	beqz.n	a3, 1169 <voiced_decision+0x325>
    115d:	05d222        	addmi	a2, a2, 0x500
    1160:	0d9222        	l16si	a2, a2, 26
    1163:	fcc222        	addi	a2, a2, -4
    1166:	0008c6        	j	118d <voiced_decision+0x349>

00001169 <voiced_decision+0x325>:
    1169:	030c           	movi.n	a3, 0
    116b:	d6c4163e1f 	{ movt	a3, a14, b1; ae_ltq56s	b0, aeq3, aeq0 }
    1170:	a38c           	beqz.n	a3, 117e <voiced_decision+0x33a>
    1172:	05d222        	addmi	a2, a2, 0x500
    1175:	0d9222        	l16si	a2, a2, 26
    1178:	fec222        	addi	a2, a2, -2
    117b:	000386        	j	118d <voiced_decision+0x349>

0000117e <voiced_decision+0x33a>:
    117e:	030c           	movi.n	a3, 0
    1180:	d33e00        	movt	a3, a14, b0
    1183:	63ac           	beqz.n	a3, 11ad <voiced_decision+0x369>
    1185:	05d222        	addmi	a2, a2, 0x500
    1188:	0d9222        	l16si	a2, a2, 26
    118b:	220b           	addi.n	a2, a2, -1
    118d:	130c           	movi.n	a3, 1
    118f:	533230        	max	a3, a2, a3
    1192:	6c3d           	ae_s16i.n	a3, a12, 0
    1194:	0c9622        	l16si	a2, a6, 24
    1197:	220b           	addi.n	a2, a2, -1
    1199:	722920        	salt	a2, a9, a2
    119c:	992a           	add.n	a9, a9, a2
    119e:	057816        	beqz	a8, 11f9 <voiced_decision+0x3b5>
    11a1:	0c9622        	l16si	a2, a6, 24
    11a4:	cc2b           	addi.n	a12, a12, 2
    11a6:	880b           	addi.n	a8, a8, -1
    11a8:	ff4b           	addi.n	a15, a15, 4
    11aa:	ffbd06        	j	10a2 <voiced_decision+0x25e>

000011ad <voiced_decision+0x369>:
    11ad:	546174        	ae_lp24x2.i	aep6, a1, 56
    11b0:	e8f880003f 	{ movi	a3, 0; ae_mulfp24s.hh	aeq0, aep6, aep7 }
    11b5:	05d242        	addmi	a4, a2, 0x500
    11b8:	d6c430616f 	{ ae_lp24x2.i	aep6, a1, 48; ae_ltq56s	b0, aeq3, aeq0 }
    11bd:	610154        	ae_lq56.i	aeq0, a1, 40
    11c0:	f818563e0f 	{ movt	a3, a14, b0; ae_mulfq32sp24s.h	aeq1, aeq0, aep6 }
    11c5:	438c           	beqz.n	a3, 11cd <voiced_decision+0x389>
    11c7:	0d1432        	l16ui	a3, a4, 26
    11ca:	fff106        	j	1192 <voiced_decision+0x34e>

000011cd <voiced_decision+0x389>:
    11cd:	d5c800003f 	{ movi	a3, 0; ae_leq56s	b0, aeq2, aeq1 }
    11d2:	05d222        	addmi	a2, a2, 0x500
    11d5:	0d9222        	l16si	a2, a2, 26
    11d8:	d33e00        	movt	a3, a14, b0
    11db:	fac316        	beqz	a3, 118b <voiced_decision+0x347>
    11de:	221b           	addi.n	a2, a2, 1
    11e0:	031c           	movi.n	a3, 16
    11e2:	433230        	min	a3, a2, a3
    11e5:	ffea46        	j	1192 <voiced_decision+0x34e>

000011e8 <voiced_decision+0x3a4>:
    11e8:	f37c           	movi.n	a3, -1
    11ea:	05dc22        	addmi	a2, a12, 0x500
    11ed:	0133f0        	slli	a3, a3, 17
    11f0:	364334        	ae_cvtq48a32s	aeq1, a3
    11f3:	0c5252        	s16i	a5, a2, 24
    11f6:	003b46        	j	12e7 <voiced_decision+0x4a3>

000011f9 <voiced_decision+0x3b5>:
    11f9:	172132        	l32i	a3, a1, 92
    11fc:	1aa522        	movi	a2, 0x51a
    11ff:	81b8           	l32i.n	a11, a1, 32
    1201:	732a           	add.n	a7, a3, a2
    1203:	1621c2        	l32i	a12, a1, 88
    1206:	fbaa21        	l32r	a2, b0 (9a58 <xt_memcpy>)
    1209:	07ad           	mov.n	a10, a7
    120b:	0002e0        	callx8	a2
    120e:	102192        	l32i	a9, a1, 64
    1211:	8fa382        	movi	a8, 0x38f
    1214:	7fd882        	addmi	a8, a8, 0x7f00
    1217:	600904        	ae_lq32f.i	aeq0, a9, 0
    121a:	390c           	movi.n	a9, 3
    121c:	1a0c           	movi.n	a10, 1
    121e:	36c834        	ae_cvtq48a32s	aeq3, a8
    1221:	0c5652        	s16i	a5, a6, 24
    1224:	115a20        	slli	a5, a10, 14
    1227:	1a0c           	movi.n	a10, 1
    1229:	119900        	slli	a9, a9, 16
    122c:	633134        	ae_sq56s.i	aeq3, a1, 24
    122f:	36c934        	ae_cvtq48a32s	aeq3, a9
    1232:	01aaf0        	slli	a10, a10, 17
    1235:	1d0c           	movi.n	a13, 1
    1237:	1921e2        	l32i	a14, a1, 100
    123a:	162182        	l32i	a8, a1, 88
    123d:	f27c           	movi.n	a2, -1
    123f:	03cd           	mov.n	a12, a3
    1241:	fbb2b1        	l32r	a11, 10c (c148 <win_rx_512_v3+0xa8>)
    1244:	113d00        	slli	a3, a13, 16
    1247:	633174        	ae_sq56s.i	aeq3, a1, 56
    124a:	36ca34        	ae_cvtq48a32s	aeq3, a10
    124d:	364334        	ae_cvtq48a32s	aeq1, a3
    1250:	633164        	ae_sq56s.i	aeq3, a1, 48
    1253:	35c074        	ae_sraiq56	aeq3, aeq0, 1
    1256:	0122f0        	slli	a2, a2, 17
    1259:	368b34        	ae_cvtq48a32s	aeq2, a11
    125c:	78c1f2        	addi	a15, a1, 120
    125f:	631144        	ae_sq56s.i	aeq1, a1, 32
    1262:	364234        	ae_cvtq48a32s	aeq1, a2
    1265:	300554        	ae_cvtp24a16x2.ll	aep0, a5, a5
    1268:	930c           	movi.n	a3, 9
    126a:	6cc142        	addi	a4, a1, 108
    126d:	fece22        	addi	a2, a14, -2
    1270:	01a052        	movi	a5, 1
    1273:	632f94        	ae_sq56s.i	aeq2, a15, -56
    1276:	633154        	ae_sq56s.i	aeq3, a1, 40
    1279:	6a8876        	loop	a8, 12e7 <voiced_decision+0x4a3>
    127c:	276d           	ae_l16si.n	a6, a7, 0
    127e:	409214        	ae_lp16f.iu	aep1, a2, 2
    1281:	fe2400009f 	{ movi	a9, 0; ae_cvtq48p24s.h	aeq2, aep1 }
    1286:	1836a6        	blti	a6, 3, 12a2 <voiced_decision+0x45e>
    1289:	372637        	blt	a6, a3, 12c4 <voiced_decision+0x480>
    128c:	36c094        	ae_sllisq56s	aeq3, aeq0, 2
    128f:	fb5a80006f 	{ movi	a6, 0; ae_subsq56s	aeq3, aeq3, aeq0 }
    1294:	09a304        	ae_ltq56s	b0, aeq3, aeq2
    1297:	d36500        	movt	a6, a5, b0
    129a:	96ac           	beqz.n	a6, 12c7 <voiced_decision+0x483>
    129c:	618174        	ae_lq56.i	aeq2, a1, 56
    129f:	000f06        	j	12df <voiced_decision+0x49b>

000012a2 <voiced_decision+0x45e>:
    12a2:	151666        	bnei	a6, 1, 12bb <voiced_decision+0x477>
    12a5:	36c054        	ae_sllisq56s	aeq3, aeq0, 1
    12a8:	f502c7816e 	{ addi	a6, a1, 120; ae_mulafq32sp16s.h	aeq3, aeq0, aep0 }
    12ad:	09b204        	ae_ltq56s	b0, aeq2, aeq3
    12b0:	d39500        	movt	a9, a5, b0
    12b3:	498c           	beqz.n	a9, 12bb <voiced_decision+0x477>
    12b5:	618694        	ae_lq56.i	aeq2, a6, -56
    12b8:	000086        	j	12be <voiced_decision+0x47a>

000012bb <voiced_decision+0x477>:
    12bb:	618134        	ae_lq56.i	aeq2, a1, 24
    12be:	065a14        	ae_subsq56s	aeq1, aeq1, aeq2
    12c1:	000746        	j	12e2 <voiced_decision+0x49e>

000012c4 <voiced_decision+0x480>:
    12c4:	1466a6        	blti	a6, 6, 12dc <voiced_decision+0x498>
    12c7:	61c154        	ae_lq56.i	aeq3, a1, 40
    12ca:	fb7a40006f 	{ movi	a6, 0; ae_addsq56s	aeq3, aeq3, aeq0 }
    12cf:	d6d43dc16f 	{ ae_lq56.i	aeq2, a1, 48; ae_ltq56s	b0, aeq3, aeq2 }
    12d4:	d36500        	movt	a6, a5, b0
    12d7:	168c           	beqz.n	a6, 12dc <voiced_decision+0x498>
    12d9:	000086        	j	12df <voiced_decision+0x49b>

000012dc <voiced_decision+0x498>:
    12dc:	618144        	ae_lq56.i	aeq2, a1, 32
    12df:	065a04        	ae_addsq56s	aeq1, aeq1, aeq2
    12e2:	772b           	addi.n	a7, a7, 2
    12e4:	621404        	ae_sq32f.i	aeq1, a4, 0

000012e7 <voiced_decision+0x4a3>:
    12e7:	f8eb81412e 	{ addi	a2, a1, 20; ae_roundsp16q48sym	aep0, aeq1 }
    12ec:	420204        	ae_sp16f.l.i	aep0, a2, 0
    12ef:	0a9122        	l16si	a2, a1, 20
    12f2:	05dc52        	addmi	a5, a12, 0x500
    12f5:	830c           	movi.n	a3, 8
    12f7:	312592        	l32i	a9, a5, 196
    12fa:	432230        	min	a2, a2, a3
    12fd:	847c           	movi.n	a4, -8
    12ff:	532240        	max	a2, a2, a4
    1302:	292a           	add.n	a2, a9, a2
    1304:	0a1c           	movi.n	a10, 16
    1306:	fb82f1        	l32r	a15, 110 (7ffffffe <_end+0x7fff3c1e>)
    1309:	4322a0        	min	a2, a2, a10
    130c:	0b0c           	movi.n	a11, 0
    130e:	5322b0        	max	a2, a2, a11
    1311:	6ca5d2        	movi	a13, 0x56c
    1314:	11e8f0        	slli	a14, a8, 1
    1317:	1821b2        	l32i	a11, a1, 96
    131a:	fb6541        	l32r	a4, b0 (9a58 <xt_memcpy>)
    131d:	acda           	add.n	a10, a12, a13
    131f:	0c3d           	mov.n	a3, a12
    1321:	10cef0        	and	a12, a14, a15
    1324:	316522        	s32i	a2, a5, 196
    1327:	085d           	mov.n	a5, a8
    1329:	0004e0        	callx8	a4
    132c:	42a522        	movi	a2, 0x542
    132f:	1921b2        	l32i	a11, a1, 100
    1332:	a32a           	add.n	a10, a3, a2
    1334:	05cd           	mov.n	a12, a5
    1336:	0004e0        	callx8	a4
    1339:	f01d           	retw.n

0000133b <voiced_decision+0x4f7>:
	...

0000133c <Xfrac_num_pd_td32>:
    133c:	008136        	entry	a1, 64
    133f:	fb7561        	l32r	a6, 114 (5a8200 <_end+0x59be20>)
    1342:	600204        	ae_lq32f.i	aeq0, a2, 0
    1345:	604214        	ae_lq32f.i	aeq1, a2, 4
    1348:	f946a2066f 	{ ae_movpa24x2	aep0, a6, a6; ae_subsq56s	aeq1, aeq0, aeq1 }
    134d:	f9017d42ff 	{ ae_lq32f.i	aeq2, a2, -4; ae_mulfq32sp24s.h	aeq3, aeq1, aep0 }
    1352:	f8c28000ff 	{ movi	a15, 0; ae_subsq56s	aeq0, aeq0, aeq2 }
    1357:	d65800017f 	{ movi	a7, 1; ae_ltq56s	b0, aeq0, aeq3 }
    135c:	5139           	s32i.n	a3, a1, 20
    135e:	f98039916f 	{ ae_sq32f.i	aeq1, a1, 24; ae_mulfq32sp24s.l	aeq2, aeq0, aep0 }
    1363:	d3f700        	movt	a15, a7, b0
    1366:	18c152        	addi	a5, a1, 24
    1369:	620174        	ae_sq32f.i	aeq0, a1, 28
    136c:	2fac           	beqz.n	a15, 1392 <Xfrac_num_pd_td32+0x56>
    136e:	120c           	movi.n	a2, 1
    1370:	0122c0        	slli	a2, a2, 20
    1373:	604504        	ae_lq32f.i	aeq1, a5, 0
    1376:	398224        	ae_movpa24x2	aep0, a2, a2
    1379:	f8814000ef 	{ movi	a14, 0; ae_mulfq32sp24s.l	aeq1, aeq1, aep0 }
    137e:	1f0c           	movi.n	a15, 1
    1380:	d64800006f 	{ movi	a6, 0; ae_ltq56s	b0, aeq0, aeq1 }
    1385:	fb6421        	l32r	a2, 118 (c28f0000 <_end+0xc28e3c20>)
    1388:	150c           	movi.n	a5, 1
    138a:	d3ef00        	movt	a14, a15, b0
    138d:	7e9c           	beqz.n	a14, 13a8 <Xfrac_num_pd_td32+0x6c>
    138f:	002546        	j	1428 <Xfrac_num_pd_td32+0xec>

00001392 <Xfrac_num_pd_td32+0x56>:
    1392:	604504        	ae_lq32f.i	aeq1, a5, 0
    1395:	d6c800002f 	{ movi	a2, 0; ae_ltq56s	b0, aeq2, aeq1 }
    139a:	1f0c           	movi.n	a15, 1
    139c:	160c           	movi.n	a6, 1
    139e:	d32f00        	movt	a2, a15, b0
    13a1:	b29c           	beqz.n	a2, 13c0 <Xfrac_num_pd_td32+0x84>
    13a3:	020c           	movi.n	a2, 0
    13a5:	001fc6        	j	1428 <Xfrac_num_pd_td32+0xec>

000013a8 <Xfrac_num_pd_td32+0x6c>:
    13a8:	369054        	ae_sllisq56s	aeq2, aeq1, 1
    13ab:	fe80c0007f 	{ movi	a7, 0; ae_satq48s	aeq2, aeq2 }
    13b0:	d65000018f 	{ movi	a8, 1; ae_ltq56s	b0, aeq0, aeq2 }
    13b5:	fb5921        	l32r	a2, 11c (cccd0000 <_end+0xcccc3c20>)
    13b8:	d36500        	movt	a6, a5, b0
    13bb:	06ac           	beqz.n	a6, 13df <Xfrac_num_pd_td32+0xa3>
    13bd:	0019c6        	j	1428 <Xfrac_num_pd_td32+0xec>

000013c0 <Xfrac_num_pd_td32+0x84>:
    13c0:	0126a0        	slli	a2, a6, 22
    13c3:	398224        	ae_movpa24x2	aep0, a2, a2
    13c6:	f8800000ff 	{ movi	a15, 0; ae_mulfq32sp24s.l	aeq0, aeq0, aep0 }
    13cb:	150c           	movi.n	a5, 1
    13cd:	d6483b009f 	{ ae_sraiq56	aeq2, aeq0, 1; ae_ltq56s	b0, aeq0, aeq1 }
    13d2:	fb5521        	l32r	a2, 128 (ccd0000 <_end+0xccc3c20>)
    13d5:	070c           	movi.n	a7, 0
    13d7:	d3f500        	movt	a15, a5, b0
    13da:	8f9c           	beqz.n	a15, 13f6 <Xfrac_num_pd_td32+0xba>
    13dc:	001206        	j	1428 <Xfrac_num_pd_td32+0xec>

000013df <Xfrac_num_pd_td32+0xa3>:
    13df:	365094        	ae_sllisq56s	aeq1, aeq1, 2
    13e2:	064944        	ae_satq48s	aeq1, aeq1
    13e5:	099004        	ae_ltq56s	b0, aeq0, aeq1
    13e8:	fb4e21        	l32r	a2, 120 (e6660000 <_end+0xe6653c20>)
    13eb:	fb4e51        	l32r	a5, 124 (f3330000 <_end+0xf3323c20>)
    13ee:	d37800        	movt	a7, a8, b0
    13f1:	879c           	beqz.n	a7, 140d <Xfrac_num_pd_td32+0xd1>
    13f3:	000c46        	j	1428 <Xfrac_num_pd_td32+0xec>

000013f6 <Xfrac_num_pd_td32+0xba>:
    13f6:	fe80c0015f 	{ movi	a5, 1; ae_satq48s	aeq2, aeq2 }
    13fb:	d6c83b002f 	{ ae_sraiq56	aeq0, aeq0, 2; ae_ltq56s	b0, aeq2, aeq1 }
    1400:	fb4b21        	l32r	a2, 12c (199a0000 <_end+0x19993c20>)
    1403:	060c           	movi.n	a6, 0
    1405:	d37500        	movt	a7, a5, b0
    1408:	678c           	beqz.n	a7, 1412 <Xfrac_num_pd_td32+0xd6>
    140a:	000686        	j	1428 <Xfrac_num_pd_td32+0xec>

0000140d <Xfrac_num_pd_td32+0xd1>:
    140d:	052d           	mov.n	a2, a5
    140f:	000546        	j	1428 <Xfrac_num_pd_td32+0xec>

00001412 <Xfrac_num_pd_td32+0xd6>:
    1412:	fc00c0015f 	{ movi	a5, 1; ae_satq48s	aeq0, aeq0 }
    1417:	099004        	ae_ltq56s	b0, aeq0, aeq1
    141a:	fb4521        	l32r	a2, 130 (33330000 <_end+0x33323c20>)
    141d:	d36500        	movt	a6, a5, b0
    1420:	168c           	beqz.n	a6, 1425 <Xfrac_num_pd_td32+0xe9>
    1422:	000086        	j	1428 <Xfrac_num_pd_td32+0xec>

00001425 <Xfrac_num_pd_td32+0xe9>:
    1425:	fb4321        	l32r	a2, 134 (3d710000 <_end+0x3d703c20>)
    1428:	d43a           	add.n	a13, a4, a3
    142a:	4129           	s32i.n	a2, a1, 16
    142c:	112d00        	slli	a2, a13, 16
    142f:	600144        	ae_lq32f.i	aeq0, a1, 16
    1432:	5129           	s32i.n	a2, a1, 20
    1434:	604154        	ae_lq32f.i	aeq1, a1, 20
    1437:	3503f4        	ae_sraiq56	aeq0, aeq0, 15
    143a:	0118c4        	ae_addq56	aeq0, aeq1, aeq0
    143d:	060834        	ae_roundsq32sym	aeq0, aeq0
    1440:	620144        	ae_sq32f.i	aeq0, a1, 16
    1443:	4128           	l32i.n	a2, a1, 16
    1445:	f01d           	retw.n

00001447 <Xfrac_num_pd_td32+0x10b>:
	...

00001448 <Pitch_by_Corel>:
    1448:	010136        	entry	a1, 128
    144b:	08a552        	movi	a5, 0x508
    144e:	18a542        	movi	a4, 0x518
    1451:	535a           	add.n	a5, a3, a5
    1453:	434a           	add.n	a4, a3, a4
    1455:	05d3d2        	addmi	a13, a3, 0x500
    1458:	f3f740        	wur.ae_cend0	a4
    145b:	f3f650        	wur.ae_cbegin0	a5
    145e:	0d68           	l32i.n	a6, a13, 0
    1460:	4b0c           	movi.n	a11, 4
    1462:	aca0f2        	movi	a15, 172
    1465:	0678           	l32i.n	a7, a6, 0
    1467:	fc24fb86bf 	{ ae_lq32f.c	aeq0, a6, a11; nop }
    146c:	0688           	l32i.n	a8, a6, 0
    146e:	fc24fb86bf 	{ ae_lq32f.c	aeq0, a6, a11; nop }
    1473:	0698           	l32i.n	a9, a6, 0
    1475:	fc24fb86bf 	{ ae_lq32f.c	aeq0, a6, a11; nop }
    147a:	06a8           	l32i.n	a10, a6, 0
    147c:	fc24fb86bf 	{ ae_lq32f.c	aeq0, a6, a11; nop }
    1481:	fc24fb86bf 	{ ae_lq32f.c	aeq0, a6, a11; nop }
    1486:	f3fa           	add.n	a15, a3, a15
    1488:	fb2ce1        	l32r	a14, 138 (4ccccd <_end+0x4c08ed>)
    148b:	116132        	s32i	a3, a1, 68
    148e:	030c           	movi.n	a3, 0
    1490:	0d69           	s32i.n	a6, a13, 0
    1492:	ec1c           	movi.n	a12, 30
    1494:	0b0c           	movi.n	a11, 0
    1496:	0d0c           	movi.n	a13, 0
    1498:	fc24a20eef 	{ ae_movpa24x2	aep0, a14, a14; ae_zeroq56	aeq0 }
    149d:	62c242        	addi	a4, a2, 98
    14a0:	50c262        	addi	a6, a2, 80
    14a3:	fccff2        	addi	a15, a15, -4
    14a6:	0e6132        	s32i	a3, a1, 56

000014a9 <Pitch_by_Corel+0x61>:
    14a9:	04ed           	mov.n	a14, a4
    14ab:	202660        	or	a2, a6, a6
    14ae:	409e14        	ae_lp16f.iu	aep1, a14, 2
    14b1:	078c76        	loop	a12, 14bc <Pitch_by_Corel+0x74>
    14b4:	40a214        	ae_lp16f.iu	aep2, a2, 2
    14b7:	e444ac9e1f 	{ ae_lp16f.iu	aep1, a14, 2; ae_mulafs56p24s.hh	aeq0, aep1, aep2 }

000014bc <Pitch_by_Corel+0x74>:
    14bc:	350174        	ae_sraiq56	aeq0, aeq0, 5
    14bf:	fc247d270f 	{ ae_lq32f.i	aeq1, a7, 0; ae_roundsq32asym	aeq0, aeq0 }
    14c4:	f9667d480f 	{ ae_lq32f.i	aeq2, a8, 0; ae_addsq56s	aeq1, aeq0, aeq1 }
    14c9:	f9ea7d690f 	{ ae_lq32f.i	aeq3, a9, 0; ae_addsq56s	aeq1, aeq1, aeq2 }
    14ce:	f9ee7d6a0f 	{ ae_lq32f.i	aeq3, a10, 0; ae_addsq56s	aeq1, aeq1, aeq3 }
    14d3:	f9ee4fed2e 	{ addi	a2, a13, -2; ae_addsq56s	aeq1, aeq1, aeq3 }
    14d8:	f8603ad16f 	{ ae_sllisq56s	aeq1, aeq1, 6; ae_mulrfq32sp24s.h	aeq0, aeq0, aep0 }
    14dd:	fd2c40265f 	{ movi	a5, 38; ae_roundsq32asym	aeq1, aeq1 }
    14e2:	625f14        	ae_sq32f.iu	aeq1, a15, 4
    14e5:	0fe8           	l32i.n	a14, a15, 0
    14e7:	922d           	ae_zext16	a2, a2
    14e9:	622250        	saltu	a2, a2, a5
    14ec:	53ee30        	max	a14, a14, a3
    14ef:	0fe9           	s32i.n	a14, a15, 0
    14f1:	620704        	ae_sq32f.i	aeq0, a7, 0
    14f4:	600804        	ae_lq32f.i	aeq0, a8, 0
    14f7:	f860001dde 	{ addi	a13, a13, 1; ae_mulrfq32sp24s.h	aeq0, aeq0, aep0 }
    14fc:	725be0        	salt	a5, a11, a14
    14ff:	620804        	ae_sq32f.i	aeq0, a8, 0
    1502:	600904        	ae_lq32f.i	aeq0, a9, 0
    1505:	f8600fe66e 	{ addi	a6, a6, -2; ae_mulrfq32sp24s.h	aeq0, aeq0, aep0 }
    150a:	83eb50        	moveqz	a14, a11, a5
    150d:	620904        	ae_sq32f.i	aeq0, a9, 0
    1510:	600a04        	ae_lq32f.i	aeq0, a10, 0
    1513:	f86000477e 	{ addi	a7, a7, 4; ae_mulrfq32sp24s.h	aeq0, aeq0, aep0 }
    1518:	93be20        	movnez	a11, a14, a2
    151b:	ae2c           	movi.n	a14, 42
    151d:	fc24b98a0f 	{ ae_sq32f.i	aeq0, a10, 0; ae_zeroq56	aeq0 }
    1522:	884b           	addi.n	a8, a8, 4
    1524:	994b           	addi.n	a9, a9, 4
    1526:	aa4b           	addi.n	a10, a10, 4
    1528:	021de7        	beq	a13, a14, 152e <Pitch_by_Corel+0xe6>
    152b:	ffde86        	j	14a9 <Pitch_by_Corel+0x61>
    152e:	112192        	l32i	a9, a1, 68
    1531:	54a132        	movi	a3, 0x154
    1534:	e1b9           	s32i.n	a11, a1, 56
    1536:	38c122        	addi	a2, a1, 56
    1539:	603394        	ae_lq32f.xu	aeq0, a3, a9
    153c:	604204        	ae_lq32f.i	aeq1, a2, 0
    153f:	065814        	ae_subsq56s	aeq1, aeq1, aeq0
    1542:	faf051        	l32r	a5, 104 (2ccccd <_end+0x2c08ed>)
    1545:	fd04e2055f 	{ ae_movpa24x2	aep0, a5, a5; ae_satq48s	aeq1, aeq1 }
    154a:	080254        	ae_mularfq32sp24s.h	aeq0, aeq1, aep0
    154d:	04d942        	addmi	a4, a9, 0x400
    1550:	fc00f3e4fe 	{ l32i	a15, a4, 248; ae_satq48s	aeq0, aeq0 }
    1555:	620304        	ae_sq32f.i	aeq0, a3, 0
    1558:	552932        	l32i	a3, a9, 0x154
    155b:	58a182        	movi	a8, 0x158
    155e:	872c           	movi.n	a7, 40
    1560:	436f30        	min	a6, a15, a3
    1563:	0a1932        	l16ui	a3, a9, 20
    1566:	3e6462        	s32i	a6, a4, 248
    1569:	f8a452        	movi	a5, 0x4f8
    156c:	5b73b6        	bltui	a3, 7, 15cb <Pitch_by_Corel+0x183>
    156f:	398a           	add.n	a3, a9, a8
    1571:	d169           	s32i.n	a6, a1, 52
    1573:	068776        	loop	a7, 157d <Pitch_by_Corel+0x135>
    1576:	0378           	l32i.n	a7, a3, 0
    1578:	334b           	addi.n	a3, a3, 4
    157a:	436760        	min	a6, a7, a6
    157d:	d169           	s32i.n	a6, a1, 52
    157f:	50a262        	movi	a6, 0x250
    1582:	34c132        	addi	a3, a1, 52
    1585:	58a1f2        	movi	a15, 0x158
    1588:	604304        	ae_lq32f.i	aeq1, a3, 0
    158b:	60b694        	ae_lq32f.xu	aeq2, a6, a9
    158e:	fa5681f8cf 	{ movi	a12, 0x1f8; ae_subsq56s	aeq2, aeq2, aeq1 }
    1593:	a9fa           	add.n	a10, a9, a15
    1595:	fae971        	l32r	a7, 13c (6ccccd <_end+0x6c08ed>)
    1598:	39ca           	add.n	a3, a9, a12
    159a:	05d982        	addmi	a8, a9, 0x500
    159d:	fe80e2077f 	{ ae_movpa24x2	aep0, a7, a7; ae_satq48s	aeq2, aeq2 }
    15a2:	f3f6a0        	wur.ae_cbegin0	a10
    15a5:	f3f730        	wur.ae_cend0	a3
    15a8:	d660f018ee 	{ l32i	a14, a8, 4; ae_mularfq32sp24s.h	aeq1, aeq2, aep0 }
    15ad:	ff7c           	movi.n	a15, -1
    15af:	fd04fb995f 	{ ae_lq32f.x	aeq0, a9, a5; ae_satq48s	aeq1, aeq1 }
    15b4:	4d0c           	movi.n	a13, 4
    15b6:	621604        	ae_sq32f.i	aeq1, a6, 0
    15b9:	fc24f80edf 	{ ae_sq32f.c	aeq0, a14, a13; nop }
    15be:	4131f0        	srli	a3, a15, 1
    15c1:	3e6432        	s32i	a3, a4, 248
    15c4:	030c           	movi.n	a3, 0
    15c6:	18e9           	s32i.n	a14, a8, 4
    15c8:	000046        	j	15cd <Pitch_by_Corel+0x185>

000015cb <Pitch_by_Corel+0x183>:
    15cb:	331b           	addi.n	a3, a3, 1
    15cd:	50a272        	movi	a7, 0x250
    15d0:	fadce1        	l32r	a14, 140 (59999a <_end+0x58d5ba>)
    15d3:	398ee4        	ae_movpa24x2	aep0, a14, a14
    15d6:	607794        	ae_lq32f.xu	aeq1, a7, a9
    15d9:	f90102546f 	{ movi	a6, 0x254; ae_mulfq32sp24s.h	aeq2, aeq1, aep0 }
    15de:	603694        	ae_lq32f.xu	aeq0, a6, a9
    15e1:	d6500000ff 	{ movi	a15, 0; ae_ltq56s	b0, aeq0, aeq2 }
    15e6:	150c           	movi.n	a5, 1
    15e8:	fad741        	l32r	a4, 144 (733333 <_end+0x726f53>)
    15eb:	d3f500        	movt	a15, a5, b0
    15ee:	fad651        	l32r	a5, 148 (70a3d7 <_end+0x6fdff7>)
    15f1:	0a5932        	s16i	a3, a9, 20
    15f4:	b1b9           	s32i.n	a11, a1, 44
    15f6:	560134        	ae_sp24x2s.i	aep0, a1, 24
    15f9:	6f8c           	beqz.n	a15, 1603 <Pitch_by_Corel+0x1bb>
    15fb:	0778           	l32i.n	a7, a7, 0
    15fd:	398444        	ae_movpa24x2	aep0, a4, a4
    1600:	001086        	j	1646 <Pitch_by_Corel+0x1fe>

00001603 <Pitch_by_Corel+0x1bb>:
    1603:	398554        	ae_movpa24x2	aep0, a5, a5
    1606:	f90100003f 	{ movi	a3, 0; ae_mulfq32sp24s.h	aeq2, aeq1, aep0 }
    160b:	180c           	movi.n	a8, 1
    160d:	d6500001af 	{ movi	a10, 1; ae_ltq56s	b0, aeq0, aeq2 }
    1612:	face91        	l32r	a9, 14c (7e147b <_end+0x7d509b>)
    1615:	01cac0        	slli	a12, a10, 20
    1618:	d33800        	movt	a3, a8, b0
    161b:	538c           	beqz.n	a3, 1624 <Pitch_by_Corel+0x1dc>
    161d:	0778           	l32i.n	a7, a7, 0
    161f:	093d           	mov.n	a3, a9
    1621:	000786        	j	1643 <Pitch_by_Corel+0x1fb>

00001624 <Pitch_by_Corel+0x1dc>:
    1624:	398cc4        	ae_movpa24x2	aep0, a12, a12
    1627:	d461c401fe 	{ addi	a15, a1, 64; ae_mularfq32sp24s.h	aeq1, aeq1, aep0 }
    162c:	fac831        	l32r	a3, 14c (7e147b <_end+0x7d509b>)
    162f:	fd04e2033f 	{ ae_movpa24x2	aep0, a3, a3; ae_satq48s	aeq1, aeq1 }
    1634:	621f04        	ae_sq32f.i	aeq1, a15, 0
    1637:	102172        	l32i	a7, a1, 64
    163a:	0227b7        	blt	a7, a11, 1640 <Pitch_by_Corel+0x1f8>
    163d:	00dbc6        	j	19b0 <Pitch_by_Corel+0x568>
    1640:	fac431        	l32r	a3, 150 (7fbe77 <_end+0x7efa97>)
    1643:	398334        	ae_movpa24x2	aep0, a3, a3
    1646:	b179           	s32i.n	a7, a1, 44
    1648:	2cc132        	addi	a3, a1, 44
    164b:	604304        	ae_lq32f.i	aeq1, a3, 0
    164e:	f84680ff8f 	{ movi	a8, 255; ae_subsq56s	aeq0, aeq0, aeq1 }
    1653:	fc00c001ef 	{ movi	a14, 1; ae_satq48s	aeq0, aeq0 }
    1658:	080a24        	ae_mulafq32sp24s.h	aeq1, aeq0, aep0
    165b:	136172        	s32i	a7, a1, 76
    165e:	060944        	ae_satq48s	aeq0, aeq1
    1661:	064834        	ae_roundsq32sym	aeq1, aeq0
    1664:	621604        	ae_sq32f.i	aeq1, a6, 0
    1667:	06f8           	l32i.n	a15, a6, 0
    1669:	117e20        	slli	a7, a14, 14
    166c:	3fd882        	addmi	a8, a8, 0x3f00
    166f:	364734        	ae_cvtq48a32s	aeq1, a7
    1672:	0128f7        	blt	a8, a15, 1677 <Pitch_by_Corel+0x22f>
    1675:	0679           	s32i.n	a7, a6, 0
    1677:	fa8831        	l32r	a3, 98 (c3d4 <p_ecnr_mem>)
    167a:	f867054d7f 	{ movi	a7, 0x54d; ae_maxq56s	aeq0, aeq1, aeq0 }
    167f:	1177c0        	slli	a7, a7, 4
    1682:	0368           	l32i.n	a6, a3, 0
    1684:	630114        	ae_sq56s.i	aeq0, a1, 8
    1687:	a67a           	add.n	a10, a6, a7
    1689:	fab261        	l32r	a6, 154 (e44 <voiced_decision>)
    168c:	0006e0        	callx8	a6
    168f:	0338           	l32i.n	a3, a3, 0
    1691:	fa9561        	l32r	a6, e8 (9a30 <memset>)
    1694:	0b0c           	movi.n	a11, 0
    1696:	1ad332        	addmi	a3, a3, 0x1a00
    1699:	1923a2        	l32i	a10, a3, 100
    169c:	8c2c           	movi.n	a12, 40
    169e:	0006e0        	callx8	a6
    16a1:	192372        	l32i	a7, a3, 100
    16a4:	1121b2        	l32i	a11, a1, 68
    16a7:	f8a1f2        	movi	a15, 0x1f8
    16aa:	a92c           	movi.n	a9, 42
    16ac:	6bfa           	add.n	a6, a11, a15
    16ae:	28c782        	addi	a8, a7, 40
    16b1:	078976        	loop	a9, 16bc <Pitch_by_Corel+0x274>
    16b4:	263d           	ae_l16si.n	a3, a6, 0
    16b6:	683d           	ae_s16i.n	a3, a8, 0
    16b8:	662b           	addi.n	a6, a6, 2
    16ba:	882b           	addi.n	a8, a8, 2

000016bc <Pitch_by_Corel+0x274>:
    16bc:	102b82        	l32i	a8, a11, 64
    16bf:	aca032        	movi	a3, 172
    16c2:	faa5f1        	l32r	a15, 158 (39999a <_end+0x38d5ba>)
    16c5:	fca162        	movi	a6, 0x1fc
    16c8:	398554        	ae_movpa24x2	aep0, a5, a5
    16cb:	399444        	ae_movpa24x2	aep1, a4, a4
    16ce:	39aff4        	ae_movpa24x2	aep2, a15, a15
    16d1:	2ac752        	addi	a5, a7, 42
    16d4:	290c           	movi.n	a9, 2
    16d6:	8a2c           	movi.n	a10, 40
    16d8:	5c0c           	movi.n	a12, 5
    16da:	1d0c           	movi.n	a13, 1
    16dc:	040c           	movi.n	a4, 0
    16de:	166182        	s32i	a8, a1, 88
    16e1:	6b89           	s32i.n	a8, a11, 24
    16e3:	eb3a           	add.n	a14, a11, a3
    16e5:	fb6a           	add.n	a15, a11, a6
    16e7:	61c114        	ae_lq56.i	aeq3, a1, 8
    16ea:	000a46        	j	1717 <Pitch_by_Corel+0x2cf>

000016ed <Pitch_by_Corel+0x2a5>:
    16ed:	030c           	movi.n	a3, 0
    16ef:	d33d10        	movt	a3, a13, b1
    16f2:	838c           	beqz.n	a3, 16fe <Pitch_by_Corel+0x2b6>
    16f4:	8b3d           	ae_sext16	a3, a11
    16f6:	fec332        	addi	a3, a3, -2
    16f9:	060c           	movi.n	a6, 0
    16fb:	53b630        	max	a11, a6, a3
    16fe:	8b3d           	ae_sext16	a3, a11
    1700:	461c           	movi.n	a6, 20
    1702:	441b           	addi.n	a4, a4, 1
    1704:	438360        	min	a8, a3, a6
    1707:	991b           	addi.n	a9, a9, 1
    1709:	6f8d           	ae_s16i.n	a8, a15, 0
    170b:	ee4b           	addi.n	a14, a14, 4
    170d:	ff2b           	addi.n	a15, a15, 2
    170f:	552b           	addi.n	a5, a5, 2
    1711:	0299a7        	bne	a9, a10, 1717 <Pitch_by_Corel+0x2cf>
    1714:	002cc6        	j	17cb <Pitch_by_Corel+0x383>
    1717:	4f6d           	ae_l16ui.n	a6, a15, 0
    1719:	0e8d           	mov.n	a8, a14
    171b:	0b0c           	movi.n	a11, 0
    171d:	068c76        	loop	a12, 1727 <Pitch_by_Corel+0x2df>
    1720:	0838           	l32i.n	a3, a8, 0
    1722:	884b           	addi.n	a8, a8, 4
    1724:	53b3b0        	max	a11, a3, a11

00001727 <Pitch_by_Corel+0x2df>:
    1727:	112132        	l32i	a3, a1, 68
    172a:	600e24        	ae_lq32f.i	aeq0, a14, 8
    172d:	3580f4        	ae_sraiq56	aeq2, aeq0, 3
    1730:	403304        	ae_lp16f.i	aep3, a3, 0
    1733:	d66fc0003f 	{ movi	a3, 0; ae_mulfq32sp16u.h	aeq1, aeq3, aep3 }
    1738:	080c           	movi.n	a8, 0
    173a:	09a104        	ae_ltq56s	b0, aeq1, aeq2
    173d:	d33d00        	movt	a3, a13, b0
    1740:	fc3316        	beqz	a3, 1707 <Pitch_by_Corel+0x2bf>
    1743:	2e38           	l32i.n	a3, a14, 8
    1745:	be93b7        	bne	a3, a11, 1707 <Pitch_by_Corel+0x2bf>
    1748:	553d           	ae_l16ui.n	a3, a5, 2
    174a:	06bd           	mov.n	a11, a6
    174c:	03dc           	bnez.n	a3, 1760 <Pitch_by_Corel+0x318>
    174e:	25bd           	ae_l16si.n	a11, a5, 0
    1750:	0c1be6        	bgei	a11, 1, 1760 <Pitch_by_Corel+0x318>
    1753:	029532        	l16si	a3, a5, 4
    1756:	0b0c           	movi.n	a11, 0
    1758:	72bb30        	salt	a11, a11, a3
    175b:	9363b0        	movnez	a6, a3, a11
    175e:	06bd           	mov.n	a11, a6

00001760 <Pitch_by_Corel+0x318>:
    1760:	112132        	l32i	a3, a1, 68
    1763:	60c204        	ae_lq32f.i	aeq3, a2, 0
    1766:	060c           	movi.n	a6, 0
    1768:	403324        	ae_lp16f.i	aep3, a3, 4
    176b:	03b2e4        	ae_mulfq32sp16u.h	aeq2, aeq3, aep3
    176e:	943d           	ae_zext16	a3, a4
    1770:	d66ed1337f 	{ addx2	a3, a3, a7; ae_mulfq32sp16u.h	aeq1, aeq2, aep3 }
    1775:	098214        	ae_ltq56s	b1, aeq2, aeq0
    1778:	f8017a112f 	{ ae_sq56s.i	aeq1, a1, 16; ae_mulfq32sp24s.h	aeq1, aeq1, aep0 }
    177d:	d6443da12f 	{ ae_lq56.i	aeq1, a1, 16; ae_ltq56s	b0, aeq1, aeq0 }
    1782:	d644166d0f 	{ movt	a6, a13, b0; ae_ltq56s	b0, aeq1, aeq0 }
    1787:	169c           	beqz.n	a6, 179c <Pitch_by_Corel+0x354>
    1789:	060c           	movi.n	a6, 0
    178b:	f805566d1f 	{ movt	a6, a13, b1; ae_mulfq32sp24s.h	aeq1, aeq1, aep1 }
    1790:	639d           	ae_s16i.n	a9, a3, 0
    1792:	36ac           	beqz.n	a6, 17b9 <Pitch_by_Corel+0x371>
    1794:	bb2b           	addi.n	a11, a11, 2
    1796:	61c114        	ae_lq56.i	aeq3, a1, 8
    1799:	ffd846        	j	16fe <Pitch_by_Corel+0x2b6>

0000179c <Pitch_by_Corel+0x354>:
    179c:	fa0940003f 	{ movi	a3, 0; ae_mulfq32sp24s.h	aeq1, aeq3, aep2 }
    17a1:	d6443de11f 	{ ae_lq56.i	aeq3, a1, 8; ae_ltq56s	b0, aeq1, aeq0 }
    17a6:	8b6d           	ae_sext16	a6, a11
    17a8:	d33d00        	movt	a3, a13, b0
    17ab:	f58316        	beqz	a3, 1707 <Pitch_by_Corel+0x2bf>
    17ae:	fbc632        	addi	a3, a6, -5
    17b1:	060c           	movi.n	a6, 0
    17b3:	538630        	max	a8, a6, a3
    17b6:	ffd346        	j	1707 <Pitch_by_Corel+0x2bf>

000017b9 <Pitch_by_Corel+0x371>:
    17b9:	030c           	movi.n	a3, 0
    17bb:	d6487de11f 	{ ae_lq56.i	aeq3, a1, 8; ae_ltq56s	b1, aeq0, aeq1 }
    17c0:	d33d00        	movt	a3, a13, b0
    17c3:	f26316        	beqz	a3, 16ed <Pitch_by_Corel+0x2a5>
    17c6:	bb1b           	addi.n	a11, a11, 1
    17c8:	ffcc86        	j	16fe <Pitch_by_Corel+0x2b6>

000017cb <Pitch_by_Corel+0x383>:
    17cb:	1121c2        	l32i	a12, a1, 68
    17ce:	fa6331        	l32r	a3, 15c (5d70a4 <_end+0x5cacc4>)
    17d1:	39f334        	ae_movpa24x2	aep7, a3, a3
    17d4:	400c04        	ae_lp16f.i	aep0, a12, 0
    17d7:	d663ac1c1f 	{ ae_lp16f.i	aep1, a12, 2; ae_mulfq32sp16u.h	aeq0, aeq3, aep0 }
    17dc:	f87c           	movi.n	a8, -1
    17de:	d56683c1be 	{ addi	a11, a1, 60; ae_mulfq32sp16u.h	aeq2, aeq0, aep1 }
    17e3:	5cc152        	addi	a5, a1, 92
    17e6:	fa7c79ab0f 	{ ae_sq32f.i	aeq2, a11, 0; ae_mulrfq32sp24s.h	aeq1, aeq2, aep7 }
    17eb:	f48080        	extui	a8, a8, 0, 16
    17ee:	621504        	ae_sq32f.i	aeq1, a5, 0
    17f1:	028847        	bany	a8, a4, 17f7 <Pitch_by_Corel+0x3af>
    17f4:	004e86        	j	1932 <Pitch_by_Corel+0x4ea>
    17f7:	600204        	ae_lq32f.i	aeq0, a2, 0
    17fa:	35c134        	ae_sraiq56	aeq3, aeq0, 4
    17fd:	d5d80000ff 	{ movi	a15, 0; ae_leq56s	b0, aeq2, aeq3 }
    1802:	130c           	movi.n	a3, 1
    1804:	060c           	movi.n	a6, 0
    1806:	d55c56f30f 	{ movt	a15, a3, b0; ae_leq56s	b1, aeq1, aeq3 }
    180b:	ffcc           	bnez.n	a15, 181e <Pitch_by_Corel+0x3d6>
    180d:	150c           	movi.n	a5, 1
    180f:	091c22        	l16ui	a2, a12, 18
    1812:	d36510        	movt	a6, a5, b1
    1815:	11c616        	beqz	a6, 1935 <Pitch_by_Corel+0x4ed>
    1818:	0222f6        	bgeui	a2, 2, 181e <Pitch_by_Corel+0x3d6>
    181b:	004586        	j	1935 <Pitch_by_Corel+0x4ed>
    181e:	fa50d1        	l32r	a13, 160 (666666 <_end+0x65a286>)
    1821:	547134        	ae_lp24x2.i	aep7, a1, 24
    1824:	f81c220ddf 	{ ae_movpa24x2	aep0, a13, a13; ae_mulfq32sp24s.h	aeq0, aeq0, aep7 }
    1829:	c1a8           	l32i.n	a10, a1, 48
    182b:	1321d2        	l32i	a13, a1, 76
    182e:	1461b2        	s32i	a11, a1, 80
    1831:	04dc22        	addmi	a2, a12, 0x400
    1834:	f1b8           	l32i.n	a11, a1, 60
    1836:	94ed           	ae_zext16	a14, a4
    1838:	156122        	s32i	a2, a1, 84
    183b:	21b9           	s32i.n	a11, a1, 8
    183d:	050c           	movi.n	a5, 0
    183f:	aca0f2        	movi	a15, 172
    1842:	560144        	ae_sp24x2s.i	aep0, a1, 32
    1845:	630124        	ae_sq56s.i	aeq0, a1, 16
    1848:	272d           	ae_l16si.n	a2, a7, 0
    184a:	9032c0        	addx2	a3, a2, a12
    184d:	fc1332        	l16ui	a3, a3, 0x1f8
    1850:	136132        	s32i	a3, a1, 76
    1853:	a042c0        	addx4	a4, a2, a12
    1856:	0263f6        	bgeui	a3, 6, 185c <Pitch_by_Corel+0x414>
    1859:	002bc6        	j	190c <Pitch_by_Corel+0x4c4>
    185c:	6034f4        	ae_lq32f.xu	aeq0, a4, a15
    185f:	614124        	ae_lq56.i	aeq1, a1, 16
    1862:	d64400003f 	{ movi	a3, 0; ae_ltq56s	b0, aeq1, aeq0 }
    1867:	160c           	movi.n	a6, 1
    1869:	928d           	ae_zext16	a8, a2
    186b:	d33600        	movt	a3, a6, b0
    186e:	09a316        	beqz	a3, 190c <Pitch_by_Corel+0x4c4>
    1871:	126182        	s32i	a8, a1, 72
    1874:	fa1f31        	l32r	a3, f0 (133c <Xfrac_num_pd_td32>)
    1877:	9c0c           	movi.n	a12, 9
    1879:	04ad           	mov.n	a10, a4
    187b:	02bd           	mov.n	a11, a2
    187d:	0e6d           	mov.n	a6, a14
    187f:	0003e0        	callx8	a3
    1882:	1621b2        	l32i	a11, a1, 88
    1885:	fa3781        	l32r	a8, 164 (14001 <_end+0x7c21>)
    1888:	152192        	l32i	a9, a1, 84
    188b:	0b4b16        	beqz	a11, 1943 <Pitch_by_Corel+0x4fb>
    188e:	c03ba0        	sub	a3, a11, a10
    1891:	02a387        	bge	a3, a8, 1897 <Pitch_by_Corel+0x44f>
    1894:	002ac6        	j	1943 <Pitch_by_Corel+0x4fb>
    1897:	1121c2        	l32i	a12, a1, 68
    189a:	bd0c           	movi.n	a13, 11
    189c:	7e1982        	l16ui	a8, a9, 252
    189f:	980b           	addi.n	a9, a8, -1
    18a1:	90f9c0        	addx2	a15, a9, a12
    18a4:	fc1f32        	l16ui	a3, a15, 0x1f8
    18a7:	f81b           	addi.n	a15, a8, 1
    18a9:	90efc0        	addx2	a14, a15, a12
    18ac:	0cb3d7        	bgeu	a3, a13, 18bc <Pitch_by_Corel+0x474>
    18af:	fc1e92        	l16ui	a9, a14, 0x1f8
    18b2:	ae0c           	movi.n	a14, 10
    18b4:	629e90        	saltu	a9, a14, a9
    18b7:	938f90        	movnez	a8, a15, a9
    18ba:	089d           	mov.n	a9, a8
    18bc:	998d           	ae_zext16	a8, a9
    18be:	9038c0        	addx2	a3, a8, a12
    18c1:	fc1392        	l16ui	a9, a3, 0x1f8
    18c4:	06ed           	mov.n	a14, a6
    18c6:	aca0f2        	movi	a15, 172
    18c9:	7939d7        	bltu	a9, a13, 1946 <Pitch_by_Corel+0x4fe>
    18cc:	a088c0        	addx4	a8, a8, a12
    18cf:	0438           	l32i.n	a3, a4, 0
    18d1:	2b28b2        	l32i	a11, a8, 172
    18d4:	02dd           	mov.n	a13, a2
    18d6:	2168           	l32i.n	a6, a1, 8
    18d8:	3023b7        	blt	a3, a11, 190c <Pitch_by_Corel+0x4c4>
    18db:	213530        	srai	a3, a3, 5
    18de:	02dd           	mov.n	a13, a2
    18e0:	282367        	blt	a3, a6, 190c <Pitch_by_Corel+0x4c4>
    18e3:	132132        	l32i	a3, a1, 76
    18e6:	600404        	ae_lq32f.i	aeq0, a4, 0
    18e9:	540144        	ae_lp24x2.i	aep0, a1, 32
    18ec:	026326        	beqi	a3, 6, 18f2 <Pitch_by_Corel+0x4aa>
    18ef:	003086        	j	19b5 <Pitch_by_Corel+0x56d>
    18f2:	02a9f6        	bgeui	a9, 12, 18f8 <Pitch_by_Corel+0x4b0>
    18f5:	002f06        	j	19b5 <Pitch_by_Corel+0x56d>
    18f8:	f8603bb8ff 	{ ae_lq32f.x	aeq1, a8, a15; ae_mulrfq32sp24s.h	aeq0, aeq0, aep0 }
    18fd:	030c           	movi.n	a3, 0
    18ff:	d6480001df 	{ movi	a13, 1; ae_ltq56s	b0, aeq0, aeq1 }
    1904:	d33d00        	movt	a3, a13, b0
    1907:	02dd           	mov.n	a13, a2
    1909:	0b8316        	beqz	a3, 19c5 <Pitch_by_Corel+0x57d>
    190c:	551b           	addi.n	a5, a5, 1
    190e:	772b           	addi.n	a7, a7, 2
    1910:	02b5e7        	bgeu	a5, a14, 1916 <Pitch_by_Corel+0x4ce>
    1913:	ffcc46        	j	1848 <Pitch_by_Corel+0x400>
    1916:	479d           	ae_l16ui.n	a9, a7, 0
    1918:	1621b2        	l32i	a11, a1, 88
    191b:	f87c           	movi.n	a8, -1
    191d:	892d           	ae_sext16	a2, a9
    191f:	9022c0        	addx2	a2, a2, a12
    1922:	fc1232        	l16ui	a3, a2, 0x1f8
    1925:	f48080        	extui	a8, a8, 0, 16
    1928:	b1d9           	s32i.n	a13, a1, 44
    192a:	c1a9           	s32i.n	a10, a1, 48
    192c:	2873f6        	bgeui	a3, 7, 1958 <Pitch_by_Corel+0x510>
    192f:	0026c6        	j	19ce <Pitch_by_Corel+0x586>

00001932 <Pitch_by_Corel+0x4ea>:
    1932:	091c22        	l16ui	a2, a12, 18
    1935:	0a5256        	bnez	a2, 19de <Pitch_by_Corel+0x596>
    1938:	04dc22        	addmi	a2, a12, 0x400
    193b:	030c           	movi.n	a3, 0
    193d:	7e5232        	s16i	a3, a2, 252
    1940:	002686        	j	19de <Pitch_by_Corel+0x596>

00001943 <Pitch_by_Corel+0x4fb>:
    1943:	1121c2        	l32i	a12, a1, 68
    1946:	b129           	s32i.n	a2, a1, 44
    1948:	c1a9           	s32i.n	a10, a1, 48
    194a:	122192        	l32i	a9, a1, 72
    194d:	132132        	l32i	a3, a1, 76
    1950:	f87c           	movi.n	a8, -1
    1952:	f48080        	extui	a8, a8, 0, 16
    1955:	7573b6        	bltui	a3, 7, 19ce <Pitch_by_Corel+0x586>
    1958:	c03ba0        	sub	a3, a11, a10
    195b:	540c           	movi.n	a4, 5
    195d:	091c22        	l16ui	a2, a12, 18
    1960:	114420        	slli	a4, a4, 14
    1963:	603130        	abs	a3, a3
    1966:	025192        	s16i	a9, a1, 4
    1969:	042437        	blt	a4, a3, 1971 <Pitch_by_Corel+0x529>
    196c:	221b           	addi.n	a2, a2, 1
    196e:	000d46        	j	19a7 <Pitch_by_Corel+0x55f>

00001971 <Pitch_by_Corel+0x529>:
    1971:	2a32b6        	bltui	a2, 3, 199f <Pitch_by_Corel+0x557>
    1974:	4131a0        	srli	a3, a10, 1
    1977:	c03b30        	sub	a3, a11, a3
    197a:	603130        	abs	a3, a3
    197d:	1e2437        	blt	a4, a3, 199f <Pitch_by_Corel+0x557>
    1980:	30c132        	addi	a3, a1, 48
    1983:	600304        	ae_lq32f.i	aeq0, a3, 0
    1986:	350074        	ae_sraiq56	aeq0, aeq0, 1
    1989:	f8e3b141be 	{ l32i	a11, a1, 80; ae_roundsp16q48sym	aep0, aeq0 }
    198e:	420124        	ae_sp16f.l.i	aep0, a1, 4
    1991:	029132        	l16si	a3, a1, 4
    1994:	221b           	addi.n	a2, a2, 1
    1996:	095c22        	s16i	a2, a12, 18
    1999:	f7c392        	addi	a9, a3, -9
    199c:	0010c6        	j	19e3 <Pitch_by_Corel+0x59b>

0000199f <Pitch_by_Corel+0x557>:
    199f:	152132        	l32i	a3, a1, 84
    19a2:	020c           	movi.n	a2, 0
    19a4:	7e5322        	s16i	a2, a3, 252
    19a7:	095c22        	s16i	a2, a12, 18
    19aa:	1421b2        	l32i	a11, a1, 80
    19ad:	000d46        	j	19e6 <Pitch_by_Corel+0x59e>

000019b0 <Pitch_by_Corel+0x568>:
    19b0:	0b7d           	mov.n	a7, a11
    19b2:	ff2486        	j	1648 <Pitch_by_Corel+0x200>

000019b5 <Pitch_by_Corel+0x56d>:
    19b5:	1621b2        	l32i	a11, a1, 88
    19b8:	122192        	l32i	a9, a1, 72
    19bb:	f87c           	movi.n	a8, -1
    19bd:	f48080        	extui	a8, a8, 0, 16
    19c0:	b129           	s32i.n	a2, a1, 44
    19c2:	ffd906        	j	192a <Pitch_by_Corel+0x4e2>

000019c5 <Pitch_by_Corel+0x57d>:
    19c5:	f87c           	movi.n	a8, -1
    19c7:	f48080        	extui	a8, a8, 0, 16
    19ca:	b129           	s32i.n	a2, a1, 44
    19cc:	c1a9           	s32i.n	a10, a1, 48
    19ce:	091c22        	l16ui	a2, a12, 18
    19d1:	1421b2        	l32i	a11, a1, 80
    19d4:	152132        	l32i	a3, a1, 84
    19d7:	32cc           	bnez.n	a2, 19de <Pitch_by_Corel+0x596>
    19d9:	020c           	movi.n	a2, 0
    19db:	7e5322        	s16i	a2, a3, 252
    19de:	090c           	movi.n	a9, 0
    19e0:	095c92        	s16i	a9, a12, 18
    19e3:	025192        	s16i	a9, a1, 4
    19e6:	04dc42        	addmi	a4, a12, 0x400
    19e9:	7e1432        	l16ui	a3, a4, 252
    19ec:	020c           	movi.n	a2, 0
    19ee:	0a0c           	movi.n	a10, 0
    19f0:	06c356        	bnez	a3, 1a60 <Pitch_by_Corel+0x618>
    19f3:	060c           	movi.n	a6, 0
    19f5:	f8a132        	movi	a3, 0x1f8
    19f8:	bf2c           	movi.n	a15, 43
    19fa:	126192        	s32i	a9, a1, 72
    19fd:	070c           	movi.n	a7, 0
    19ff:	050c           	movi.n	a5, 0
    1a01:	8c3a           	add.n	a8, a12, a3
    1a03:	6c69           	s32i.n	a6, a12, 24
    1a05:	0e8f76        	loop	a15, 1a17 <Pitch_by_Corel+0x5cf>
    1a08:	483d           	ae_l16ui.n	a3, a8, 0
    1a0a:	882b           	addi.n	a8, a8, 2
    1a0c:	629730        	saltu	a9, a7, a3
    1a0f:	935690        	movnez	a5, a6, a9
    1a12:	737730        	maxu	a7, a7, a3
    1a15:	661b           	addi.n	a6, a6, 1

00001a17 <Pitch_by_Corel+0x5cf>:
    1a17:	122192        	l32i	a9, a1, 72
    1a1a:	f87c           	movi.n	a8, -1
    1a1c:	0a0c           	movi.n	a10, 0
    1a1e:	f48080        	extui	a8, a8, 0, 16
    1a21:	3b47b6        	bltui	a7, 4, 1a60 <Pitch_by_Corel+0x618>
    1a24:	f9d131        	l32r	a3, 168 (ccccd <_end+0xc08ed>)
    1a27:	600b04        	ae_lq32f.i	aeq0, a11, 0
    1a2a:	85bd           	ae_sext16	a11, a5
    1a2c:	398334        	ae_movpa24x2	aep0, a3, a3
    1a2f:	d46080ac5f 	{ movi	a5, 172; ae_mularfq32sp24s.h	aeq0, aeq0, aep0 }
    1a34:	a06bc0        	addx4	a6, a11, a12
    1a37:	fc00fbb65f 	{ ae_lq32f.x	aeq1, a6, a5; ae_satq48s	aeq0, aeq0 }
    1a3c:	355134        	ae_sraiq56	aeq1, aeq1, 4
    1a3f:	d6480000ff 	{ movi	a15, 0; ae_ltq56s	b0, aeq0, aeq1 }
    1a44:	170c           	movi.n	a7, 1
    1a46:	f9aa31        	l32r	a3, f0 (133c <Xfrac_num_pd_td32>)
    1a49:	d3f700        	movt	a15, a7, b0
    1a4c:	0f9c           	beqz.n	a15, 1a60 <Pitch_by_Corel+0x618>
    1a4e:	a65a           	add.n	a10, a6, a5
    1a50:	9c0c           	movi.n	a12, 9
    1a52:	0003e0        	callx8	a3
    1a55:	122192        	l32i	a9, a1, 72
    1a58:	1121c2        	l32i	a12, a1, 68
    1a5b:	f87c           	movi.n	a8, -1
    1a5d:	f48080        	extui	a8, a8, 0, 16

00001a60 <Pitch_by_Corel+0x618>:
    1a60:	7ca9           	s32i.n	a10, a12, 28
    1a62:	7e5492        	s16i	a9, a4, 252
    1a65:	160897        	bnone	a8, a9, 1a7f <Pitch_by_Corel+0x637>
    1a68:	99bd           	ae_zext16	a11, a9
    1a6a:	a03bc0        	addx4	a3, a11, a12
    1a6d:	aca022        	movi	a2, 172
    1a70:	a32a           	add.n	a10, a3, a2
    1a72:	f99f21        	l32r	a2, f0 (133c <Xfrac_num_pd_td32>)
    1a75:	9c0c           	movi.n	a12, 9
    1a77:	0002e0        	callx8	a2
    1a7a:	1121c2        	l32i	a12, a1, 68
    1a7d:	0a2d           	mov.n	a2, a10
    1a7f:	106c22        	s32i	a2, a12, 64
    1a82:	f01d           	retw.n

00001a84 <PD_TD_prcs>:
    1a84:	004136        	entry	a1, 32
    1a87:	f98431        	l32r	a3, 98 (c3d4 <p_ecnr_mem>)
    1a8a:	441c           	movi.n	a4, 20
    1a8c:	55d442        	addmi	a4, a4, 0x5500
    1a8f:	0328           	l32i.n	a2, a3, 0
    1a91:	f98761        	l32r	a6, b0 (9a58 <xt_memcpy>)
    1a94:	2c3c           	movi.n	a12, 50
    1a96:	1ad252        	addmi	a5, a2, 0x1a00
    1a99:	1a2552        	l32i	a5, a5, 104
    1a9c:	b24a           	add.n	a11, a2, a4
    1a9e:	9cc522        	addi	a2, a5, -100
    1aa1:	02ad           	mov.n	a10, a2
    1aa3:	0006e0        	callx8	a6
    1aa6:	0378           	l32i.n	a7, a3, 0
    1aa8:	4da562        	movi	a6, 0x54d
    1aab:	1166c0        	slli	a6, a6, 4
    1aae:	b76a           	add.n	a11, a7, a6
    1ab0:	f9af71        	l32r	a7, 16c (1448 <Pitch_by_Corel>)
    1ab3:	02ad           	mov.n	a10, a2
    1ab5:	0007e0        	callx8	a7
    1ab8:	0328           	l32i.n	a2, a3, 0
    1aba:	d8c5a2        	addi	a10, a5, -40
    1abd:	b26a           	add.n	a11, a2, a6
    1abf:	0007e0        	callx8	a7
    1ac2:	0328           	l32i.n	a2, a3, 0
    1ac4:	14c5b2        	addi	a11, a5, 20
    1ac7:	2c3c           	movi.n	a12, 50
    1ac9:	a24a           	add.n	a10, a2, a4
    1acb:	f97921        	l32r	a2, b0 (9a58 <xt_memcpy>)
    1ace:	0002e0        	callx8	a2
    1ad1:	f01d           	retw.n

00001ad3 <PD_TD_prcs+0x4f>:
	...

00001ad4 <pitch_by_harmonic>:
    1ad4:	012136        	entry	a1, 144
    1ad7:	f970e1        	l32r	a14, 98 (c3d4 <p_ecnr_mem>)
    1ada:	027d           	mov.n	a7, a2
    1adc:	f8a062        	movi	a6, 248
    1adf:	0e58           	l32i.n	a5, a14, 0
    1ae1:	0f0c           	movi.n	a15, 0
    1ae3:	0248           	l32i.n	a4, a2, 0
    1ae5:	54d522        	addmi	a2, a5, 0x5400
    1ae8:	116122        	s32i	a2, a1, 68
    1aeb:	3a2222        	l32i	a2, a2, 232
    1aee:	54d662        	addmi	a6, a6, 0x5400
    1af1:	6139           	s32i.n	a3, a1, 24
    1af3:	136142        	s32i	a4, a1, 76
    1af6:	1457f2        	s16i	a15, a7, 40
    1af9:	075216        	beqz	a2, 1b72 <pitch_by_harmonic+0x9e>
    1afc:	fb7c           	movi.n	a11, -1
    1afe:	11c220        	slli	a12, a2, 14
    1b01:	d5d220        	extui	a13, a2, 18, 14
    1b04:	f99b21        	l32r	a2, 170 (9adc <__udivdi3>)
    1b07:	01bb10        	slli	a11, a11, 31
    1b0a:	0a0c           	movi.n	a10, 0
    1b0c:	0002e0        	callx8	a2
    1b0f:	54d522        	addmi	a2, a5, 0x5400
    1b12:	3e2222        	l32i	a2, a2, 248
    1b15:	54d532        	addmi	a3, a5, 0x5400
    1b18:	540c           	movi.n	a4, 5
    1b1a:	7e5342        	s16i	a4, a3, 252
    1b1d:	c1a9           	s32i.n	a10, a1, 48
    1b1f:	0212e6        	bgei	a2, 1, 1b25 <pitch_by_harmonic+0x51>
    1b22:	004386        	j	1c34 <pitch_by_harmonic+0x160>
    1b25:	30c132        	addi	a3, a1, 48
    1b28:	f99341        	l32r	a4, 174 (aaaab <_end+0x9e6cb>)
    1b2b:	602564        	ae_lq32f.x	aeq0, a5, a6
    1b2e:	604304        	ae_lq32f.i	aeq1, a3, 0
    1b31:	f94aa2044f 	{ ae_movpa24x2	aep0, a4, a4; ae_subsq56s	aeq1, aeq1, aeq0 }
    1b36:	fd04c000ef 	{ movi	a14, 0; ae_satq48s	aeq1, aeq1 }
    1b3b:	f8000001ff 	{ movi	a15, 1; ae_mulfq32sp24s.h	aeq0, aeq0, aep0 }
    1b40:	fd0cb1116e 	{ l32i	a6, a1, 68; ae_abssq56s	aeq1, aeq1 }
    1b45:	d64800343f 	{ movi	a3, 52; ae_ltq56s	b0, aeq0, aeq1 }
    1b4a:	55d542        	addmi	a4, a5, 0x5500
    1b4d:	82aa           	add.n	a8, a2, a10
    1b4f:	d3ef00        	movt	a14, a15, b0
    1b52:	0f7e16        	beqz	a14, 1c4d <pitch_by_harmonic+0x179>
    1b55:	244d           	ae_l16si.n	a4, a4, 0
    1b57:	7f5632        	s16i	a3, a6, 254
    1b5a:	0334a6        	blti	a4, 3, 1b61 <pitch_by_harmonic+0x8d>
    1b5d:	02ad           	mov.n	a10, a2
    1b5f:	c129           	s32i.n	a2, a1, 48

00001b61 <pitch_by_harmonic+0x8d>:
    1b61:	112142        	l32i	a4, a1, 68
    1b64:	1e0c           	movi.n	a14, 1
    1b66:	54d5f2        	addmi	a15, a5, 0x5400
    1b69:	212aa0        	srai	a2, a10, 10
    1b6c:	3d6f22        	s32i	a2, a15, 244
    1b6f:	003506        	j	1c47 <pitch_by_harmonic+0x173>

00001b72 <pitch_by_harmonic+0x9e>:
    1b72:	54d522        	addmi	a2, a5, 0x5400
    1b75:	3b2222        	l32i	a2, a2, 236
    1b78:	fb7c           	movi.n	a11, -1
    1b7a:	01bb10        	slli	a11, a11, 31
    1b7d:	574216        	beqz	a2, 20f5 <pitch_by_harmonic+0x621>
    1b80:	11c220        	slli	a12, a2, 14
    1b83:	d5d220        	extui	a13, a2, 18, 14
    1b86:	f97a21        	l32r	a2, 170 (9adc <__udivdi3>)
    1b89:	0a0c           	movi.n	a10, 0
    1b8b:	0002e0        	callx8	a2
    1b8e:	30c122        	addi	a2, a1, 48
    1b91:	c1a9           	s32i.n	a10, a1, 48
    1b93:	600204        	ae_lq32f.i	aeq0, a2, 0
    1b96:	606564        	ae_lq32f.x	aeq1, a5, a6
    1b99:	358074        	ae_sraiq56	aeq2, aeq0, 1
    1b9c:	fb5680013f 	{ movi	a3, 1; ae_subsq56s	aeq3, aeq2, aeq1 }
    1ba1:	ff84fa014f 	{ ae_sq56s.i	aeq0, a1, 32; ae_satq48s	aeq3, aeq3 }
    1ba6:	013370        	slli	a3, a3, 25
    1ba9:	ff8cbec33f 	{ ae_cvtq48a32s	aeq0, a3; ae_abssq56s	aeq3, aeq3 }
    1bae:	d6c40000ff 	{ movi	a15, 0; ae_ltq56s	b0, aeq3, aeq0 }
    1bb3:	140c           	movi.n	a4, 1
    1bb5:	351074        	ae_sraiq56	aeq0, aeq1, 1
    1bb8:	d3f400        	movt	a15, a4, b0
    1bbb:	0fec           	bnez.n	a15, 1bdf <pitch_by_harmonic+0x10b>
    1bbd:	618144        	ae_lq56.i	aeq2, a1, 32
    1bc0:	f85280013f 	{ movi	a3, 1; ae_subsq56s	aeq0, aeq2, aeq0 }
    1bc5:	fc00c000ff 	{ movi	a15, 0; ae_satq48s	aeq0, aeq0 }
    1bca:	013380        	slli	a3, a3, 24
    1bcd:	fc08bec3ff 	{ ae_cvtq48a32s	aeq3, a3; ae_abssq56s	aeq0, aeq0 }
    1bd2:	d65800014f 	{ movi	a4, 1; ae_ltq56s	b0, aeq0, aeq3 }
    1bd7:	d3f400        	movt	a15, a4, b0
    1bda:	4f8c           	beqz.n	a15, 1be2 <pitch_by_harmonic+0x10e>
    1bdc:	36a054        	ae_sllisq56s	aeq2, aeq2, 1
    1bdf:	622204        	ae_sq32f.i	aeq2, a2, 0
    1be2:	00a7b2        	movi	a11, 0x700
    1be5:	600204        	ae_lq32f.i	aeq0, a2, 0
    1be8:	398bb4        	ae_movpa24x2	aep0, a11, a11
    1beb:	f80030c1ae 	{ l32i	a10, a1, 48; ae_mulfq32sp24s.h	aeq0, aeq0, aep0 }
    1bf0:	14c1c2        	addi	a12, a1, 20
    1bf3:	360154        	ae_sllisq56s	aeq0, aeq0, 5
    1bf6:	fbe3c0094f 	{ movi	a4, 9; ae_roundsp16q48sym	aep7, aeq0 }
    1bfb:	54d532        	addmi	a3, a5, 0x5400
    1bfe:	427c04        	ae_sp16f.l.i	aep7, a12, 0
    1c01:	7e5342        	s16i	a4, a3, 252
    1c04:	0a9132        	l16si	a3, a1, 20
    1c07:	54d562        	addmi	a6, a5, 0x5400
    1c0a:	219aa0        	srai	a9, a10, 10
    1c0d:	3d6692        	s32i	a9, a6, 244
    1c10:	3e2c           	movi.n	a14, 35
    1c12:	112162        	l32i	a6, a1, 68
    1c15:	df2c           	movi.n	a15, 45
    1c17:	5323e0        	max	a2, a3, a14
    1c1a:	4322f0        	min	a2, a2, a15
    1c1d:	54d582        	addmi	a8, a5, 0x5400
    1c20:	1d0c           	movi.n	a13, 1
    1c22:	8356d2        	s16i	a13, a6, 0x106
    1c25:	3c68a2        	s32i	a10, a8, 240
    1c28:	0a5122        	s16i	a2, a1, 20
    1c2b:	7f5622        	s16i	a2, a6, 254
    1c2e:	3d1ae6        	bgei	a10, 1, 1c6f <pitch_by_harmonic+0x19b>
    1c31:	013206        	j	20fd <pitch_by_harmonic+0x629>

00001c34 <pitch_by_harmonic+0x160>:
    1c34:	112142        	l32i	a4, a1, 68
    1c37:	ed3c           	movi.n	a13, 62
    1c39:	1e0c           	movi.n	a14, 1
    1c3b:	54d5f2        	addmi	a15, a5, 0x5400
    1c3e:	212aa0        	srai	a2, a10, 10
    1c41:	3d6f22        	s32i	a2, a15, 244
    1c44:	7f54d2        	s16i	a13, a4, 254
    1c47:	8354e2        	s16i	a14, a4, 0x106
    1c4a:	000606        	j	1c66 <pitch_by_harmonic+0x192>

00001c4d <pitch_by_harmonic+0x179>:
    1c4d:	112162        	l32i	a6, a1, 68
    1c50:	212a80        	srai	a2, a8, 10
    1c53:	e33c           	movi.n	a3, 62
    1c55:	240c           	movi.n	a4, 2
    1c57:	11a270        	slli	a10, a2, 9
    1c5a:	54d5f2        	addmi	a15, a5, 0x5400
    1c5d:	7f5632        	s16i	a3, a6, 254
    1c60:	835642        	s16i	a4, a6, 0x106
    1c63:	3d6f22        	s32i	a2, a15, 244
    1c66:	3c6fa2        	s32i	a10, a15, 240
    1c69:	021ae6        	bgei	a10, 1, 1c6f <pitch_by_harmonic+0x19b>
    1c6c:	012346        	j	20fd <pitch_by_harmonic+0x629>
    1c6f:	6168           	l32i.n	a6, a1, 24
    1c71:	132192        	l32i	a9, a1, 76
    1c74:	54d532        	addmi	a3, a5, 0x5400
    1c77:	126132        	s32i	a3, a1, 72
    1c7a:	a0a690        	addx4	a10, a6, a9
    1c7d:	04a122        	movi	a2, 0x104
    1c80:	84a182        	movi	a8, 0x184
    1c83:	f93d31        	l32r	a3, 178 (6d8 <Log2_norm>)
    1c86:	2a2a           	add.n	a2, a10, a2
    1c88:	fa8a           	add.n	a15, a10, a8
    1c8a:	146152        	s32i	a5, a1, 80
    1c8d:	196122        	s32i	a2, a1, 100
    1c90:	1b6172        	s32i	a7, a1, 108
    1c93:	0bd742        	addmi	a4, a7, 0xb00
    1c96:	1176e0        	slli	a7, a6, 2
    1c99:	154c           	movi.n	a5, 65
    1c9b:	092d           	mov.n	a2, a9
    1c9d:	1561a2        	s32i	a10, a1, 84
    1ca0:	1661f2        	s32i	a15, a1, 88
    1ca3:	1288           	l32i.n	a8, a2, 4
    1ca5:	7c9492        	l16si	a9, a4, 248
    1ca8:	627a           	add.n	a6, a2, a7
    1caa:	40e8a0        	nsa	a10, a8
    1cad:	401a00        	ssl	a10
    1cb0:	c0b9a0        	sub	a11, a9, a10
    1cb3:	a1a800        	sll	a10, a8
    1cb6:	0003e0        	callx8	a3
    1cb9:	550b           	addi.n	a5, a5, -1
    1cbb:	224b           	addi.n	a2, a2, 4
    1cbd:	06a9           	s32i.n	a10, a6, 0
    1cbf:	fe0556        	bnez	a5, 1ca3 <pitch_by_harmonic+0x1cf>
    1cc2:	142162        	l32i	a6, a1, 80
    1cc5:	112152        	l32i	a5, a1, 68
    1cc8:	070c           	movi.n	a7, 0
    1cca:	54d632        	addmi	a3, a6, 0x5400
    1ccd:	7f9522        	l16si	a2, a5, 254
    1cd0:	7e9342        	l16si	a4, a3, 252
    1cd3:	55d6f2        	addmi	a15, a6, 0x5500
    1cd6:	855572        	s16i	a7, a5, 0x10a
    1cd9:	c02240        	sub	a2, a2, a4
    1cdc:	822d           	ae_sext16	a2, a2
    1cde:	1a61f2        	s32i	a15, a1, 104
    1ce1:	045f72        	s16i	a7, a15, 8
    1ce4:	0212e6        	bgei	a2, 1, 1cea <pitch_by_harmonic+0x216>
    1ce7:	00ff46        	j	20e8 <pitch_by_harmonic+0x614>
    1cea:	61e8           	l32i.n	a14, a1, 24
    1cec:	152132        	l32i	a3, a1, 84
    1cef:	132162        	l32i	a6, a1, 76
    1cf2:	927d           	ae_zext16	a7, a2
    1cf4:	2e4a           	add.n	a2, a14, a4
    1cf6:	a03430        	addx4	a3, a4, a3
    1cf9:	a02260        	addx4	a2, a2, a6
    1cfc:	0f0c           	movi.n	a15, 0
    1cfe:	5c0c           	movi.n	a12, 5
    1d00:	050c           	movi.n	a5, 0
    1d02:	1361f2        	s32i	a15, a1, 76
    1d05:	fcc332        	addi	a3, a3, -4
    1d08:	f4c222        	addi	a2, a2, -12
    1d0b:	0012c6        	j	1d5a <pitch_by_harmonic+0x286>

00001d0e <pitch_by_harmonic+0x23a>:
    1d0e:	5368a0        	max	a6, a8, a10
    1d11:	3a9967        	bne	a9, a6, 1d4f <pitch_by_harmonic+0x27b>
    1d14:	112162        	l32i	a6, a1, 68
    1d17:	f0c3a2        	addi	a10, a3, -16
    1d1a:	3a2662        	l32i	a6, a6, 232
    1d1d:	e6ac           	beqz.n	a6, 1d4f <pitch_by_harmonic+0x27b>
    1d1f:	4388           	l32i.n	a8, a3, 16
    1d21:	0a68           	l32i.n	a6, a10, 0
    1d23:	03ad           	mov.n	a10, a3
    1d25:	04bd           	mov.n	a11, a4
    1d27:	436680        	min	a6, a6, a8
    1d2a:	21a697        	bge	a6, a9, 1d4f <pitch_by_harmonic+0x27b>
    1d2d:	f8f061        	l32r	a6, f0 (133c <Xfrac_num_pd_td32>)
    1d30:	1c0c           	movi.n	a12, 1
    1d32:	0006e0        	callx8	a6
    1d35:	132192        	l32i	a9, a1, 76
    1d38:	162182        	l32i	a8, a1, 88
    1d3b:	1a21f2        	l32i	a15, a1, 104
    1d3e:	896d           	ae_sext16	a6, a9
    1d40:	991b           	addi.n	a9, a9, 1
    1d42:	5c0c           	movi.n	a12, 5
    1d44:	a06680        	addx4	a6, a6, a8
    1d47:	136192        	s32i	a9, a1, 76
    1d4a:	045f92        	s16i	a9, a15, 8
    1d4d:	06a9           	s32i.n	a10, a6, 0
    1d4f:	770b           	addi.n	a7, a7, -1
    1d51:	334b           	addi.n	a3, a3, 4
    1d53:	224b           	addi.n	a2, a2, 4
    1d55:	441b           	addi.n	a4, a4, 1
    1d57:	084716        	beqz	a7, 1ddf <pitch_by_harmonic+0x30b>
    1d5a:	f4c362        	addi	a6, a3, -12
    1d5d:	0688           	l32i.n	a8, a6, 0
    1d5f:	924b           	addi.n	a9, a2, 4
    1d61:	02ad           	mov.n	a10, a2
    1d63:	068c76        	loop	a12, 1d6d <pitch_by_harmonic+0x299>
    1d66:	0a68           	l32i.n	a6, a10, 0
    1d68:	aa4b           	addi.n	a10, a10, 4
    1d6a:	538860        	max	a8, a8, a6

00001d6d <pitch_by_harmonic+0x299>:
    1d6d:	f8c362        	addi	a6, a3, -8
    1d70:	06b8           	l32i.n	a11, a6, 0
    1d72:	20abb0        	or	a10, a11, a11
    1d75:	068c76        	loop	a12, 1d7f <pitch_by_harmonic+0x2ab>
    1d78:	0968           	l32i.n	a6, a9, 0
    1d7a:	994b           	addi.n	a9, a9, 4
    1d7c:	53aa60        	max	a10, a10, a6
    1d7f:	0398           	l32i.n	a9, a3, 0
    1d81:	021987        	beq	a9, a8, 1d87 <pitch_by_harmonic+0x2b3>
    1d84:	8699a7        	bne	a9, a10, 1d0e <pitch_by_harmonic+0x23a>

00001d87 <pitch_by_harmonic+0x2b3>:
    1d87:	560c           	movi.n	a6, 5
    1d89:	016680        	slli	a6, a6, 24
    1d8c:	6b6a           	add.n	a6, a11, a6
    1d8e:	112697        	blt	a6, a9, 1da3 <pitch_by_harmonic+0x2cf>
    1d91:	fcc362        	addi	a6, a3, -4
    1d94:	0668           	l32i.n	a6, a6, 0
    1d96:	3b0c           	movi.n	a11, 3
    1d98:	01bb60        	slli	a11, a11, 26
    1d9b:	66ba           	add.n	a6, a6, a11
    1d9d:	022697        	blt	a6, a9, 1da3 <pitch_by_harmonic+0x2cf>
    1da0:	ffda86        	j	1d0e <pitch_by_harmonic+0x23a>
    1da3:	2368           	l32i.n	a6, a3, 8
    1da5:	5b0c           	movi.n	a11, 5
    1da7:	01bb80        	slli	a11, a11, 24
    1daa:	66ba           	add.n	a6, a6, a11
    1dac:	0e2697        	blt	a6, a9, 1dbe <pitch_by_harmonic+0x2ea>
    1daf:	1368           	l32i.n	a6, a3, 4
    1db1:	3b0c           	movi.n	a11, 3
    1db3:	01bb60        	slli	a11, a11, 26
    1db6:	66ba           	add.n	a6, a6, a11
    1db8:	022697        	blt	a6, a9, 1dbe <pitch_by_harmonic+0x2ea>
    1dbb:	ffd3c6        	j	1d0e <pitch_by_harmonic+0x23a>
    1dbe:	f8cc61        	l32r	a6, f0 (133c <Xfrac_num_pd_td32>)
    1dc1:	1c0c           	movi.n	a12, 1
    1dc3:	03ad           	mov.n	a10, a3
    1dc5:	04bd           	mov.n	a11, a4
    1dc7:	0006e0        	callx8	a6
    1dca:	192182        	l32i	a8, a1, 100
    1dcd:	1121f2        	l32i	a15, a1, 68
    1dd0:	856d           	ae_sext16	a6, a5
    1dd2:	551b           	addi.n	a5, a5, 1
    1dd4:	5c0c           	movi.n	a12, 5
    1dd6:	a06680        	addx4	a6, a6, a8
    1dd9:	855f52        	s16i	a5, a15, 0x10a
    1ddc:	ffdb46        	j	1d4d <pitch_by_harmonic+0x279>

00001ddf <pitch_by_harmonic+0x30b>:
    1ddf:	142162        	l32i	a6, a1, 80
    1de2:	852d           	ae_sext16	a2, a5
    1de4:	070c           	movi.n	a7, 0
    1de6:	0212e6        	bgei	a2, 1, 1dec <pitch_by_harmonic+0x318>
    1de9:	00bec6        	j	20e8 <pitch_by_harmonic+0x614>
    1dec:	f8e6c1        	l32r	a12, 184 (435e51 <_end+0x429a71>)
    1def:	120c           	movi.n	a2, 1
    1df1:	55d642        	addmi	a4, a6, 0x5500
    1df4:	030c           	movi.n	a3, 0
    1df6:	398cc4        	ae_movpa24x2	aep0, a12, a12
    1df9:	1121c2        	l32i	a12, a1, 68
    1dfc:	54d6a2        	addmi	a10, a6, 0x5400
    1dff:	012280        	slli	a2, a2, 24
    1e02:	f8deb1        	l32r	a11, 17c (cccccd <_end+0xcc08ed>)
    1e05:	f8de71        	l32r	a7, 180 (99999a <_end+0x98d5ba>)
    1e08:	156142        	s32i	a4, a1, 84
    1e0b:	065432        	s16i	a3, a4, 12
    1e0e:	122162        	l32i	a6, a1, 72
    1e11:	192142        	l32i	a4, a1, 100
    1e14:	368b34        	ae_cvtq48a32s	aeq2, a11
    1e17:	180c           	movi.n	a8, 1
    1e19:	360234        	ae_cvtq48a32s	aeq0, a2
    1e1c:	36c734        	ae_cvtq48a32s	aeq3, a7
    1e1f:	1d0c           	movi.n	a13, 1
    1e21:	955d           	ae_zext16	a5, a5
    1e23:	1761a2        	s32i	a10, a1, 92
    1e26:	3cc192        	addi	a9, a1, 60
    1e29:	630134        	ae_sq56s.i	aeq0, a1, 24
    1e2c:	10c1a2        	addi	a10, a1, 16
    1e2f:	632154        	ae_sq56s.i	aeq2, a1, 40
    1e32:	40c1b2        	addi	a11, a1, 64
    1e35:	633144        	ae_sq56s.i	aeq3, a1, 32
    1e38:	1e0c           	movi.n	a14, 1
    1e3a:	0f0c           	movi.n	a15, 0
    1e3c:	1861d2        	s32i	a13, a1, 96
    1e3f:	875c82        	s16i	a8, a12, 0x10e
    1e42:	178576        	loop	a5, 1e5d <pitch_by_harmonic+0x389>
    1e45:	030150        	rsr.lend	a5
    1e48:	130050        	wsr.lbeg	a5
    1e4b:	f8d351        	l32r	a5, 198 (2040 <pitch_by_harmonic+0x56c>)
    1e4e:	0020f0        	nop
    1e51:	130150        	wsr.lend	a5
    1e54:	002000        	isync
    1e57:	030250        	rsr.lcount	a5
    1e5a:	01c552        	addi	a5, a5, 1
    1e5d:	050c           	movi.n	a5, 0
    1e5f:	048d           	mov.n	a8, a4
    1e61:	10df16        	beqz	a15, 1f72 <pitch_by_harmonic+0x49e>
    1e64:	604404        	ae_lq32f.i	aeq1, a4, 0
    1e67:	6084f4        	ae_lq32f.i	aeq2, a4, -4
    1e6a:	f9ca83412e 	{ addi	a2, a1, 52; ae_subsq56s	aeq1, aeq1, aeq2 }
    1e6f:	355064        	ae_srliq56	aeq1, aeq1, 1
    1e72:	3c2652        	l32i	a5, a6, 240
    1e75:	621204        	ae_sq32f.i	aeq1, a2, 0
    1e78:	d1c8           	l32i.n	a12, a1, 52
    1e7a:	21dc50        	srai	a13, a5, 12
    1e7d:	064d           	mov.n	a4, a6
    1e7f:	d25cd0        	quos	a5, a12, a13
    1e82:	e159           	s32i.n	a5, a1, 56
    1e84:	142162        	l32i	a6, a1, 80
    1e87:	60c214        	ae_lq32f.i	aeq3, a2, 4
    1e8a:	38c172        	addi	a7, a1, 56
    1e8d:	4fa5c2        	movi	a12, 0x54f
    1e90:	36b3d4        	ae_sllisq56s	aeq2, aeq3, 15
    1e93:	115cc0        	slli	a5, a12, 4
    1e96:	f8f3fbf65f 	{ ae_lq32f.x	aeq3, a6, a5; ae_roundsp16q48sym	aep1, aeq2 }
    1e9b:	fb253ad22f 	{ ae_sllisq56s	aeq0, aeq1, 10; ae_mulq32sp16s.h	aeq2, aeq3, aep1 }
    1ea0:	050c           	movi.n	a5, 0
    1ea2:	36a3d4        	ae_sllisq56s	aeq2, aeq2, 15
    1ea5:	f852bdc13f 	{ ae_lq56.i	aeq2, a1, 24; ae_subsq56s	aeq0, aeq2, aeq0 }
    1eaa:	fc00b2116f 	{ ae_sp16f.l.i	aep1, a1, 12; ae_absq56	aeq0, aeq0 }
    1eaf:	d65000c1ce 	{ addi	a12, a1, 12; ae_ltq56s	b0, aeq0, aeq2 }
    1eb4:	d35e00        	movt	a5, a14, b0
    1eb7:	95bc           	beqz.n	a5, 1ef4 <pitch_by_harmonic+0x420>
    1eb9:	f4a0c2        	movi	a12, 244
    1ebc:	112172        	l32i	a7, a1, 68
    1ebf:	54dcc2        	addmi	a12, a12, 0x5400
    1ec2:	6026c4        	ae_lq32f.x	aeq0, a6, a12
    1ec5:	365054        	ae_sllisq56s	aeq1, aeq1, 1
    1ec8:	f86668372e 	{ l16si	a2, a7, 0x106; ae_addsq56s	aeq0, aeq0, aeq1 }
    1ecd:	fc00e0615e 	{ l16si	a5, a1, 12; ae_satq48s	aeq0, aeq0 }
    1ed2:	1721d2        	l32i	a13, a1, 92
    1ed5:	6286c4        	ae_sq32f.x	aeq0, a6, a12
    1ed8:	252a           	add.n	a2, a5, a2
    1eda:	3d2d52        	l32i	a5, a13, 244
    1edd:	835722        	s16i	a2, a7, 0x106
    1ee0:	822d           	ae_sext16	a2, a2
    1ee2:	d22520        	quos	a2, a5, a2
    1ee5:	112260        	slli	a2, a2, 10
    1ee8:	150c           	movi.n	a5, 1
    1eea:	3c6422        	s32i	a2, a4, 240
    1eed:	046d           	mov.n	a6, a4
    1eef:	084d           	mov.n	a4, a8
    1ef1:	001f46        	j	1f72 <pitch_by_harmonic+0x49e>

00001ef4 <pitch_by_harmonic+0x420>:
    1ef4:	046d           	mov.n	a6, a4
    1ef6:	050c           	movi.n	a5, 0
    1ef8:	084d           	mov.n	a4, a8
    1efa:	742fb6        	bltui	a15, 2, 1f72 <pitch_by_harmonic+0x49e>
    1efd:	600404        	ae_lq32f.i	aeq0, a4, 0
    1f00:	6044e4        	ae_lq32f.i	aeq1, a4, -8
    1f03:	f84680005f 	{ movi	a5, 0; ae_subsq56s	aeq0, aeq0, aeq1 }
    1f08:	354064        	ae_srliq56	aeq1, aeq0, 1
    1f0b:	621204        	ae_sq32f.i	aeq1, a2, 0
    1f0e:	d128           	l32i.n	a2, a1, 52
    1f10:	d222d0        	quos	a2, a2, a13
    1f13:	e129           	s32i.n	a2, a1, 56
    1f15:	608704        	ae_lq32f.i	aeq2, a7, 0
    1f18:	3623d4        	ae_sllisq56s	aeq0, aeq2, 15
    1f1b:	f8e3fad2af 	{ ae_sllisq56s	aeq2, aeq1, 10; ae_roundsp16q48sym	aep1, aeq0 }
    1f20:	fa253de13f 	{ ae_lq56.i	aeq3, a1, 24; ae_mulq32sp16s.h	aeq0, aeq3, aep1 }
    1f25:	0d0c           	movi.n	a13, 0
    1f27:	3603d4        	ae_sllisq56s	aeq0, aeq0, 15
    1f2a:	f8c2b21c0f 	{ ae_sp16f.l.i	aep1, a12, 0; ae_subsq56s	aeq0, aeq0, aeq2 }
    1f2f:	fc0080f4cf 	{ movi	a12, 244; ae_absq56	aeq0, aeq0 }
    1f34:	d65831117e 	{ l32i	a7, a1, 68; ae_ltq56s	b0, aeq0, aeq3 }
    1f39:	54dcc2        	addmi	a12, a12, 0x5400
    1f3c:	d3de00        	movt	a13, a14, b0
    1f3f:	fdac           	beqz.n	a13, 1f72 <pitch_by_harmonic+0x49e>
    1f41:	142162        	l32i	a6, a1, 80
    1f44:	365054        	ae_sllisq56s	aeq1, aeq1, 1
    1f47:	839722        	l16si	a2, a7, 0x106
    1f4a:	6026c4        	ae_lq32f.x	aeq0, a6, a12
    1f4d:	f86660615e 	{ l16si	a5, a1, 12; ae_addsq56s	aeq0, aeq0, aeq1 }
    1f52:	fc00f171de 	{ l32i	a13, a1, 92; ae_satq48s	aeq0, aeq0 }
    1f57:	6286c4        	ae_sq32f.x	aeq0, a6, a12
    1f5a:	252a           	add.n	a2, a5, a2
    1f5c:	3d2d52        	l32i	a5, a13, 244
    1f5f:	835722        	s16i	a2, a7, 0x106
    1f62:	822d           	ae_sext16	a2, a2
    1f64:	122162        	l32i	a6, a1, 72
    1f67:	d22520        	quos	a2, a5, a2
    1f6a:	112260        	slli	a2, a2, 10
    1f6d:	150c           	movi.n	a5, 1
    1f6f:	3c6622        	s32i	a2, a6, 240
    1f72:	3c2662        	l32i	a6, a6, 240
    1f75:	0428           	l32i.n	a2, a4, 0
    1f77:	142172        	l32i	a7, a1, 80
    1f7a:	216b60        	srai	a6, a6, 11
    1f7d:	d26260        	quos	a6, a2, a6
    1f80:	f169           	s32i.n	a6, a1, 60
    1f82:	604904        	ae_lq32f.i	aeq1, a9, 0
    1f85:	4fa5c2        	movi	a12, 0x54f
    1f88:	3653d4        	ae_sllisq56s	aeq1, aeq1, 15
    1f8b:	106122        	s32i	a2, a1, 64
    1f8e:	11ccc0        	slli	a12, a12, 4
    1f91:	f8ebfb97cf 	{ ae_lq32f.x	aeq0, a7, a12; ae_roundsp16q48sym	aep1, aeq1 }
    1f96:	f824321a0f 	{ ae_sp16f.l.i	aep1, a10, 0; ae_mulq32sp16s.h	aeq0, aeq0, aep1 }
    1f9b:	081172        	l16ui	a7, a1, 16
    1f9e:	60cb04        	ae_lq32f.i	aeq3, a11, 0
    1fa1:	36b254        	ae_sllisq56s	aeq2, aeq3, 9
    1fa4:	3603d4        	ae_sllisq56s	aeq0, aeq0, 15
    1fa7:	fac2bda14f 	{ ae_lq56.i	aeq1, a1, 32; ae_subsq56s	aeq2, aeq0, aeq2 }
    1fac:	081726        	beqi	a7, 1, 1fb8 <pitch_by_harmonic+0x4e4>
    1faf:	614154        	ae_lq56.i	aeq1, a1, 40
    1fb2:	022726        	beqi	a7, 2, 1fb8 <pitch_by_harmonic+0x4e4>
    1fb5:	614134        	ae_lq56.i	aeq1, a1, 24
    1fb8:	069a64        	ae_absq56	aeq2, aeq2
    1fbb:	158c           	beqz.n	a5, 1fc0 <pitch_by_harmonic+0x4ec>
    1fbd:	088594        	ae_mulrfq32sp24s.l	aeq2, aeq2, aep0
    1fc0:	d6c800005f 	{ movi	a5, 0; ae_ltq56s	b0, aeq2, aeq1 }
    1fc5:	122162        	l32i	a6, a1, 72
    1fc8:	1421c2        	l32i	a12, a1, 80
    1fcb:	d35e00        	movt	a5, a14, b0
    1fce:	050516        	beqz	a5, 2022 <pitch_by_harmonic+0x54e>
    1fd1:	872d           	ae_sext16	a2, a7
    1fd3:	2e22a6        	blti	a2, 2, 2005 <pitch_by_harmonic+0x531>
    1fd6:	f4a042        	movi	a4, 244
    1fd9:	54d442        	addmi	a4, a4, 0x5400
    1fdc:	112172        	l32i	a7, a1, 68
    1fdf:	602c44        	ae_lq32f.x	aeq0, a12, a4
    1fe2:	f8e67171de 	{ l32i	a13, a1, 92; ae_addsq56s	aeq0, aeq0, aeq3 }
    1fe7:	fc00e8375e 	{ l16si	a5, a7, 0x106; ae_satq48s	aeq0, aeq0 }
    1fec:	628c44        	ae_sq32f.x	aeq0, a12, a4
    1fef:	3d2d62        	l32i	a6, a13, 244
    1ff2:	552a           	add.n	a5, a5, a2
    1ff4:	835752        	s16i	a5, a7, 0x106
    1ff7:	855d           	ae_sext16	a5, a5
    1ff9:	d25650        	quos	a5, a6, a5
    1ffc:	122162        	l32i	a6, a1, 72
    1fff:	115560        	slli	a5, a5, 10
    2002:	3c6652        	s32i	a5, a6, 240
    2005:	152142        	l32i	a4, a1, 84
    2008:	331b           	addi.n	a3, a3, 1
    200a:	1121c2        	l32i	a12, a1, 68
    200d:	065432        	s16i	a3, a4, 12
    2010:	084d           	mov.n	a4, a8
    2012:	266207        	bbci	a2, 0, 203c <pitch_by_harmonic+0x568>
    2015:	070c           	movi.n	a7, 0
    2017:	050c           	movi.n	a5, 0
    2019:	186152        	s32i	a5, a1, 96
    201c:	875c72        	s16i	a7, a12, 0x10e
    201f:	000646        	j	203c <pitch_by_harmonic+0x568>

00002022 <pitch_by_harmonic+0x54e>:
    2022:	132172        	l32i	a7, a1, 76
    2025:	162142        	l32i	a4, a1, 88
    2028:	1a21d2        	l32i	a13, a1, 104
    202b:	875d           	ae_sext16	a5, a7
    202d:	771b           	addi.n	a7, a7, 1
    202f:	a05540        	addx4	a5, a5, a4
    2032:	084d           	mov.n	a4, a8
    2034:	136172        	s32i	a7, a1, 76
    2037:	045d72        	s16i	a7, a13, 8
    203a:	0529           	s32i.n	a2, a5, 0
    203c:	444b           	addi.n	a4, a4, 4
    203e:	ff1b           	addi.n	a15, a15, 1

00002040 <pitch_by_harmonic+0x56c>:
    2040:	132172        	l32i	a7, a1, 76
    2043:	1b2152        	l32i	a5, a1, 108
    2046:	162142        	l32i	a4, a1, 88
    2049:	182182        	l32i	a8, a1, 96
    204c:	872d           	ae_sext16	a2, a7
    204e:	145532        	s16i	a3, a5, 40
    2051:	6712a6        	blti	a2, 1, 20bc <pitch_by_harmonic+0x5e8>
    2054:	122122        	l32i	a2, a1, 72
    2057:	1421d2        	l32i	a13, a1, 80
    205a:	4fa562        	movi	a6, 0x54f
    205d:	3c2252        	l32i	a5, a2, 240
    2060:	97fd           	ae_zext16	a15, a7
    2062:	152172        	l32i	a7, a1, 84
    2065:	1166c0        	slli	a6, a6, 4
    2068:	f848e1        	l32r	a14, 188 (159999a <_end+0x158d5ba>)
    206b:	602d64        	ae_lq32f.x	aeq0, a13, a6
    206e:	364e34        	ae_cvtq48a32s	aeq1, a14
    2071:	120c           	movi.n	a2, 1
    2073:	215b50        	srai	a5, a5, 11
    2076:	428f76        	loop	a15, 20bc <pitch_by_harmonic+0x5e8>
    2079:	0468           	l32i.n	a6, a4, 0
    207b:	106162        	s32i	a6, a1, 64
    207e:	0f0c           	movi.n	a15, 0
    2080:	d26650        	quos	a6, a6, a5
    2083:	f169           	s32i.n	a6, a1, 60
    2085:	608904        	ae_lq32f.i	aeq2, a9, 0
    2088:	36a3d4        	ae_sllisq56s	aeq2, aeq2, 15
    208b:	f8f3bd4b0f 	{ ae_lq32f.i	aeq2, a11, 0; ae_roundsp16q48sym	aep0, aeq2 }
    2090:	f9207ae29f 	{ ae_sllisq56s	aeq2, aeq2, 9; ae_mulq32sp16s.h	aeq3, aeq0, aep0 }
    2095:	36f3d4        	ae_sllisq56s	aeq3, aeq3, 15
    2098:	fadab20a0f 	{ ae_sp16f.l.i	aep0, a10, 0; ae_subsq56s	aeq2, aeq3, aeq2 }
    209d:	fe80b111ce 	{ l32i	a12, a1, 68; ae_absq56	aeq2, aeq2 }
    20a2:	099204        	ae_ltq56s	b0, aeq2, aeq1
    20a5:	100162        	l8ui	a6, a1, 16
    20a8:	d3f200        	movt	a15, a2, b0
    20ab:	bf8c           	beqz.n	a15, 20ba <pitch_by_harmonic+0x5e6>
    20ad:	331b           	addi.n	a3, a3, 1
    20af:	065732        	s16i	a3, a7, 12
    20b2:	046607        	bbci	a6, 0, 20ba <pitch_by_harmonic+0x5e6>
    20b5:	080c           	movi.n	a8, 0
    20b7:	875c82        	s16i	a8, a12, 0x10e

000020ba <pitch_by_harmonic+0x5e6>:
    20ba:	444b           	addi.n	a4, a4, 4

000020bc <pitch_by_harmonic+0x5e8>:
    20bc:	f27c           	movi.n	a2, -1
    20be:	142152        	l32i	a5, a1, 80
    20c1:	f8a062        	movi	a6, 248
    20c4:	f42020        	extui	a2, a2, 0, 16
    20c7:	54d662        	addmi	a6, a6, 0x5400
    20ca:	4b0287        	bnone	a2, a8, 2119 <pitch_by_harmonic+0x645>
    20cd:	54d522        	addmi	a2, a5, 0x5400
    20d0:	3b2222        	l32i	a2, a2, 236
    20d3:	834d           	ae_sext16	a4, a3
    20d5:	112172        	l32i	a7, a1, 68
    20d8:	02bc           	beqz.n	a2, 210c <pitch_by_harmonic+0x638>
    20da:	0234a6        	blti	a4, 3, 20e0 <pitch_by_harmonic+0x60c>
    20dd:	0023c6        	j	2170 <pitch_by_harmonic+0x69c>
    20e0:	020c           	movi.n	a2, 0
    20e2:	875722        	s16i	a2, a7, 0x10e
    20e5:	000e06        	j	2121 <pitch_by_harmonic+0x64d>

000020e8 <pitch_by_harmonic+0x614>:
    20e8:	54d622        	addmi	a2, a6, 0x5400
    20eb:	55d632        	addmi	a3, a6, 0x5500
    20ee:	3e6272        	s32i	a7, a2, 248
    20f1:	637d           	ae_s16i.n	a7, a3, 0
    20f3:	f01d           	retw.n

000020f5 <pitch_by_harmonic+0x621>:
    20f5:	54d522        	addmi	a2, a5, 0x5400
    20f8:	030c           	movi.n	a3, 0
    20fa:	3c6232        	s32i	a3, a2, 240
    20fd:	54d522        	addmi	a2, a5, 0x5400
    2100:	030c           	movi.n	a3, 0
    2102:	55d542        	addmi	a4, a5, 0x5500
    2105:	3e6232        	s32i	a3, a2, 248
    2108:	643d           	ae_s16i.n	a3, a4, 0
    210a:	f01d           	retw.n

0000210c <pitch_by_harmonic+0x638>:
    210c:	832d           	ae_sext16	a2, a3
    210e:	5e52e6        	bgei	a2, 5, 2170 <pitch_by_harmonic+0x69c>
    2111:	112142        	l32i	a4, a1, 68
    2114:	020c           	movi.n	a2, 0
    2116:	875422        	s16i	a2, a4, 0x10e
    2119:	832d           	ae_sext16	a2, a3
    211b:	0232a6        	blti	a2, 3, 2121 <pitch_by_harmonic+0x64d>
    211e:	002446        	j	21b3 <pitch_by_harmonic+0x6df>
    2121:	932d           	ae_zext16	a2, a3
    2123:	022226        	beqi	a2, 2, 2129 <pitch_by_harmonic+0x655>
    2126:	002886        	j	21cc <pitch_by_harmonic+0x6f8>
    2129:	55d522        	addmi	a2, a5, 0x5500
    212c:	422d           	ae_l16ui.n	a2, a2, 0
    212e:	122172        	l32i	a7, a1, 72
    2131:	d37c           	movi.n	a3, -3
    2133:	08d216        	beqz	a2, 21c4 <pitch_by_harmonic+0x6f0>
    2136:	3c2722        	l32i	a2, a7, 240
    2139:	013360        	slli	a3, a3, 26
    213c:	341c           	movi.n	a4, 19
    213e:	014480        	slli	a4, a4, 24
    2141:	323a           	add.n	a3, a2, a3
    2143:	7d3437        	bltu	a4, a3, 21c4 <pitch_by_harmonic+0x6f0>
    2146:	4fa532        	movi	a3, 0x54f
    2149:	1133c0        	slli	a3, a3, 4
    214c:	f80ae1        	l32r	a14, 174 (aaaab <_end+0x9e6cb>)
    214f:	602534        	ae_lq32f.x	aeq0, a5, a3
    2152:	606564        	ae_lq32f.x	aeq1, a5, a6
    2155:	f846a20eef 	{ ae_movpa24x2	aep0, a14, a14; ae_subsq56s	aeq0, aeq0, aeq1 }
    215a:	f8e14000ff 	{ movi	a15, 0; ae_mulrfq32sp24s.l	aeq1, aeq1, aep0 }
    215f:	fc0080014f 	{ movi	a4, 1; ae_absq56	aeq0, aeq0 }
    2164:	098104        	ae_ltq56s	b0, aeq1, aeq0
    2167:	d3f400        	movt	a15, a4, b0
    216a:	056f56        	bnez	a15, 21c4 <pitch_by_harmonic+0x6f0>
    216d:	001c86        	j	21e3 <pitch_by_harmonic+0x70f>

00002170 <pitch_by_harmonic+0x69c>:
    2170:	122122        	l32i	a2, a1, 72
    2173:	f80631        	l32r	a3, 18c (13ffffff <_end+0x13ff3c1f>)
    2176:	55d542        	addmi	a4, a5, 0x5500
    2179:	3c2222        	l32i	a2, a2, 240
    217c:	4fa572        	movi	a7, 0x54f
    217f:	1187c0        	slli	a8, a7, 4
    2182:	252327        	blt	a3, a2, 21ab <pitch_by_harmonic+0x6d7>
    2185:	243d           	ae_l16si.n	a3, a4, 0
    2187:	f7fbe1        	l32r	a14, 174 (aaaab <_end+0x9e6cb>)
    218a:	398ee4        	ae_movpa24x2	aep0, a14, a14
    218d:	4633a6        	blti	a3, 3, 21d7 <pitch_by_harmonic+0x703>
    2190:	602584        	ae_lq32f.x	aeq0, a5, a8
    2193:	606564        	ae_lq32f.x	aeq1, a5, a6
    2196:	f8468000ff 	{ movi	a15, 0; ae_subsq56s	aeq0, aeq0, aeq1 }
    219b:	f80140014f 	{ movi	a4, 1; ae_mulfq32sp24s.h	aeq1, aeq1, aep0 }
    21a0:	061864        	ae_absq56	aeq0, aeq0
    21a3:	099404        	ae_leq56s	b0, aeq0, aeq1
    21a6:	d3f400        	movt	a15, a4, b0
    21a9:	afac           	beqz.n	a15, 21d7 <pitch_by_harmonic+0x703>
    21ab:	112132        	l32i	a3, a1, 68
    21ae:	020c           	movi.n	a2, 0
    21b0:	875322        	s16i	a2, a3, 0x10e
    21b3:	122172        	l32i	a7, a1, 72
    21b6:	f7f631        	l32r	a3, 190 (f570a3d7 <_end+0xf56fdff7>)
    21b9:	f7f641        	l32r	a4, 194 (2428f5c4 <_end+0x242831e4>)
    21bc:	3c2722        	l32i	a2, a7, 240
    21bf:	323a           	add.n	a3, a2, a3
    21c1:	1e3347        	bltu	a3, a4, 21e3 <pitch_by_harmonic+0x70f>
    21c4:	020c           	movi.n	a2, 0
    21c6:	3c6722        	s32i	a2, a7, 240
    21c9:	001186        	j	2213 <pitch_by_harmonic+0x73f>

000021cc <pitch_by_harmonic+0x6f8>:
    21cc:	122132        	l32i	a3, a1, 72
    21cf:	020c           	movi.n	a2, 0
    21d1:	3c6322        	s32i	a2, a3, 240
    21d4:	000ec6        	j	2213 <pitch_by_harmonic+0x73f>

000021d7 <pitch_by_harmonic+0x703>:
    21d7:	122132        	l32i	a3, a1, 72
    21da:	1122f0        	slli	a2, a2, 1
    21dd:	3c6322        	s32i	a2, a3, 240
    21e0:	2f12a6        	blti	a2, 1, 2213 <pitch_by_harmonic+0x73f>
    21e3:	4fa532        	movi	a3, 0x54f
    21e6:	1133c0        	slli	a3, a3, 4
    21e9:	f7e2e1        	l32r	a14, 174 (aaaab <_end+0x9e6cb>)
    21ec:	602534        	ae_lq32f.x	aeq0, a5, a3
    21ef:	606564        	ae_lq32f.x	aeq1, a5, a6
    21f2:	f846a20eef 	{ ae_movpa24x2	aep0, a14, a14; ae_subsq56s	aeq0, aeq0, aeq1 }
    21f7:	f8e14000ff 	{ movi	a15, 0; ae_mulrfq32sp24s.l	aeq1, aeq1, aep0 }
    21fc:	fc0080014f 	{ movi	a4, 1; ae_absq56	aeq0, aeq0 }
    2201:	099004        	ae_ltq56s	b0, aeq0, aeq1
    2204:	55d532        	addmi	a3, a5, 0x5500
    2207:	d3f400        	movt	a15, a4, b0
    220a:	5f8c           	beqz.n	a15, 2213 <pitch_by_harmonic+0x73f>
    220c:	234d           	ae_l16si.n	a4, a3, 0
    220e:	441b           	addi.n	a4, a4, 1
    2210:	000106        	j	2218 <pitch_by_harmonic+0x744>

00002213 <pitch_by_harmonic+0x73f>:
    2213:	55d532        	addmi	a3, a5, 0x5500
    2216:	040c           	movi.n	a4, 0
    2218:	54d5f2        	addmi	a15, a5, 0x5400
    221b:	634d           	ae_s16i.n	a4, a3, 0
    221d:	3e6f22        	s32i	a2, a15, 248
    2220:	f01d           	retw.n

00002222 <pitch_by_harmonic+0x74e>:
	...

00002224 <XMAX6>:
    2224:	004136        	entry	a1, 32
    2227:	023d           	mov.n	a3, a2
    2229:	0228           	l32i.n	a2, a2, 0
    222b:	540c           	movi.n	a4, 5
    222d:	334b           	addi.n	a3, a3, 4
    222f:	068476        	loop	a4, 2239 <XMAX6+0x15>
    2232:	0348           	l32i.n	a4, a3, 0
    2234:	334b           	addi.n	a3, a3, 4
    2236:	532240        	max	a2, a2, a4

00002239 <XMAX6+0x15>:
    2239:	f01d           	retw.n

0000223b <XMAX6+0x17>:
	...

0000223c <Xfrac_num_pd_td16>:
    223c:	008136        	entry	a1, 64
    223f:	400204        	ae_lp16f.i	aep0, a2, 0
    2242:	fc042c121f 	{ ae_lp16f.i	aep1, a2, 2; ae_cvtq48p24s.h	aeq0, aep0 }
    2247:	fd242c72ff 	{ ae_lp16f.i	aep7, a2, -2; ae_cvtq48p24s.h	aeq1, aep1 }
    224c:	f7b261        	l32r	a6, 114 (5a8200 <_end+0x59be20>)
    224f:	f946a2066f 	{ ae_movpa24x2	aep0, a6, a6; ae_subsq56s	aeq1, aeq0, aeq1 }
    2254:	fee40000ff 	{ movi	a15, 0; ae_cvtq48p24s.h	aeq2, aep7 }
    2259:	f90140017f 	{ movi	a7, 1; ae_mulfq32sp24s.h	aeq3, aeq1, aep0 }
    225e:	f8c294513f 	{ s32i.n	a3, a1, 20; ae_subsq56s	aeq0, aeq0, aeq2 }
    2263:	d65839916f 	{ ae_sq32f.i	aeq1, a1, 24; ae_ltq56s	b0, aeq0, aeq3 }
    2268:	f98001815e 	{ addi	a5, a1, 24; ae_mulfq32sp24s.l	aeq2, aeq0, aep0 }
    226d:	620174        	ae_sq32f.i	aeq0, a1, 28
    2270:	d3f700        	movt	a15, a7, b0
    2273:	2fac           	beqz.n	a15, 2299 <Xfrac_num_pd_td16+0x5d>
    2275:	120c           	movi.n	a2, 1
    2277:	0122c0        	slli	a2, a2, 20
    227a:	604504        	ae_lq32f.i	aeq1, a5, 0
    227d:	398224        	ae_movpa24x2	aep0, a2, a2
    2280:	f8814000ef 	{ movi	a14, 0; ae_mulfq32sp24s.l	aeq1, aeq1, aep0 }
    2285:	1f0c           	movi.n	a15, 1
    2287:	d64800006f 	{ movi	a6, 0; ae_ltq56s	b0, aeq0, aeq1 }
    228c:	f7a321        	l32r	a2, 118 (c28f0000 <_end+0xc28e3c20>)
    228f:	150c           	movi.n	a5, 1
    2291:	d3ef00        	movt	a14, a15, b0
    2294:	7e9c           	beqz.n	a14, 22af <Xfrac_num_pd_td16+0x73>
    2296:	002446        	j	232b <Xfrac_num_pd_td16+0xef>

00002299 <Xfrac_num_pd_td16+0x5d>:
    2299:	604504        	ae_lq32f.i	aeq1, a5, 0
    229c:	d6c800002f 	{ movi	a2, 0; ae_ltq56s	b0, aeq2, aeq1 }
    22a1:	1f0c           	movi.n	a15, 1
    22a3:	160c           	movi.n	a6, 1
    22a5:	d32f00        	movt	a2, a15, b0
    22a8:	b29c           	beqz.n	a2, 22c7 <Xfrac_num_pd_td16+0x8b>
    22aa:	020c           	movi.n	a2, 0
    22ac:	001ec6        	j	232b <Xfrac_num_pd_td16+0xef>

000022af <Xfrac_num_pd_td16+0x73>:
    22af:	369054        	ae_sllisq56s	aeq2, aeq1, 1
    22b2:	fe80c0007f 	{ movi	a7, 0; ae_satq48s	aeq2, aeq2 }
    22b7:	d65000018f 	{ movi	a8, 1; ae_ltq56s	b0, aeq0, aeq2 }
    22bc:	f79821        	l32r	a2, 11c (cccd0000 <_end+0xcccc3c20>)
    22bf:	d36500        	movt	a6, a5, b0
    22c2:	26ac           	beqz.n	a6, 22e8 <Xfrac_num_pd_td16+0xac>
    22c4:	0018c6        	j	232b <Xfrac_num_pd_td16+0xef>

000022c7 <Xfrac_num_pd_td16+0x8b>:
    22c7:	0126a0        	slli	a2, a6, 22
    22ca:	398224        	ae_movpa24x2	aep0, a2, a2
    22cd:	f8800000ff 	{ movi	a15, 0; ae_mulfq32sp24s.l	aeq0, aeq0, aep0 }
    22d2:	150c           	movi.n	a5, 1
    22d4:	d6483b009f 	{ ae_sraiq56	aeq2, aeq0, 1; ae_ltq56s	b0, aeq0, aeq1 }
    22d9:	f79321        	l32r	a2, 128 (ccd0000 <_end+0xccc3c20>)
    22dc:	070c           	movi.n	a7, 0
    22de:	d6c856f50f 	{ movt	a15, a5, b0; ae_ltq56s	b1, aeq2, aeq1 }
    22e3:	8f9c           	beqz.n	a15, 22ff <Xfrac_num_pd_td16+0xc3>
    22e5:	001086        	j	232b <Xfrac_num_pd_td16+0xef>

000022e8 <Xfrac_num_pd_td16+0xac>:
    22e8:	365094        	ae_sllisq56s	aeq1, aeq1, 2
    22eb:	064944        	ae_satq48s	aeq1, aeq1
    22ee:	099004        	ae_ltq56s	b0, aeq0, aeq1
    22f1:	f78b21        	l32r	a2, 120 (e6660000 <_end+0xe6653c20>)
    22f4:	f78c51        	l32r	a5, 124 (f3330000 <_end+0xf3323c20>)
    22f7:	d37800        	movt	a7, a8, b0
    22fa:	e78c           	beqz.n	a7, 230c <Xfrac_num_pd_td16+0xd0>
    22fc:	000ac6        	j	232b <Xfrac_num_pd_td16+0xef>

000022ff <Xfrac_num_pd_td16+0xc3>:
    22ff:	150c           	movi.n	a5, 1
    2301:	d37510        	movt	a7, a5, b1
    2304:	978c           	beqz.n	a7, 2311 <Xfrac_num_pd_td16+0xd5>
    2306:	f78921        	l32r	a2, 12c (199a0000 <_end+0x19993c20>)
    2309:	000786        	j	232b <Xfrac_num_pd_td16+0xef>

0000230c <Xfrac_num_pd_td16+0xd0>:
    230c:	052d           	mov.n	a2, a5
    230e:	000646        	j	232b <Xfrac_num_pd_td16+0xef>

00002311 <Xfrac_num_pd_td16+0xd5>:
    2311:	3500b4        	ae_sraiq56	aeq0, aeq0, 2
    2314:	d64800002f 	{ movi	a2, 0; ae_ltq56s	b0, aeq0, aeq1 }
    2319:	150c           	movi.n	a5, 1
    231b:	f78561        	l32r	a6, 130 (33330000 <_end+0x33323c20>)
    231e:	d32500        	movt	a2, a5, b0
    2321:	328c           	beqz.n	a2, 2328 <Xfrac_num_pd_td16+0xec>
    2323:	062d           	mov.n	a2, a6
    2325:	000086        	j	232b <Xfrac_num_pd_td16+0xef>

00002328 <Xfrac_num_pd_td16+0xec>:
    2328:	f78321        	l32r	a2, 134 (3d710000 <_end+0x3d703c20>)
    232b:	d43a           	add.n	a13, a4, a3
    232d:	4129           	s32i.n	a2, a1, 16
    232f:	112d00        	slli	a2, a13, 16
    2332:	600144        	ae_lq32f.i	aeq0, a1, 16
    2335:	5129           	s32i.n	a2, a1, 20
    2337:	604154        	ae_lq32f.i	aeq1, a1, 20
    233a:	3503f4        	ae_sraiq56	aeq0, aeq0, 15
    233d:	0118c4        	ae_addq56	aeq0, aeq1, aeq0
    2340:	060834        	ae_roundsq32sym	aeq0, aeq0
    2343:	620144        	ae_sq32f.i	aeq0, a1, 16
    2346:	4128           	l32i.n	a2, a1, 16
    2348:	f01d           	retw.n

0000234a <Xfrac_num_pd_td16+0x10e>:
	...

0000234c <SBAEC_INIT>:
    234c:	008136        	entry	a1, 64
    234f:	f75251        	l32r	a5, 98 (c3d4 <p_ecnr_mem>)
    2352:	91a722        	movi	a2, 0x791
    2355:	1122d0        	slli	a2, a2, 3
    2358:	0578           	l32i.n	a7, a5, 0
    235a:	cda332        	movi	a3, 0x3cd
    235d:	d1a342        	movi	a4, 0x3d1
    2360:	a72a           	add.n	a10, a7, a2
    2362:	f75121        	l32r	a2, a8 (9a44 <xt_memset>)
    2365:	0b0c           	movi.n	a11, 0
    2367:	c0a0c2        	movi	a12, 192
    236a:	1133c0        	slli	a3, a3, 4
    236d:	1144c0        	slli	a4, a4, 4
    2370:	51a9           	s32i.n	a10, a1, 20
    2372:	0002e0        	callx8	a2
    2375:	0558           	l32i.n	a5, a5, 0
    2377:	a7a162        	movi	a6, 0x1a7
    237a:	1166c0        	slli	a6, a6, 4
    237d:	a56a           	add.n	a10, a5, a6
    237f:	0b0c           	movi.n	a11, 0
    2381:	c0a4c2        	movi	a12, 0x4c0
    2384:	0002e0        	callx8	a2
    2387:	f74921        	l32r	a2, ac (c3dc <aec_nr_para>)
    238a:	c50c           	movi.n	a5, 12
    238c:	767c           	movi.n	a6, -9
    238e:	0288           	l32i.n	a8, a2, 0
    2390:	f42060        	extui	a2, a6, 0, 16
    2393:	041892        	l16ui	a9, a8, 8
    2396:	1318a2        	l16ui	a10, a8, 38
    2399:	105950        	and	a5, a9, a5
    239c:	0da566        	bnei	a5, 12, 23ad <SBAEC_INIT+0x61>
    239f:	109920        	and	a9, a9, a2
    23a2:	851c           	movi.n	a5, 24
    23a4:	045892        	s16i	a9, a8, 8
    23a7:	023a57        	bltu	a10, a5, 23ad <SBAEC_INIT+0x61>
    23aa:	135852        	s16i	a5, a8, 38

000023ad <SBAEC_INIT+0x61>:
    23ad:	3cd722        	addmi	a2, a7, 0x3c00
    23b0:	d5a3e2        	movi	a14, 0x3d5
    23b3:	7129           	s32i.n	a2, a1, 28
    23b5:	112ec0        	slli	a2, a14, 4
    23b8:	d9a3f2        	movi	a15, 0x3d9
    23bb:	672a           	add.n	a6, a7, a2
    23bd:	112fc0        	slli	a2, a15, 4
    23c0:	272a           	add.n	a2, a7, a2
    23c2:	573a           	add.n	a5, a7, a3
    23c4:	474a           	add.n	a4, a7, a4
    23c6:	6129           	s32i.n	a2, a1, 24
    23c8:	52e937        	bbsi	a9, 3, 241e <SBAEC_INIT+0xd2>
    23cb:	e31832        	l16ui	a3, a8, 0x1c6
    23ce:	4d0c           	movi.n	a13, 4
    23d0:	131892        	l16ui	a9, a8, 38
    23d3:	056316        	beqz	a3, 242d <SBAEC_INIT+0xe1>
    23d6:	41cc30        	srli	a12, a3, 12
    23d9:	34a030        	extui	a10, a3, 0, 4
    23dc:	a0ccd0        	addx4	a12, a12, a13
    23df:	3dd722        	addmi	a2, a7, 0x3d00
    23e2:	34e430        	extui	a14, a3, 4, 4
    23e5:	11ded0        	slli	a13, a14, 3
    23e8:	11aae0        	slli	a10, a10, 2
    23eb:	7952c2        	s16i	a12, a2, 242
    23ee:	342830        	extui	a2, a3, 8, 4
    23f1:	1132e0        	slli	a3, a2, 2
    23f4:	aa4b           	addi.n	a10, a10, 4
    23f6:	3dd7f2        	addmi	a15, a7, 0x3d00
    23f9:	dd8b           	addi.n	a13, a13, 8
    23fb:	775fd2        	s16i	a13, a15, 238
    23fe:	3dd7e2        	addmi	a14, a7, 0x3d00
    2401:	334b           	addi.n	a3, a3, 4
    2403:	4399a0        	min	a9, a9, a10
    2406:	41f1d0        	srli	a15, a13, 1
    2409:	785e32        	s16i	a3, a14, 240
    240c:	4333c0        	min	a3, a3, a12
    240f:	4399f0        	min	a9, a9, a15
    2412:	433930        	min	a3, a9, a3
    2415:	765ea2        	s16i	a10, a14, 236
    2418:	135832        	s16i	a3, a8, 38
    241b:	000806        	j	243f <SBAEC_INIT+0xf3>

0000241e <SBAEC_INIT+0xd2>:
    241e:	f76131        	l32r	a3, 1a4 (c00100 <_end+0xbf3d20>)
    2421:	3dd792        	addmi	a9, a7, 0x3d00
    2424:	3b6932        	s32i	a3, a9, 236
    2427:	f76031        	l32r	a3, 1a8 (600040 <_end+0x5f3c60>)
    242a:	0002c6        	j	2439 <SBAEC_INIT+0xed>

0000242d <SBAEC_INIT+0xe1>:
    242d:	f75b31        	l32r	a3, 19c (300040 <_end+0x2f3c60>)
    2430:	3dd792        	addmi	a9, a7, 0x3d00
    2433:	3b6932        	s32i	a3, a9, 236
    2436:	f75a31        	l32r	a3, 1a0 (200018 <_end+0x1f3c38>)
    2439:	3dd792        	addmi	a9, a7, 0x3d00
    243c:	3c6932        	s32i	a3, a9, 240
    243f:	baa632        	movi	a3, 0x6ba
    2442:	b03330        	addx8	a3, a3, a3
    2445:	a73a           	add.n	a10, a7, a3
    2447:	f71a31        	l32r	a3, b0 (9a58 <xt_memcpy>)
    244a:	b8eb           	addi.n	a11, a8, 14
    244c:	ec0c           	movi.n	a12, 14
    244e:	0003e0        	callx8	a3
    2451:	f71631        	l32r	a3, ac (c3dc <aec_nr_para>)
    2454:	f71121        	l32r	a2, 98 (c3d4 <p_ecnr_mem>)
    2457:	3cd782        	addmi	a8, a7, 0x3c00
    245a:	0338           	l32i.n	a3, a3, 0
    245c:	02b8           	l32i.n	a11, a2, 0
    245e:	3fa2c2        	movi	a12, 0x23f
    2461:	061392        	l16ui	a9, a3, 12
    2464:	c693a2        	l16si	a10, a3, 0x18c
    2467:	5358a2        	s16i	a10, a8, 166
    246a:	1199c0        	slli	a9, a9, 4
    246d:	2b6892        	s32i	a9, a8, 172
    2470:	a7a1d2        	movi	a13, 0x1a7
    2473:	6c2332        	l32i	a3, a3, 0x1b0
    2476:	119dc0        	slli	a9, a13, 4
    2479:	2a6832        	s32i	a3, a8, 168
    247c:	118cc0        	slli	a8, a12, 4
    247f:	f74b31        	l32r	a3, 1ac (2574 <Fill_CH_MEM_WB>)
    2482:	61d8           	l32i.n	a13, a1, 24
    2484:	51e8           	l32i.n	a14, a1, 20
    2486:	fb9a           	add.n	a15, a11, a9
    2488:	9b8a           	add.n	a9, a11, a8
    248a:	05ad           	mov.n	a10, a5
    248c:	04bd           	mov.n	a11, a4
    248e:	06cd           	mov.n	a12, a6
    2490:	0199           	s32i.n	a9, a1, 0
    2492:	0003e0        	callx8	a3
    2495:	f70581        	l32r	a8, ac (c3dc <aec_nr_para>)
    2498:	0238           	l32i.n	a3, a2, 0
    249a:	3dd7e2        	addmi	a14, a7, 0x3d00
    249d:	0888           	l32i.n	a8, a8, 0
    249f:	1ad332        	addmi	a3, a3, 0x1a00
    24a2:	102392        	l32i	a9, a3, 64
    24a5:	142332        	l32i	a3, a3, 80
    24a8:	326e32        	s32i	a3, a14, 200
    24ab:	769eb2        	l16si	a11, a14, 236
    24ae:	1698c2        	l16si	a12, a8, 44
    24b1:	f73f31        	l32r	a3, 1b0 (2558 <Fill_sbco>)
    24b4:	1d0c           	movi.n	a13, 1
    24b6:	05ad           	mov.n	a10, a5
    24b8:	51e9           	s32i.n	a14, a1, 20
    24ba:	316e92        	s32i	a9, a14, 196
    24bd:	0003e0        	callx8	a3
    24c0:	f6fb21        	l32r	a2, ac (c3dc <aec_nr_para>)
    24c3:	3dd752        	addmi	a5, a7, 0x3d00
    24c6:	779552        	l16si	a5, a5, 238
    24c9:	0288           	l32i.n	a8, a2, 0
    24cb:	1d0c           	movi.n	a13, 1
    24cd:	f51b           	addi.n	a15, a5, 1
    24cf:	b3f550        	movgez	a15, a5, a5
    24d2:	1798c2        	l16si	a12, a8, 46
    24d5:	21b1f0        	srai	a11, a15, 1
    24d8:	04ad           	mov.n	a10, a4
    24da:	0003e0        	callx8	a3
    24dd:	0258           	l32i.n	a5, a2, 0
    24df:	3dd742        	addmi	a4, a7, 0x3d00
    24e2:	7894b2        	l16si	a11, a4, 240
    24e5:	1895c2        	l16si	a12, a5, 48
    24e8:	1d0c           	movi.n	a13, 1
    24ea:	06ad           	mov.n	a10, a6
    24ec:	0003e0        	callx8	a3
    24ef:	0258           	l32i.n	a5, a2, 0
    24f1:	7994b2        	l16si	a11, a4, 242
    24f4:	61a8           	l32i.n	a10, a1, 24
    24f6:	1995c2        	l16si	a12, a5, 50
    24f9:	1d0c           	movi.n	a13, 1
    24fb:	0003e0        	callx8	a3
    24fe:	f6e641        	l32r	a4, 98 (c3d4 <p_ecnr_mem>)
    2501:	0228           	l32i.n	a2, a2, 0
    2503:	ffa082        	movi	a8, 255
    2506:	0448           	l32i.n	a4, a4, 0
    2508:	1592f2        	l16si	a15, a2, 42
    250b:	041292        	l16ui	a9, a2, 8
    250e:	1ad462        	addmi	a6, a4, 0x1a00
    2511:	1156f2        	s16i	a15, a6, 34
    2514:	7168           	l32i.n	a6, a1, 28
    2516:	51e8           	l32i.n	a14, a1, 20
    2518:	1ad442        	addmi	a4, a4, 0x1a00
    251b:	3cd752        	addmi	a5, a7, 0x3c00
    251e:	7fd882        	addmi	a8, a8, 0x7f00
    2521:	3dd732        	addmi	a3, a7, 0x3d00
    2524:	595582        	s16i	a8, a5, 178
    2527:	0592a2        	l16si	a10, a2, 10
    252a:	0292c2        	l16si	a12, a2, 4
    252d:	2392b2        	l16si	a11, a2, 70
    2530:	3dd772        	addmi	a7, a7, 0x3d00
    2533:	e4d8           	l32i.n	a13, a4, 56
    2535:	04f090        	extui	a15, a9, 0, 1
    2538:	145190        	extui	a5, a9, 1, 2
    253b:	dc9222        	l16si	a2, a2, 0x1b8
    253e:	165452        	s16i	a5, a4, 44
    2541:	6953a2        	s16i	a10, a3, 210
    2544:	6a57b2        	s16i	a11, a7, 212
    2547:	4456c2        	s16i	a12, a6, 136
    254a:	3a6ed2        	s32i	a13, a14, 232
    254d:	6853f2        	s16i	a15, a3, 208
    2550:	6b5722        	s16i	a2, a7, 214
    2553:	f01d           	retw.n

00002555 <SBAEC_INIT+0x209>:
    2555:	000000                                        ...

00002558 <Fill_sbco>:
    2558:	004136        	entry	a1, 32
    255b:	ffa062        	movi	a6, 255
    255e:	11f400        	slli	a15, a4, 16
    2561:	7fd662        	addmi	a6, a6, 0x7f00
    2564:	115232        	s16i	a3, a2, 34
    2567:	105262        	s16i	a6, a2, 32
    256a:	125252        	s16i	a5, a2, 36
    256d:	52f9           	s32i.n	a15, a2, 20
    256f:	42f9           	s32i.n	a15, a2, 16
    2571:	f01d           	retw.n

00002573 <Fill_sbco+0x1b>:
	...

00002574 <Fill_CH_MEM_WB>:
    2574:	004136        	entry	a1, 32
    2577:	8188           	l32i.n	a8, a1, 32
    2579:	8ca092        	movi	a9, 140
    257c:	a0a0a2        	movi	a10, 160
    257f:	50c8f2        	addi	a15, a8, 80
    2582:	c8a0b2        	movi	a11, 200
    2585:	f0a0c2        	movi	a12, 240
    2588:	d389           	s32i.n	a8, a3, 52
    258a:	28c8d2        	addi	a13, a8, 40
    258d:	d2f9           	s32i.n	a15, a2, 52
    258f:	04a1f2        	movi	a15, 0x104
    2592:	f3d9           	s32i.n	a13, a3, 60
    2594:	64c8e2        	addi	a14, a8, 100
    2597:	b8ba           	add.n	a11, a8, a11
    2599:	d8fa           	add.n	a13, a8, a15
    259b:	989a           	add.n	a9, a8, a9
    259d:	a8aa           	add.n	a10, a8, a10
    259f:	c8ca           	add.n	a12, a8, a12
    25a1:	78c882        	addi	a8, a8, 120
    25a4:	f289           	s32i.n	a8, a2, 60
    25a6:	f499           	s32i.n	a9, a4, 60
    25a8:	b29692        	l16si	a9, a6, 0x164
    25ab:	d4e9           	s32i.n	a14, a4, 52
    25ad:	b396e2        	l16si	a14, a6, 0x166
    25b0:	f5a9           	s32i.n	a10, a5, 60
    25b2:	b496a2        	l16si	a10, a6, 0x168
    25b5:	e3b9           	s32i.n	a11, a3, 56
    25b7:	b596f2        	l16si	a15, a6, 0x16a
    25ba:	90b970        	addx2	a11, a9, a7
    25bd:	a279           	s32i.n	a7, a2, 40
    25bf:	907eb0        	addx2	a7, a14, a11
    25c2:	a3b9           	s32i.n	a11, a3, 40
    25c4:	a479           	s32i.n	a7, a4, 40
    25c6:	907a70        	addx2	a7, a10, a7
    25c9:	906f70        	addx2	a6, a15, a7
    25cc:	b269           	s32i.n	a6, a2, 44
    25ce:	906960        	addx2	a6, a9, a6
    25d1:	b369           	s32i.n	a6, a3, 44
    25d3:	906e60        	addx2	a6, a14, a6
    25d6:	a579           	s32i.n	a7, a5, 40
    25d8:	e2c9           	s32i.n	a12, a2, 56
    25da:	e4d9           	s32i.n	a13, a4, 56
    25dc:	a3c8           	l32i.n	a12, a3, 40
    25de:	a2d8           	l32i.n	a13, a2, 40
    25e0:	a4e8           	l32i.n	a14, a4, 40
    25e2:	90fa60        	addx2	a15, a10, a6
    25e5:	c3c9           	s32i.n	a12, a3, 48
    25e7:	c2d9           	s32i.n	a13, a2, 48
    25e9:	c4e9           	s32i.n	a14, a4, 48
    25eb:	b469           	s32i.n	a6, a4, 44
    25ed:	c579           	s32i.n	a7, a5, 48
    25ef:	b5f9           	s32i.n	a15, a5, 44
    25f1:	f01d           	retw.n

000025f3 <Fill_CH_MEM_WB+0x7f>:
	...

000025f4 <common_x_pow>:
    25f4:	004136        	entry	a1, 32
    25f7:	360334        	ae_cvtq48a32s	aeq0, a3
    25fa:	fe00bec47f 	{ ae_cvtq48a32s	aeq1, a4; ae_absq56	aeq2, aeq0 }
    25ff:	ff0480005f 	{ movi	a5, 0; ae_absq56	aeq3, aeq1 }
    2604:	d6d80001ff 	{ movi	a15, 1; ae_ltq56s	b0, aeq2, aeq3 }
    2609:	023d           	mov.n	a3, a2
    260b:	120c           	movi.n	a2, 1
    260d:	d35f00        	movt	a5, a15, b0
    2610:	65ac           	beqz.n	a5, 263a <common_x_pow+0x46>
    2612:	f9bac0004f 	{ movi	a4, 0; ae_subq56	aeq1, aeq3, aeq2 }
    2617:	0122b0        	slli	a2, a2, 21
    261a:	36c234        	ae_cvtq48a32s	aeq3, a2
    261d:	d6cc0001ff 	{ movi	a15, 1; ae_ltq56s	b0, aeq3, aeq1 }
    2622:	120c           	movi.n	a2, 1
    2624:	f6e451        	l32r	a5, 1b4 (2aaa00 <_end+0x29e620>)
    2627:	fd04564f0f 	{ movt	a4, a15, b0; ae_movq56	aeq1, aeq0 }
    262c:	c48c           	beqz.n	a4, 263c <common_x_pow+0x48>
    262e:	398554        	ae_movpa24x2	aep0, a5, a5
    2631:	030a14        	ae_mulfq32sp16s.l	aeq1, aeq0, aep0
    2634:	065934        	ae_roundsq32asym	aeq1, aeq1
    2637:	000046        	j	263c <common_x_pow+0x48>

0000263a <common_x_pow+0x46>:
    263a:	020c           	movi.n	a2, 0
    263c:	f6df41        	l32r	a4, 1b8 (bab0 <immediate_num>)
    263f:	608324        	ae_lq32f.i	aeq2, a3, 8
    2642:	60c334        	ae_lq32f.i	aeq3, a3, 12
    2645:	440404        	ae_lp16x2f.i	aep0, a4, 0
    2648:	c10084        	ae_mulzaafq32sp16s.lh	aeq0, aeq2, aep0, aeq0, aep0
    264b:	c108d4        	ae_mulzaafq32sp16s.lh	aeq1, aeq3, aep0, aeq1, aep0
    264e:	060934        	ae_roundsq32asym	aeq0, aeq0
    2651:	fd2c79832f 	{ ae_sq32f.i	aeq0, a3, 8; ae_roundsq32asym	aeq1, aeq1 }
    2656:	621334        	ae_sq32f.i	aeq1, a3, 12
    2659:	f01d           	retw.n

0000265b <common_x_pow+0x67>:
	...

0000265c <ref_gain_adapt>:
    265c:	004136        	entry	a1, 32
    265f:	5378           	l32i.n	a7, a3, 20
    2661:	f6d561        	l32r	a6, 1b8 (bab0 <immediate_num>)
    2664:	360734        	ae_cvtq48a32s	aeq0, a7
    2667:	03b5d6        	bgez	a5, 26a6 <ref_gain_adapt+0x4a>
    266a:	059252        	l16si	a5, a2, 10
    266d:	440614        	ae_lp16x2f.i	aep0, a6, 4
    2670:	364434        	ae_cvtq48a32s	aeq1, a4
    2673:	11d500        	slli	a13, a5, 16
    2676:	d5637ecdbf 	{ ae_cvtq48a32s	aeq2, a13; ae_mulfq32sp16s.h	aeq3, aeq1, aep0 }
    267b:	0e0c           	movi.n	a14, 0
    267d:	d6d80001ff 	{ movi	a15, 1; ae_ltq56s	b0, aeq2, aeq3 }
    2682:	040c           	movi.n	a4, 0
    2684:	150c           	movi.n	a5, 1
    2686:	d3ef00        	movt	a14, a15, b0
    2689:	0edc           	bnez.n	a14, 269d <ref_gain_adapt+0x41>
    268b:	440624        	ae_lp16x2f.i	aep0, a6, 8
    268e:	d56340007f 	{ movi	a7, 0; ae_mulfq32sp16s.h	aeq3, aeq1, aep0 }
    2693:	d6d800018f 	{ movi	a8, 1; ae_ltq56s	b0, aeq2, aeq3 }
    2698:	d34500        	movt	a4, a5, b0
    269b:	24ac           	beqz.n	a4, 26c1 <ref_gain_adapt+0x65>

0000269d <ref_gain_adapt+0x41>:
    269d:	a10004        	ae_mulzaafq32sp16s.ll	aeq0, aeq0, aep0, aeq0, aep0
    26a0:	060934        	ae_roundsq32asym	aeq0, aeq0
    26a3:	368704        	ae_trunca32q48	a7, aeq0
    26a6:	120c           	movi.n	a2, 1
    26a8:	0122b0        	slli	a2, a2, 21
    26ab:	532720        	max	a2, a7, a2
    26ae:	5329           	s32i.n	a2, a3, 20
    26b0:	604344        	ae_lq32f.i	aeq1, a3, 16
    26b3:	440654        	ae_lp16x2f.i	aep0, a6, 20
    26b6:	c10044        	ae_mulzaafq32sp16s.lh	aeq0, aeq1, aep0, aeq0, aep0
    26b9:	060934        	ae_roundsq32asym	aeq0, aeq0
    26bc:	620344        	ae_sq32f.i	aeq0, a3, 16
    26bf:	f01d           	retw.n

000026c1 <ref_gain_adapt+0x65>:
    26c1:	440634        	ae_lp16x2f.i	aep0, a6, 12
    26c4:	d76240004f 	{ movi	a4, 0; ae_mulfq32sp16s.h	aeq3, aeq2, aep0 }
    26c9:	d65c00015f 	{ movi	a5, 1; ae_ltq56s	b0, aeq1, aeq3 }
    26ce:	d7e244f22e 	{ addi	a2, a2, 79; ae_mulfq32sp16s.l	aeq3, aeq2, aep0 }
    26d3:	ff0222        	l8ui	a2, a2, 255
    26d6:	d6cc16780f 	{ movt	a7, a8, b0; ae_ltq56s	b0, aeq3, aeq1 }
    26db:	fc1716        	beqz	a7, 26a0 <ref_gain_adapt+0x44>
    26de:	370c           	movi.n	a7, 3
    26e0:	d34500        	movt	a4, a5, b0
    26e3:	14cc           	bnez.n	a4, 26e8 <ref_gain_adapt+0x8c>
    26e5:	b70727        	bnone	a7, a2, 26a0 <ref_gain_adapt+0x44>
    26e8:	440644        	ae_lp16x2f.i	aep0, a6, 16
    26eb:	030214        	ae_mulfq32sp16s.l	aeq0, aeq0, aep0
    26ee:	ffeb86        	j	26a0 <ref_gain_adapt+0x44>

000026f1 <ref_gain_adapt+0x95>:
    26f1:	000000                                        ...

000026f4 <aec_post_calc>:
    26f4:	006136        	entry	a1, 48
    26f7:	054466        	bnei	a4, 4, 2700 <aec_post_calc+0xc>
    26fa:	20c242        	addi	a4, a2, 32
    26fd:	000086        	j	2703 <aec_post_calc+0xf>

00002700 <aec_post_calc+0xc>:
    2700:	1ec242        	addi	a4, a2, 30
    2703:	150c           	movi.n	a5, 1
    2705:	0155d0        	slli	a5, a5, 19
    2708:	400404        	ae_lp16f.i	aep0, a4, 0
    270b:	360534        	ae_cvtq48a32s	aeq0, a5
    270e:	1d0c           	movi.n	a13, 1
    2710:	115d00        	slli	a5, a13, 16
    2713:	d4e2bec5ff 	{ ae_cvtq48a32s	aeq3, a5; ae_mulfq32sp16u.l	aeq0, aeq0, aep0 }
    2718:	23c8           	l32i.n	a12, a3, 8
    271a:	d6e3b9813f 	{ ae_sq32f.i	aeq0, a1, 12; ae_mulfq32sp16u.l	aeq0, aeq3, aep0 }
    271f:	3178           	l32i.n	a7, a1, 12
    2721:	33e8           	l32i.n	a14, a3, 12
    2723:	620134        	ae_sq32f.i	aeq0, a1, 12
    2726:	3168           	l32i.n	a6, a1, 12
    2728:	53bc70        	max	a11, a12, a7
    272b:	f6a441        	l32r	a4, 1bc (88fc <airoha_divide_limit_1>)
    272e:	53fe60        	max	a15, a14, a6
    2731:	43abf0        	min	a10, a11, a15
    2734:	0004e0        	callx8	a4
    2737:	600364        	ae_lq32f.i	aeq0, a3, 24
    273a:	4c0244        	ae_lp24.i	aep0, a2, 16
    273d:	379aa4        	ae_truncp24a32x2	aep1, a10, a10
    2740:	e207a1724e 	{ l16si	a4, a2, 46; ae_mulafp24s.ll	aeq0, aep1, aep0 }
    2745:	f966a0225e 	{ l16si	a5, a2, 4; ae_movp48	aep2, aep1 }
    274a:	fc2460b27e 	{ l16si	a7, a2, 22; ae_roundsq32asym	aeq0, aeq0 }
    274f:	620364        	ae_sq32f.i	aeq0, a3, 24
    2752:	18a547        	bge	a5, a4, 276e <aec_post_calc+0x7a>
    2755:	0a9242        	l16si	a4, a2, 20
    2758:	169252        	l16si	a5, a2, 44
    275b:	060c           	movi.n	a6, 0
    275d:	742b           	addi.n	a7, a4, 2
    275f:	725650        	salt	a5, a6, a5
    2762:	837450        	moveqz	a7, a4, a5
    2765:	031674        	wur.ae_sar	a7
    2768:	0b10a4        	ae_sllssp24s	aep2, aep1
    276b:	000506        	j	2783 <aec_post_calc+0x8f>

0000276e <aec_post_calc+0x7a>:
    276e:	074d           	mov.n	a4, a7
    2770:	0f27a6        	blti	a7, 2, 2783 <aec_post_calc+0x8f>
    2773:	944d           	ae_zext16	a4, a4
    2775:	f9668ff44e 	{ addi	a4, a4, -1; ae_movp48	aep2, aep1 }
    277a:	058476        	loop	a4, 2783 <aec_post_calc+0x8f>
    277d:	012174        	ae_mulfp24s.ll	aeq0, aep2, aep1
    2780:	1b8d24        	ae_roundsp24q48asym	aep2, aeq0

00002783 <aec_post_calc+0x8f>:
    2783:	401274        	ae_lp16f.i	aep1, a2, 14
    2786:	d82a7d037f 	{ ae_lq32f.i	aeq0, a3, 28; ae_maxp24s	aep1, aep2, aep1 }
    278b:	011034        	ae_mulafp24s.ll	aeq0, aep1, aep0
    278e:	060934        	ae_roundsq32asym	aeq0, aeq0
    2791:	620374        	ae_sq32f.i	aeq0, a3, 28
    2794:	f01d           	retw.n

00002796 <aec_post_calc+0xa2>:
	...

00002798 <subband_aec_block>:
    2798:	006136        	entry	a1, 48
    279b:	a378           	l32i.n	a7, a3, 40
    279d:	fd24a1138e 	{ l16si	a8, a3, 34; ae_zeroq56	aeq1 }
    27a2:	f41b           	addi.n	a15, a4, 1
    27a4:	a3d8           	l32i.n	a13, a3, 40
    27a6:	90e870        	addx2	a14, a8, a7
    27a9:	b3f440        	movgez	a15, a4, a4
    27ac:	21b1f0        	srai	a11, a15, 1
    27af:	3169           	s32i.n	a6, a1, 12
    27b1:	f3f6d0        	wur.ae_cbegin0	a13
    27b4:	f3f7e0        	wur.ae_cend0	a14
    27b7:	2f24a6        	blti	a4, 2, 27ea <subband_aec_block+0x52>
    27ba:	582262        	l32i	a6, a2, 0x160
    27bd:	e388           	l32i.n	a8, a3, 56
    27bf:	c378           	l32i.n	a7, a3, 48
    27c1:	600344        	ae_lq32f.i	aeq0, a3, 16
    27c4:	04a092        	movi	a9, 4
    27c7:	440804        	ae_lp16x2f.i	aep0, a8, 0
    27ca:	fcc6a2        	addi	a10, a6, -4
    27cd:	198b76        	loop	a11, 27ea <subband_aec_block+0x52>
    27d0:	09001aa79f 	{ ae_lp16x2f.c	aep2, a7, a9; ae_mulzaafq32sp16s.hh	aeq2, aeq0, aep0, aeq0, aep0 }
    27d5:	11006d881f 	{ ae_lp16x2f.iu	aep0, a8, 4; ae_mulzaafq32sp16s.ll	aeq3, aeq0, aep0, aeq0, aep0 }
    27da:	1baf74        	ae_roundsp16q48asym	aep7, aeq2
    27dd:	1bbf14        	ae_roundsp16q48asym	aep1, aeq3
    27e0:	f04a7e715f 	{ ae_selp24.hl	aep1, aep7, aep1; ae_mulssfp24s.hh.ll	aeq1, aep2, aep2 }
    27e5:	e224739a1f 	{ ae_sp16x2f.iu	aep1, a10, 4; ae_mulaafp24s.hh.ll	aeq1, aep1, aep1 }

000027ea <subband_aec_block+0x52>:
    27ea:	351234        	ae_sraiq56	aeq0, aeq1, 8
    27ed:	618304        	ae_lq56.i	aeq2, a3, 0
    27f0:	f87230926e 	{ l32i	a6, a2, 36; ae_addq56	aeq0, aeq2, aeq0 }
    27f5:	fc00fec6ff 	{ ae_cvtq48a32s	aeq3, a6; ae_satq48s	aeq0, aeq0 }
    27fa:	f87b1421bf 	{ s32i.n	a11, a1, 8; ae_maxq56s	aeq0, aeq0, aeq3 }
    27ff:	630304        	ae_sq56s.i	aeq0, a3, 0
    2802:	00e5d6        	bgez	a5, 2814 <subband_aec_block+0x7c>
    2805:	109362        	l16si	a6, a3, 32
    2808:	368b04        	ae_trunca32q48	a11, aeq0
    280b:	11a670        	slli	a10, a6, 9
    280e:	f66c61        	l32r	a6, 1c0 (87f4 <airoha_divide>)
    2811:	0006e0        	callx8	a6

00002814 <subband_aec_block+0x7c>:
    2814:	c388           	l32i.n	a8, a3, 48
    2816:	7414a6        	blti	a4, 1, 288e <subband_aec_block+0xf6>
    2819:	b368           	l32i.n	a6, a3, 44
    281b:	f3d8           	l32i.n	a13, a3, 60
    281d:	582272        	l32i	a7, a2, 0x160
    2820:	d3c8           	l32i.n	a12, a3, 52
    2822:	119392        	l16si	a9, a3, 34
    2825:	360b34        	ae_cvtq48a32s	aeq0, a11
    2828:	2b0c           	movi.n	a11, 2
    282a:	fec662        	addi	a6, a6, -2
    282d:	fecdd2        	addi	a13, a13, -2
    2830:	fecce2        	addi	a14, a12, -2
    2833:	04fd           	mov.n	a15, a4
    2835:	fec772        	addi	a7, a7, -2
    2838:	408714        	ae_lp16f.iu	aep0, a7, 2
    283b:	fc24e288bf 	{ ae_sp16f.l.c	aep0, a8, a11; nop }
    2840:	408e14        	ae_lp16f.iu	aep0, a14, 2
    2843:	fd0c13c66f 	{ or	a12, a6, a6; ae_cvtq48p24s.l	aeq1, aep0 }
    2848:	0f19a6        	blti	a9, 1, 285b <subband_aec_block+0xc3>
    284b:	408c14        	ae_lp16f.iu	aep0, a12, 2
    284e:	098976        	loop	a9, 285b <subband_aec_block+0xc3>
    2851:	fc24d918bf 	{ ae_lp16f.c	aep1, a8, a11; nop }
    2856:	ee21ec8c1f 	{ ae_lp16f.iu	aep0, a12, 2; ae_mulsfp24s.ll	aeq1, aep0, aep1 }

0000285b <subband_aec_block+0xc3>:
    285b:	f86b93c66f 	{ or	a12, a6, a6; ae_roundsp16q48asym	aep0, aeq1 }
    2860:	d4e2728d1f 	{ ae_sp16f.l.iu	aep0, a13, 2; ae_mulfq32sp16s.l	aeq1, aeq0, aep0 }
    2865:	0205d6        	bgez	a5, 2889 <subband_aec_block+0xf1>
    2868:	fc24fe9a4f 	{ ae_slaasq56s	aeq1, aeq1, a10; nop }
    286d:	1b9d04        	ae_roundsp24q48asym	aep0, aeq1
    2870:	1519a6        	blti	a9, 1, 2889 <subband_aec_block+0xf1>
    2873:	409c14        	ae_lp16f.iu	aep1, a12, 2
    2876:	0f8976        	loop	a9, 2889 <subband_aec_block+0xf1>
    2879:	fd2c1978bf 	{ ae_lp16f.c	aep7, a8, a11; ae_cvtq48p24s.l	aeq1, aep1 }
    287e:	e2e3ec9c1f 	{ ae_lp16f.iu	aep1, a12, 2; ae_mulafp24s.ll	aeq1, aep0, aep7 }
    2883:	1b9f24        	ae_roundsp16q48asym	aep2, aeq1
    2886:	422cf4        	ae_sp16f.l.i	aep2, a12, -2
    2889:	ff0b           	addi.n	a15, a15, -1
    288b:	fa9f56        	bnez	a15, 2838 <subband_aec_block+0xa0>

0000288e <subband_aec_block+0xf6>:
    288e:	fc2494c38f 	{ s32i.n	a8, a3, 48; ae_zeroq56	aeq0 }
    2893:	fd24b0d36e 	{ l32i	a6, a3, 52; ae_zeroq56	aeq1 }
    2898:	1724a6        	blti	a4, 2, 28b3 <subband_aec_block+0x11b>
    289b:	f378           	l32i.n	a7, a3, 60
    289d:	2188           	l32i.n	a8, a1, 8
    289f:	fcc662        	addi	a6, a6, -4
    28a2:	fcc772        	addi	a7, a7, -4
    28a5:	0a8876        	loop	a8, 28b3 <subband_aec_block+0x11b>
    28a8:	448614        	ae_lp16x2f.iu	aep0, a6, 4
    28ab:	e2006d971f 	{ ae_lp16x2f.iu	aep1, a7, 4; ae_mulaafp24s.hh.ll	aeq1, aep0, aep0 }
    28b0:	050104        	ae_mulaafp24s.hh.ll	aeq0, aep0, aep1

000028b3 <subband_aec_block+0x11b>:
    28b3:	355134        	ae_sraiq56	aeq1, aeq1, 4
    28b6:	fd2c7b010f 	{ ae_sraiq56	aeq0, aeq0, 4; ae_roundsq32asym	aeq1, aeq1 }
    28bb:	fc247f1bef 	{ ae_trunca32q48	a11, aeq1; ae_roundsq32asym	aeq0, aeq0 }
    28c0:	368c04        	ae_trunca32q48	a12, aeq0
    28c3:	f64061        	l32r	a6, 1c4 (25f4 <common_x_pow>)
    28c6:	03ad           	mov.n	a10, a3
    28c8:	0006e0        	callx8	a6
    28cb:	aa8c           	beqz.n	a10, 28d9 <subband_aec_block+0x141>
    28cd:	f3a8           	l32i.n	a10, a3, 60
    28cf:	d3b8           	l32i.n	a11, a3, 52
    28d1:	f5f761        	l32r	a6, b0 (9a58 <xt_memcpy>)
    28d4:	04cd           	mov.n	a12, a4
    28d6:	0006e0        	callx8	a6

000028d9 <subband_aec_block+0x141>:
    28d9:	fc24a0d24e 	{ l16si	a4, a2, 26; ae_zeroq56	aeq0 }
    28de:	2124a6        	blti	a4, 2, 2903 <subband_aec_block+0x16b>
    28e1:	b368           	l32i.n	a6, a3, 44
    28e3:	119372        	l16si	a7, a3, 34
    28e6:	e41b           	addi.n	a14, a4, 1
    28e8:	b3e440        	movgez	a14, a4, a4
    28eb:	906760        	addx2	a6, a7, a6
    28ee:	11f4f0        	slli	a15, a4, 1
    28f1:	c046f0        	sub	a4, a6, a15
    28f4:	2171e0        	srai	a7, a14, 1
    28f7:	fcc442        	addi	a4, a4, -4
    28fa:	058776        	loop	a7, 2903 <subband_aec_block+0x16b>
    28fd:	448414        	ae_lp16x2f.iu	aep0, a4, 4
    2900:	050004        	ae_mulaafp24s.hh.ll	aeq0, aep0, aep0

00002903 <subband_aec_block+0x16b>:
    2903:	3368           	l32i.n	a6, a3, 12
    2905:	070c           	movi.n	a7, 0
    2907:	3500b4        	ae_sraiq56	aeq0, aeq0, 2
    290a:	53a670        	max	a10, a6, a7
    290d:	fc247023be 	{ l32i	a11, a3, 8; ae_roundsq32asym	aeq0, aeq0 }
    2912:	f62a61        	l32r	a6, 1bc (88fc <airoha_divide_limit_1>)
    2915:	368404        	ae_trunca32q48	a4, aeq0
    2918:	0006e0        	callx8	a6
    291b:	ffa062        	movi	a6, 255
    291e:	049272        	l16si	a7, a2, 8
    2921:	2403f2        	l8ui	a15, a3, 36
    2924:	7fd662        	addmi	a6, a6, 0x7f00
    2927:	3180a0        	srai	a8, a10, 16
    292a:	c06680        	sub	a6, a6, a8
    292d:	536670        	max	a6, a6, a7
    2930:	05ef17        	bbsi	a15, 1, 2939 <subband_aec_block+0x1a1>
    2933:	105362        	s16i	a6, a3, 32
    2936:	000706        	j	2956 <subband_aec_block+0x1be>

00002939 <subband_aec_block+0x1a1>:
    2939:	039272        	l16si	a7, a2, 6
    293c:	02ad           	mov.n	a10, a2
    293e:	03bd           	mov.n	a11, a3
    2940:	826670        	mull	a6, a6, a7
    2943:	04cd           	mov.n	a12, a4
    2945:	40d662        	addmi	a6, a6, 0x4000
    2948:	416f60        	srli	a6, a6, 15
    294b:	105362        	s16i	a6, a3, 32
    294e:	f61e61        	l32r	a6, 1c8 (265c <ref_gain_adapt>)
    2951:	05dd           	mov.n	a13, a5
    2953:	0006e0        	callx8	a6
    2956:	059252        	l16si	a5, a2, 10
    2959:	069272        	l16si	a7, a2, 12
    295c:	260c           	movi.n	a6, 2
    295e:	115500        	slli	a5, a5, 16
    2961:	5ba547        	bge	a5, a4, 29c0 <subband_aec_block+0x228>
    2964:	129352        	l16si	a5, a3, 36
    2967:	11f700        	slli	a15, a7, 16
    296a:	f61381        	l32r	a8, 1b8 (bab0 <immediate_num>)
    296d:	205560        	or	a5, a5, a6
    2970:	125352        	s16i	a5, a3, 36
    2973:	0baf47        	bge	a15, a4, 2982 <subband_aec_block+0x1ea>
    2976:	f61041        	l32r	a4, 1b8 (bab0 <immediate_num>)
    2979:	18c442        	addi	a4, a4, 24
    297c:	400404        	ae_lp16f.i	aep0, a4, 0
    297f:	000146        	j	2988 <subband_aec_block+0x1f0>

00002982 <subband_aec_block+0x1ea>:
    2982:	18c842        	addi	a4, a8, 24
    2985:	400414        	ae_lp16f.i	aep0, a4, 2
    2988:	0d9242        	l16si	a4, a2, 26
    298b:	3124a6        	blti	a4, 2, 29c0 <subband_aec_block+0x228>
    298e:	b358           	l32i.n	a5, a3, 44
    2990:	119362        	l16si	a6, a3, 34
    2993:	e41b           	addi.n	a14, a4, 1
    2995:	b3e440        	movgez	a14, a4, a4
    2998:	905650        	addx2	a5, a6, a5
    299b:	11f4f0        	slli	a15, a4, 1
    299e:	c045f0        	sub	a4, a5, a15
    29a1:	2161e0        	srai	a6, a14, 1
    29a4:	441404        	ae_lp16x2f.i	aep1, a4, 0
    29a7:	fec452        	addi	a5, a4, -2
    29aa:	128676        	loop	a6, 29c0 <subband_aec_block+0x228>
    29ad:	011054        	ae_mulfp24s.hl	aeq0, aep1, aep0
    29b0:	ea05ed941f 	{ ae_lp16x2f.iu	aep1, a4, 4; ae_mulfp24s.ll	aeq1, aep1, aep0 }
    29b5:	1b8f24        	ae_roundsp16q48asym	aep2, aeq0
    29b8:	fb6bf2a51f 	{ ae_sp16f.l.iu	aep2, a5, 2; ae_roundsp16q48asym	aep7, aeq1 }
    29bd:	42f514        	ae_sp16f.l.iu	aep7, a5, 2

000029c0 <subband_aec_block+0x228>:
    29c0:	240342        	l8ui	a4, a3, 36
    29c3:	31c8           	l32i.n	a12, a1, 12
    29c5:	02ad           	mov.n	a10, a2
    29c7:	076407        	bbci	a4, 0, 29d2 <subband_aec_block+0x23a>
    29ca:	f60041        	l32r	a4, 1cc (26f4 <aec_post_calc>)
    29cd:	03bd           	mov.n	a11, a3
    29cf:	0004e0        	callx8	a4

000029d2 <subband_aec_block+0x23a>:
    29d2:	f01d           	retw.n

000029d4 <subband_aec_mid_channel>:
    29d4:	006136        	entry	a1, 48
    29d7:	a3e8           	l32i.n	a14, a3, 40
    29d9:	fd24a1137e 	{ l16si	a7, a3, 34; ae_zeroq56	aeq1 }
    29de:	3159           	s32i.n	a5, a1, 12
    29e0:	a398           	l32i.n	a9, a3, 40
    29e2:	e358           	l32i.n	a5, a3, 56
    29e4:	5822f2        	l32i	a15, a2, 0x160
    29e7:	f3f690        	wur.ae_cbegin0	a9
    29ea:	c398           	l32i.n	a9, a3, 48
    29ec:	a077e0        	addx4	a7, a7, a14
    29ef:	a80c           	movi.n	a8, 10
    29f1:	f3f770        	wur.ae_cend0	a7
    29f4:	460c           	movi.n	a6, 4
    29f6:	600344        	ae_lq32f.i	aeq0, a3, 16
    29f9:	440504        	ae_lp16x2f.i	aep0, a5, 0
    29fc:	fccf72        	addi	a7, a15, -4
    29ff:	198876        	loop	a8, 2a1c <subband_aec_mid_channel+0x48>
    2a02:	09001aa96f 	{ ae_lp16x2f.c	aep2, a9, a6; ae_mulzaafq32sp16s.hh	aeq2, aeq0, aep0, aeq0, aep0 }
    2a07:	11006d851f 	{ ae_lp16x2f.iu	aep0, a5, 4; ae_mulzaafq32sp16s.ll	aeq3, aeq0, aep0, aeq0, aep0 }
    2a0c:	1baf74        	ae_roundsp16q48asym	aep7, aeq2
    2a0f:	1bbf14        	ae_roundsp16q48asym	aep1, aeq3
    2a12:	f04a7e715f 	{ ae_selp24.hl	aep1, aep7, aep1; ae_mulssfp24s.hh.ll	aeq1, aep2, aep2 }
    2a17:	e22473971f 	{ ae_sp16x2f.iu	aep1, a7, 4; ae_mulaafp24s.hh.ll	aeq1, aep1, aep1 }

00002a1c <subband_aec_mid_channel+0x48>:
    2a1c:	9258           	l32i.n	a5, a2, 36
    2a1e:	3511b4        	ae_sraiq56	aeq0, aeq1, 6
    2a21:	618304        	ae_lq56.i	aeq2, a3, 0
    2a24:	f87221036e 	{ l16si	a6, a3, 32; ae_addq56	aeq0, aeq2, aeq0 }
    2a29:	1155e0        	slli	a5, a5, 2
    2a2c:	fc00fec5ff 	{ ae_cvtq48a32s	aeq3, a5; ae_satq48s	aeq0, aeq0 }
    2a31:	0130c4        	ae_maxq56s	aeq0, aeq0, aeq3
    2a34:	630304        	ae_sq56s.i	aeq0, a3, 0
    2a37:	00b4d6        	bgez	a4, 2a46 <subband_aec_mid_channel+0x72>
    2a3a:	368b04        	ae_trunca32q48	a11, aeq0
    2a3d:	11a650        	slli	a10, a6, 11
    2a40:	f5e051        	l32r	a5, 1c0 (87f4 <airoha_divide>)
    2a43:	0005e0        	callx8	a5

00002a46 <subband_aec_mid_channel+0x72>:
    2a46:	d3c8           	l32i.n	a12, a3, 52
    2a48:	5822e2        	l32i	a14, a2, 0x160
    2a4b:	f388           	l32i.n	a8, a3, 60
    2a4d:	b358           	l32i.n	a5, a3, 44
    2a4f:	c368           	l32i.n	a6, a3, 48
    2a51:	119372        	l16si	a7, a3, 34
    2a54:	026122        	s32i	a2, a1, 8
    2a57:	360b34        	ae_cvtq48a32s	aeq0, a11
    2a5a:	0aa092        	movi	a9, 10
    2a5d:	04a0b2        	movi	a11, 4
    2a60:	fcccc2        	addi	a12, a12, -4
    2a63:	fec8d2        	addi	a13, a8, -2
    2a66:	fccee2        	addi	a14, a14, -4
    2a69:	fec522        	addi	a2, a5, -2
    2a6c:	448e14        	ae_lp16x2f.iu	aep0, a14, 4
    2a6f:	fc24e406bf 	{ ae_sp16x2f.c	aep0, a6, a11; nop }
    2a74:	448c14        	ae_lp16x2f.iu	aep0, a12, 4
    2a77:	fe0413855f 	{ or	a8, a5, a5; ae_cvtq48p24s.h	aeq2, aep0 }
    2a7c:	0a4084        	ae_cvtq48p24s.l	aeq1, aep0
    2a7f:	1217a6        	blti	a7, 1, 2a95 <subband_aec_mid_channel+0xc1>
    2a82:	440504        	ae_lp16x2f.i	aep0, a5, 0
    2a85:	0c8776        	loop	a7, 2a95 <subband_aec_mid_channel+0xc1>
    2a88:	fc24da96bf 	{ ae_lp16x2f.c	aep1, a6, a11; nop }
    2a8d:	0581c4        	ae_mulssfp24s.hh.ll	aeq2, aep0, aep1
    2a90:	ee206d881f 	{ ae_lp16x2f.iu	aep0, a8, 4; ae_mulsafp24s.hl.lh	aeq1, aep0, aep1 }

00002a95 <subband_aec_mid_channel+0xc1>:
    2a95:	1baf04        	ae_roundsp16q48asym	aep0, aeq2
    2a98:	f86bf28d1f 	{ ae_sp16f.l.iu	aep0, a13, 2; ae_roundsp16q48asym	aep1, aeq1 }
    2a9d:	d4e2729d1f 	{ ae_sp16f.l.iu	aep1, a13, 2; ae_mulfq32sp16s.l	aeq1, aeq0, aep0 }
    2aa2:	0364d6        	bgez	a4, 2adc <subband_aec_mid_channel+0x108>
    2aa5:	d5e63e9a4f 	{ ae_slaasq56s	aeq1, aeq1, a10; ae_mulfq32sp16s.l	aeq2, aeq0, aep1 }
    2aaa:	058d           	mov.n	a8, a5
    2aac:	f86fbeaa8f 	{ ae_slaasq56s	aeq2, aeq2, a10; ae_roundsp24q48asym	aep0, aeq1 }
    2ab1:	f877d3f22f 	{ or	a15, a2, a2; ae_roundsp24q48asym	aep1, aeq2 }
    2ab6:	2217a6        	blti	a7, 1, 2adc <subband_aec_mid_channel+0x108>
    2ab9:	dc20ad150f 	{ ae_lp16x2f.i	aep1, a5, 0; ae_selp24.hl	aep0, aep0, aep1 }
    2abe:	1a8776        	loop	a7, 2adc <subband_aec_mid_channel+0x108>
    2ac1:	fd241aa6bf 	{ ae_lp16x2f.c	aep2, a6, a11; ae_cvtq48p24s.h	aeq1, aep1 }
    2ac6:	fe2c2d981f 	{ ae_lp16x2f.iu	aep1, a8, 4; ae_cvtq48p24s.l	aeq2, aep1 }
    2acb:	050a04        	ae_mulaafp24s.hh.ll	aeq1, aep0, aep2
    2ace:	058254        	ae_mulasfp24s.hl.lh	aeq2, aep0, aep2
    2ad1:	1b9f64        	ae_roundsp16q48asym	aep6, aeq1
    2ad4:	fb73f2ef1f 	{ ae_sp16f.l.iu	aep6, a15, 2; ae_roundsp16q48asym	aep7, aeq2 }
    2ad9:	42ff14        	ae_sp16f.l.iu	aep7, a15, 2
    2adc:	990b           	addi.n	a9, a9, -1
    2ade:	f8a956        	bnez	a9, 2a6c <subband_aec_mid_channel+0x98>
    2ae1:	fd24b0d37e 	{ l32i	a7, a3, 52; ae_zeroq56	aeq1 }
    2ae6:	f358           	l32i.n	a5, a3, 60
    2ae8:	c369           	s32i.n	a6, a3, 48
    2aea:	a20c           	movi.n	a2, 10
    2aec:	fe0c6d070f 	{ ae_lp16x2f.i	aep0, a7, 0; ae_movq56	aeq2, aeq1 }
    2af1:	fc0c6d150f 	{ ae_lp16x2f.i	aep1, a5, 0; ae_movq56	aeq0, aeq1 }
    2af6:	0c8276        	loop	a2, 2b06 <subband_aec_mid_channel+0x132>
    2af9:	058104        	ae_mulaafp24s.hh.ll	aeq2, aep0, aep1
    2afc:	ea202d951f 	{ ae_lp16x2f.iu	aep1, a5, 4; ae_mulasfp24s.hl.lh	aeq0, aep0, aep1 }
    2b01:	e2006d871f 	{ ae_lp16x2f.iu	aep0, a7, 4; ae_mulaafp24s.hh.ll	aeq1, aep0, aep0 }

00002b06 <subband_aec_mid_channel+0x132>:
    2b06:	35a134        	ae_sraiq56	aeq2, aeq2, 4
    2b09:	f877bb010f 	{ ae_sraiq56	aeq0, aeq0, 4; ae_roundsp24q48asym	aep0, aeq2 }
    2b0e:	f867fb114f 	{ ae_sraiq56	aeq1, aeq1, 4; ae_roundsp24q48asym	aep1, aeq0 }
    2b13:	fd2c7e011f 	{ ae_selp24.hl	aep0, aep0, aep1; ae_roundsq32asym	aeq1, aeq1 }
    2b18:	f1028000af 	{ movi	a10, 0; ae_mulzaafp24s.hh.ll	aeq2, aep0, aep0 }
    2b1d:	f55d21        	l32r	a2, 94 (680 <HIFI_sqrt>)
    2b20:	ff347f16ef 	{ ae_trunca32q48	a6, aeq1; ae_roundsq32asym	aeq3, aeq2 }
    2b25:	36bb04        	ae_trunca32q48	a11, aeq3
    2b28:	0002e0        	callx8	a2
    2b2b:	360b34        	ae_cvtq48a32s	aeq0, a11
    2b2e:	fc24fe8a0f 	{ ae_slaasq56s	aeq0, aeq0, a10; nop }
    2b33:	fc2453a33f 	{ or	a10, a3, a3; ae_roundsq32asym	aeq0, aeq0 }
    2b38:	368c04        	ae_trunca32q48	a12, aeq0
    2b3b:	f5a221        	l32r	a2, 1c4 (25f4 <common_x_pow>)
    2b3e:	06bd           	mov.n	a11, a6
    2b40:	0002e0        	callx8	a2
    2b43:	aa8c           	beqz.n	a10, 2b51 <subband_aec_mid_channel+0x17d>
    2b45:	f3a8           	l32i.n	a10, a3, 60
    2b47:	d3b8           	l32i.n	a11, a3, 52
    2b49:	f55921        	l32r	a2, b0 (9a58 <xt_memcpy>)
    2b4c:	4c1c           	movi.n	a12, 20
    2b4e:	0002e0        	callx8	a2

00002b51 <subband_aec_mid_channel+0x17d>:
    2b51:	2128           	l32i.n	a2, a1, 8
    2b53:	fc24a0d22e 	{ l16si	a2, a2, 26; ae_zeroq56	aeq0 }
    2b58:	1612a6        	blti	a2, 1, 2b72 <subband_aec_mid_channel+0x19e>
    2b5b:	119352        	l16si	a5, a3, 34
    2b5e:	b368           	l32i.n	a6, a3, 44
    2b60:	c05520        	sub	a5, a5, a2
    2b63:	a05560        	addx4	a5, a5, a6
    2b66:	fcc552        	addi	a5, a5, -4
    2b69:	058276        	loop	a2, 2b72 <subband_aec_mid_channel+0x19e>
    2b6c:	448514        	ae_lp16x2f.iu	aep0, a5, 4
    2b6f:	050004        	ae_mulaafp24s.hh.ll	aeq0, aep0, aep0

00002b72 <subband_aec_mid_channel+0x19e>:
    2b72:	3500b4        	ae_sraiq56	aeq0, aeq0, 2
    2b75:	fc247033ae 	{ l32i	a10, a3, 12; ae_roundsq32asym	aeq0, aeq0 }
    2b7a:	23b8           	l32i.n	a11, a3, 8
    2b7c:	f59021        	l32r	a2, 1bc (88fc <airoha_divide_limit_1>)
    2b7f:	368604        	ae_trunca32q48	a6, aeq0
    2b82:	0002e0        	callx8	a2
    2b85:	2198           	l32i.n	a9, a1, 8
    2b87:	ffa022        	movi	a2, 255
    2b8a:	2403f2        	l8ui	a15, a3, 36
    2b8d:	049952        	l16si	a5, a9, 8
    2b90:	7fd222        	addmi	a2, a2, 0x7f00
    2b93:	3170a0        	srai	a7, a10, 16
    2b96:	c02270        	sub	a2, a2, a7
    2b99:	532250        	max	a2, a2, a5
    2b9c:	07ef17        	bbsi	a15, 1, 2ba7 <subband_aec_mid_channel+0x1d3>
    2b9f:	105322        	s16i	a2, a3, 32
    2ba2:	000806        	j	2bc6 <subband_aec_mid_channel+0x1f2>

00002ba5 <subband_aec_mid_channel+0x1d1>:
	...

00002ba7 <subband_aec_mid_channel+0x1d3>:
    2ba7:	039952        	l16si	a5, a9, 6
    2baa:	09ad           	mov.n	a10, a9
    2bac:	03bd           	mov.n	a11, a3
    2bae:	822250        	mull	a2, a2, a5
    2bb1:	06cd           	mov.n	a12, a6
    2bb3:	40d222        	addmi	a2, a2, 0x4000
    2bb6:	412f20        	srli	a2, a2, 15
    2bb9:	105322        	s16i	a2, a3, 32
    2bbc:	f58321        	l32r	a2, 1c8 (265c <ref_gain_adapt>)
    2bbf:	04dd           	mov.n	a13, a4
    2bc1:	0002e0        	callx8	a2
    2bc4:	2198           	l32i.n	a9, a1, 8
    2bc6:	059922        	l16si	a2, a9, 10
    2bc9:	069952        	l16si	a5, a9, 12
    2bcc:	f57bf1        	l32r	a15, 1b8 (bab0 <immediate_num>)
    2bcf:	112200        	slli	a2, a2, 16
    2bd2:	49a267        	bge	a2, a6, 2c1f <subband_aec_mid_channel+0x24b>
    2bd5:	129322        	l16si	a2, a3, 36
    2bd8:	240c           	movi.n	a4, 2
    2bda:	11e500        	slli	a14, a5, 16
    2bdd:	202240        	or	a2, a2, a4
    2be0:	125322        	s16i	a2, a3, 36
    2be3:	18cf22        	addi	a2, a15, 24
    2be6:	05ae67        	bge	a14, a6, 2bef <subband_aec_mid_channel+0x21b>
    2be9:	400204        	ae_lp16f.i	aep0, a2, 0
    2bec:	000086        	j	2bf2 <subband_aec_mid_channel+0x21e>

00002bef <subband_aec_mid_channel+0x21b>:
    2bef:	400214        	ae_lp16f.i	aep0, a2, 2
    2bf2:	0d9952        	l16si	a5, a9, 26
    2bf5:	2615a6        	blti	a5, 1, 2c1f <subband_aec_mid_channel+0x24b>
    2bf8:	119322        	l16si	a2, a3, 34
    2bfb:	b348           	l32i.n	a4, a3, 44
    2bfd:	c02250        	sub	a2, a2, a5
    2c00:	a02240        	addx4	a2, a2, a4
    2c03:	441204        	ae_lp16x2f.i	aep1, a2, 0
    2c06:	fec242        	addi	a4, a2, -2
    2c09:	128576        	loop	a5, 2c1f <subband_aec_mid_channel+0x24b>
    2c0c:	011054        	ae_mulfp24s.hl	aeq0, aep1, aep0
    2c0f:	ea05ed921f 	{ ae_lp16x2f.iu	aep1, a2, 4; ae_mulfp24s.ll	aeq1, aep1, aep0 }
    2c14:	1b8f24        	ae_roundsp16q48asym	aep2, aeq0
    2c17:	fb6bf2a41f 	{ ae_sp16f.l.iu	aep2, a4, 2; ae_roundsp16q48asym	aep7, aeq1 }
    2c1c:	42f414        	ae_sp16f.l.iu	aep7, a4, 2

00002c1f <subband_aec_mid_channel+0x24b>:
    2c1f:	240322        	l8ui	a2, a3, 36
    2c22:	31c8           	l32i.n	a12, a1, 12
    2c24:	09ad           	mov.n	a10, a9
    2c26:	076207        	bbci	a2, 0, 2c31 <subband_aec_mid_channel+0x25d>
    2c29:	f56821        	l32r	a2, 1cc (26f4 <aec_post_calc>)
    2c2c:	03bd           	mov.n	a11, a3
    2c2e:	0002e0        	callx8	a2

00002c31 <subband_aec_mid_channel+0x25d>:
    2c31:	f01d           	retw.n

00002c33 <subband_aec_mid_channel+0x25f>:
	...

00002c34 <dt_detect>:
    2c34:	004136        	entry	a1, 32
    2c37:	0c9252        	l16si	a5, a2, 24
    2c3a:	179242        	l16si	a4, a2, 46
    2c3d:	189262        	l16si	a6, a2, 48
    2c40:	115500        	slli	a5, a5, 16
    2c43:	19a537        	bge	a5, a3, 2c60 <dt_detect+0x2c>
    2c46:	154c           	movi.n	a5, 65
    2c48:	142657        	blt	a6, a5, 2c60 <dt_detect+0x2c>
    2c4b:	169252        	l16si	a5, a2, 44
    2c4e:	0e9232        	l16si	a3, a2, 28
    2c51:	442b           	addi.n	a4, a4, 2
    2c53:	554b           	addi.n	a5, a5, 4
    2c55:	435530        	min	a5, a5, a3
    2c58:	165252        	s16i	a5, a2, 44
    2c5b:	855d           	ae_sext16	a5, a5
    2c5d:	000246        	j	2c6a <dt_detect+0x36>

00002c60 <dt_detect+0x2c>:
    2c60:	0e9232        	l16si	a3, a2, 28
    2c63:	050c           	movi.n	a5, 0
    2c65:	440b           	addi.n	a4, a4, -1
    2c67:	165252        	s16i	a5, a2, 44
    2c6a:	534450        	max	a4, a4, a5
    2c6d:	433430        	min	a3, a4, a3
    2c70:	175232        	s16i	a3, a2, 46
    2c73:	f01d           	retw.n

00002c75 <dt_detect+0x41>:
    2c75:	000000                                        ...

00002c78 <get_ECNR_SVN>:
    2c78:	004136        	entry	a1, 32
    2c7b:	1ca422        	movi	a2, 0x41c
    2c7e:	f01d           	retw.n

00002c80 <get_aec_nr_memsize>:
    2c80:	004136        	entry	a1, 32
    2c83:	71a022        	movi	a2, 113
    2c86:	112280        	slli	a2, a2, 8
    2c89:	f01d           	retw.n

00002c8b <get_aec_nr_memsize+0xb>:
	...

00002c8c <get_txnr_pitch_last>:
    2c8c:	004136        	entry	a1, 32
    2c8f:	f50221        	l32r	a2, 98 (c3d4 <p_ecnr_mem>)
    2c92:	f8a032        	movi	a3, 248
    2c95:	54d332        	addmi	a3, a3, 0x5400
    2c98:	0228           	l32i.n	a2, a2, 0
    2c9a:	0f0c           	movi.n	a15, 0
    2c9c:	1ad242        	addmi	a4, a2, 0x1a00
    2c9f:	161442        	l16ui	a4, a4, 44
    2ca2:	37d252        	addmi	a5, a2, 0x3700
    2ca5:	223a           	add.n	a2, a2, a3
    2ca7:	fec4e2        	addi	a14, a4, -2
    2caa:	8325e0        	moveqz	a2, a5, a14
    2cad:	0228           	l32i.n	a2, a2, 0
    2caf:	622f20        	saltu	a2, a15, a2
    2cb2:	f01d           	retw.n

00002cb4 <sb_ana_init>:
    2cb4:	004136        	entry	a1, 32
    2cb7:	a24b           	addi.n	a10, a2, 4
    2cb9:	02a9           	s32i.n	a10, a2, 0
    2cbb:	f4fb21        	l32r	a2, a8 (9a44 <xt_memset>)
    2cbe:	0b0c           	movi.n	a11, 0
    2cc0:	ec1c           	movi.n	a12, 30
    2cc2:	0002e0        	callx8	a2
    2cc5:	f01d           	retw.n

00002cc7 <sb_ana_init+0x13>:
	...

00002cc8 <sb_syn_init>:
    2cc8:	004136        	entry	a1, 32
    2ccb:	a24b           	addi.n	a10, a2, 4
    2ccd:	02a9           	s32i.n	a10, a2, 0
    2ccf:	f4f621        	l32r	a2, a8 (9a44 <xt_memset>)
    2cd2:	0b0c           	movi.n	a11, 0
    2cd4:	cc3c           	movi.n	a12, 60
    2cd6:	0002e0        	callx8	a2
    2cd9:	f01d           	retw.n

00002cdb <sb_syn_init+0x13>:
	...

00002cdc <AVC_init>:
    2cdc:	004136        	entry	a1, 32
    2cdf:	f4f331        	l32r	a3, ac (c3dc <aec_nr_para>)
    2ce2:	f47c           	movi.n	a4, -1
    2ce4:	014410        	slli	a4, a4, 31
    2ce7:	0338           	l32i.n	a3, a3, 0
    2ce9:	050c           	movi.n	a5, 0
    2ceb:	2259           	s32i.n	a5, a2, 8
    2ced:	1e13e2        	l16ui	a14, a3, 60
    2cf0:	1f9362        	l16si	a6, a3, 62
    2cf3:	209332        	l16si	a3, a3, 64
    2cf6:	11fe00        	slli	a15, a14, 16
    2cf9:	4e4a           	add.n	a4, a14, a4
    2cfb:	035232        	s16i	a3, a2, 6
    2cfe:	c034f0        	sub	a3, a4, a15
    2d01:	025262        	s16i	a6, a2, 4
    2d04:	0239           	s32i.n	a3, a2, 0
    2d06:	f01d           	retw.n

00002d08 <HP_coef_setup>:
    2d08:	004136        	entry	a1, 32
    2d0b:	f4e941        	l32r	a4, b0 (9a58 <xt_memcpy>)
    2d0e:	4c0c           	movi.n	a12, 4
    2d10:	02ad           	mov.n	a10, a2
    2d12:	03bd           	mov.n	a11, a3
    2d14:	0004e0        	callx8	a4
    2d17:	a2cb           	addi.n	a10, a2, 12
    2d19:	b38b           	addi.n	a11, a3, 8
    2d1b:	ac0c           	movi.n	a12, 10
    2d1d:	0004e0        	callx8	a4
    2d20:	24c2a2        	addi	a10, a2, 36
    2d23:	1cc3b2        	addi	a11, a3, 28
    2d26:	8c0c           	movi.n	a12, 8
    2d28:	0004e0        	callx8	a4
    2d2b:	1238           	l32i.n	a3, a2, 4
    2d2d:	72f8           	l32i.n	a15, a2, 28
    2d2f:	2239           	s32i.n	a3, a2, 8
    2d31:	82f9           	s32i.n	a15, a2, 32
    2d33:	f01d           	retw.n

00002d35 <HP_coef_setup+0x2d>:
    2d35:	000000                                        ...

00002d38 <main_err_alpha>:
    2d38:	004136        	entry	a1, 32
    2d3b:	f47c           	movi.n	a4, -1
    2d3d:	014410        	slli	a4, a4, 31
    2d40:	f4e351        	l32r	a5, cc (7fff0000 <_end+0x7ffe3c20>)
    2d43:	02e8           	l32i.n	a14, a2, 0
    2d45:	3228           	l32i.n	a2, a2, 12
    2d47:	116300        	slli	a6, a3, 16
    2d4a:	304340        	xor	a4, a3, a4
    2d4d:	c04460        	sub	a4, a4, a6
    2d50:	935430        	movnez	a5, a4, a3
    2d53:	af0c           	movi.n	a15, 10
    2d55:	fece32        	addi	a3, a14, -2
    2d58:	308554        	ae_cvtp24a16x2.lh	aep0, a5, a5
    2d5b:	409204        	ae_lp16f.iu	aep1, a2, 0
    2d5e:	108f76        	loop	a15, 2d72 <main_err_alpha+0x3a>
    2d61:	e820acf31f 	{ ae_lp16f.iu	aep7, a3, 2; ae_mulfp24s.hh	aeq0, aep0, aep1 }
    2d66:	010734        	ae_mulafp24s.ll	aeq0, aep0, aep7
    2d69:	1b8f14        	ae_roundsp16q48asym	aep1, aeq0
    2d6c:	421304        	ae_sp16f.l.i	aep1, a3, 0
    2d6f:	409214        	ae_lp16f.iu	aep1, a2, 2

00002d72 <main_err_alpha+0x3a>:
    2d72:	f01d           	retw.n

00002d74 <tx_ref_vad_init>:
    2d74:	004136        	entry	a1, 32
    2d77:	f4cc41        	l32r	a4, a8 (9a44 <xt_memset>)
    2d7a:	0b0c           	movi.n	a11, 0
    2d7c:	ec0c           	movi.n	a12, 14
    2d7e:	02ad           	mov.n	a10, a2
    2d80:	0004e0        	callx8	a4
    2d83:	c8a142        	movi	a4, 0x1c8
    2d86:	b34a           	add.n	a11, a3, a4
    2d88:	f4ca31        	l32r	a3, b0 (9a58 <xt_memcpy>)
    2d8b:	7c0c           	movi.n	a12, 7
    2d8d:	02ad           	mov.n	a10, a2
    2d8f:	0003e0        	callx8	a3
    2d92:	f01d           	retw.n

00002d94 <Voice_WB_TX_Init>:
    2d94:	006136        	entry	a1, 48
    2d97:	f4c071        	l32r	a7, 98 (c3d4 <p_ecnr_mem>)
    2d9a:	02ad           	mov.n	a10, a2
    2d9c:	05bd           	mov.n	a11, a5
    2d9e:	0749           	s32i.n	a4, a7, 0
    2da0:	f50c41        	l32r	a4, 1d0 (9900 <TX_ECNR_PARA_init>)
    2da3:	06cd           	mov.n	a12, a6
    2da5:	3139           	s32i.n	a3, a1, 12
    2da7:	0004e0        	callx8	a4
    2daa:	f4c031        	l32r	a3, ac (c3dc <aec_nr_para>)
    2dad:	0748           	l32i.n	a4, a7, 0
    2daf:	fda252        	movi	a5, 0x2fd
    2db2:	0368           	l32i.n	a6, a3, 0
    2db4:	1155d0        	slli	a5, a5, 3
    2db7:	a45a           	add.n	a10, a4, a5
    2db9:	08a1f2        	movi	a15, 0x108
    2dbc:	f50641        	l32r	a4, 1d4 (2d08 <HP_coef_setup>)
    2dbf:	b6fa           	add.n	a11, a6, a15
    2dc1:	0004e0        	callx8	a4
    2dc4:	0748           	l32i.n	a4, a7, 0
    2dc6:	07a652        	movi	a5, 0x607
    2dc9:	1155e0        	slli	a5, a5, 2
    2dcc:	a45a           	add.n	a10, a4, a5
    2dce:	f4b641        	l32r	a4, a8 (9a44 <xt_memset>)
    2dd1:	0b0c           	movi.n	a11, 0
    2dd3:	ac0c           	movi.n	a12, 10
    2dd5:	050c           	movi.n	a5, 0
    2dd7:	0004e0        	callx8	a4
    2dda:	0768           	l32i.n	a6, a7, 0
    2ddc:	0da682        	movi	a8, 0x60d
    2ddf:	1188e0        	slli	a8, a8, 2
    2de2:	a68a           	add.n	a10, a6, a8
    2de4:	0b0c           	movi.n	a11, 0
    2de6:	f0a0c2        	movi	a12, 240
    2de9:	f0a062        	movi	a6, 240
    2dec:	0004e0        	callx8	a4
    2def:	0788           	l32i.n	a8, a7, 0
    2df1:	c1a792        	movi	a9, 0x7c1
    2df4:	1199d0        	slli	a9, a9, 3
    2df7:	3ed8b2        	addmi	a11, a8, 0x3e00
    2dfa:	889a           	add.n	a8, a8, a9
    2dfc:	a84b           	addi.n	a10, a8, 4
    2dfe:	2ba9           	s32i.n	a10, a11, 8
    2e00:	0b0c           	movi.n	a11, 0
    2e02:	ec1c           	movi.n	a12, 30
    2e04:	0004e0        	callx8	a4
    2e07:	0788           	l32i.n	a8, a7, 0
    2e09:	c9a792        	movi	a9, 0x7c9
    2e0c:	1199d0        	slli	a9, a9, 3
    2e0f:	3ed8b2        	addmi	a11, a8, 0x3e00
    2e12:	889a           	add.n	a8, a8, a9
    2e14:	a84b           	addi.n	a10, a8, 4
    2e16:	126ba2        	s32i	a10, a11, 72
    2e19:	0b0c           	movi.n	a11, 0
    2e1b:	ec1c           	movi.n	a12, 30
    2e1d:	0004e0        	callx8	a4
    2e20:	0788           	l32i.n	a8, a7, 0
    2e22:	d9a792        	movi	a9, 0x7d9
    2e25:	1199d0        	slli	a9, a9, 3
    2e28:	3ed8b2        	addmi	a11, a8, 0x3e00
    2e2b:	889a           	add.n	a8, a8, a9
    2e2d:	a84b           	addi.n	a10, a8, 4
    2e2f:	326ba2        	s32i	a10, a11, 200
    2e32:	0b0c           	movi.n	a11, 0
    2e34:	cc3c           	movi.n	a12, 60
    2e36:	0004e0        	callx8	a4
    2e39:	0388           	l32i.n	a8, a3, 0
    2e3b:	0798           	l32i.n	a9, a7, 0
    2e3d:	c8a0a2        	movi	a10, 200
    2e40:	3398f2        	l16si	a15, a8, 102
    2e43:	18d922        	addmi	a2, a9, 0x1800
    2e46:	1852f2        	s16i	a15, a2, 48
    2e49:	3498f2        	l16si	a15, a8, 104
    2e4c:	1952f2        	s16i	a15, a2, 50
    2e4f:	bfa2f2        	movi	a15, 0x2bf
    2e52:	112fc0        	slli	a2, a15, 4
    2e55:	dda2f2        	movi	a15, 0x2dd
    2e58:	11ffc0        	slli	a15, a15, 4
    2e5b:	0888           	l32i.n	a8, a8, 0
    2e5d:	292a           	add.n	a2, a9, a2
    2e5f:	f9fa           	add.n	a15, a9, a15
    2e61:	1ad992        	addmi	a9, a9, 0x1a00
    2e64:	176922        	s32i	a2, a9, 92
    2e67:	b8a122        	movi	a2, 0x1b8
    2e6a:	282a           	add.n	a2, a8, a2
    2e6c:	18a1b2        	movi	a11, 0x118
    2e6f:	40a1c2        	movi	a12, 0x140
    2e72:	68a1d2        	movi	a13, 0x168
    2e75:	90a1e2        	movi	a14, 0x190
    2e78:	1869f2        	s32i	a15, a9, 96
    2e7b:	e0a1f2        	movi	a15, 0x1e0
    2e7e:	166922        	s32i	a2, a9, 88
    2e81:	f4d521        	l32r	a2, 1d8 (234c <SBAEC_INIT>)
    2e84:	a8aa           	add.n	a10, a8, a10
    2e86:	686a           	add.n	a6, a8, a6
    2e88:	b8ba           	add.n	a11, a8, a11
    2e8a:	c8ca           	add.n	a12, a8, a12
    2e8c:	d8da           	add.n	a13, a8, a13
    2e8e:	e8ea           	add.n	a14, a8, a14
    2e90:	f8fa           	add.n	a15, a8, a15
    2e92:	78c882        	addi	a8, a8, 120
    2e95:	e989           	s32i.n	a8, a9, 56
    2e97:	f9a9           	s32i.n	a10, a9, 60
    2e99:	106962        	s32i	a6, a9, 64
    2e9c:	1169b2        	s32i	a11, a9, 68
    2e9f:	1269c2        	s32i	a12, a9, 72
    2ea2:	1369d2        	s32i	a13, a9, 76
    2ea5:	1469e2        	s32i	a14, a9, 80
    2ea8:	1569f2        	s32i	a15, a9, 84
    2eab:	0002e0        	callx8	a2
    2eae:	f4cb21        	l32r	a2, 1dc (666c <WB_TX_NR_init>)
    2eb1:	0002e0        	callx8	a2
    2eb4:	0328           	l32i.n	a2, a3, 0
    2eb6:	0768           	l32i.n	a6, a7, 0
    2eb8:	fa7c           	movi.n	a10, -1
    2eba:	2092e2        	l16si	a14, a2, 64
    2ebd:	1f92d2        	l16si	a13, a2, 62
    2ec0:	1e1222        	l16ui	a2, a2, 60
    2ec3:	f4c781        	l32r	a8, 1e0 (c3d8 <avc_vol>)
    2ec6:	190c           	movi.n	a9, 1
    2ec8:	01aa10        	slli	a10, a10, 31
    2ecb:	30d6f2        	addmi	a15, a6, 0x3000
    2ece:	6f5fe2        	s16i	a14, a15, 222
    2ed1:	119930        	slli	a9, a9, 13
    2ed4:	a2aa           	add.n	a10, a2, a10
    2ed6:	112200        	slli	a2, a2, 16
    2ed9:	85a6e2        	movi	a14, 0x685
    2edc:	689d           	ae_s16i.n	a9, a8, 0
    2ede:	30d6c2        	addmi	a12, a6, 0x3000
    2ee1:	118ee0        	slli	a8, a14, 2
    2ee4:	c02a20        	sub	a2, a10, a2
    2ee7:	190c           	movi.n	a9, 1
    2ee9:	1ad6b2        	addmi	a11, a6, 0x1a00
    2eec:	7f0c           	movi.n	a15, 7
    2eee:	386c52        	s32i	a5, a12, 224
    2ef1:	185b92        	s16i	a9, a11, 48
    2ef4:	6e5cd2        	s16i	a13, a12, 220
    2ef7:	00a452        	movi	a5, 0x400
    2efa:	868a           	add.n	a8, a6, a8
    2efc:	366c22        	s32i	a2, a12, 216
    2eff:	038f76        	loop	a15, 2f06 <Voice_WB_TX_Init+0x172>
    2f02:	685d           	ae_s16i.n	a5, a8, 0
    2f04:	882b           	addi.n	a8, a8, 2

00002f06 <Voice_WB_TX_Init+0x172>:
    2f06:	ffa222        	movi	a2, 0x2ff
    2f09:	1122c0        	slli	a2, a2, 4
    2f0c:	a62a           	add.n	a10, a6, a2
    2f0e:	0b0c           	movi.n	a11, 0
    2f10:	0c5c           	movi.n	a12, 80
    2f12:	0004e0        	callx8	a4
    2f15:	0728           	l32i.n	a2, a7, 0
    2f17:	09a352        	movi	a5, 0x309
    2f1a:	1155c0        	slli	a5, a5, 4
    2f1d:	a25a           	add.n	a10, a2, a5
    2f1f:	0b0c           	movi.n	a11, 0
    2f21:	4c2c           	movi.n	a12, 36
    2f23:	0004e0        	callx8	a4
    2f26:	07a8           	l32i.n	a10, a7, 0
    2f28:	d1a752        	movi	a5, 0x7d1
    2f2b:	1155d0        	slli	a5, a5, 3
    2f2e:	1ada22        	addmi	a2, a10, 0x1a00
    2f31:	161222        	l16ui	a2, a2, 44
    2f34:	342266        	bnei	a2, 2, 2f6c <Voice_WB_TX_Init+0x1d8>
    2f37:	03a8           	l32i.n	a10, a3, 0
    2f39:	f4aa21        	l32r	a2, 1e4 (45e8 <TWO_MIC_WB_init>)
    2f3c:	0002e0        	callx8	a2
    2f3f:	0728           	l32i.n	a2, a7, 0
    2f41:	0b0c           	movi.n	a11, 0
    2f43:	ec1c           	movi.n	a12, 30
    2f45:	3ed262        	addmi	a6, a2, 0x3e00
    2f48:	225a           	add.n	a2, a2, a5
    2f4a:	a24b           	addi.n	a10, a2, 4
    2f4c:	2266a2        	s32i	a10, a6, 136
    2f4f:	0004e0        	callx8	a4
    2f52:	0728           	l32i.n	a2, a7, 0
    2f54:	454c           	movi.n	a5, 68
    2f56:	3fd552        	addmi	a5, a5, 0x3f00
    2f59:	3fd262        	addmi	a6, a2, 0x3f00
    2f5c:	225a           	add.n	a2, a2, a5
    2f5e:	a24b           	addi.n	a10, a2, 4
    2f60:	0b0c           	movi.n	a11, 0
    2f62:	cc3c           	movi.n	a12, 60
    2f64:	1166a2        	s32i	a10, a6, 68
    2f67:	0004e0        	callx8	a4
    2f6a:	07a8           	l32i.n	a10, a7, 0

00002f6c <Voice_WB_TX_Init+0x1d8>:
    2f6c:	f49f21        	l32r	a2, 1e8 (5eec <FLASH_REF_GAIN_Preload>)
    2f6f:	31b8           	l32i.n	a11, a1, 12
    2f71:	0002e0        	callx8	a2
    2f74:	0728           	l32i.n	a2, a7, 0
    2f76:	e4a052        	movi	a5, 228
    2f79:	70d552        	addmi	a5, a5, 0x7000
    2f7c:	225a           	add.n	a2, a2, a5
    2f7e:	0338           	l32i.n	a3, a3, 0
    2f80:	0b0c           	movi.n	a11, 0
    2f82:	ec0c           	movi.n	a12, 14
    2f84:	02ad           	mov.n	a10, a2
    2f86:	0004e0        	callx8	a4
    2f89:	c8a142        	movi	a4, 0x1c8
    2f8c:	b34a           	add.n	a11, a3, a4
    2f8e:	f44831        	l32r	a3, b0 (9a58 <xt_memcpy>)
    2f91:	7c0c           	movi.n	a12, 7
    2f93:	02ad           	mov.n	a10, a2
    2f95:	0003e0        	callx8	a3
    2f98:	f01d           	retw.n

00002f9a <Voice_WB_TX_Init+0x206>:
	...

00002f9c <mic240_delay>:
    2f9c:	004136        	entry	a1, 32
    2f9f:	f44461        	l32r	a6, b0 (9a58 <xt_memcpy>)
    2fa2:	02ad           	mov.n	a10, a2
    2fa4:	04bd           	mov.n	a11, a4
    2fa6:	05cd           	mov.n	a12, a5
    2fa8:	0006e0        	callx8	a6
    2fab:	f0a072        	movi	a7, 240
    2fae:	90a520        	addx2	a10, a5, a2
    2fb1:	c0c750        	sub	a12, a7, a5
    2fb4:	03bd           	mov.n	a11, a3
    2fb6:	1125f0        	slli	a2, a5, 1
    2fb9:	0006e0        	callx8	a6
    2fbc:	c02320        	sub	a2, a3, a2
    2fbf:	e0a1f2        	movi	a15, 0x1e0
    2fc2:	b2fa           	add.n	a11, a2, a15
    2fc4:	04ad           	mov.n	a10, a4
    2fc6:	05cd           	mov.n	a12, a5
    2fc8:	0006e0        	callx8	a6
    2fcb:	f01d           	retw.n

00002fcd <mic240_delay+0x31>:
    2fcd:	000000                                        ...

00002fd0 <tx_downsample_by2>:
    2fd0:	004136        	entry	a1, 32
    2fd3:	f48671        	l32r	a7, 1ec (bcc0 <wb_r01>)
    2fd6:	14a082        	movi	a8, 20
    2fd9:	fec222        	addi	a2, a2, -2
    2fdc:	fec332        	addi	a3, a3, -2
    2fdf:	600604        	ae_lq32f.i	aeq0, a6, 0
    2fe2:	440404        	ae_lp16x2f.i	aep0, a4, 0
    2fe5:	948876        	loop	a8, 307d <tx_downsample_by2+0xad>
    2fe8:	e2002f150f 	{ ae_lp24x2f.i	aep1, a5, 0; ae_mulaafp24s.hh.ll	aeq0, aep0, aep0 }
    2fed:	fd242c340f 	{ ae_lp16f.i	aep3, a4, 0; ae_cvtq48p24s.h	aeq1, aep1 }
    2ff2:	de2cb1273f 	{ ae_lp24.i	aep2, a7, 12; ae_selp24.hl	aep4, aep3, aep1 }
    2ff7:	e88874350f 	{ ae_sp24f.l.i	aep3, a5, 0; ae_mulasfp24s.hh.ll	aeq1, aep2, aep4 }
    2ffc:	ff2c2f251f 	{ ae_lp24x2f.i	aep2, a5, 8; ae_cvtq48p24s.l	aeq3, aep1 }
    3001:	fa6ff1674f 	{ ae_lp24.i	aep6, a7, 16; ae_roundsp24q48asym	aep5, aeq1 }
    3006:	df55f4551f 	{ ae_sp24f.l.i	aep5, a5, 4; ae_selp24.lh	aep7, aep5, aep2 }
    300b:	e9f871375f 	{ ae_lp24.i	aep3, a7, 20; ae_mulasfp24s.hh.ll	aeq3, aep6, aep7 }
    3010:	fe442c441f 	{ ae_lp16f.i	aep4, a4, 2; ae_cvtq48p24s.h	aeq2, aep2 }
    3015:	f87fed841f 	{ ae_lp16x2f.iu	aep0, a4, 4; ae_roundsp24q48asym	aep1, aeq3 }
    301a:	dd4634152f 	{ ae_sp24f.l.i	aep1, a5, 8; ae_selp24.ll	aep2, aep1, aep2 }
    301f:	05b244        	ae_mulasfp24s.hh.ll	aeq2, aep3, aep2
    3022:	1bad14        	ae_roundsp24q48asym	aep1, aeq2
    3025:	521534        	ae_sp24f.l.i	aep1, a5, 12
    3028:	5c6524        	ae_lp24x2f.i	aep6, a5, 16
    302b:	ffc431770f 	{ ae_lp24.i	aep7, a7, 0; ae_cvtq48p24s.h	aeq3, aep6 }
    3030:	ded0f4454f 	{ ae_sp24f.l.i	aep4, a5, 16; ae_selp24.hl	aep5, aep4, aep6 }
    3035:	e9bc6f253f 	{ ae_lp24x2f.i	aep2, a5, 24; ae_mulasfp24s.hh.ll	aeq3, aep7, aep5 }
    303a:	fecc31671f 	{ ae_lp24.i	aep6, a7, 4; ae_cvtq48p24s.l	aeq2, aep6 }
    303f:	fa7fbf18df 	{ ae_movap24s.l	a8, aep1; ae_roundsp24q48asym	aep4, aeq3 }
    3044:	df51f4455f 	{ ae_sp24f.l.i	aep4, a5, 20; ae_selp24.lh	aep7, aep4, aep2 }
    3049:	e9f831472f 	{ ae_lp24.i	aep4, a7, 8; ae_mulasfp24s.hh.ll	aeq2, aep6, aep7 }
    304e:	0aca84        	ae_cvtq48p24s.h	aeq3, aep2
    3051:	1bad34        	ae_roundsp24q48asym	aep3, aeq2
    3054:	dd4e34356f 	{ ae_sp24f.l.i	aep3, a5, 24; ae_selp24.ll	aep2, aep3, aep2 }
    3059:	05ca44        	ae_mulasfp24s.hh.ll	aeq3, aep4, aep2
    305c:	1bbd54        	ae_roundsp24q48asym	aep5, aeq3
    305f:	34d904        	ae_movap24s.l	a9, aep5
    3062:	a98a           	add.n	a10, a9, a8
    3064:	c08980        	sub	a8, a9, a8
    3067:	41f1a0        	srli	a15, a10, 1
    306a:	418180        	srli	a8, a8, 1
    306d:	39ef84        	ae_movpa24x2	aep6, a15, a8
    3070:	f9fab4557f 	{ ae_sp24f.l.i	aep5, a5, 28; ae_roundsp16asym	aep2, aep6 }
    3075:	df4972a31f 	{ ae_sp16f.l.iu	aep2, a3, 2; ae_selp24.hh	aep7, aep2, aep2 }
    307a:	42f214        	ae_sp16f.l.iu	aep7, a2, 2

0000307d <tx_downsample_by2+0xad>:
    307d:	060934        	ae_roundsq32asym	aeq0, aeq0
    3080:	620604        	ae_sq32f.i	aeq0, a6, 0
    3083:	f01d           	retw.n

00003085 <tx_downsample_by2+0xb5>:
    3085:	000000                                        ...

00003088 <tx_upsample_by2>:
    3088:	006136        	entry	a1, 48
    308b:	f45891        	l32r	a9, 1ec (bcc0 <wb_r01>)
    308e:	4a1c           	movi.n	a10, 20
    3090:	71eb           	addi.n	a7, a1, 14
    3092:	81cb           	addi.n	a8, a1, 12
    3094:	fcc442        	addi	a4, a4, -4
    3097:	600604        	ae_lq32f.i	aeq0, a6, 0
    309a:	401204        	ae_lp16f.i	aep1, a2, 0
    309d:	402304        	ae_lp16f.i	aep2, a3, 0
    30a0:	8f8a76        	loop	a10, 3133 <tx_upsample_by2+0xab>
    30a3:	dd46ef050f 	{ ae_lp24x2f.i	aep0, a5, 0; ae_subsp24s	aep3, aep1, aep2 }
    30a8:	fd0432381f 	{ ae_sp16f.l.i	aep3, a8, 2; ae_cvtq48p24s.h	aeq1, aep0 }
    30ad:	ff0c2c370f 	{ ae_lp16f.i	aep3, a7, 0; ae_cvtq48p24s.l	aeq3, aep0 }
    30b2:	de0cf1490f 	{ ae_lp24.i	aep4, a9, 0; ae_selp24.hl	aep5, aep3, aep0 }
    30b7:	e8b074350f 	{ ae_sp24f.l.i	aep3, a5, 0; ae_mulasfp24s.hh.ll	aeq1, aep4, aep5 }
    30bc:	d8452f351f 	{ ae_lp24x2f.i	aep3, a5, 8; ae_addsp24s	aep0, aep1, aep2 }
    30c1:	fa6fb1691f 	{ ae_lp24.i	aep6, a9, 4; ae_roundsp24q48asym	aep4, aeq1 }
    30c6:	df71f4451f 	{ ae_sp24f.l.i	aep4, a5, 4; ae_selp24.lh	aep7, aep4, aep3 }
    30cb:	e9f871592f 	{ ae_lp24.i	aep5, a9, 8; ae_mulasfp24s.hh.ll	aeq3, aep6, aep7 }
    30d0:	fe6432080f 	{ ae_sp16f.l.i	aep0, a8, 0; ae_cvtq48p24s.h	aeq2, aep3 }
    30d5:	fa7fac680f 	{ ae_lp16f.i	aep6, a8, 0; ae_roundsp24q48asym	aep4, aeq3 }
    30da:	dd7274452f 	{ ae_sp24f.l.i	aep4, a5, 8; ae_selp24.ll	aep3, aep4, aep3 }
    30df:	05d344        	ae_mulasfp24s.hh.ll	aeq2, aep5, aep3
    30e2:	1bad24        	ae_roundsp24q48asym	aep2, aeq2
    30e5:	e203b4253f 	{ ae_sp24f.l.i	aep2, a5, 12; ae_mulafp24s.ll	aeq0, aep0, aep0 }
    30ea:	5c1524        	ae_lp24x2f.i	aep1, a5, 16
    30ed:	ff2431493f 	{ ae_lp24.i	aep4, a9, 12; ae_cvtq48p24s.h	aeq3, aep1 }
    30f2:	df38f4654f 	{ ae_sp24f.l.i	aep6, a5, 16; ae_selp24.hl	aep7, aep6, aep1 }
    30f7:	e9f06f353f 	{ ae_lp24x2f.i	aep3, a5, 24; ae_mulasfp24s.hh.ll	aeq3, aep4, aep7 }
    30fc:	fe2c31694f 	{ ae_lp24.i	aep6, a9, 16; ae_cvtq48p24s.l	aeq2, aep1 }
    3101:	fa7fbf2adf 	{ ae_movap24s.l	a10, aep2; ae_roundsp24q48asym	aep4, aeq3 }
    3106:	df71f4455f 	{ ae_sp24f.l.i	aep4, a5, 20; ae_selp24.lh	aep7, aep4, aep3 }
    310b:	e9f831795f 	{ ae_lp24.i	aep7, a9, 20; ae_mulasfp24s.hh.ll	aeq2, aep6, aep7 }
    3110:	ff642c921f 	{ ae_lp16f.iu	aep1, a2, 2; ae_cvtq48p24s.h	aeq3, aep3 }
    3115:	fb77aca31f 	{ ae_lp16f.iu	aep2, a3, 2; ae_roundsp24q48asym	aep6, aeq2 }
    311a:	dd7a74656f 	{ ae_sp24f.l.i	aep6, a5, 24; ae_selp24.ll	aep3, aep6, aep3 }
    311f:	05fb44        	ae_mulasfp24s.hh.ll	aeq3, aep7, aep3
    3122:	1bbd64        	ae_roundsp24q48asym	aep6, aeq3
    3125:	34eb04        	ae_movap24s.l	a11, aep6
    3128:	39fab4        	ae_movpa24x2	aep7, a10, a11
    312b:	f9fef4657f 	{ ae_sp24f.l.i	aep6, a5, 28; ae_roundsp16asym	aep3, aep7 }
    3130:	46b414        	ae_sp16x2f.iu	aep3, a4, 4

00003133 <tx_upsample_by2+0xab>:
    3133:	060934        	ae_roundsq32asym	aeq0, aeq0
    3136:	620604        	ae_sq32f.i	aeq0, a6, 0
    3139:	f01d           	retw.n

0000313b <tx_upsample_by2+0xb3>:
	...

0000313c <emph_filter_N>:
    313c:	004136        	entry	a1, 32
    313f:	440404        	ae_lp16x2f.i	aep0, a4, 0
    3142:	3725a6        	blti	a5, 2, 317d <emph_filter_N+0x41>
    3145:	651b           	addi.n	a6, a5, 1
    3147:	b36550        	movgez	a6, a5, a5
    314a:	215160        	srai	a5, a6, 1
    314d:	441304        	ae_lp16x2f.i	aep1, a3, 0
    3150:	fec232        	addi	a3, a2, -2
    3153:	fcc222        	addi	a2, a2, -4
    3156:	238576        	loop	a5, 317d <emph_filter_N+0x41>
    3159:	44a214        	ae_lp16x2f.iu	aep2, a2, 4
    315c:	fc443e20cf 	{ ae_selp24.hh	aep3, aep2, aep0; ae_cvtq48p24s.h	aeq0, aep2 }
    3161:	0a4284        	ae_cvtq48p24s.l	aeq1, aep2
    3164:	011004        	ae_mulafp24s.hh	aeq0, aep1, aep0
    3167:	011a04        	ae_mulafp24s.hh	aeq1, aep1, aep2
    316a:	051004        	ae_mulaafp24s.hh.ll	aeq0, aep1, aep0
    316d:	051b04        	ae_mulaafp24s.hh.ll	aeq1, aep1, aep3
    3170:	1b8f04        	ae_roundsp16q48asym	aep0, aeq0
    3173:	f96bf2831f 	{ ae_sp16f.l.iu	aep0, a3, 2; ae_roundsp16q48asym	aep3, aeq1 }
    3178:	dc49b2b31f 	{ ae_sp16f.l.iu	aep3, a3, 2; ae_selp24.lh	aep0, aep2, aep2 }

0000317d <emph_filter_N+0x41>:
    317d:	460404        	ae_sp16x2f.i	aep0, a4, 0
    3180:	f01d           	retw.n

00003182 <emph_filter_N+0x46>:
	...

00003184 <deemph_filter_N>:
    3184:	004136        	entry	a1, 32
    3187:	600404        	ae_lq32f.i	aeq0, a4, 0
    318a:	604414        	ae_lq32f.i	aeq1, a4, 4
    318d:	2e15a6        	blti	a5, 1, 31bf <deemph_filter_N+0x3b>
    3190:	f40af1        	l32r	a15, 1b8 (bab0 <immediate_num>)
    3193:	ff0c6d030f 	{ ae_lp16x2f.i	aep0, a3, 0; ae_movq56	aeq3, aeq1 }
    3198:	99002c120f 	{ ae_lp16f.i	aep1, a2, 0; ae_mulzssfq32sp16s.hh	aeq2, aeq0, aep0, aeq0, aep0 }
    319d:	30cf32        	addi	a3, a15, 48
    31a0:	442304        	ae_lp16x2f.i	aep2, a3, 0
    31a3:	f03d           	nop.n
    31a5:	168576        	loop	a5, 31bf <deemph_filter_N+0x3b>
    31a8:	fb81bf017f 	{ ae_movq56	aeq1, aeq0; ae_mulsfq32sp16s.l	aeq2, aeq3, aep0 }
    31ad:	f1462c921f 	{ ae_lp16f.iu	aep1, a2, 2; ae_mulssfp24s.hh.ll	aeq2, aep1, aep2 }
    31b2:	fc347f11ff 	{ ae_movq56	aeq3, aeq1; ae_roundsq32asym	aeq0, aeq2 }
    31b7:	1b8f34        	ae_roundsp16q48asym	aep3, aeq0
    31ba:	99003232ff 	{ ae_sp16f.l.i	aep3, a2, -2; ae_mulzssfq32sp16s.hh	aeq2, aeq0, aep0, aeq0, aep0 }

000031bf <deemph_filter_N+0x3b>:
    31bf:	620404        	ae_sq32f.i	aeq0, a4, 0
    31c2:	621414        	ae_sq32f.i	aeq1, a4, 4
    31c5:	f01d           	retw.n

000031c7 <deemph_filter_N+0x43>:
	...

000031c8 <analy_3band>:
    31c8:	004136        	entry	a1, 32
    31cb:	f409b1        	l32r	a11, 1f0 (bce0 <sb_g10>)
    31ce:	f409c1        	l32r	a12, 1f4 (bd20 <sb_h2ir>)
    31d1:	a34b           	addi.n	a10, a3, 4
    31d3:	f3f6a0        	wur.ae_cbegin0	a10
    31d6:	03a8           	l32i.n	a10, a3, 0
    31d8:	40c3f2        	addi	a15, a3, 64
    31db:	a70c           	movi.n	a7, 10
    31dd:	480c           	movi.n	a8, 4
    31df:	790c           	movi.n	a9, 7
    31e1:	f3f7f0        	wur.ae_cend0	a15
    31e4:	fe248fc44e 	{ addi	a4, a4, -4; ae_zeroq56	aeq2 }
    31e9:	fec552        	addi	a5, a5, -2
    31ec:	fec662        	addi	a6, a6, -2
    31ef:	fccbb2        	addi	a11, a11, -4
    31f2:	fcccc2        	addi	a12, a12, -4
    31f5:	fcc222        	addi	a2, a2, -4

000031f8 <analy_3band+0x30>:
    31f8:	448214        	ae_lp16x2f.iu	aep0, a2, 4
    31fb:	fc14640a8f 	{ ae_sp16x2f.c	aep0, a10, a8; ae_movq56	aeq0, aeq2 }
    3200:	0bdd           	mov.n	a13, a11
    3202:	20ecc0        	or	a14, a12, a12
    3205:	fc24da8a8f 	{ ae_lp16x2f.c	aep0, a10, a8; nop }
    320a:	449d14        	ae_lp16x2f.iu	aep1, a13, 4
    320d:	ea05edfe1f 	{ ae_lp16x2f.iu	aep7, a14, 4; ae_mulfp24s.ll	aeq1, aep1, aep0 }
    3212:	01f874        	ae_mulfp24s.ll	aeq3, aep7, aep0
    3215:	278976        	loop	a9, 3240 <analy_3band+0x78>
    3218:	fc24da8a8f 	{ ae_lp16x2f.c	aep0, a10, a8; nop }
    321d:	449d14        	ae_lp16x2f.iu	aep1, a13, 4
    3220:	e2062dae1f 	{ ae_lp16x2f.iu	aep2, a14, 4; ae_mulafp24s.hh	aeq0, aep1, aep0 }
    3225:	e207daea8f 	{ ae_lp16x2f.c	aep6, a10, a8; ae_mulafp24s.ll	aeq1, aep1, aep0 }
    322a:	e30a2dbd1f 	{ ae_lp16x2f.iu	aep3, a13, 4; ae_mulafp24s.hh	aeq2, aep2, aep0 }
    322f:	e30bedfe1f 	{ ae_lp16x2f.iu	aep7, a14, 4; ae_mulafp24s.ll	aeq3, aep2, aep0 }
    3234:	013604        	ae_mulafp24s.hh	aeq0, aep3, aep6
    3237:	013e34        	ae_mulafp24s.ll	aeq1, aep3, aep6
    323a:	01f604        	ae_mulafp24s.hh	aeq2, aep7, aep6
    323d:	01fe34        	ae_mulafp24s.ll	aeq3, aep7, aep6

00003240 <analy_3band+0x78>:
    3240:	f87bcff77e 	{ addi	a7, a7, -1; ae_roundsp16q48asym	aep1, aeq3 }
    3245:	fb6a32961f 	{ ae_sp16f.l.iu	aep1, a6, 2; ae_addq56	aeq3, aeq1, aeq0 }
    324a:	f92afb30df 	{ ae_sraiq56	aeq3, aeq3, 1; ae_subq56	aeq1, aeq1, aeq0 }
    324f:	f873bb101f 	{ ae_sraiq56	aeq0, aeq1, 1; ae_roundsp16q48asym	aep0, aeq2 }
    3254:	fb7fb2861f 	{ ae_sp16f.l.iu	aep0, a6, 2; ae_roundsp24q48asym	aep6, aeq3 }
    3259:	fb63f4e41f 	{ ae_sp24f.l.iu	aep6, a4, 4; ae_roundsp16q48asym	aep7, aeq0 }
    325e:	fe24b2f51f 	{ ae_sp16f.l.iu	aep7, a5, 2; ae_zeroq56	aeq2 }
    3263:	f91756        	bnez	a7, 31f8 <analy_3band+0x30>
    3266:	03a9           	s32i.n	a10, a3, 0
    3268:	f01d           	retw.n

0000326a <analy_3band+0xa2>:
	...

0000326c <synth_3band>:
    326c:	004136        	entry	a1, 32
    326f:	c54b           	addi.n	a12, a5, 4
    3271:	f3f6c0        	wur.ae_cbegin0	a12
    3274:	f3df71        	l32r	a7, 1f0 (bce0 <sb_g10>)
    3277:	f3e081        	l32r	a8, 1f8 (bd60 <sb_h2ir_v2>)
    327a:	0025c2        	l32i	a12, a5, 0
    327d:	7cc5f2        	addi	a15, a5, 124
    3280:	0aa092        	movi	a9, 10
    3283:	fd248004af 	{ movi	a10, 4; ae_zeroq56	aeq1 }
    3288:	0fa0b2        	movi	a11, 15
    328b:	f3f7f0        	wur.ae_cend0	a15
    328e:	fc0c4fe22e 	{ addi	a2, a2, -2; ae_movq56	aeq0, aeq1 }
    3293:	fec332        	addi	a3, a3, -2
    3296:	fcc442        	addi	a4, a4, -4
    3299:	fec662        	addi	a6, a6, -2

0000329c <synth_3band+0x30>:
    329c:	408214        	ae_lp16f.iu	aep0, a2, 2
    329f:	409314        	ae_lp16f.iu	aep1, a3, 2
    32a2:	d9212df41f 	{ ae_lp16x2f.iu	aep7, a4, 4; ae_addsp24s	aep2, aep0, aep1 }
    32a7:	078184        	ae_subsp24s	aep0, aep0, aep1
    32aa:	1aa004        	ae_selp24.ll	aep0, aep2, aep0
    32ad:	fc24e40caf 	{ ae_sp16x2f.c	aep0, a12, a10; nop }
    32b2:	fc24e47caf 	{ ae_sp16x2f.c	aep7, a12, a10; nop }
    32b7:	441704        	ae_lp16x2f.i	aep1, a7, 0
    32ba:	440804        	ae_lp16x2f.i	aep0, a8, 0
    32bd:	168b76        	loop	a11, 32d7 <synth_3band+0x6b>
    32c0:	fc24daacaf 	{ ae_lp16x2f.c	aep2, a12, a10; nop }
    32c5:	e247dabcaf 	{ ae_lp16x2f.c	aep3, a12, a10; ae_mulafp24s.ll	aeq1, aep1, aep2 }
    32ca:	e2462d971f 	{ ae_lp16x2f.iu	aep1, a7, 4; ae_mulafp24s.hh	aeq0, aep1, aep2 }
    32cf:	010b94        	ae_mulsfp24s.hl	aeq1, aep0, aep3
    32d2:	e262ad881f 	{ ae_lp16x2f.iu	aep0, a8, 4; ae_mulafp24s.lh	aeq0, aep0, aep3 }

000032d7 <synth_3band+0x6b>:
    32d7:	f86b8ff99e 	{ addi	a9, a9, -1; ae_roundsp16q48asym	aep0, aeq1 }
    32dc:	f863f2861f 	{ ae_sp16f.l.iu	aep0, a6, 2; ae_roundsp16q48asym	aep1, aeq0 }
    32e1:	fd248c477e 	{ addi	a7, a7, -60; ae_zeroq56	aeq1 }
    32e6:	fc0c4c488e 	{ addi	a8, a8, -60; ae_movq56	aeq0, aeq1 }
    32eb:	429614        	ae_sp16f.l.iu	aep1, a6, 2
    32ee:	faa956        	bnez	a9, 329c <synth_3band+0x30>
    32f1:	05c9           	s32i.n	a12, a5, 0
    32f3:	f01d           	retw.n

000032f5 <synth_3band+0x89>:
    32f5:	000000                                        ...

000032f8 <biquad_2cascade_24bitTx>:
    32f8:	00a136        	entry	a1, 80
    32fb:	542304        	ae_lp24x2.i	aep2, a3, 0
    32fe:	541314        	ae_lp24x2.i	aep1, a3, 8
    3301:	540324        	ae_lp24x2.i	aep0, a3, 16
    3304:	6616a6        	blti	a6, 1, 336e <biquad_2cascade_24bitTx+0x76>
    3307:	18c472        	addi	a7, a4, 24
    330a:	543414        	ae_lp24x2.i	aep3, a4, 8
    330d:	545404        	ae_lp24x2.i	aep5, a4, 0
    3310:	546444        	ae_lp24x2.i	aep6, a4, 32
    3313:	547434        	ae_lp24x2.i	aep7, a4, 24
    3316:	563154        	ae_sp24x2s.i	aep3, a1, 40
    3319:	565144        	ae_sp24x2s.i	aep5, a1, 32
    331c:	545424        	ae_lp24x2.i	aep5, a4, 16
    331f:	543454        	ae_lp24x2.i	aep3, a4, 40
    3322:	566134        	ae_sp24x2s.i	aep6, a1, 24
    3325:	567124        	ae_sp24x2s.i	aep7, a1, 16
    3328:	fec542        	addi	a4, a5, -2
    332b:	fcc222        	addi	a2, a2, -4
    332e:	4c4764        	ae_lp24.i	aep4, a7, 24
    3331:	398676        	loop	a6, 336e <biquad_2cascade_24bitTx+0x76>
    3334:	547154        	ae_lp24x2.i	aep7, a1, 40
    3337:	f05eaee21f 	{ ae_lp24f.iu	aep6, a2, 4; ae_mulzaafp24s.hh.ll	aeq0, aep7, aep2 }
    333c:	dd59b0714f 	{ ae_lp24x2.i	aep7, a1, 32; ae_selp24.lh	aep2, aep6, aep2 }
    3341:	e25c30713f 	{ ae_lp24x2.i	aep7, a1, 24; ae_mulaafp24s.hh.ll	aeq0, aep7, aep2 }
    3346:	015184        	ae_mulsfp24s.hh	aeq0, aep5, aep1
    3349:	0551c4        	ae_mulssfp24s.hh.ll	aeq0, aep5, aep1
    334c:	f13ef0712f 	{ ae_lp24x2.i	aep7, a1, 16; ae_mulzaafp24s.hh.ll	aeq3, aep7, aep1 }
    3351:	1b8d64        	ae_roundsp24q48asym	aep6, aeq0
    3354:	1ae194        	ae_selp24.lh	aep1, aep6, aep1
    3357:	05f904        	ae_mulaafp24s.hh.ll	aeq3, aep7, aep1
    335a:	01b884        	ae_mulsfp24s.hh	aeq3, aep3, aep0
    335d:	05b8c4        	ae_mulssfp24s.hh.ll	aeq3, aep3, aep0
    3360:	1bbd64        	ae_roundsp24q48asym	aep6, aeq3
    3363:	f0d2be602f 	{ ae_selp24.lh	aep0, aep6, aep0; ae_mulzaafp24s.hh.ll	aeq0, aep4, aep6 }
    3368:	1b8f74        	ae_roundsp16q48asym	aep7, aeq0
    336b:	42f414        	ae_sp16f.l.iu	aep7, a4, 2

0000336e <biquad_2cascade_24bitTx+0x76>:
    336e:	562304        	ae_sp24x2s.i	aep2, a3, 0
    3371:	561314        	ae_sp24x2s.i	aep1, a3, 8
    3374:	560324        	ae_sp24x2s.i	aep0, a3, 16
    3377:	f01d           	retw.n

00003379 <biquad_2cascade_24bitTx+0x81>:
    3379:	000000                                        ...

0000337c <conv_24_to_16>:
    337c:	004136        	entry	a1, 32
    337f:	540c           	movi.n	a4, 5
    3381:	fcc332        	addi	a3, a3, -4
    3384:	f8c222        	addi	a2, a2, -8
    3387:	088476        	loop	a4, 3393 <conv_24_to_16+0x17>
    338a:	5c8214        	ae_lp24x2f.iu	aep0, a2, 8
    338d:	090184        	ae_roundsp16asym	aep0, aep0
    3390:	468314        	ae_sp16x2f.iu	aep0, a3, 4

00003393 <conv_24_to_16+0x17>:
    3393:	f01d           	retw.n

00003395 <conv_24_to_16+0x19>:
    3395:	000000                                        ...

00003398 <gain_after_ec>:
    3398:	00c136        	entry	a1, 96
    339b:	f33fb1        	l32r	a11, 98 (c3d4 <p_ecnr_mem>)
    339e:	3aa572        	movi	a7, 0x53a
    33a1:	05fd           	mov.n	a15, a5
    33a3:	0b88           	l32i.n	a8, a11, 0
    33a5:	04ed           	mov.n	a14, a4
    33a7:	a07770        	addx4	a7, a7, a7
    33aa:	fec342        	addi	a4, a3, -2
    33ad:	c169           	s32i.n	a6, a1, 48
    33af:	fece62        	addi	a6, a14, -2
    33b2:	410874        	ae_lp16f.x	aep0, a8, a7
    33b5:	fec592        	addi	a9, a5, -2
    33b8:	fec252        	addi	a5, a2, -2
    33bb:	b149           	s32i.n	a4, a1, 44
    33bd:	047d           	mov.n	a7, a4
    33bf:	a40c           	movi.n	a4, 10
    33c1:	d189           	s32i.n	a8, a1, 52
    33c3:	fec3c2        	addi	a12, a3, -2
    33c6:	fec2d2        	addi	a13, a2, -2
    33c9:	441e04        	ae_lp16x2f.i	aep1, a14, 0
    33cc:	e1e9           	s32i.n	a14, a1, 56
    33ce:	443f04        	ae_lp16x2f.i	aep3, a15, 0
    33d1:	0f61f2        	s32i	a15, a1, 60
    33d4:	20b990        	or	a11, a9, a9
    33d7:	20a660        	or	a10, a6, a6
    33da:	208550        	or	a8, a5, a5
    33dd:	598476        	loop	a4, 343a <gain_after_ec+0xa2>
    33e0:	eb21eccd1f 	{ ae_lp16f.iu	aep4, a13, 2; ae_mulfp24s.ll	aeq3, aep0, aep1 }
    33e5:	e820acac1f 	{ ae_lp16f.iu	aep2, a12, 2; ae_mulfp24s.hh	aeq0, aep0, aep1 }
    33ea:	ea61fab1cf 	{ ae_slliq56	aeq3, aeq3, 4; ae_mulfp24s.ll	aeq1, aep0, aep3 }
    33ef:	e960ba810f 	{ ae_slliq56	aeq0, aeq0, 4; ae_mulfp24s.hh	aeq2, aep0, aep3 }
    33f4:	eb81fa314f 	{ ae_sq56s.i	aeq3, a1, 32; ae_mulfp24s.ll	aeq3, aep0, aep4 }
    33f9:	ea41ba013f 	{ ae_sq56s.i	aeq0, a1, 24; ae_mulfp24s.ll	aeq0, aep0, aep2 }
    33fe:	355114        	ae_slliq56	aeq1, aeq1, 4
    3401:	631124        	ae_sq56s.i	aeq1, a1, 16
    3404:	357114        	ae_slliq56	aeq1, aeq3, 4
    3407:	61c134        	ae_lq56.i	aeq3, a1, 24
    340a:	fbfbbde14f 	{ ae_lq56.i	aeq3, a1, 32; ae_roundsp16q48sym	aep6, aeq3 }
    340f:	fbfbed9e1f 	{ ae_lp16x2f.iu	aep1, a14, 4; ae_roundsp16q48sym	aep7, aeq3 }
    3414:	fbebb2ea1f 	{ ae_sp16f.l.iu	aep6, a10, 2; ae_roundsp16q48sym	aep6, aeq1 }
    3419:	35a114        	ae_slliq56	aeq2, aeq2, 4
    341c:	faf3b2fa1f 	{ ae_sp16f.l.iu	aep7, a10, 2; ae_roundsp16q48sym	aep4, aeq2 }
    3421:	350114        	ae_slliq56	aeq0, aeq0, 4
    3424:	fbe3fde12f 	{ ae_lq56.i	aeq3, a1, 16; ae_roundsp16q48sym	aep7, aeq0 }
    3429:	fafbedbf1f 	{ ae_lp16x2f.iu	aep3, a15, 4; ae_roundsp16q48sym	aep5, aeq3 }
    342e:	42cb14        	ae_sp16f.l.iu	aep4, a11, 2
    3431:	42db14        	ae_sp16f.l.iu	aep5, a11, 2
    3434:	42e814        	ae_sp16f.l.iu	aep6, a8, 2
    3437:	42f714        	ae_sp16f.l.iu	aep7, a7, 2

0000343a <gain_after_ec+0xa2>:
    343a:	c178           	l32i.n	a7, a1, 48
    343c:	f188           	l32i.n	a8, a1, 60
    343e:	e1a8           	l32i.n	a10, a1, 56
    3440:	d1f8           	l32i.n	a15, a1, 52
    3442:	b148           	l32i.n	a4, a1, 44
    3444:	7c1766        	bnei	a7, 1, 34c4 <gain_after_ec+0x12c>
    3447:	45a3b2        	movi	a11, 0x345
    344a:	ac2c           	movi.n	a12, 42
    344c:	26a0d2        	movi	a13, 38
    344f:	89a6e2        	movi	a14, 0x689
    3452:	0aa072        	movi	a7, 10
    3455:	fec222        	addi	a2, a2, -2
    3458:	11bbd0        	slli	a11, a11, 3
    345b:	440a04        	ae_lp16x2f.i	aep0, a10, 0
    345e:	441804        	ae_lp16x2f.i	aep1, a8, 0
    3461:	1adcc2        	addmi	a12, a12, 0x1a00
    3464:	1addd2        	addmi	a13, a13, 0x1a00
    3467:	11eee0        	slli	a14, a14, 2
    346a:	fec332        	addi	a3, a3, -2
    346d:	538776        	loop	a7, 34c4 <gain_after_ec+0x12c>
    3470:	414fc4        	ae_lp16f.x	aep4, a15, a12
    3473:	e81099dfdf 	{ ae_lp16f.x	aep5, a15, a13; ae_mulfp24s.hh	aeq0, aep4, aep0 }
    3478:	ea11eca21f 	{ ae_lp16f.iu	aep2, a2, 2; ae_mulfp24s.ll	aeq1, aep4, aep0 }
    347d:	e934ba802f 	{ ae_slliq56	aeq0, aeq0, 2; ae_mulfp24s.hh	aeq2, aep5, aep1 }
    3482:	eb35fa906f 	{ ae_slliq56	aeq1, aeq1, 2; ae_mulfp24s.ll	aeq3, aep5, aep1 }
    3487:	fae3ecb31f 	{ ae_lp16f.iu	aep3, a3, 2; ae_roundsp16q48sym	aep5, aeq0 }
    348c:	fbebad8a1f 	{ ae_lp16x2f.iu	aep0, a10, 4; ae_roundsp16q48sym	aep6, aeq1 }
    3491:	42d614        	ae_sp16f.l.iu	aep5, a6, 2
    3494:	42e614        	ae_sp16f.l.iu	aep6, a6, 2
    3497:	35a094        	ae_slliq56	aeq2, aeq2, 2
    349a:	fbf3d9cfef 	{ ae_lp16f.x	aep4, a15, a14; ae_roundsp16q48sym	aep7, aeq2 }
    349f:	eb5199efbf 	{ ae_lp16f.x	aep6, a15, a11; ae_mulfp24s.ll	aeq2, aep4, aep2 }
    34a4:	eb79fab02f 	{ ae_slliq56	aeq0, aeq3, 2; ae_mulfp24s.ll	aeq3, aep6, aep3 }
    34a9:	fae3faa06f 	{ ae_slliq56	aeq1, aeq2, 2; ae_roundsp16q48sym	aep5, aeq0 }
    34ae:	fbebbab0ef 	{ ae_slliq56	aeq3, aeq3, 2; ae_roundsp16q48sym	aep6, aeq1 }
    34b3:	449814        	ae_lp16x2f.iu	aep1, a8, 4
    34b6:	fbfbf2f91f 	{ ae_sp16f.l.iu	aep7, a9, 2; ae_roundsp16q48sym	aep7, aeq3 }
    34bb:	42d914        	ae_sp16f.l.iu	aep5, a9, 2
    34be:	42e514        	ae_sp16f.l.iu	aep6, a5, 2
    34c1:	42f414        	ae_sp16f.l.iu	aep7, a4, 2

000034c4 <gain_after_ec+0x12c>:
    34c4:	f01d           	retw.n

000034c6 <gain_after_ec+0x12e>:
	...

000034c8 <adjust_phase>:
    34c8:	004136        	entry	a1, 32
    34cb:	300334        	ae_cvtp24a16x2.ll	aep0, a3, a3
    34ce:	360234        	ae_cvtq48a32s	aeq0, a2
    34d1:	a10004        	ae_mulzaafq32sp16s.ll	aeq0, aeq0, aep0, aeq0, aep0
    34d4:	1b8f04        	ae_roundsp16q48asym	aep0, aeq0
    34d7:	0002d4        	ae_cvta32p24.l	a2, aep0
    34da:	f01d           	retw.n

000034dc <adjust_bib_state>:
    34dc:	004136        	entry	a1, 32
    34df:	840c           	movi.n	a4, 8
    34e1:	fcc232        	addi	a3, a2, -4
    34e4:	600204        	ae_lq32f.i	aeq0, a2, 0
    34e7:	0a8476        	loop	a4, 34f5 <adjust_bib_state+0x19>
    34ea:	350074        	ae_sraiq56	aeq0, aeq0, 1
    34ed:	f867bd121f 	{ ae_lq32f.iu	aeq0, a2, 4; ae_roundsp24q48asym	aep0, aeq0 }
    34f2:	528314        	ae_sp24f.l.iu	aep0, a3, 4

000034f5 <adjust_bib_state+0x19>:
    34f5:	f01d           	retw.n

000034f7 <adjust_bib_state+0x1b>:
	...

000034f8 <aec_post_prcs>:
    34f8:	004136        	entry	a1, 32
    34fb:	4aa152        	movi	a5, 0x14a
    34fe:	4ca162        	movi	a6, 0x14c
    3501:	28c2f2        	addi	a15, a2, 40
    3504:	411254        	ae_lp16f.x	aep1, a2, a5
    3507:	412264        	ae_lp16f.x	aep2, a2, a6
    350a:	1512d2        	l16ui	a13, a2, 42
    350d:	ea458fffcf 	{ movi	a12, -1; ae_mulfp24s.ll	aeq0, aep1, aep2 }
    3512:	1492e2        	l16si	a14, a2, 40
    3515:	f867ec3f0f 	{ ae_lp16f.i	aep3, a15, 0; ae_roundsp24q48asym	aep1, aeq0 }
    351a:	302dd4        	ae_cvtp24a16x2.ll	aep2, a13, a13
    351d:	1552e2        	s16i	a14, a2, 42
    3520:	dd4ec0102f 	{ movi	a2, 16; ae_subsp24s	aep3, aep3, aep2 }
    3525:	4159c0        	srli	a5, a12, 9
    3528:	cd2c62055f 	{ ae_movpa24x2	aep0, a5, a5; ae_sraip24	aep3, aep3, 4 }
    352d:	0fa052        	movi	a5, 15
    3530:	fec442        	addi	a4, a4, -2
    3533:	404304        	ae_lp16f.i	aep4, a3, 0

00003536 <aec_post_prcs+0x3e>:
    3536:	07a324        	ae_addsp24s	aep2, aep2, aep3
    3539:	0782d4        	ae_subsp24s	aep5, aep0, aep2
    353c:	015174        	ae_mulfp24s.ll	aeq0, aep5, aep1
    353f:	350094        	ae_slliq56	aeq0, aeq0, 2
    3542:	060934        	ae_roundsq32asym	aeq0, aeq0
    3545:	128576        	loop	a5, 355b <aec_post_prcs+0x63>
    3548:	ea89ecf41f 	{ ae_lp16f.iu	aep7, a4, 2; ae_mulfp24s.ll	aeq1, aep2, aep4 }
    354d:	fd2c6cc31f 	{ ae_lp16f.iu	aep4, a3, 2; ae_roundsq32asym	aeq1, aeq1 }
    3552:	037814        	ae_mulafq32sp16s.l	aeq1, aeq0, aep7
    3555:	1b9f54        	ae_roundsp16q48asym	aep5, aeq1
    3558:	4253f4        	ae_sp16f.l.i	aep5, a3, -2

0000355b <aec_post_prcs+0x63>:
    355b:	220b           	addi.n	a2, a2, -1
    355d:	fd5256        	bnez	a2, 3536 <aec_post_prcs+0x3e>
    3560:	f01d           	retw.n

00003562 <aec_post_prcs+0x6a>:
	...

00003564 <AVC_prcs>:
    3564:	004136        	entry	a1, 32
    3567:	fc2480784f 	{ movi	a4, 120; ae_zeroq56	aeq0 }
    356c:	440304        	ae_lp16x2f.i	aep0, a3, 0
    356f:	048476        	loop	a4, 3577 <AVC_prcs+0x13>
    3572:	e2002d831f 	{ ae_lp16x2f.iu	aep0, a3, 4; ae_mulaafp24s.hh.ll	aeq0, aep0, aep0 }

00003577 <AVC_prcs+0x13>:
    3577:	3501f4        	ae_sraiq56	aeq0, aeq0, 7
    357a:	f32031        	l32r	a3, 1fc (11111 <_end+0x4d31>)
    357d:	fc2462033f 	{ ae_movpa24x2	aep0, a3, a3; ae_roundsq32asym	aeq0, aeq0 }
    3582:	f8800000af 	{ movi	a10, 0; ae_mulfq32sp24s.l	aeq0, aeq0, aep0 }
    3587:	f2c331        	l32r	a3, 94 (680 <HIFI_sqrt>)
    358a:	3501d4        	ae_slliq56	aeq0, aeq0, 7
    358d:	060934        	ae_roundsq32asym	aeq0, aeq0
    3590:	368b04        	ae_trunca32q48	a11, aeq0
    3593:	0003e0        	callx8	a3
    3596:	364b34        	ae_cvtq48a32s	aeq1, a11
    3599:	440204        	ae_lp16x2f.i	aep0, a2, 0
    359c:	600224        	ae_lq32f.i	aeq0, a2, 8
    359f:	fc24fe9a4f 	{ ae_slaasq56s	aeq1, aeq1, a10; nop }
    35a4:	0c0120223e 	{ l16si	a3, a2, 4; ae_mulzaafq32sp16s.lh	aeq0, aeq1, aep0, aeq0, aep0 }
    35a9:	060934        	ae_roundsq32asym	aeq0, aeq0
    35ac:	11b300        	slli	a11, a3, 16
    35af:	368a04        	ae_trunca32q48	a10, aeq0
    35b2:	f30331        	l32r	a3, 1c0 (87f4 <airoha_divide>)
    35b5:	22a9           	s32i.n	a10, a2, 8
    35b7:	0003e0        	callx8	a3
    35ba:	feca42        	addi	a4, a10, -2
    35bd:	360b34        	ae_cvtq48a32s	aeq0, a11
    35c0:	fc24fe840f 	{ ae_slaasq56s	aeq0, aeq0, a4; nop }
    35c5:	f86380013f 	{ movi	a3, 1; ae_roundsp16q48asym	aep0, aeq0 }
    35ca:	360f24        	ae_trunca16p24s.l	a15, aep0
    35cd:	039222        	l16si	a2, a2, 6
    35d0:	113330        	slli	a3, a3, 13
    35d3:	533f30        	max	a3, a15, a3
    35d6:	432320        	min	a2, a3, a2
    35d9:	f01d           	retw.n

000035db <AVC_prcs+0x77>:
	...

000035dc <gain_ref>:
    35dc:	004136        	entry	a1, 32
    35df:	2514a6        	blti	a4, 1, 3608 <gain_ref+0x2c>
    35e2:	fcc222        	addi	a2, a2, -4
    35e5:	300334        	ae_cvtp24a16x2.ll	aep0, a3, a3
    35e8:	449214        	ae_lp16x2f.iu	aep1, a2, 4
    35eb:	f03d           	nop.n
    35ed:	178476        	loop	a4, 3608 <gain_ref+0x2c>
    35f0:	011054        	ae_mulfp24s.hl	aeq0, aep1, aep0
    35f3:	ea05ed921f 	{ ae_lp16x2f.iu	aep1, a2, 4; ae_mulfp24s.ll	aeq1, aep1, aep0 }
    35f8:	350094        	ae_slliq56	aeq0, aeq0, 2
    35fb:	f963ba906f 	{ ae_slliq56	aeq1, aeq1, 2; ae_roundsp16q48asym	aep2, aeq0 }
    3600:	f96bf222ef 	{ ae_sp16f.l.i	aep2, a2, -4; ae_roundsp16q48asym	aep3, aeq1 }
    3605:	4232f4        	ae_sp16f.l.i	aep3, a2, -2

00003608 <gain_ref+0x2c>:
    3608:	f01d           	retw.n

0000360a <gain_ref+0x2e>:
	...

0000360c <TxRef_VAD>:
    360c:	006136        	entry	a1, 48
    360f:	f0a052        	movi	a5, 240
    3612:	00a042        	movi	a4, 0
    3615:	088576        	loop	a5, 3621 <TxRef_VAD+0x15>
    3618:	235d           	ae_l16si.n	a5, a3, 0
    361a:	332b           	addi.n	a3, a3, 2
    361c:	605150        	abs	a5, a5
    361f:	454a           	add.n	a4, a5, a4

00003621 <TxRef_VAD+0x15>:
    3621:	f57c           	movi.n	a5, -1
    3623:	015510        	slli	a5, a5, 31
    3626:	04bc           	beqz.n	a4, 365a <TxRef_VAD+0x4e>
    3628:	40e430        	nsa	a3, a4
    362b:	761c           	movi.n	a6, 23
    362d:	401300        	ssl	a3
    3630:	c0b630        	sub	a11, a6, a3
    3633:	f2d131        	l32r	a3, 178 (6d8 <Log2_norm>)
    3636:	a1a400        	sll	a10, a4
    3639:	0003e0        	callx8	a3
    363c:	d1a432        	movi	a3, 0x4d1
    363f:	1133c0        	slli	a3, a3, 4
    3642:	b26a30        	mulsh	a6, a10, a3
    3645:	823a30        	mull	a3, a10, a3
    3648:	d1a442        	movi	a4, 0x4d1
    364b:	1144f0        	slli	a4, a4, 1
    364e:	f35a           	add.n	a15, a3, a5
    3650:	464a           	add.n	a4, a6, a4
    3652:	623f30        	saltu	a3, a15, a3
    3655:	334a           	add.n	a3, a3, a4
    3657:	000046        	j	365c <TxRef_VAD+0x50>

0000365a <TxRef_VAD+0x4e>:
    365a:	030c           	movi.n	a3, 0
    365c:	039262        	l16si	a6, a2, 6
    365f:	049272        	l16si	a7, a2, 8
    3662:	029242        	l16si	a4, a2, 4
    3665:	11e600        	slli	a14, a6, 16
    3668:	11f700        	slli	a15, a7, 16
    366b:	306650        	xor	a6, a6, a5
    366e:	307750        	xor	a7, a7, a5
    3671:	533340        	max	a3, a3, a4
    3674:	c046e0        	sub	a4, a6, a14
    3677:	c067f0        	sub	a6, a7, a15
    367a:	2149           	s32i.n	a4, a1, 8
    367c:	3169           	s32i.n	a6, a1, 12
    367e:	418b           	addi.n	a4, a1, 8
    3680:	42a8           	l32i.n	a10, a2, 16
    3682:	f29861        	l32r	a6, e4 (49cc <siir_safr>)
    3685:	03bd           	mov.n	a11, a3
    3687:	04cd           	mov.n	a12, a4
    3689:	0006e0        	callx8	a6
    368c:	059272        	l16si	a7, a2, 10
    368f:	069282        	l16si	a8, a2, 12
    3692:	42a9           	s32i.n	a10, a2, 16
    3694:	119700        	slli	a9, a7, 16
    3697:	307750        	xor	a7, a7, a5
    369a:	30f850        	xor	a15, a8, a5
    369d:	118800        	slli	a8, a8, 16
    36a0:	52a8           	l32i.n	a10, a2, 20
    36a2:	c07790        	sub	a7, a7, a9
    36a5:	c05f80        	sub	a5, a15, a8
    36a8:	03bd           	mov.n	a11, a3
    36aa:	04cd           	mov.n	a12, a4
    36ac:	2179           	s32i.n	a7, a1, 8
    36ae:	3159           	s32i.n	a5, a1, 12
    36b0:	0006e0        	callx8	a6
    36b3:	4238           	l32i.n	a3, a2, 16
    36b5:	224d           	ae_l16si.n	a4, a2, 0
    36b7:	52a9           	s32i.n	a10, a2, 20
    36b9:	0c1272        	l16ui	a7, a2, 24
    36bc:	334a           	add.n	a3, a3, a4
    36be:	04a3a7        	bge	a3, a10, 36c6 <TxRef_VAD+0xba>
    36c1:	130c           	movi.n	a3, 1
    36c3:	000386        	j	36d5 <TxRef_VAD+0xc9>

000036c6 <TxRef_VAD+0xba>:
    36c6:	0d9242        	l16si	a4, a2, 26
    36c9:	073d           	mov.n	a3, a7
    36cb:	0b1766        	bnei	a7, 1, 36da <TxRef_VAD+0xce>
    36ce:	325d           	ae_l16si.n	a5, a2, 2
    36d0:	06a547        	bge	a5, a4, 36da <TxRef_VAD+0xce>
    36d3:	030c           	movi.n	a3, 0
    36d5:	6239           	s32i.n	a3, a2, 24
    36d7:	000106        	j	36df <TxRef_VAD+0xd3>

000036da <TxRef_VAD+0xce>:
    36da:	441b           	addi.n	a4, a4, 1
    36dc:	0d5242        	s16i	a4, a2, 26
    36df:	832d           	ae_sext16	a2, a3
    36e1:	f01d           	retw.n

000036e3 <TxRef_VAD+0xd7>:
	...

000036e4 <Voice_WB_TX_Prcs>:
    36e4:	02e136        	entry	a1, 0x170
    36e7:	f26cf1        	l32r	a15, 98 (c3d4 <p_ecnr_mem>)
    36ea:	176132        	s32i	a3, a1, 92
    36ed:	2a6152        	s32i	a5, a1, 168
    36f0:	0f78           	l32i.n	a7, a15, 0
    36f2:	f2bb51        	l32r	a5, 1e0 (c3d8 <avc_vol>)
    36f5:	166172        	s32i	a7, a1, 88
    36f8:	3dd732        	addmi	a3, a7, 0x3d00
    36fb:	681332        	l16ui	a3, a3, 208
    36fe:	70d792        	addmi	a9, a7, 0x7000
    3701:	bfa282        	movi	a8, 0x2bf
    3704:	13cc           	bnez.n	a3, 3709 <Voice_WB_TX_Prcs+0x25>
    3706:	0307c6        	j	4329 <Voice_WB_TX_Prcs+0xc45>
    3709:	721992        	l16ui	a9, a9, 228
    370c:	1158c0        	slli	a5, a8, 4
    370f:	1ad782        	addmi	a8, a7, 0x1a00
    3712:	182832        	l32i	a3, a8, 96
    3715:	172882        	l32i	a8, a8, 92
    3718:	575a           	add.n	a5, a7, a5
    371a:	a3a1f2        	movi	a15, 0x1a3
    371d:	376162        	s32i	a6, a1, 220
    3720:	116fc0        	slli	a6, a15, 4
    3723:	246182        	s32i	a8, a1, 144
    3726:	256132        	s32i	a3, a1, 148
    3729:	1f6152        	s32i	a5, a1, 124
    372c:	1e6122        	s32i	a2, a1, 120
    372f:	1d6142        	s32i	a4, a1, 116
    3732:	04b916        	beqz	a9, 3781 <Voice_WB_TX_Prcs+0x9d>
    3735:	e4a082        	movi	a8, 228
    3738:	70d882        	addmi	a8, a8, 0x7000
    373b:	a78a           	add.n	a10, a7, a8
    373d:	f2b081        	l32r	a8, 200 (360c <TxRef_VAD>)
    3740:	04bd           	mov.n	a11, a4
    3742:	0008e0        	callx8	a8
    3745:	f25471        	l32r	a7, 98 (c3d4 <p_ecnr_mem>)
    3748:	172152        	l32i	a5, a1, 92
    374b:	0788           	l32i.n	a8, a7, 0
    374d:	1ad892        	addmi	a9, a8, 0x1a00
    3750:	181992        	l16ui	a9, a9, 48
    3753:	486a           	add.n	a4, a8, a6
    3755:	89bd           	ae_sext16	a11, a9
    3757:	06ba16        	beqz	a10, 37c6 <Voice_WB_TX_Prcs+0xe2>

0000375a <Voice_WB_TX_Prcs+0x76>:
    375a:	89ad           	ae_sext16	a10, a9
    375c:	1c6c           	movi.n	a12, -31
    375e:	082ac7        	blt	a10, a12, 376a <Voice_WB_TX_Prcs+0x86>
    3761:	9b0b           	addi.n	a9, a11, -1
    3763:	fa7c           	movi.n	a10, -1
    3765:	4399a0        	min	a9, a9, a10
    3768:	649d           	ae_s16i.n	a9, a4, 0
    376a:	162122        	l32i	a2, a1, 88
    376d:	ffa1b2        	movi	a11, 0x1ff
    3770:	3cd222        	addmi	a2, a2, 0x3c00
    3773:	5c92a2        	l16si	a10, a2, 184
    3776:	5a2ba7        	blt	a11, a10, 37d4 <Voice_WB_TX_Prcs+0xf0>
    3779:	aa1b           	addi.n	a10, a10, 1
    377b:	5c52a2        	s16i	a10, a2, 184
    377e:	001486        	j	37d4 <Voice_WB_TX_Prcs+0xf0>

00003781 <Voice_WB_TX_Prcs+0x9d>:
    3781:	85a682        	movi	a8, 0x685
    3784:	172152        	l32i	a5, a1, 92
    3787:	1188e0        	slli	a8, a8, 2
    378a:	690c           	movi.n	a9, 6
    378c:	878a           	add.n	a8, a7, a8
    378e:	058976        	loop	a9, 3797 <Voice_WB_TX_Prcs+0xb3>
    3791:	389d           	ae_l16si.n	a9, a8, 2
    3793:	689d           	ae_s16i.n	a9, a8, 0
    3795:	882b           	addi.n	a8, a8, 2

00003797 <Voice_WB_TX_Prcs+0xb3>:
    3797:	162172        	l32i	a7, a1, 88
    379a:	ffa3c2        	movi	a12, 0x3ff
    379d:	1ad792        	addmi	a9, a7, 0x1a00
    37a0:	199992        	l16si	a9, a9, 50
    37a3:	70d7a2        	addmi	a10, a7, 0x7000
    37a6:	1ad7b2        	addmi	a11, a7, 0x1a00
    37a9:	119990        	slli	a9, a9, 7
    37ac:	689d           	ae_s16i.n	a9, a8, 0
    37ae:	361a82        	l16ui	a8, a10, 108
    37b1:	189bb2        	l16si	a11, a11, 48
    37b4:	476a           	add.n	a4, a7, a6
    37b6:	908870        	addx2	a8, a8, a7
    37b9:	1ad882        	addmi	a8, a8, 0x1a00
    37bc:	0a98f2        	l16si	a15, a8, 20
    37bf:	078d           	mov.n	a8, a7
    37c1:	0b9d           	mov.n	a9, a11
    37c3:	932cf7        	blt	a12, a15, 375a <Voice_WB_TX_Prcs+0x76>

000037c6 <Voice_WB_TX_Prcs+0xe2>:
    37c6:	89ad           	ae_sext16	a10, a9
    37c8:	08cae6        	bgei	a10, 32, 37d4 <Voice_WB_TX_Prcs+0xf0>
    37cb:	9b1b           	addi.n	a9, a11, 1
    37cd:	1a0c           	movi.n	a10, 1
    37cf:	5399a0        	max	a9, a9, a10
    37d2:	649d           	ae_s16i.n	a9, a4, 0
    37d4:	162172        	l32i	a7, a1, 88
    37d7:	91a722        	movi	a2, 0x791
    37da:	1122d0        	slli	a2, a2, 3
    37dd:	272a           	add.n	a2, a7, a2
    37df:	e5a642        	movi	a4, 0x6e5
    37e2:	236122        	s32i	a2, a1, 140
    37e5:	1124d0        	slli	a2, a4, 3
    37e8:	896d           	ae_sext16	a6, a9
    37ea:	272a           	add.n	a2, a7, a2
    37ec:	cda392        	movi	a9, 0x3cd
    37ef:	2c6122        	s32i	a2, a1, 176
    37f2:	1129c0        	slli	a2, a9, 4
    37f5:	d1a3d2        	movi	a13, 0x3d1
    37f8:	0da6b2        	movi	a11, 0x60d
    37fb:	272a           	add.n	a2, a7, a2
    37fd:	11ddc0        	slli	a13, a13, 4
    3800:	536162        	s32i	a6, a1, 0x14c
    3803:	3cd732        	addmi	a3, a7, 0x3c00
    3806:	060c           	movi.n	a6, 0
    3808:	3dd7e2        	addmi	a14, a7, 0x3d00
    380b:	d5a3a2        	movi	a10, 0x3d5
    380e:	11bbe0        	slli	a11, a11, 2
    3811:	516122        	s32i	a2, a1, 0x144
    3814:	1f2122        	l32i	a2, a1, 124
    3817:	119ac0        	slli	a9, a10, 4
    381a:	d9a3a2        	movi	a10, 0x3d9
    381d:	c8ba           	add.n	a12, a8, a11
    381f:	d7da           	add.n	a13, a7, a13
    3821:	70d8b2        	addmi	a11, a8, 0x7000
    3824:	3a6362        	s32i	a6, a3, 232
    3827:	3b6362        	s32i	a6, a3, 236
    382a:	ae69           	s32i.n	a6, a14, 40
    382c:	be69           	s32i.n	a6, a14, 44
    382e:	5a6362        	s32i	a6, a3, 0x168
    3831:	5b6362        	s32i	a6, a3, 0x16c
    3834:	3dd742        	addmi	a4, a7, 0x3d00
    3837:	6a6362        	s32i	a6, a3, 0x1a8
    383a:	6b6362        	s32i	a6, a3, 0x1ac
    383d:	3dd7f2        	addmi	a15, a7, 0x3d00
    3840:	336132        	s32i	a3, a1, 204
    3843:	5061d2        	s32i	a13, a1, 0x140
    3846:	371bd2        	l16ui	a13, a11, 110
    3849:	11aac0        	slli	a10, a10, 4
    384c:	f26e31        	l32r	a3, 204 (2f9c <mic240_delay>)
    384f:	1d21b2        	l32i	a11, a1, 116
    3852:	5261e2        	s32i	a14, a1, 0x148
    3855:	3461f2        	s32i	a15, a1, 208
    3858:	f7aa           	add.n	a15, a7, a10
    385a:	e79a           	add.n	a14, a7, a9
    385c:	02ad           	mov.n	a10, a2
    385e:	356142        	s32i	a4, a1, 212
    3861:	4f61e2        	s32i	a14, a1, 0x13c
    3864:	4e61f2        	s32i	a15, a1, 0x138
    3867:	0003e0        	callx8	a3
    386a:	f20f31        	l32r	a3, a8 (9a44 <xt_memset>)
    386d:	20c1a2        	addi	a10, a1, 32
    3870:	0b0c           	movi.n	a11, 0
    3872:	ac0c           	movi.n	a12, 10
    3874:	0003e0        	callx8	a3
    3877:	38d732        	addmi	a3, a7, 0x3800
    387a:	bda1b2        	movi	a11, 0x1bd
    387d:	28c142        	addi	a4, a1, 40
    3880:	8da3f2        	movi	a15, 0x38d
    3883:	91a382        	movi	a8, 0x391
    3886:	95a392        	movi	a9, 0x395
    3889:	99a3a2        	movi	a10, 0x399
    388c:	4d6142        	s32i	a4, a1, 0x134
    388f:	3fd7d2        	addmi	a13, a7, 0x3f00
    3892:	2cc1e2        	addi	a14, a1, 44
    3895:	114fc0        	slli	a4, a15, 4
    3898:	565362        	s16i	a6, a3, 172
    389b:	11bbb0        	slli	a11, a11, 5
    389e:	7da362        	movi	a6, 0x37d
    38a1:	1188c0        	slli	a8, a8, 4
    38a4:	1199c0        	slli	a9, a9, 4
    38a7:	11aac0        	slli	a10, a10, 4
    38aa:	f7a6c2        	movi	a12, 0x6f7
    38ad:	b1a3f2        	movi	a15, 0x3b1
    38b0:	4c61d2        	s32i	a13, a1, 0x130
    38b3:	9da3d2        	movi	a13, 0x39d
    38b6:	2961e2        	s32i	a14, a1, 164
    38b9:	a7a3e2        	movi	a14, 0x3a7
    38bc:	366132        	s32i	a3, a1, 216
    38bf:	1136c0        	slli	a3, a6, 4
    38c2:	674a           	add.n	a6, a7, a4
    38c4:	47ba           	add.n	a4, a7, a11
    38c6:	878a           	add.n	a8, a7, a8
    38c8:	979a           	add.n	a9, a7, a9
    38ca:	a7aa           	add.n	a10, a7, a10
    38cc:	426142        	s32i	a4, a1, 0x108
    38cf:	24c1b2        	addi	a11, a1, 36
    38d2:	48c142        	addi	a4, a1, 72
    38d5:	11ccd0        	slli	a12, a12, 3
    38d8:	11ddc0        	slli	a13, a13, 4
    38db:	11eec0        	slli	a14, a14, 4
    38de:	11ffc0        	slli	a15, a15, 4
    38e1:	4b6162        	s32i	a6, a1, 0x12c
    38e4:	67ca           	add.n	a6, a7, a12
    38e6:	4a6182        	s32i	a8, a1, 0x128
    38e9:	87da           	add.n	a8, a7, a13
    38eb:	496192        	s32i	a9, a1, 0x124
    38ee:	97ea           	add.n	a9, a7, a14
    38f0:	4861a2        	s32i	a10, a1, 0x120
    38f3:	a7fa           	add.n	a10, a7, a15
    38f5:	4761b2        	s32i	a11, a1, 0x11c
    38f8:	39d7c2        	addmi	a12, a7, 0x3900
    38fb:	39d7d2        	addmi	a13, a7, 0x3900
    38fe:	39d7e2        	addmi	a14, a7, 0x3900
    3901:	39d7f2        	addmi	a15, a7, 0x3900
    3904:	406142        	s32i	a4, a1, 0x100
    3907:	37d7b2        	addmi	a11, a7, 0x3700
    390a:	3bd742        	addmi	a4, a7, 0x3b00
    390d:	373a           	add.n	a3, a7, a3
    390f:	416162        	s32i	a6, a1, 0x104
    3912:	276182        	s32i	a8, a1, 156
    3915:	326192        	s32i	a9, a1, 200
    3918:	3161a2        	s32i	a10, a1, 196
    391b:	4661c2        	s32i	a12, a1, 0x118
    391e:	4561d2        	s32i	a13, a1, 0x114
    3921:	4461e2        	s32i	a14, a1, 0x110
    3924:	1961f2        	s32i	a15, a1, 100
    3927:	50c162        	addi	a6, a1, 80
    392a:	37d782        	addmi	a8, a7, 0x3700
    392d:	37d792        	addmi	a9, a7, 0x3700
    3930:	37d7a2        	addmi	a10, a7, 0x3700
    3933:	2161b2        	s32i	a11, a1, 132
    3936:	37d7c2        	addmi	a12, a7, 0x3700
    3939:	37d7d2        	addmi	a13, a7, 0x3700
    393c:	38d7e2        	addmi	a14, a7, 0x3800
    393f:	3ad7f2        	addmi	a15, a7, 0x3a00
    3942:	226142        	s32i	a4, a1, 136
    3945:	05a3b2        	movi	a11, 0x305
    3948:	1e2142        	l32i	a4, a1, 120
    394b:	386132        	s32i	a3, a1, 224
    394e:	3f6162        	s32i	a6, a1, 252
    3951:	3e6182        	s32i	a8, a1, 248
    3954:	3d6192        	s32i	a9, a1, 244
    3957:	3c61a2        	s32i	a10, a1, 240
    395a:	2b61c2        	s32i	a12, a1, 172
    395d:	2061d2        	s32i	a13, a1, 128
    3960:	3b61e2        	s32i	a14, a1, 236
    3963:	2861f2        	s32i	a15, a1, 160
    3966:	37d762        	addmi	a6, a7, 0x3700
    3969:	3bd782        	addmi	a8, a7, 0x3b00
    396c:	30c1a2        	addi	a10, a1, 48
    396f:	113bc0        	slli	a3, a11, 4
    3972:	0c0c           	movi.n	a12, 0
    3974:	0d0c           	movi.n	a13, 0
    3976:	0e0c           	movi.n	a14, 0
    3978:	0f0c           	movi.n	a15, 0
    397a:	070c           	movi.n	a7, 0
    397c:	306162        	s32i	a6, a1, 192
    397f:	2f6182        	s32i	a8, a1, 188
    3982:	3a6192        	s32i	a9, a1, 232
    3985:	3961a2        	s32i	a10, a1, 228
    3988:	266132        	s32i	a3, a1, 152
    398b:	1861c2        	s32i	a12, a1, 96
    398e:	1c61d2        	s32i	a13, a1, 112
    3991:	1a61e2        	s32i	a14, a1, 104
    3994:	1b61f2        	s32i	a15, a1, 108
    3997:	006606        	j	3b33 <Voice_WB_TX_Prcs+0x44f>

0000399a <Voice_WB_TX_Prcs+0x2b6>:
    399a:	189662        	l16si	a6, a6, 48
    399d:	070c           	movi.n	a7, 0
    399f:	3429c2        	l32i	a12, a9, 208
    39a2:	799dd2        	l16si	a13, a13, 242
    39a5:	21e9           	s32i.n	a14, a1, 8
    39a7:	1179           	s32i.n	a7, a1, 4
    39a9:	0169           	s32i.n	a6, a1, 0
    39ab:	0e91f2        	l16si	a15, a1, 28
    39ae:	2721b2        	l32i	a11, a1, 156
    39b1:	f22361        	l32r	a6, 240 (5568 <beam2_proc>)
    39b4:	8e1c           	movi.n	a14, 24
    39b6:	03ad           	mov.n	a10, a3
    39b8:	0006e0        	callx8	a6
    39bb:	182122        	l32i	a2, a1, 96
    39be:	2e2182        	l32i	a8, a1, 184
    39c1:	202152        	l32i	a5, a1, 128
    39c4:	2821e2        	l32i	a14, a1, 160
    39c7:	2d2192        	l32i	a9, a1, 180
    39ca:	1b21f2        	l32i	a15, a1, 108
    39cd:	228a           	add.n	a2, a2, a8
    39cf:	186122        	s32i	a2, a1, 96
    39d2:	29fa           	add.n	a2, a9, a15
    39d4:	ffa0f2        	movi	a15, 255
    39d7:	1e2ec2        	l32i	a12, a14, 120
    39da:	7b95d2        	l16si	a13, a5, 246
    39dd:	3221b2        	l32i	a11, a1, 200
    39e0:	380c           	movi.n	a8, 3
    39e2:	8e1c           	movi.n	a14, 24
    39e4:	03ad           	mov.n	a10, a3
    39e6:	7fdff2        	addmi	a15, a15, 0x7f00
    39e9:	091c           	movi.n	a9, 16
    39eb:	2189           	s32i.n	a8, a1, 8
    39ed:	1179           	s32i.n	a7, a1, 4
    39ef:	1b6122        	s32i	a2, a1, 108
    39f2:	0199           	s32i.n	a9, a1, 0
    39f4:	0006e0        	callx8	a6
    39f7:	222122        	l32i	a2, a1, 136
    39fa:	480c           	movi.n	a8, 4
    39fc:	7c95d2        	l16si	a13, a5, 248
    39ff:	62c8           	l32i.n	a12, a2, 24
    3a01:	2189           	s32i.n	a8, a1, 8
    3a03:	1179           	s32i.n	a7, a1, 4
    3a05:	067d           	mov.n	a7, a6
    3a07:	312162        	l32i	a6, a1, 196
    3a0a:	ffa0f2        	movi	a15, 255
    3a0d:	091c           	movi.n	a9, 16
    3a0f:	9e1c           	movi.n	a14, 25
    3a11:	03ad           	mov.n	a10, a3
    3a13:	06bd           	mov.n	a11, a6
    3a15:	7fdff2        	addmi	a15, a15, 0x7f00
    3a18:	0199           	s32i.n	a9, a1, 0
    3a1a:	0007e0        	callx8	a7
    3a1d:	ffa0f2        	movi	a15, 255
    3a20:	7c95d2        	l16si	a13, a5, 248
    3a23:	62c8           	l32i.n	a12, a2, 24
    3a25:	450c           	movi.n	a5, 4
    3a27:	a80c           	movi.n	a8, 10
    3a29:	9e1c           	movi.n	a14, 25
    3a2b:	03ad           	mov.n	a10, a3
    3a2d:	06bd           	mov.n	a11, a6
    3a2f:	7fdff2        	addmi	a15, a15, 0x7f00
    3a32:	091c           	movi.n	a9, 16
    3a34:	2159           	s32i.n	a5, a1, 8
    3a36:	1189           	s32i.n	a8, a1, 4
    3a38:	0199           	s32i.n	a9, a1, 0
    3a3a:	0007e0        	callx8	a7
    3a3d:	f20221        	l32r	a2, 248 (58e0 <beam1_mid_band>)
    3a40:	03ad           	mov.n	a10, a3
    3a42:	0002e0        	callx8	a2
    3a45:	2f2122        	l32i	a2, a1, 188
    3a48:	3a21e2        	l32i	a14, a1, 232
    3a4b:	0aa0f2        	movi	a15, 10
    3a4e:	2d2262        	l32i	a6, a2, 180
    3a51:	171e82        	l16ui	a8, a14, 46
    3a54:	300884        	ae_cvtp24a16x2.ll	aep0, a8, a8
    3a57:	fcc662        	addi	a6, a6, -4
    3a5a:	449614        	ae_lp16x2f.iu	aep1, a6, 4
    3a5d:	178f76        	loop	a15, 3a78 <Voice_WB_TX_Prcs+0x394>
    3a60:	011054        	ae_mulfp24s.hl	aeq0, aep1, aep0
    3a63:	ea05ed961f 	{ ae_lp16x2f.iu	aep1, a6, 4; ae_mulfp24s.ll	aeq1, aep1, aep0 }
    3a68:	350094        	ae_slliq56	aeq0, aeq0, 2
    3a6b:	f963ba906f 	{ ae_slliq56	aeq1, aeq1, 2; ae_roundsp16q48asym	aep2, aeq0 }
    3a70:	f96bf226ef 	{ ae_sp16f.l.i	aep2, a6, -4; ae_roundsp16q48asym	aep3, aeq1 }
    3a75:	4236f4        	ae_sp16f.l.i	aep3, a6, -2

00003a78 <Voice_WB_TX_Prcs+0x394>:
    3a78:	f1f521        	l32r	a2, 24c (5a30 <beam2_mid_band>)
    3a7b:	03ad           	mov.n	a10, a3
    3a7d:	0002e0        	callx8	a2
    3a80:	f18671        	l32r	a7, 98 (c3d4 <p_ecnr_mem>)
    3a83:	192122        	l32i	a2, a1, 100
    3a86:	282132        	l32i	a3, a1, 160
    3a89:	0768           	l32i.n	a6, a7, 0
    3a8b:	2f2152        	l32i	a5, a1, 188
    3a8e:	d9a7f2        	movi	a15, 0x7d9
    3a91:	1ad682        	addmi	a8, a6, 0x1a00
    3a94:	1628e2        	l32i	a14, a8, 88
    3a97:	118fd0        	slli	a8, a15, 3
    3a9a:	d68a           	add.n	a13, a6, a8
    3a9c:	3422a2        	l32i	a10, a2, 208
    3a9f:	1c23b2        	l32i	a11, a3, 112
    3aa2:	2c25c2        	l32i	a12, a5, 176
    3aa5:	f1df61        	l32r	a6, 224 (326c <synth_3band>)
    3aa8:	0006e0        	callx8	a6
    3aab:	07d8           	l32i.n	a13, a7, 0
    3aad:	4f4c           	movi.n	a15, 68
    3aaf:	3622a2        	l32i	a10, a2, 216
    3ab2:	1add82        	addmi	a8, a13, 0x1a00
    3ab5:	3fdf22        	addmi	a2, a15, 0x3f00
    3ab8:	1e23b2        	l32i	a11, a3, 120
    3abb:	2e25c2        	l32i	a12, a5, 184
    3abe:	1528e2        	l32i	a14, a8, 84
    3ac1:	dd2a           	add.n	a13, a13, a2
    3ac3:	0006e0        	callx8	a6
    3ac6:	0768           	l32i.n	a6, a7, 0
    3ac8:	222152        	l32i	a5, a1, 136
    3acb:	252132        	l32i	a3, a1, 148
    3ace:	05a322        	movi	a2, 0x305
    3ad1:	1ad682        	addmi	a8, a6, 0x1a00
    3ad4:	1122c0        	slli	a2, a2, 4
    3ad7:	45b8           	l32i.n	a11, a5, 16
    3ad9:	1628a2        	l32i	a10, a8, 88
    3adc:	2921e2        	l32i	a14, a1, 164
    3adf:	f1d271        	l32r	a7, 228 (3088 <tx_upsample_by2>)
    3ae2:	d62a           	add.n	a13, a6, a2
    3ae4:	03cd           	mov.n	a12, a3
    3ae6:	0007e0        	callx8	a7
    3ae9:	f16b21        	l32r	a2, 98 (c3d4 <p_ecnr_mem>)
    3aec:	07a3f2        	movi	a15, 0x307
    3aef:	65b8           	l32i.n	a11, a5, 24
    3af1:	0268           	l32i.n	a6, a2, 0
    3af3:	112fc0        	slli	a2, a15, 4
    3af6:	3921e2        	l32i	a14, a1, 228
    3af9:	1ad682        	addmi	a8, a6, 0x1a00
    3afc:	d62a           	add.n	a13, a6, a2
    3afe:	242162        	l32i	a6, a1, 144
    3b01:	1528a2        	l32i	a10, a8, 84
    3b04:	06cd           	mov.n	a12, a6
    3b06:	0007e0        	callx8	a7
    3b09:	1f2122        	l32i	a2, a1, 124

00003b0c <Voice_WB_TX_Prcs+0x428>:
    3b0c:	1d2172        	l32i	a7, a1, 116
    3b0f:	172152        	l32i	a5, a1, 92
    3b12:	50c332        	addi	a3, a3, 80
    3b15:	50c662        	addi	a6, a6, 80
    3b18:	14c772        	addi	a7, a7, 20
    3b1b:	78a0f2        	movi	a15, 120
    3b1e:	50c442        	addi	a4, a4, 80
    3b21:	50c552        	addi	a5, a5, 80
    3b24:	50c222        	addi	a2, a2, 80
    3b27:	256132        	s32i	a3, a1, 148
    3b2a:	246162        	s32i	a6, a1, 144
    3b2d:	0297f7        	bne	a7, a15, 3b33 <Voice_WB_TX_Prcs+0x44f>
    3b30:	0153c6        	j	4083 <Voice_WB_TX_Prcs+0x99f>
    3b33:	1d6172        	s32i	a7, a1, 116
    3b36:	f15871        	l32r	a7, 98 (c3d4 <p_ecnr_mem>)
    3b39:	07a6f2        	movi	a15, 0x607
    3b3c:	83a132        	movi	a3, 0x183
    3b3f:	0768           	l32i.n	a6, a7, 0
    3b41:	176152        	s32i	a5, a1, 92
    3b44:	115fe0        	slli	a5, a15, 2
    3b47:	1133c0        	slli	a3, a3, 4
    3b4a:	c65a           	add.n	a12, a6, a5
    3b4c:	f1af51        	l32r	a5, 208 (313c <emph_filter_N>)
    3b4f:	b63a           	add.n	a11, a6, a3
    3b51:	8d2c           	movi.n	a13, 40
    3b53:	04ad           	mov.n	a10, a4
    3b55:	0005e0        	callx8	a5
    3b58:	0768           	l32i.n	a6, a7, 0
    3b5a:	c1a0f2        	movi	a15, 193
    3b5d:	8d2c           	movi.n	a13, 40
    3b5f:	b63a           	add.n	a11, a6, a3
    3b61:	113fb0        	slli	a3, a15, 5
    3b64:	c63a           	add.n	a12, a6, a3
    3b66:	02ad           	mov.n	a10, a2
    3b68:	0005e0        	callx8	a5
    3b6b:	0768           	l32i.n	a6, a7, 0
