
Build/lib/pisplit_ecnr_inear_position_independent.splitload.lib:     file format elf32-xtensa-le


Disassembly of section .text:

00000000 <_init-0x398>:
       0:	000003e4 000090ac 00009dec 00000000     ................
      10:	00009db8 00000000 00009dd4 0000cf4c     ............L...
      20:	00008a70 00009270 000090f8 0000ee5c     p...p.......\...
      30:	0000ee50 00000424 0000cf46 0000cf44     P...$...F...D...
      40:	0000ad50 0000adc0 00009e00 00009e70     P...........p...
      50:	2b1f0000 0000c910 00009ea0 002c5d00     ...+.........],.
      60:	00009eb0 0000e640 00000d2c 00000950     ....@...,...P...
      70:	00000cb4 00000e58 000090e4 0000e6c0     ....X...........
      80:	0000d49a 83ff8000 7fff7fff 0000e700     ................
      90:	0000e6e0 000090d0 0015cc64 007af1aa     ........d.....z.
      a0:	0000b6a0 00005038 ff0a1cac 002b98c8     ....8P........+.
      b0:	00005128 00f5e354 ffd46738 7fffff00     (Q..T...8g......
      c0:	00009140 00009158 00000da0 00000c44     @...X.......D...
      d0:	00000ed0 00333334 000028e8 000008f8     ....433..(......
      e0:	fffe7961 0000e720 d49a784c 00feffff     ay.. ...Lx......
      f0:	0000e890 00a3d70b 0000e920 00003aa0     ........ ....:..
     100:	00002630 00001de0 00001254 00001170     0&......T...p...
     110:	13333333 00001764 00003b30 000018a0     333.d...0;......
     120:	000012ac 0000266c 000011a0 00003528     ....l&......(5..
     130:	0000315c 0000372c 00001ee4 00002e3c     \1..,7......<...
     140:	00002abc 00002d08 00000dfc 0000401c     .*...-.......@..
     150:	00001bf4 0000ee58 00009f04 00005fd8     ....X........_..
     160:	00009f1d 000060b4 00009f3a 000069d4     .....`..:....i..
     170:	00009f57 000073d4 00009f72 000078f8     W....s..r....x..
     180:	00009f86 00007314 00009f9d 0000766c     .....s......lv..
     190:	00009fb1 00007374 00009fc8 00007410     ....ts.......t..
     1a0:	00009fe6 0000742c 00009fff 0000083c     ....,t......<...
     1b0:	0000a00f 00005fe0 0000a029 00007424     ....._..)...$t..
     1c0:	0000a04b 00007434 0000a068 0000743c     K...4t..h...<t..
     1d0:	0000a086 00006098 0000a09e 00005fd0     .....`......._..
     1e0:	00009ec0 0000a0c0 00008fc0 0000a4c0     ................
     1f0:	0000a8c0 0000cf54 000055b0 00005528     ....T....U..(U..
     200:	00005570 000cd080 0000b5e0 002aaa00     pU............*.
     210:	0000acc0 00008614 0000850c 00005640     ............@V..
     220:	000056a8 000057e4 00005740 00005900     .V...W..@W...Y..
     230:	00005880 0000085c 0000cf78 0000cf48     .X..\...x...H...
     240:	00004084 00000484 00006048 0000cf50     .@......H`..P...
     250:	0000cf58 000051c4 0000774c 0000ee60     X....Q..Lw..`...
     260:	000040b4 0000cf5c 0000aed0 0000aef0     .@..\...........
     270:	0000af30 0000af70 00011111 000008b4     0...p...........
     280:	000068dc 000062e8 00006640 00006484     .h...b..@f...d..
     290:	0000631c 00006510 00005980 00005c1c     .c...e...Y...\..
     2a0:	000066e0 000065b4 000063d0 00005ebc     .f...e...c...^..
     2b0:	00005f44 00005f00 00005f88 00004390     D_..._..._...C..
     2c0:	7fff0000 0000cf5a 00006834 000067c8     ....Z...4h...g..
     2d0:	000064cc 00007938 0000bcfe 000076b0     .d..8y.......v..
     2e0:	0000b2b0 0000cf34 0000cf38 0000ee09     ....4...8.......
     2f0:	000007c0 0000bcd0 000074b4 000076fc     .........t...v..
     300:	0000cf3c 00007a68 00007c00 00007d38     <...hz...|..8}..
     310:	00007e88 00007fbc 00008080 00008354     .~..........T...
     320:	0000b4d0 0000775c 00007984 0000e950     ....\w...y..P...
     330:	0000b050 0000b080 0000ad30 000079d8     P.......0....y..
     340:	000e38e4 0000b030 00124925 0000b070     .8..0...%I..p...
     350:	80000001 00008978 0000ed50 000086d4     ....x...P.......
     360:	00008638 000089a8 00008bfc 00008c24     8...........$...
     370:	00008c50 00008ca0 00008c78 00008cdc     P.......x.......
     380:	00008d04 01000101 00008f70 00008ee4     ........p.......
     390:	00009dc0 000003b0                       ........

00000398 <_init>:
     398:	008136        	entry	a1, 64
     39b:	ff1981        	l32r	a8, 0 (3e4 <frame_dummy>)
     39e:	f03d           	nop.n
     3a0:	0008e0        	callx8	a8
     3a3:	ff1881        	l32r	a8, 4 (90ac <__do_global_ctors_aux>)
     3a6:	f03d           	nop.n
     3a8:	0008e0        	callx8	a8
     3ab:	f01d           	retw.n

000003ad <_init+0x15>:
     3ad:	000000                                        ...

000003b0 <__do_global_dtors_aux>:
     3b0:	004136        	entry	a1, 32
     3b3:	ff1521        	l32r	a2, 8 (9dec <__do_global_dtors_aux.completed>)
     3b6:	000232        	l8ui	a3, a2, 0
     3b9:	23ec           	bnez.n	a3, 3df <__do_global_dtors_aux+0x2f>

000003bb <__do_global_dtors_aux+0xb>:
     3bb:	1248           	l32i.n	a4, a2, 4
     3bd:	0438           	l32i.n	a3, a4, 0
     3bf:	444b           	addi.n	a4, a4, 4
     3c1:	738c           	beqz.n	a3, 3cc <__do_global_dtors_aux+0x1c>
     3c3:	1249           	s32i.n	a4, a2, 4
     3c5:	0003e0        	callx8	a3
     3c8:	fffbc6        	j	3bb <__do_global_dtors_aux+0xb>

000003cb <__do_global_dtors_aux+0x1b>:
	...

000003cc <__do_global_dtors_aux+0x1c>:
     3cc:	ff1031        	l32r	a3, c (0 <_text_start>)
     3cf:	ff10a1        	l32r	a10, 10 (9db8 <__FRAME_END__>)
     3d2:	438c           	beqz.n	a3, 3da <__do_global_dtors_aux+0x2a>
     3d4:	ff0e81        	l32r	a8, c (0 <_text_start>)
     3d7:	0008e0        	callx8	a8
     3da:	130c           	movi.n	a3, 1
     3dc:	004232        	s8i	a3, a2, 0
     3df:	f01d           	retw.n

000003e1 <__do_global_dtors_aux+0x31>:
     3e1:	000000                                        ...

000003e4 <frame_dummy>:
     3e4:	004136        	entry	a1, 32
     3e7:	ff0b21        	l32r	a2, 14 (0 <_text_start>)
     3ea:	ff09a1        	l32r	a10, 10 (9db8 <__FRAME_END__>)
     3ed:	ff0ab1        	l32r	a11, 18 (9dd4 <frame_dummy.object>)
     3f0:	428c           	beqz.n	a2, 3f8 <frame_dummy+0x14>
     3f2:	ff0881        	l32r	a8, 14 (0 <_text_start>)
     3f5:	0008e0        	callx8	a8

000003f8 <frame_dummy+0x14>:
     3f8:	f01d           	retw.n

000003fa <frame_dummy+0x16>:
     3fa:	00000000                                 ......

00000400 <share_tmp_buffer>:
     400:	004136        	entry	a1, 32
     403:	ff0641        	l32r	a4, 1c (cf4c <ath_b45+0xc>)
     406:	ff0651        	l32r	a5, 20 (8a70 <xtensa_fft_pass_32b+0xc8>)
     409:	ff0661        	l32r	a6, 24 (9270 <_DYNAMIC+0xe4>)
     40c:	67a732        	movi	a3, 0x767
     40f:	1133c0        	slli	a3, a3, 4
     412:	323a           	add.n	a3, a2, a3
     414:	424a           	add.n	a4, a2, a4
     416:	525a           	add.n	a5, a2, a5
     418:	f26a           	add.n	a15, a2, a6
     41a:	0439           	s32i.n	a3, a4, 0
     41c:	1459           	s32i.n	a5, a4, 4
     41e:	24f9           	s32i.n	a15, a4, 8
     420:	f01d           	retw.n

00000422 <share_tmp_buffer+0x22>:
	...

00000424 <common_ECNR_PARA_init_v2>:
     424:	004136        	entry	a1, 32
     427:	ff0041        	l32r	a4, 28 (90f8 <xt_memcpy>)
     42a:	b32b           	addi.n	a11, a3, 2
     42c:	a28b           	addi.n	a10, a2, 8
     42e:	79a0c2        	movi	a12, 121
     431:	0004e0        	callx8	a4
     434:	fca052        	movi	a5, 252
     437:	f4a062        	movi	a6, 244
     43a:	a25a           	add.n	a10, a2, a5
     43c:	b36a           	add.n	a11, a3, a6
     43e:	5c0c           	movi.n	a12, 5
     440:	0004e0        	callx8	a4
     443:	08a152        	movi	a5, 0x108
     446:	fea062        	movi	a6, 254
     449:	a25a           	add.n	a10, a2, a5
     44b:	b36a           	add.n	a11, a3, a6
     44d:	60a0c2        	movi	a12, 96
     450:	0004e0        	callx8	a4
     453:	c8a152        	movi	a5, 0x1c8
     456:	f4a262        	movi	a6, 0x2f4
     459:	a25a           	add.n	a10, a2, a5
     45b:	b36a           	add.n	a11, a3, a6
     45d:	7c0c           	movi.n	a12, 7
     45f:	0004e0        	callx8	a4
     462:	d6a152        	movi	a5, 0x1d6
     465:	18a362        	movi	a6, 0x318
     468:	a25a           	add.n	a10, a2, a5
     46a:	b36a           	add.n	a11, a3, a6
     46c:	dc0c           	movi.n	a12, 13
     46e:	0004e0        	callx8	a4
     471:	feee31        	l32r	a3, 2c (ee5c <p_ecnr_mem>)
     474:	feea41        	l32r	a4, 1c (cf4c <ath_b45+0xc>)
     477:	0338           	l32i.n	a3, a3, 0
     479:	334a           	add.n	a3, a3, a4
     47b:	0338           	l32i.n	a3, a3, 0
     47d:	0239           	s32i.n	a3, a2, 0
     47f:	f01d           	retw.n

00000481 <common_ECNR_PARA_init_v2+0x5d>:
     481:	000000                                        ...

00000484 <TX_ECNR_PARA_init>:
     484:	006136        	entry	a1, 48
     487:	2159           	s32i.n	a5, a1, 8
     489:	fee851        	l32r	a5, 2c (ee5c <p_ecnr_mem>)
     48c:	fee471        	l32r	a7, 1c (cf4c <ath_b45+0xc>)
     48f:	67a7d2        	movi	a13, 0x767
     492:	0588           	l32i.n	a8, a5, 0
     494:	fee391        	l32r	a9, 20 (8a70 <xtensa_fft_pass_32b+0xc8>)
     497:	fee3b1        	l32r	a11, 24 (9270 <_DYNAMIC+0xe4>)
     49a:	3169           	s32i.n	a6, a1, 12
     49c:	116dc0        	slli	a6, a13, 4
     49f:	e87a           	add.n	a14, a8, a7
     4a1:	fee371        	l32r	a7, 30 (ee50 <aec_nr_para>)
     4a4:	a86a           	add.n	a10, a8, a6
     4a6:	fee361        	l32r	a6, 34 (424 <common_ECNR_PARA_init_v2>)
     4a9:	f89a           	add.n	a15, a8, a9
     4ab:	88ba           	add.n	a8, a8, a11
     4ad:	03bd           	mov.n	a11, a3
     4af:	1ef9           	s32i.n	a15, a14, 4
     4b1:	0ea9           	s32i.n	a10, a14, 0
     4b3:	2e89           	s32i.n	a8, a14, 8
     4b5:	07a9           	s32i.n	a10, a7, 0
     4b7:	0006e0        	callx8	a6
     4ba:	0568           	l32i.n	a6, a5, 0
     4bc:	0788           	l32i.n	a8, a7, 0
     4be:	f0a1f2        	movi	a15, 0x1f0
     4c1:	02d662        	addmi	a6, a6, 0x200
     4c4:	049892        	l16si	a9, a8, 8
     4c7:	405692        	s16i	a9, a6, 128
     4ca:	fed761        	l32r	a6, 28 (90f8 <xt_memcpy>)
     4cd:	72ac           	beqz.n	a2, 4f8 <TX_ECNR_PARA_init+0x74>
     4cf:	829822        	l16si	a2, a8, 0x104
     4d2:	b42b           	addi.n	a11, a4, 2
     4d4:	a8fa           	add.n	a10, a8, a15
     4d6:	80a0c2        	movi	a12, 128
     4d9:	025822        	s16i	a2, a8, 4
     4dc:	0006e0        	callx8	a6
     4df:	0728           	l32i.n	a2, a7, 0
     4e1:	f0a282        	movi	a8, 0x2f0
     4e4:	140c           	movi.n	a4, 1
     4e6:	80a092        	movi	a9, 128
     4e9:	114440        	slli	a4, a4, 12
     4ec:	828a           	add.n	a8, a2, a8
     4ee:	038976        	loop	a9, 4f5 <TX_ECNR_PARA_init+0x71>
     4f1:	684d           	ae_s16i.n	a4, a8, 0
     4f3:	882b           	addi.n	a8, a8, 2

000004f5 <TX_ECNR_PARA_init+0x71>:
     4f5:	000506        	j	50d <TX_ECNR_PARA_init+0x89>

000004f8 <TX_ECNR_PARA_init+0x74>:
     4f8:	f0a1f2        	movi	a15, 0x1f0
     4fb:	819822        	l16si	a2, a8, 0x102
     4fe:	b42b           	addi.n	a11, a4, 2
     500:	a8fa           	add.n	a10, a8, a15
     502:	00a1c2        	movi	a12, 0x100
     505:	025822        	s16i	a2, a8, 4
     508:	0006e0        	callx8	a6
     50b:	0728           	l32i.n	a2, a7, 0
     50d:	0548           	l32i.n	a4, a5, 0
     50f:	baa182        	movi	a8, 0x1ba
     512:	70a2f2        	movi	a15, 0x270
     515:	b28a           	add.n	a11, a2, a8
     517:	a4fa           	add.n	a10, a4, a15
     519:	4c0c           	movi.n	a12, 4
     51b:	0006e0        	callx8	a6
     51e:	0728           	l32i.n	a2, a7, 0
     520:	2198           	l32i.n	a9, a1, 8
     522:	0548           	l32i.n	a4, a5, 0
     524:	fec5e1        	l32r	a14, 38 (cf46 <ath_b45+0x6>)
     527:	70a482        	movi	a8, 0x470
     52a:	b92b           	addi.n	a11, a9, 2
     52c:	44ea           	add.n	a4, a4, a14
     52e:	db92f2        	l16si	a15, a2, 0x1b6
     531:	a28a           	add.n	a10, a2, a8
     533:	00a1c2        	movi	a12, 0x100
     536:	64fd           	ae_s16i.n	a15, a4, 0
     538:	0006e0        	callx8	a6
     53b:	3158           	l32i.n	a5, a1, 12
     53d:	0728           	l32i.n	a2, a7, 0
     53f:	f0a342        	movi	a4, 0x3f0
     542:	b52b           	addi.n	a11, a5, 2
     544:	a24a           	add.n	a10, a2, a4
     546:	0c4c           	movi.n	a12, 64
     548:	0006e0        	callx8	a6
     54b:	0728           	l32i.n	a2, a7, 0
     54d:	70a642        	movi	a4, 0x670
     550:	bea152        	movi	a5, 0x1be
     553:	b35a           	add.n	a11, a3, a5
     555:	a24a           	add.n	a10, a2, a4
     557:	4c0c           	movi.n	a12, 4
     559:	0006e0        	callx8	a6
     55c:	0728           	l32i.n	a2, a7, 0
     55e:	7ca642        	movi	a4, 0x67c
     561:	c6a152        	movi	a5, 0x1c6
     564:	b35a           	add.n	a11, a3, a5
     566:	a24a           	add.n	a10, a2, a4
     568:	4c0c           	movi.n	a12, 4
     56a:	0006e0        	callx8	a6
     56d:	0728           	l32i.n	a2, a7, 0
     56f:	88a642        	movi	a4, 0x688
     572:	cea152        	movi	a5, 0x1ce
     575:	b35a           	add.n	a11, a3, a5
     577:	a24a           	add.n	a10, a2, a4
     579:	4c1c           	movi.n	a12, 20
     57b:	0006e0        	callx8	a6
     57e:	02d322        	addmi	a2, a3, 0x200
     581:	0748           	l32i.n	a4, a7, 0
     583:	0202a2        	l8ui	a10, a2, 2
     586:	0302b2        	l8ui	a11, a2, 3
     589:	2002c2        	l8ui	a12, a2, 32
     58c:	2102d2        	l8ui	a13, a2, 33
     58f:	8a7ba0        	depbits	a10, a11, 8, 8
     592:	06d4f2        	addmi	a15, a4, 0x600
     595:	8a7dc0        	depbits	a12, a13, 8, 8
     598:	435fc2        	s16i	a12, a15, 134
     59b:	425fa2        	s16i	a10, a15, 132
     59e:	080292        	l8ui	a9, a2, 8
     5a1:	0902b2        	l8ui	a11, a2, 9
     5a4:	9002c2        	l8ui	a12, a2, 144
     5a7:	9102f2        	l8ui	a15, a2, 145
     5aa:	000252        	l8ui	a5, a2, 0
     5ad:	010282        	l8ui	a8, a2, 1
     5b0:	8e02e2        	l8ui	a14, a2, 142
     5b3:	8f02d2        	l8ui	a13, a2, 143
     5b6:	8a7fc0        	depbits	a12, a15, 8, 8
     5b9:	8a7b90        	depbits	a9, a11, 8, 8
     5bc:	b8a6b2        	movi	a11, 0x6b8
     5bf:	8a7de0        	depbits	a14, a13, 8, 8
     5c2:	a4ba           	add.n	a10, a4, a11
     5c4:	06d442        	addmi	a4, a4, 0x600
     5c7:	8a7850        	depbits	a5, a8, 8, 8
     5ca:	f6a1d2        	movi	a13, 0x1f6
     5cd:	11fc00        	slli	a15, a12, 16
     5d0:	3c5452        	s16i	a5, a4, 120
     5d3:	5fea           	add.n	a5, a15, a14
     5d5:	b3da           	add.n	a11, a3, a13
     5d7:	5c0c           	movi.n	a12, 5
     5d9:	3d5492        	s16i	a9, a4, 122
     5dc:	2c6452        	s32i	a5, a4, 176
     5df:	0006e0        	callx8	a6
     5e2:	0748           	l32i.n	a4, a7, 0
     5e4:	c2a652        	movi	a5, 0x6c2
     5e7:	04a282        	movi	a8, 0x204
     5ea:	b38a           	add.n	a11, a3, a8
     5ec:	a45a           	add.n	a10, a4, a5
     5ee:	1c3c           	movi.n	a12, 49
     5f0:	0006e0        	callx8	a6
     5f3:	ee0282        	l8ui	a8, a2, 238
     5f6:	ef0292        	l8ui	a9, a2, 239
     5f9:	ec0252        	l8ui	a5, a2, 236
     5fc:	ed0242        	l8ui	a4, a2, 237
     5ff:	8a7980        	depbits	a8, a9, 8, 8
     602:	da0292        	l8ui	a9, a2, 218
     605:	db02f2        	l8ui	a15, a2, 219
     608:	8a7450        	depbits	a5, a4, 8, 8
     60b:	d802e2        	l8ui	a14, a2, 216
     60e:	d90242        	l8ui	a4, a2, 217
     611:	6802c2        	l8ui	a12, a2, 104
     614:	6902d2        	l8ui	a13, a2, 105
     617:	8a7f90        	depbits	a9, a15, 8, 8
     61a:	6602a2        	l8ui	a10, a2, 102
     61d:	6702b2        	l8ui	a11, a2, 103
     620:	8a74e0        	depbits	a14, a4, 8, 8
     623:	119900        	slli	a9, a9, 16
     626:	03d342        	addmi	a4, a3, 0x300
     629:	8a7dc0        	depbits	a12, a13, 8, 8
     62c:	118800        	slli	a8, a8, 16
     62f:	99ea           	add.n	a9, a9, a14
     631:	07d8           	l32i.n	a13, a7, 0
     633:	0604e2        	l8ui	a14, a4, 6
     636:	0704f2        	l8ui	a15, a4, 7
     639:	8a7ba0        	depbits	a10, a11, 8, 8
     63c:	585a           	add.n	a5, a8, a5
     63e:	040482        	l8ui	a8, a4, 4
     641:	0504b2        	l8ui	a11, a4, 5
     644:	11cc00        	slli	a12, a12, 16
     647:	acaa           	add.n	a10, a12, a10
     649:	07ddc2        	addmi	a12, a13, 0x700
     64c:	8a7fe0        	depbits	a14, a15, 8, 8
     64f:	9c59           	s32i.n	a5, a12, 36
     651:	115e00        	slli	a5, a14, 16
     654:	8a7b80        	depbits	a8, a11, 8, 8
     657:	6aa2e2        	movi	a14, 0x26a
     65a:	aca9           	s32i.n	a10, a12, 40
     65c:	bc99           	s32i.n	a9, a12, 44
     65e:	30a7c2        	movi	a12, 0x730
     661:	adca           	add.n	a10, a13, a12
     663:	558a           	add.n	a5, a5, a8
     665:	06ddf2        	addmi	a15, a13, 0x600
     668:	b3ea           	add.n	a11, a3, a14
     66a:	6c0c           	movi.n	a12, 6
     66c:	2d6f52        	s32i	a5, a15, 180
     66f:	0006e0        	callx8	a6
     672:	f20292        	l8ui	a9, a2, 242
     675:	f302a2        	l8ui	a10, a2, 243
     678:	7602b2        	l8ui	a11, a2, 118
     67b:	7702c2        	l8ui	a12, a2, 119
     67e:	f00252        	l8ui	a5, a2, 240
     681:	f10282        	l8ui	a8, a2, 241
     684:	8a7a90        	depbits	a9, a10, 8, 8
     687:	8a7cb0        	depbits	a11, a12, 8, 8
     68a:	de02a2        	l8ui	a10, a2, 222
     68d:	df02c2        	l8ui	a12, a2, 223
     690:	8a7850        	depbits	a5, a8, 8, 8
     693:	7802d2        	l8ui	a13, a2, 120
     696:	7902e2        	l8ui	a14, a2, 121
     699:	dc02f2        	l8ui	a15, a2, 220
     69c:	dd0282        	l8ui	a8, a2, 221
     69f:	8a7ca0        	depbits	a10, a12, 8, 8
     6a2:	07c8           	l32i.n	a12, a7, 0
     6a4:	8a7ed0        	depbits	a13, a14, 8, 8
     6a7:	11e900        	slli	a14, a9, 16
     6aa:	8a78f0        	depbits	a15, a8, 8, 8
     6ad:	11aa00        	slli	a10, a10, 16
     6b0:	119d00        	slli	a9, a13, 16
     6b3:	5e5a           	add.n	a5, a14, a5
     6b5:	dafa           	add.n	a13, a10, a15
     6b7:	48a7e2        	movi	a14, 0x748
     6ba:	7aa2f2        	movi	a15, 0x27a
     6bd:	89ba           	add.n	a8, a9, a11
     6bf:	07dc92        	addmi	a9, a12, 0x700
     6c2:	acea           	add.n	a10, a12, a14
     6c4:	b3fa           	add.n	a11, a3, a15
     6c6:	2c0c           	movi.n	a12, 2
     6c8:	f959           	s32i.n	a5, a9, 60
     6ca:	106982        	s32i	a8, a9, 64
     6cd:	1169d2        	s32i	a13, a9, 68
     6d0:	0006e0        	callx8	a6
     6d3:	0758           	l32i.n	a5, a7, 0
     6d5:	4ca782        	movi	a8, 0x74c
     6d8:	8aa292        	movi	a9, 0x28a
     6db:	b39a           	add.n	a11, a3, a9
     6dd:	a58a           	add.n	a10, a5, a8
     6df:	2c0c           	movi.n	a12, 2
     6e1:	0006e0        	callx8	a6
     6e4:	0758           	l32i.n	a5, a7, 0
     6e6:	50a782        	movi	a8, 0x750
     6e9:	e4a292        	movi	a9, 0x2e4
     6ec:	b39a           	add.n	a11, a3, a9
     6ee:	a58a           	add.n	a10, a5, a8
     6f0:	4c0c           	movi.n	a12, 4
     6f2:	0006e0        	callx8	a6
     6f5:	0798           	l32i.n	a9, a7, 0
     6f7:	300452        	l8ui	a5, a4, 48
     6fa:	310482        	l8ui	a8, a4, 49
     6fd:	58a7e2        	movi	a14, 0x758
     700:	92a2f2        	movi	a15, 0x292
     703:	8a7850        	depbits	a5, a8, 8, 8
     706:	07d9d2        	addmi	a13, a9, 0x700
     709:	b3fa           	add.n	a11, a3, a15
     70b:	a9ea           	add.n	a10, a9, a14
     70d:	9c0c           	movi.n	a12, 9
     70f:	2b5d52        	s16i	a5, a13, 86
     712:	0006e0        	callx8	a6
     715:	0788           	l32i.n	a8, a7, 0
     717:	880252        	l8ui	a5, a2, 136
     71a:	8902c2        	l8ui	a12, a2, 137
     71d:	6ca7e2        	movi	a14, 0x76c
     720:	e0a2f2        	movi	a15, 0x2e0
     723:	8a7c50        	depbits	a5, a12, 8, 8
     726:	07d8d2        	addmi	a13, a8, 0x700
     729:	b3fa           	add.n	a11, a3, a15
     72b:	a8ea           	add.n	a10, a8, a14
     72d:	2c0c           	movi.n	a12, 2
     72f:	355d52        	s16i	a5, a13, 106
     732:	0006e0        	callx8	a6
     735:	0728           	l32i.n	a2, a7, 0
     737:	70a752        	movi	a5, 0x770
     73a:	08a382        	movi	a8, 0x308
     73d:	b38a           	add.n	a11, a3, a8
     73f:	a25a           	add.n	a10, a2, a5
     741:	2c0c           	movi.n	a12, 2
     743:	0006e0        	callx8	a6
     746:	0728           	l32i.n	a2, a7, 0
     748:	74a752        	movi	a5, 0x774
     74b:	0ca382        	movi	a8, 0x30c
     74e:	b38a           	add.n	a11, a3, a8
     750:	a25a           	add.n	a10, a2, a5
     752:	6c0c           	movi.n	a12, 6
     754:	0006e0        	callx8	a6
     757:	0728           	l32i.n	a2, a7, 0
     759:	80a752        	movi	a5, 0x780
     75c:	34a382        	movi	a8, 0x334
     75f:	b38a           	add.n	a11, a3, a8
     761:	a25a           	add.n	a10, a2, a5
     763:	6c0c           	movi.n	a12, 6
     765:	0006e0        	callx8	a6
     768:	400482        	l8ui	a8, a4, 64
     76b:	410492        	l8ui	a9, a4, 65
     76e:	07b8           	l32i.n	a11, a7, 0
     770:	320422        	l8ui	a2, a4, 50
     773:	330452        	l8ui	a5, a4, 51
     776:	8a7980        	depbits	a8, a9, 8, 8
     779:	4204f2        	l8ui	a15, a4, 66
     77c:	430492        	l8ui	a9, a4, 67
     77f:	8a7520        	depbits	a2, a5, 8, 8
     782:	07dbe2        	addmi	a14, a11, 0x700
     785:	0204d2        	l8ui	a13, a4, 2
     788:	030452        	l8ui	a5, a4, 3
     78b:	465e22        	s16i	a2, a14, 140
     78e:	475e82        	s16i	a8, a14, 142
     791:	8a79f0        	depbits	a15, a9, 8, 8
     794:	94a7c2        	movi	a12, 0x794
     797:	485ef2        	s16i	a15, a14, 144
     79a:	7ea2f2        	movi	a15, 0x27e
     79d:	abca           	add.n	a10, a11, a12
     79f:	8a75d0        	depbits	a13, a5, 8, 8
     7a2:	b3fa           	add.n	a11, a3, a15
     7a4:	5c0c           	movi.n	a12, 5
     7a6:	495ed2        	s16i	a13, a14, 146
     7a9:	0006e0        	callx8	a6
     7ac:	0728           	l32i.n	a2, a7, 0
     7ae:	a4a242        	movi	a4, 0x2a4
     7b1:	a0a7f2        	movi	a15, 0x7a0
     7b4:	b34a           	add.n	a11, a3, a4
     7b6:	a2fa           	add.n	a10, a2, a15
     7b8:	ac1c           	movi.n	a12, 26
     7ba:	0006e0        	callx8	a6
     7bd:	f01d           	retw.n

000007bf <TX_ECNR_PARA_init+0x33b>:
	...

000007c0 <RX_ECNR_PARA_init>:
     7c0:	004136        	entry	a1, 32
     7c3:	fe1a51        	l32r	a5, 2c (ee5c <p_ecnr_mem>)
     7c6:	fe1571        	l32r	a7, 1c (cf4c <ath_b45+0xc>)
     7c9:	fe1591        	l32r	a9, 20 (8a70 <xtensa_fft_pass_32b+0xc8>)
     7cc:	0588           	l32i.n	a8, a5, 0
     7ce:	fe15b1        	l32r	a11, 24 (9270 <_DYNAMIC+0xe4>)
     7d1:	67a762        	movi	a6, 0x767
     7d4:	1166c0        	slli	a6, a6, 4
     7d7:	a86a           	add.n	a10, a8, a6
     7d9:	787a           	add.n	a7, a8, a7
     7db:	f89a           	add.n	a15, a8, a9
     7dd:	88ba           	add.n	a8, a8, a11
     7df:	fe1461        	l32r	a6, 30 (ee50 <aec_nr_para>)
     7e2:	17f9           	s32i.n	a15, a7, 4
     7e4:	07a9           	s32i.n	a10, a7, 0
     7e6:	2789           	s32i.n	a8, a7, 8
     7e8:	fe1371        	l32r	a7, 34 (424 <common_ECNR_PARA_init_v2>)
     7eb:	03bd           	mov.n	a11, a3
     7ed:	06a9           	s32i.n	a10, a6, 0
     7ef:	0007e0        	callx8	a7
     7f2:	0638           	l32i.n	a3, a6, 0
     7f4:	f0a172        	movi	a7, 0x1f0
     7f7:	b42b           	addi.n	a11, a4, 2
     7f9:	a37a           	add.n	a10, a3, a7
     7fb:	02ac           	beqz.n	a2, 81f <RX_ECNR_PARA_init+0x5f>
     7fd:	fe0a21        	l32r	a2, 28 (90f8 <xt_memcpy>)
     800:	80a0c2        	movi	a12, 128
     803:	0002e0        	callx8	a2
     806:	0628           	l32i.n	a2, a6, 0
     808:	f0a242        	movi	a4, 0x2f0
     80b:	130c           	movi.n	a3, 1
     80d:	80a0f2        	movi	a15, 128
     810:	113340        	slli	a3, a3, 12
     813:	424a           	add.n	a4, a2, a4
     815:	038f76        	loop	a15, 81c <RX_ECNR_PARA_init+0x5c>
     818:	643d           	ae_s16i.n	a3, a4, 0
     81a:	442b           	addi.n	a4, a4, 2

0000081c <RX_ECNR_PARA_init+0x5c>:
     81c:	000286        	j	82a <RX_ECNR_PARA_init+0x6a>

0000081f <RX_ECNR_PARA_init+0x5f>:
     81f:	fe0221        	l32r	a2, 28 (90f8 <xt_memcpy>)
     822:	00a1c2        	movi	a12, 0x100
     825:	0002e0        	callx8	a2
     828:	0628           	l32i.n	a2, a6, 0
     82a:	da9222        	l16si	a2, a2, 0x1b4
     82d:	0538           	l32i.n	a3, a5, 0
     82f:	fe0341        	l32r	a4, 3c (cf44 <ath_b45+0x4>)
     832:	220b           	addi.n	a2, a2, -1
     834:	334a           	add.n	a3, a3, a4
     836:	632d           	ae_s16i.n	a2, a3, 0
     838:	f01d           	retw.n

0000083a <RX_ECNR_PARA_init+0x7a>:
	...

0000083c <EQ_update>:
     83c:	004136        	entry	a1, 32
     83f:	fdfb41        	l32r	a4, 2c (ee5c <p_ecnr_mem>)
     842:	2ba352        	movi	a5, 0x32b
     845:	1155a0        	slli	a5, a5, 6
     848:	0429           	s32i.n	a2, a4, 0
     84a:	a25a           	add.n	a10, a2, a5
     84c:	fdf721        	l32r	a2, 28 (90f8 <xt_memcpy>)
     84f:	00a1c2        	movi	a12, 0x100
     852:	03bd           	mov.n	a11, a3
     854:	0002e0        	callx8	a2
     857:	f01d           	retw.n

00000859 <EQ_update+0x1d>:
     859:	000000                                        ...

0000085c <HIFI_sqrt>:
     85c:	004136        	entry	a1, 32
     85f:	4b13a6        	blti	a3, 1, 8ae <HIFI_sqrt+0x52>
     862:	40e340        	nsa	a4, a3
     865:	c02240        	sub	a2, a2, a4
     868:	401400        	ssl	a4
     86b:	044020        	extui	a4, a2, 0, 1
     86e:	a1c300        	sll	a12, a3
     871:	400400        	ssr	a4
     874:	b130c0        	sra	a3, a12
     877:	656930        	extui	a6, a3, 25, 7
     87a:	fdf1d1        	l32r	a13, 40 (ad50 <TABLE_SQRT>)
     87d:	050c           	movi.n	a5, 0
     87f:	f0c662        	addi	a6, a6, -16
     882:	535650        	max	a5, a6, a5
     885:	9055d0        	addx2	a5, a5, a13
     888:	456d           	ae_l16ui.n	a6, a5, 0
     88a:	355d           	ae_l16si.n	a5, a5, 2
     88c:	413930        	srli	a3, a3, 9
     88f:	11f600        	slli	a15, a6, 16
     892:	c0e560        	sub	a14, a5, a6
     895:	300334        	ae_cvtp24a16x2.ll	aep0, a3, a3
     898:	113e00        	slli	a3, a14, 16
     89b:	360f34        	ae_cvtq48a32s	aeq0, a15
     89e:	364334        	ae_cvtq48a32s	aeq1, a3
     8a1:	d4e110242f 	{ add	a2, a4, a2; ae_mulaq32sp16u.l	aeq0, aeq1, aep0 }
     8a6:	212120        	srai	a2, a2, 1
     8a9:	368304        	ae_trunca32q48	a3, aeq0
     8ac:	f01d           	retw.n

000008ae <HIFI_sqrt+0x52>:
     8ae:	020c           	movi.n	a2, 0
     8b0:	030c           	movi.n	a3, 0
     8b2:	f01d           	retw.n

000008b4 <Log2_norm>:
     8b4:	004136        	entry	a1, 32
     8b7:	024d           	mov.n	a4, a2
     8b9:	ff7c           	movi.n	a15, -1
     8bb:	012f10        	slli	a2, a15, 31
     8be:	3214a6        	blti	a4, 1, 8f4 <Log2_norm+0x40>
     8c1:	156c           	movi.n	a5, -31
     8c3:	2d2357        	blt	a3, a5, 8f4 <Log2_norm+0x40>
     8c6:	022c           	movi.n	a2, 32
     8c8:	06a237        	bge	a2, a3, 8d2 <Log2_norm+0x1e>
     8cb:	f27c           	movi.n	a2, -1
     8cd:	412120        	srli	a2, a2, 1
     8d0:	f01d           	retw.n

000008d2 <Log2_norm+0x1e>:
     8d2:	fddc51        	l32r	a5, 44 (adc0 <TABLE_LOG2_1530>)
     8d5:	552840        	extui	a2, a4, 24, 6
     8d8:	1122e0        	slli	a2, a2, 2
     8db:	603524        	ae_lq32f.xu	aeq0, a5, a2
     8de:	604514        	ae_lq32f.i	aeq1, a5, 4
     8e1:	f92ae2044f 	{ ae_movpa24x2	aep0, a4, a4; ae_subq56	aeq1, aeq1, aeq0 }
     8e6:	030174        	ae_mulaq32sp16u.l	aeq0, aeq1, aep0
     8e9:	013360        	slli	a3, a3, 26
     8ec:	368f04        	ae_trunca32q48	a15, aeq0
     8ef:	2125f0        	srai	a2, a15, 5
     8f2:	223a           	add.n	a2, a2, a3
     8f4:	f01d           	retw.n

000008f6 <Log2_norm+0x42>:
	...

000008f8 <HIFI_sqrt_ie>:
     8f8:	004136        	entry	a1, 32
     8fb:	4b13a6        	blti	a3, 1, 94a <HIFI_sqrt_ie+0x52>
     8fe:	40e340        	nsa	a4, a3
     901:	c02240        	sub	a2, a2, a4
     904:	401400        	ssl	a4
     907:	044020        	extui	a4, a2, 0, 1
     90a:	a1c300        	sll	a12, a3
     90d:	400400        	ssr	a4
     910:	b130c0        	sra	a3, a12
     913:	656930        	extui	a6, a3, 25, 7
     916:	fdccd1        	l32r	a13, 48 (9e00 <TABLE_IE>)
     919:	050c           	movi.n	a5, 0
     91b:	f0c662        	addi	a6, a6, -16
     91e:	535650        	max	a5, a6, a5
     921:	9055d0        	addx2	a5, a5, a13
     924:	456d           	ae_l16ui.n	a6, a5, 0
     926:	355d           	ae_l16si.n	a5, a5, 2
     928:	413930        	srli	a3, a3, 9
     92b:	11f600        	slli	a15, a6, 16
     92e:	c0e560        	sub	a14, a5, a6
     931:	300334        	ae_cvtp24a16x2.ll	aep0, a3, a3
     934:	113e00        	slli	a3, a14, 16
     937:	360f34        	ae_cvtq48a32s	aeq0, a15
     93a:	364334        	ae_cvtq48a32s	aeq1, a3
     93d:	d4e110242f 	{ add	a2, a4, a2; ae_mulaq32sp16u.l	aeq0, aeq1, aep0 }
     942:	212120        	srai	a2, a2, 1
     945:	368304        	ae_trunca32q48	a3, aeq0
     948:	f01d           	retw.n

0000094a <HIFI_sqrt_ie+0x52>:
     94a:	020c           	movi.n	a2, 0
     94c:	030c           	movi.n	a3, 0
     94e:	f01d           	retw.n

00000950 <fxexp>:
     950:	006136        	entry	a1, 48
     953:	fdbe31        	l32r	a3, 4c (9e70 <K_VAL>)
     956:	fe24bec27f 	{ ae_cvtq48a32s	aeq1, a2; ae_zeroq56	aeq2 }
     95b:	f47c           	movi.n	a4, -1
     95d:	601304        	ae_lq32f.iu	aeq0, a3, 0
     960:	f86a0000ef 	{ movi	a14, 0; ae_addq56	aeq0, aeq1, aeq0 }
     965:	ff00c001ff 	{ movi	a15, 1; ae_satq48s	aeq3, aeq0 }
     96a:	d5d43d131f 	{ ae_lq32f.iu	aeq0, a3, 4; ae_leq56s	b0, aeq3, aeq2 }
     96f:	414140        	srli	a4, a4, 1
     972:	368434        	ae_cvtq48a32s	aeq2, a4
     975:	d3ef00        	movt	a14, a15, b0
     978:	3e8c           	beqz.n	a14, 97f <fxexp+0x2f>
     97a:	fd1c7b238f 	{ ae_sraiq56	aeq2, aeq2, 12; ae_movq56	aeq1, aeq3 }

0000097f <fxexp+0x2f>:
     97f:	f86a00002f 	{ movi	a2, 0; ae_addq56	aeq0, aeq1, aeq0 }
     984:	ff00c0014f 	{ movi	a4, 1; ae_satq48s	aeq3, aeq0 }
     989:	0a1084        	ae_zeroq56	aeq0
     98c:	d5c43d131f 	{ ae_lq32f.iu	aeq0, a3, 4; ae_leq56s	b0, aeq3, aeq0 }
     991:	d32400        	movt	a2, a4, b0
     994:	328c           	beqz.n	a2, 99b <fxexp+0x4b>
     996:	fd1c7b228f 	{ ae_sraiq56	aeq2, aeq2, 8; ae_movq56	aeq1, aeq3 }
     99b:	f86a00002f 	{ movi	a2, 0; ae_addq56	aeq0, aeq1, aeq0 }
     9a0:	ff00c0014f 	{ movi	a4, 1; ae_satq48s	aeq3, aeq0 }
     9a5:	0a1084        	ae_zeroq56	aeq0
     9a8:	d5c43d131f 	{ ae_lq32f.iu	aeq0, a3, 4; ae_leq56s	b0, aeq3, aeq0 }
     9ad:	d32400        	movt	a2, a4, b0
     9b0:	328c           	beqz.n	a2, 9b7 <fxexp+0x67>
     9b2:	fd1c7b218f 	{ ae_sraiq56	aeq2, aeq2, 4; ae_movq56	aeq1, aeq3 }
     9b7:	f86a00002f 	{ movi	a2, 0; ae_addq56	aeq0, aeq1, aeq0 }
     9bc:	ff00c0014f 	{ movi	a4, 1; ae_satq48s	aeq3, aeq0 }
     9c1:	0a1084        	ae_zeroq56	aeq0
     9c4:	d5c43d131f 	{ ae_lq32f.iu	aeq0, a3, 4; ae_leq56s	b0, aeq3, aeq0 }
     9c9:	d32400        	movt	a2, a4, b0
     9cc:	328c           	beqz.n	a2, 9d3 <fxexp+0x83>
     9ce:	fd1c7b20af 	{ ae_sraiq56	aeq2, aeq2, 2; ae_movq56	aeq1, aeq3 }
     9d3:	f86a00002f 	{ movi	a2, 0; ae_addq56	aeq0, aeq1, aeq0 }
     9d8:	ff00c0014f 	{ movi	a4, 1; ae_satq48s	aeq3, aeq0 }
     9dd:	0a1084        	ae_zeroq56	aeq0
     9e0:	d5c43d131f 	{ ae_lq32f.iu	aeq0, a3, 4; ae_leq56s	b0, aeq3, aeq0 }
     9e5:	d32400        	movt	a2, a4, b0
     9e8:	328c           	beqz.n	a2, 9ef <fxexp+0x9f>
     9ea:	fd1c7b209f 	{ ae_sraiq56	aeq2, aeq2, 1; ae_movq56	aeq1, aeq3 }
     9ef:	f86a00002f 	{ movi	a2, 0; ae_addq56	aeq0, aeq1, aeq0 }
     9f4:	ff00c0014f 	{ movi	a4, 1; ae_satq48s	aeq3, aeq0 }
     9f9:	0a1084        	ae_zeroq56	aeq0
     9fc:	d5c43d131f 	{ ae_lq32f.iu	aeq0, a3, 4; ae_leq56s	b0, aeq3, aeq0 }
     a01:	fe7456240f 	{ movt	a2, a4, b0; ae_truncq32	aeq2, aeq2 }
     a06:	f28c           	beqz.n	a2, a19 <fxexp+0xc9>
     a08:	3560b4        	ae_sraiq56	aeq1, aeq2, 2
     a0b:	065a34        	ae_truncq32	aeq1, aeq1
     a0e:	fd1c7a111f 	{ ae_sq56s.i	aeq1, a1, 8; ae_movq56	aeq1, aeq3 }
     a13:	61c114        	ae_lq56.i	aeq3, a1, 8
     a16:	01afc4        	ae_subq56	aeq2, aeq2, aeq3
     a19:	f86a00002f 	{ movi	a2, 0; ae_addq56	aeq0, aeq1, aeq0 }
     a1e:	ff00c0014f 	{ movi	a4, 1; ae_satq48s	aeq3, aeq0 }
     a23:	0a1084        	ae_zeroq56	aeq0
     a26:	d5c43d131f 	{ ae_lq32f.iu	aeq0, a3, 4; ae_leq56s	b0, aeq3, aeq0 }
     a2b:	d32400        	movt	a2, a4, b0
     a2e:	f28c           	beqz.n	a2, a41 <fxexp+0xf1>
     a30:	3560f4        	ae_sraiq56	aeq1, aeq2, 3
     a33:	065a34        	ae_truncq32	aeq1, aeq1
     a36:	fd1c7a111f 	{ ae_sq56s.i	aeq1, a1, 8; ae_movq56	aeq1, aeq3 }
     a3b:	61c114        	ae_lq56.i	aeq3, a1, 8
     a3e:	01afc4        	ae_subq56	aeq2, aeq2, aeq3
     a41:	f86a00002f 	{ movi	a2, 0; ae_addq56	aeq0, aeq1, aeq0 }
     a46:	ff00c0014f 	{ movi	a4, 1; ae_satq48s	aeq3, aeq0 }
     a4b:	0a1084        	ae_zeroq56	aeq0
     a4e:	d5c43d131f 	{ ae_lq32f.iu	aeq0, a3, 4; ae_leq56s	b0, aeq3, aeq0 }
     a53:	d32400        	movt	a2, a4, b0
     a56:	f28c           	beqz.n	a2, a69 <fxexp+0x119>
     a58:	356134        	ae_sraiq56	aeq1, aeq2, 4
     a5b:	065a34        	ae_truncq32	aeq1, aeq1
     a5e:	fd1c7a111f 	{ ae_sq56s.i	aeq1, a1, 8; ae_movq56	aeq1, aeq3 }
     a63:	61c114        	ae_lq56.i	aeq3, a1, 8
     a66:	01afc4        	ae_subq56	aeq2, aeq2, aeq3
     a69:	f86a00002f 	{ movi	a2, 0; ae_addq56	aeq0, aeq1, aeq0 }
     a6e:	ff00c0014f 	{ movi	a4, 1; ae_satq48s	aeq3, aeq0 }
     a73:	0a1084        	ae_zeroq56	aeq0
     a76:	d5c43d131f 	{ ae_lq32f.iu	aeq0, a3, 4; ae_leq56s	b0, aeq3, aeq0 }
     a7b:	d32400        	movt	a2, a4, b0
     a7e:	f28c           	beqz.n	a2, a91 <fxexp+0x141>
     a80:	356174        	ae_sraiq56	aeq1, aeq2, 5
     a83:	065a34        	ae_truncq32	aeq1, aeq1
     a86:	fd1c7a111f 	{ ae_sq56s.i	aeq1, a1, 8; ae_movq56	aeq1, aeq3 }
     a8b:	61c114        	ae_lq56.i	aeq3, a1, 8
     a8e:	01afc4        	ae_subq56	aeq2, aeq2, aeq3
     a91:	f86a00002f 	{ movi	a2, 0; ae_addq56	aeq0, aeq1, aeq0 }
     a96:	ff00c0014f 	{ movi	a4, 1; ae_satq48s	aeq3, aeq0 }
     a9b:	0a1084        	ae_zeroq56	aeq0
     a9e:	d5c43d131f 	{ ae_lq32f.iu	aeq0, a3, 4; ae_leq56s	b0, aeq3, aeq0 }
     aa3:	d32400        	movt	a2, a4, b0
     aa6:	f28c           	beqz.n	a2, ab9 <fxexp+0x169>
     aa8:	3561b4        	ae_sraiq56	aeq1, aeq2, 6
     aab:	065a34        	ae_truncq32	aeq1, aeq1
     aae:	fd1c7a111f 	{ ae_sq56s.i	aeq1, a1, 8; ae_movq56	aeq1, aeq3 }
     ab3:	61c114        	ae_lq56.i	aeq3, a1, 8
     ab6:	01afc4        	ae_subq56	aeq2, aeq2, aeq3
     ab9:	f86a00002f 	{ movi	a2, 0; ae_addq56	aeq0, aeq1, aeq0 }
     abe:	ff00c0014f 	{ movi	a4, 1; ae_satq48s	aeq3, aeq0 }
     ac3:	0a1084        	ae_zeroq56	aeq0
     ac6:	d5c43d131f 	{ ae_lq32f.iu	aeq0, a3, 4; ae_leq56s	b0, aeq3, aeq0 }
     acb:	d32400        	movt	a2, a4, b0
     ace:	f28c           	beqz.n	a2, ae1 <fxexp+0x191>
     ad0:	3561f4        	ae_sraiq56	aeq1, aeq2, 7
     ad3:	065a34        	ae_truncq32	aeq1, aeq1
     ad6:	fd1c7a111f 	{ ae_sq56s.i	aeq1, a1, 8; ae_movq56	aeq1, aeq3 }
     adb:	61c114        	ae_lq56.i	aeq3, a1, 8
     ade:	01afc4        	ae_subq56	aeq2, aeq2, aeq3
     ae1:	f86a00002f 	{ movi	a2, 0; ae_addq56	aeq0, aeq1, aeq0 }
     ae6:	ff00c0013f 	{ movi	a3, 1; ae_satq48s	aeq3, aeq0 }
     aeb:	0a1084        	ae_zeroq56	aeq0
     aee:	d5c43b220f 	{ ae_sraiq56	aeq0, aeq2, 8; ae_leq56s	b0, aeq3, aeq0 }
     af3:	fc6456230f 	{ movt	a2, a3, b0; ae_truncq32	aeq0, aeq0 }
     af8:	328c           	beqz.n	a2, aff <fxexp+0x1af>
     afa:	fa32ff317f 	{ ae_movq56	aeq1, aeq3; ae_subq56	aeq2, aeq2, aeq0 }
     aff:	120c           	movi.n	a2, 1
     b01:	112200        	slli	a2, a2, 16
     b04:	360234        	ae_cvtq48a32s	aeq0, a2
     b07:	0118c4        	ae_addq56	aeq0, aeq1, aeq0
     b0a:	060844        	ae_satq48s	aeq0, aeq0
     b0d:	350394        	ae_slliq56	aeq0, aeq0, 14
     b10:	060844        	ae_satq48s	aeq0, aeq0
     b13:	098c04        	ae_truncp24q48x2	aep0, aeq0, aeq0
     b16:	0805a4        	ae_mulfq32sp24s.l	aeq0, aeq2, aep0
     b19:	060934        	ae_roundsq32asym	aeq0, aeq0
     b1c:	350054        	ae_slliq56	aeq0, aeq0, 1
     b1f:	060844        	ae_satq48s	aeq0, aeq0
     b22:	368204        	ae_trunca32q48	a2, aeq0
     b25:	f01d           	retw.n

00000b27 <fxexp+0x1d7>:
	...

00000b28 <fxarctan2>:
     b28:	004136        	entry	a1, 32
     b2b:	0d9237        	bne	a2, a3, b3c <fxarctan2+0x14>
     b2e:	0212e6        	bgei	a2, 1, b34 <fxarctan2+0xc>
     b31:	0033c6        	j	c04 <fxarctan2+0xdc>
     b34:	222c           	movi.n	a2, 34
     b36:	19d222        	addmi	a2, a2, 0x1900
     b39:	003406        	j	c0d <fxarctan2+0xe5>

00000b3c <fxarctan2+0x14>:
     b3c:	604030        	neg	a4, a3
     b3f:	605020        	neg	a5, a2
     b42:	a35220        	movltz	a5, a2, a2
     b45:	a34330        	movltz	a4, a3, a3
     b48:	846d           	ae_sext16	a6, a4
     b4a:	1f0c           	movi.n	a15, 1
     b4c:	855d           	ae_sext16	a5, a5
     b4e:	114f10        	slli	a4, a15, 15
     b51:	44a657        	bge	a6, a5, b99 <fxarctan2+0x71>
     b54:	115210        	slli	a5, a2, 15
     b57:	d25530        	quos	a5, a5, a3
     b5a:	855d           	ae_sext16	a5, a5
     b5c:	6aa762        	movi	a6, 0x76a
     b5f:	607050        	neg	a7, a5
     b62:	906660        	addx2	a6, a6, a6
     b65:	a37550        	movltz	a7, a5, a5
     b68:	826760        	mull	a6, a7, a6
     b6b:	a7a2e2        	movi	a14, 0x2a7
     b6e:	664a           	add.n	a6, a6, a4
     b70:	117eb0        	slli	a7, a14, 5
     b73:	316060        	srai	a6, a6, 16
     b76:	fd36f1        	l32r	a15, 50 (2b1f0000 <_end+0x2b1e119c>)
     b79:	436670        	min	a6, a6, a7
     b7c:	116600        	slli	a6, a6, 16
     b7f:	66fa           	add.n	a6, a6, a15
     b81:	316060        	srai	a6, a6, 16
     b84:	d15650        	mul16s	a5, a6, a5
     b87:	ffa072        	movi	a7, 255
     b8a:	40d562        	addmi	a6, a5, 0x4000
     b8d:	1166f0        	slli	a6, a6, 1
     b90:	07d396        	bltz	a3, c11 <fxarctan2+0xe9>
     b93:	f53060        	extui	a3, a6, 16, 16
     b96:	001686        	j	bf4 <fxarctan2+0xcc>

00000b99 <fxarctan2+0x71>:
     b99:	113310        	slli	a3, a3, 15
     b9c:	d23320        	quos	a3, a3, a2
     b9f:	836d           	ae_sext16	a6, a3
     ba1:	6aa752        	movi	a5, 0x76a
     ba4:	607060        	neg	a7, a6
     ba7:	905550        	addx2	a5, a5, a5
     baa:	a37660        	movltz	a7, a6, a6
     bad:	825750        	mull	a5, a7, a5
     bb0:	a7a2a2        	movi	a10, 0x2a7
     bb3:	554a           	add.n	a5, a5, a4
     bb5:	116ab0        	slli	a6, a10, 5
     bb8:	315050        	srai	a5, a5, 16
     bbb:	fd25b1        	l32r	a11, 50 (2b1f0000 <_end+0x2b1e119c>)
     bbe:	435560        	min	a5, a5, a6
     bc1:	115500        	slli	a5, a5, 16
     bc4:	55ba           	add.n	a5, a5, a11
     bc6:	113300        	slli	a3, a3, 16
     bc9:	213f30        	srai	a3, a3, 15
     bcc:	315050        	srai	a5, a5, 16
     bcf:	823350        	mull	a3, a3, a5
     bd2:	fc7c           	movi.n	a12, -1
     bd4:	334a           	add.n	a3, a3, a4
     bd6:	1e0c           	movi.n	a14, 1
     bd8:	fd7c           	movi.n	a13, -1
     bda:	116c20        	slli	a6, a12, 14
     bdd:	313030        	srai	a3, a3, 16
     be0:	115e20        	slli	a5, a14, 14
     be3:	c06630        	sub	a6, a6, a3
     be6:	c03530        	sub	a3, a5, a3
     be9:	117d10        	slli	a7, a13, 15
     bec:	53f670        	max	a15, a6, a7
     bef:	a33d           	ae_clamps16	a3, a3
     bf1:	a33f20        	movltz	a3, a15, a2
     bf4:	fd1821        	l32r	a2, 54 (c910 <sp_matrix45+0x1e0>)
     bf7:	833d           	ae_sext16	a3, a3
     bf9:	822320        	mull	a2, a3, a2
     bfc:	224a           	add.n	a2, a2, a4
     bfe:	f52020        	extui	a2, a2, 16, 16
     c01:	000206        	j	c0d <fxarctan2+0xe5>

00000c04 <fxarctan2+0xdc>:
     c04:	9ba032        	movi	a3, 155
     c07:	b4d332        	addmi	a3, a3, 0xffffb400
     c0a:	932320        	movnez	a2, a3, a2

00000c0d <fxarctan2+0xe5>:
     c0d:	822d           	ae_sext16	a2, a2
     c0f:	f01d           	retw.n

00000c11 <fxarctan2+0xe9>:
     c11:	313060        	srai	a3, a6, 16
     c14:	015296        	bltz	a2, c2d <fxarctan2+0x105>
     c17:	ffa022        	movi	a2, 255
     c1a:	f67c           	movi.n	a6, -1
     c1c:	7fd222        	addmi	a2, a2, 0x7f00
     c1f:	116620        	slli	a6, a6, 14
     c22:	332a           	add.n	a3, a3, a2
     c24:	725560        	salt	a5, a5, a6
     c27:	833250        	moveqz	a3, a2, a5
     c2a:	fff186        	j	bf4 <fxarctan2+0xcc>

00000c2d <fxarctan2+0x105>:
     c2d:	3fd722        	addmi	a2, a7, 0x3f00
     c30:	ff7c           	movi.n	a15, -1
     c32:	80d362        	addmi	a6, a3, 0xffff8000
     c35:	722250        	salt	a2, a2, a5
     c38:	113f10        	slli	a3, a15, 15
     c3b:	933620        	movnez	a3, a6, a2
     c3e:	ffec86        	j	bf4 <fxarctan2+0xcc>

00000c41 <fxarctan2+0x119>:
     c41:	000000                                        ...

00000c44 <fxsqrt_ie>:
     c44:	004136        	entry	a1, 32
     c47:	063216        	beqz	a2, cae <fxsqrt_ie+0x6a>
     c4a:	40e230        	nsa	a3, a2
     c4d:	f40c           	movi.n	a4, 15
     c4f:	401300        	ssl	a3
     c52:	c03430        	sub	a3, a4, a3
     c55:	044030        	extui	a4, a3, 0, 1
     c58:	a1a200        	sll	a10, a2
     c5b:	400400        	ssr	a4
     c5e:	b120a0        	sra	a2, a10
     c61:	41b920        	srli	a11, a2, 9
     c64:	652920        	extui	a2, a2, 25, 7
     c67:	fcf8c1        	l32r	a12, 48 (9e00 <TABLE_IE>)
     c6a:	050c           	movi.n	a5, 0
     c6c:	f0c222        	addi	a2, a2, -16
     c6f:	532250        	max	a2, a2, a5
     c72:	9022c0        	addx2	a2, a2, a12
     c75:	343a           	add.n	a3, a4, a3
     c77:	424d           	ae_l16ui.n	a4, a2, 0
     c79:	322d           	ae_l16si.n	a2, a2, 2
     c7b:	300bb4        	ae_cvtp24a16x2.ll	aep0, a11, a11
     c7e:	1d0c           	movi.n	a13, 1
     c80:	c02240        	sub	a2, a2, a4
     c83:	114400        	slli	a4, a4, 16
     c86:	112200        	slli	a2, a2, 16
     c89:	360434        	ae_cvtq48a32s	aeq0, a4
     c8c:	364234        	ae_cvtq48a32s	aeq1, a2
     c8f:	213130        	srai	a3, a3, 1
     c92:	d4e10f93ee 	{ addi	a14, a3, -7; ae_mulaq32sp16u.l	aeq0, aeq1, aep0 }
     c97:	115d10        	slli	a5, a13, 15
     c9a:	368534        	ae_cvtq48a32s	aeq2, a5
     c9d:	fc24fe8e0f 	{ ae_slaasq56s	aeq0, aeq0, a14; nop }
     ca2:	010ac4        	ae_addq56	aeq0, aeq0, aeq2
     ca5:	368f04        	ae_trunca32q48	a15, aeq0
     ca8:	f520f0        	extui	a2, a15, 16, 16
     cab:	000046        	j	cb0 <fxsqrt_ie+0x6c>

00000cae <fxsqrt_ie+0x6a>:
     cae:	020c           	movi.n	a2, 0
     cb0:	822d           	ae_sext16	a2, a2
     cb2:	f01d           	retw.n

00000cb4 <fxlog10>:
     cb4:	004136        	entry	a1, 32
     cb7:	067216        	beqz	a2, d22 <fxlog10+0x6e>
     cba:	40e230        	nsa	a3, a2
     cbd:	331b           	addi.n	a3, a3, 1
     cbf:	113300        	slli	a3, a3, 16
     cc2:	040c           	movi.n	a4, 0
     cc4:	313030        	srai	a3, a3, 16
     cc7:	b34320        	movgez	a4, a3, a2
     cca:	d1a4c2        	movi	a12, 0x4d1
     ccd:	f50c           	movi.n	a5, 15
     ccf:	401400        	ssl	a4
     cd2:	113c50        	slli	a3, a12, 11
     cd5:	c04540        	sub	a4, a5, a4
     cd8:	a1e200        	sll	a14, a2
     cdb:	823430        	mull	a3, a4, a3
     cde:	fd7c           	movi.n	a13, -1
     ce0:	360334        	ae_cvtq48a32s	aeq0, a3
     ce3:	fcdd31        	l32r	a3, 58 (9ea0 <log_coef>)
     ce6:	114d10        	slli	a4, a13, 15
     ce9:	f520e0        	extui	a2, a14, 16, 16
     cec:	302240        	xor	a2, a2, a4
     cef:	300224        	ae_cvtp24a16x2.ll	aep0, a2, a2
     cf2:	05a0f2        	movi	a15, 5
     cf5:	f962ac930f 	{ ae_lp16f.iu	aep1, a3, 0; ae_movp48	aep2, aep0 }
     cfa:	350214        	ae_slliq56	aeq0, aeq0, 8
     cfd:	0a8f76        	loop	a15, d0b <fxlog10+0x57>
     d00:	012874        	ae_mulfp24s.ll	aeq1, aep2, aep0
     d03:	e6472c931f 	{ ae_lp16f.iu	aep1, a3, 2; ae_mulap24s.ll	aeq0, aep1, aep2 }
     d08:	1b9f24        	ae_roundsp16q48asym	aep2, aeq1

00000d0b <fxlog10+0x57>:
     d0b:	f27c           	movi.n	a2, -1
     d0d:	112200        	slli	a2, a2, 16
     d10:	3500f4        	ae_sraiq56	aeq0, aeq0, 3
     d13:	364234        	ae_cvtq48a32s	aeq1, a2
     d16:	0110e4        	ae_andq56	aeq0, aeq0, aeq1
     d19:	1b8f04        	ae_roundsp16q48asym	aep0, aeq0
     d1c:	360224        	ae_trunca16p24s.l	a2, aep0
     d1f:	000106        	j	d27 <fxlog10+0x73>

00000d22 <fxlog10+0x6e>:
     d22:	120c           	movi.n	a2, 1
     d24:	112210        	slli	a2, a2, 15
     d27:	822d           	ae_sext16	a2, a2
     d29:	f01d           	retw.n

00000d2b <fxlog10+0x77>:
	...

00000d2c <fxln>:
     d2c:	004136        	entry	a1, 32
     d2f:	063216        	beqz	a2, d96 <fxln+0x6a>
     d32:	40e230        	nsa	a3, a2
     d35:	331b           	addi.n	a3, a3, 1
     d37:	113300        	slli	a3, a3, 16
     d3a:	040c           	movi.n	a4, 0
     d3c:	313030        	srai	a3, a3, 16
     d3f:	fcc7c1        	l32r	a12, 5c (2c5d00 <_end+0x2b6e9c>)
     d42:	b34320        	movgez	a4, a3, a2
     d45:	f50c           	movi.n	a5, 15
     d47:	401400        	ssl	a4
     d4a:	c04540        	sub	a4, a5, a4
     d4d:	a1e200        	sll	a14, a2
     d50:	8234c0        	mull	a3, a4, a12
     d53:	fd7c           	movi.n	a13, -1
     d55:	360334        	ae_cvtq48a32s	aeq0, a3
     d58:	fcc231        	l32r	a3, 60 (9eb0 <ln_coef>)
     d5b:	114d10        	slli	a4, a13, 15
     d5e:	f520e0        	extui	a2, a14, 16, 16
     d61:	302240        	xor	a2, a2, a4
     d64:	300224        	ae_cvtp24a16x2.ll	aep0, a2, a2
     d67:	5f0c           	movi.n	a15, 5
     d69:	f962ac930f 	{ ae_lp16f.iu	aep1, a3, 0; ae_movp48	aep2, aep0 }
     d6e:	350214        	ae_slliq56	aeq0, aeq0, 8
     d71:	0a8f76        	loop	a15, d7f <fxln+0x53>
     d74:	012874        	ae_mulfp24s.ll	aeq1, aep2, aep0
     d77:	e6472c931f 	{ ae_lp16f.iu	aep1, a3, 2; ae_mulap24s.ll	aeq0, aep1, aep2 }
     d7c:	1b9f24        	ae_roundsp16q48asym	aep2, aeq1

00000d7f <fxln+0x53>:
     d7f:	f27c           	movi.n	a2, -1
     d81:	112200        	slli	a2, a2, 16
     d84:	3500f4        	ae_sraiq56	aeq0, aeq0, 3
     d87:	364234        	ae_cvtq48a32s	aeq1, a2
     d8a:	0110e4        	ae_andq56	aeq0, aeq0, aeq1
     d8d:	1b8f04        	ae_roundsp16q48asym	aep0, aeq0
     d90:	360224        	ae_trunca16p24s.l	a2, aep0
     d93:	000106        	j	d9b <fxln+0x6f>

00000d96 <fxln+0x6a>:
     d96:	120c           	movi.n	a2, 1
     d98:	112210        	slli	a2, a2, 15
     d9b:	822d           	ae_sext16	a2, a2
     d9d:	f01d           	retw.n

00000d9f <fxln+0x73>:
	...

00000da0 <mel_filter>:
     da0:	004136        	entry	a1, 32
     da3:	fcb051        	l32r	a5, 64 (e640 <all_amt_tab>)
     da6:	a04440        	addx4	a4, a4, a4
     da9:	fcc332        	addi	a3, a3, -4
     dac:	b06450        	addx8	a6, a4, a5
     daf:	fc24a0064e 	{ l16si	a4, a6, 0; ae_zeroq56	aeq0 }
     db4:	224b           	addi.n	a2, a2, 4
     db6:	070c           	movi.n	a7, 0
     db8:	3d14a6        	blti	a4, 1, df9 <mel_filter+0x59>
     dbb:	7658           	l32i.n	a5, a6, 28
     dbd:	2668           	l32i.n	a6, a6, 8
     dbf:	f87c           	movi.n	a8, -1

00000dc1 <mel_filter+0x21>:
     dc1:	25ad           	ae_l16si.n	a10, a5, 0
     dc3:	0295c2        	l16si	a12, a5, 4
     dc6:	90b760        	addx2	a11, a7, a6
     dc9:	30da80        	xor	a13, a10, a8
     dcc:	9cda           	add.n	a9, a12, a13
     dce:	1619a6        	blti	a9, 1, de8 <mel_filter+0x48>
     dd1:	a0aa20        	addx4	a10, a10, a2
     dd4:	80cdc0        	add	a12, a13, a12
     dd7:	605a04        	ae_lq32f.iu	aeq1, a10, 0
     dda:	408b04        	ae_lp16f.iu	aep0, a11, 0
     ddd:	078c76        	loop	a12, de8 <mel_filter+0x48>
     de0:	f483bd3a1f 	{ ae_lq32f.iu	aeq1, a10, 4; ae_mulafq32sp16s.l	aeq0, aeq1, aep0 }
     de5:	408b14        	ae_lp16f.iu	aep0, a11, 2

00000de8 <mel_filter+0x48>:
     de8:	f8678ff44e 	{ addi	a4, a4, -1; ae_roundsp24q48asym	aep0, aeq0 }
     ded:	797a           	add.n	a7, a9, a7
     def:	552b           	addi.n	a5, a5, 2
     df1:	fc24b4831f 	{ ae_sp24f.l.iu	aep0, a3, 4; ae_zeroq56	aeq0 }
     df6:	fc7456        	bnez	a4, dc1 <mel_filter+0x21>

00000df9 <mel_filter+0x59>:
     df9:	f01d           	retw.n

00000dfb <mel_filter+0x5b>:
	...

00000dfc <mel_filter16>:
     dfc:	004136        	entry	a1, 32
     dff:	fc9951        	l32r	a5, 64 (e640 <all_amt_tab>)
     e02:	a04440        	addx4	a4, a4, a4
     e05:	fec332        	addi	a3, a3, -2
     e08:	b06450        	addx8	a6, a4, a5
     e0b:	fc24a0064e 	{ l16si	a4, a6, 0; ae_zeroq56	aeq0 }
     e10:	222b           	addi.n	a2, a2, 2
     e12:	070c           	movi.n	a7, 0
     e14:	3c14a6        	blti	a4, 1, e54 <mel_filter16+0x58>
     e17:	7658           	l32i.n	a5, a6, 28
     e19:	2668           	l32i.n	a6, a6, 8
     e1b:	f87c           	movi.n	a8, -1

00000e1d <mel_filter16+0x21>:
     e1d:	25ad           	ae_l16si.n	a10, a5, 0
     e1f:	0295c2        	l16si	a12, a5, 4
     e22:	90b760        	addx2	a11, a7, a6
     e25:	30da80        	xor	a13, a10, a8
     e28:	9cda           	add.n	a9, a12, a13
     e2a:	1519a6        	blti	a9, 1, e43 <mel_filter16+0x47>
     e2d:	90aa20        	addx2	a10, a10, a2
     e30:	cdca           	add.n	a12, a13, a12
     e32:	408a04        	ae_lp16f.iu	aep0, a10, 0
     e35:	409b04        	ae_lp16f.iu	aep1, a11, 0
     e38:	078c76        	loop	a12, e43 <mel_filter16+0x47>
     e3b:	e223ac8a1f 	{ ae_lp16f.iu	aep0, a10, 2; ae_mulafp24s.ll	aeq0, aep0, aep1 }
     e40:	409b14        	ae_lp16f.iu	aep1, a11, 2

00000e43 <mel_filter16+0x47>:
     e43:	f8e38ff44e 	{ addi	a4, a4, -1; ae_roundsp16q48sym	aep0, aeq0 }
     e48:	797a           	add.n	a7, a9, a7
     e4a:	552b           	addi.n	a5, a5, 2
     e4c:	fc24b2831f 	{ ae_sp16f.l.iu	aep0, a3, 2; ae_zeroq56	aeq0 }
     e51:	fc8456        	bnez	a4, e1d <mel_filter16+0x21>

00000e54 <mel_filter16+0x58>:
     e54:	f01d           	retw.n

00000e56 <mel_filter16+0x5a>:
	...

00000e58 <inv_mel_filter>:
     e58:	004136        	entry	a1, 32
     e5b:	fc8251        	l32r	a5, 64 (e640 <all_amt_tab>)
     e5e:	a04440        	addx4	a4, a4, a4
     e61:	080c           	movi.n	a8, 0
     e63:	b07450        	addx8	a7, a4, a5
     e66:	1748           	l32i.n	a4, a7, 4
     e68:	022752        	l32i	a5, a7, 8
     e6b:	072762        	l32i	a6, a7, 28
     e6e:	277d           	ae_l16si.n	a7, a7, 0
     e70:	02d3a2        	addmi	a10, a3, 0x200
     e73:	fc2080809f 	{ movi	a9, 128; ae_zerop48	aep0 }
     e78:	6a8d           	ae_s16i.n	a8, a10, 0
     e7a:	fcc382        	addi	a8, a3, -4
     e7d:	028976        	loop	a9, e83 <inv_mel_filter+0x2b>
     e80:	468814        	ae_sp16x2f.iu	aep0, a8, 4

00000e83 <inv_mel_filter+0x2b>:
     e83:	4717a6        	blti	a7, 1, ece <inv_mel_filter+0x76>
     e86:	509404        	ae_lp24f.iu	aep1, a4, 0
     e89:	40a204        	ae_lp16f.iu	aep2, a2, 0
     e8c:	408504        	ae_lp16f.iu	aep0, a5, 0

00000e8f <inv_mel_filter+0x37>:
     e8f:	268d           	ae_l16si.n	a8, a6, 0
     e91:	ea45a0269e 	{ l16si	a9, a6, 4; ae_mulfp24s.ll	aeq0, aep1, aep2 }
     e96:	01c882        	addi	a8, a8, 1
     e99:	88ad           	ae_sext16	a10, a8
     e9b:	22aa97        	bge	a10, a9, ec1 <inv_mel_filter+0x69>
     e9e:	f867d18a3f 	{ addx2	a8, a10, a3; ae_roundsp24q48asym	aep1, aeq0 }
     ea3:	c099a0        	sub	a9, a9, a10
     ea6:	40a804        	ae_lp16f.iu	aep2, a8, 0
     ea9:	148976        	loop	a9, ec1 <inv_mel_filter+0x69>
     eac:	011074        	ae_mulfp24s.ll	aeq0, aep1, aep0
     eaf:	1b8d04        	ae_roundsp24q48asym	aep0, aeq0
     eb2:	0b8404        	ae_sllisp24s	aep0, aep0, 8
     eb5:	078204        	ae_addsp24s	aep0, aep0, aep2
     eb8:	428804        	ae_sp16f.l.iu	aep0, a8, 0
     ebb:	40a814        	ae_lp16f.iu	aep2, a8, 2
     ebe:	408514        	ae_lp16f.iu	aep0, a5, 2

00000ec1 <inv_mel_filter+0x69>:
     ec1:	770b           	addi.n	a7, a7, -1
     ec3:	509414        	ae_lp24f.iu	aep1, a4, 4
     ec6:	40a214        	ae_lp16f.iu	aep2, a2, 2
     ec9:	662b           	addi.n	a6, a6, 2
     ecb:	fc0756        	bnez	a7, e8f <inv_mel_filter+0x37>

00000ece <inv_mel_filter+0x76>:
     ece:	f01d           	retw.n

00000ed0 <calc_amt>:
     ed0:	00e136        	entry	a1, 112
     ed3:	fc20e042be 	{ l16si	a11, a2, 8; ae_zerop48	aep1 }
     ed8:	fc2494a12f 	{ s32i.n	a2, a1, 40; ae_zeroq56	aeq0 }
     edd:	fc61c1        	l32r	a12, 64 (e640 <all_amt_tab>)
     ee0:	2b0b           	addi.n	a2, a11, -1
     ee2:	822d           	ae_sext16	a2, a2
     ee4:	116122        	s32i	a2, a1, 68
     ee7:	a02220        	addx4	a2, a2, a2
     eea:	f139           	s32i.n	a3, a1, 60
     eec:	b032c0        	addx8	a3, a2, a12
     eef:	106142        	s32i	a4, a1, 64
     ef2:	234d           	ae_l16si.n	a4, a3, 0
     ef4:	5328           	l32i.n	a2, a3, 20
     ef6:	63d8           	l32i.n	a13, a3, 24
     ef8:	33e8           	l32i.n	a14, a3, 12
     efa:	83f8           	l32i.n	a15, a3, 32
     efc:	4378           	l32i.n	a7, a3, 16
     efe:	533d           	ae_l16ui.n	a3, a3, 2
     f00:	126152        	s32i	a5, a1, 72
     f03:	d129           	s32i.n	a2, a1, 52
     f05:	c1d9           	s32i.n	a13, a1, 48
     f07:	e1e9           	s32i.n	a14, a1, 56
     f09:	b1f9           	s32i.n	a15, a1, 44
     f0b:	3c14a6        	blti	a4, 1, f4b <calc_amt+0x7b>
     f0e:	a128           	l32i.n	a2, a1, 40
     f10:	045d           	mov.n	a5, a4
     f12:	62cb           	addi.n	a6, a2, 12
     f14:	fc5521        	l32r	a2, 68 (d2c <fxln>)
     f17:	605604        	ae_lq32f.iu	aeq1, a6, 0

00000f1a <calc_amt+0x4a>:
     f1a:	35d2f4        	ae_sraiq56	aeq3, aeq1, 11
     f1d:	fc3c7a014f 	{ ae_sq56s.i	aeq0, a1, 32; ae_roundsq32asym	aeq0, aeq3 }
     f22:	368a04        	ae_trunca32q48	a10, aeq0
     f25:	631134        	ae_sq56s.i	aeq1, a1, 24
     f28:	561124        	ae_sp24x2s.i	aep1, a1, 16
     f2b:	0002e0        	callx8	a2
     f2e:	300aa4        	ae_cvtp24a16x2.ll	aep0, a10, a10
     f31:	cc403d814f 	{ ae_lq56.i	aeq0, a1, 32; ae_sraip24	aep0, aep0, 8 }
     f36:	614134        	ae_lq56.i	aeq1, a1, 24
     f39:	f86630112f 	{ ae_lp24x2.i	aep1, a1, 16; ae_addq56	aeq0, aeq0, aeq1 }
     f3e:	fc00cff55e 	{ addi	a5, a5, -1; ae_satq48s	aeq0, aeq0 }
     f43:	d8057d361f 	{ ae_lq32f.iu	aeq1, a6, 4; ae_addsp24s	aep1, aep1, aep0 }
     f48:	fce556        	bnez	a5, f1a <calc_amt+0x4a>
     f4b:	300334        	ae_cvtp24a16x2.ll	aep0, a3, a3
     f4e:	030214        	ae_mulfq32sp16s.l	aeq0, aeq0, aep0
     f51:	011874        	ae_mulfp24s.ll	aeq1, aep1, aep0
     f54:	fc2440ff3f 	{ movi	a3, 255; ae_roundsq32asym	aeq0, aeq0 }
     f59:	355234        	ae_sraiq56	aeq1, aeq1, 8
     f5c:	ff2c7a810f 	{ ae_slliq56	aeq0, aeq0, 4; ae_roundsq32asym	aeq3, aeq1 }
     f61:	368604        	ae_trunca32q48	a6, aeq0
     f64:	353154        	ae_slliq56	aeq0, aeq3, 5
     f67:	368a04        	ae_trunca32q48	a10, aeq0
     f6a:	fc4021        	l32r	a2, 6c (950 <fxexp>)
     f6d:	0002e0        	callx8	a2
     f70:	7fd332        	addmi	a3, a3, 0x7f00
     f73:	f6ac           	beqz.n	a6, fa6 <calc_amt+0xd6>
     f75:	035d           	mov.n	a5, a3
     f77:	2daa67        	bge	a10, a6, fa8 <calc_amt+0xd8>
     f7a:	40e650        	nsa	a5, a6
     f7d:	360a34        	ae_cvtq48a32s	aeq0, a10
     f80:	855d           	ae_sext16	a5, a5
     f82:	fc24fe850f 	{ ae_slaasq56s	aeq0, aeq0, a5; nop }
     f87:	fc00fec67f 	{ ae_cvtq48a32s	aeq1, a6; ae_satq48s	aeq0, aeq0 }
     f8c:	f1c552        	addi	a5, a5, -15
     f8f:	fc24fe954f 	{ ae_slaasq56s	aeq1, aeq1, a5; nop }
     f94:	fd04ff0eef 	{ ae_trunca32q48	a14, aeq0; ae_satq48s	aeq1, aeq1 }
     f99:	369f04        	ae_trunca32q48	a15, aeq1
     f9c:	d25ef0        	quos	a5, a14, a15
     f9f:	a55d           	ae_clamps16	a5, a5
     fa1:	855d           	ae_sext16	a5, a5
     fa3:	000046        	j	fa8 <calc_amt+0xd8>

00000fa6 <calc_amt+0xd6>:
     fa6:	050c           	movi.n	a5, 0
     fa8:	360534        	ae_cvtq48a32s	aeq0, a5
     fab:	350054        	ae_slliq56	aeq0, aeq0, 1
     fae:	fc00cd3a5f 	{ movi	a5, 0xfffffd3a; ae_satq48s	aeq0, aeq0 }
     fb3:	368a04        	ae_trunca32q48	a10, aeq0
     fb6:	fc2e21        	l32r	a2, 70 (cb4 <fxlog10>)
     fb9:	0002e0        	callx8	a2
     fbc:	a06aa0        	addx4	a6, a10, a10
     fbf:	1166f0        	slli	a6, a6, 1
     fc2:	300554        	ae_cvtp24a16x2.ll	aep0, a5, a5
     fc5:	360634        	ae_cvtq48a32s	aeq0, a6
     fc8:	d4e230d18e 	{ l32i	a8, a1, 52; ae_mulfq32sp16s.l	aeq0, aeq0, aep0 }
     fcd:	c1a8           	l32i.n	a10, a1, 48
     fcf:	3604d4        	ae_sllisq56s	aeq0, aeq0, 19
     fd2:	fc00f0b1be 	{ l32i	a11, a1, 44; ae_satq48s	aeq0, aeq0 }
     fd7:	f8e380cd5f 	{ movi	a5, 205; ae_roundsp16q48sym	aep0, aeq0 }
     fdc:	0214e6        	bgei	a4, 1, fe2 <calc_amt+0x112>
     fdf:	005e46        	j	115c <calc_amt+0x28c>
     fe2:	b60c           	movi.n	a6, 11
     fe4:	a128           	l32i.n	a2, a1, 40
     fe6:	0cd552        	addmi	a5, a5, 0xc00
     fe9:	116680        	slli	a6, a6, 8
     fec:	307654        	ae_cvtp24a16x2.ll	aep7, a6, a5
     fef:	301334        	ae_cvtp24a16x2.ll	aep1, a3, a3
     ff2:	df06b1016e 	{ l32i	a6, a1, 64; ae_subsp24s	aep6, aep1, aep0 }
     ff7:	40a704        	ae_lp16f.iu	aep2, a7, 0
     ffa:	a0e420        	addx4	a14, a4, a2
     ffd:	fc24bf0f6f 	{ ae_trunca16p24s.l	a15, aep0; ae_zeroq56	aeq0 }
    1002:	3ecb           	addi.n	a3, a14, 12
    1004:	562124        	ae_sp24x2s.i	aep2, a1, 16
    1007:	1361f2        	s32i	a15, a1, 76
    100a:	566144        	ae_sp24x2s.i	aep6, a1, 32
    100d:	567134        	ae_sp24x2s.i	aep7, a1, 24
    1010:	0014c6        	j	1067 <calc_amt+0x197>

00001013 <calc_amt+0x143>:
    1013:	882d           	ae_sext16	a2, a8
    1015:	224b           	addi.n	a2, a2, 4
    1017:	21a320        	srai	a10, a2, 3
    101a:	fc1321        	l32r	a2, 68 (d2c <fxln>)
    101d:	0002e0        	callx8	a2
    1020:	360a34        	ae_cvtq48a32s	aeq0, a10
    1023:	350154        	ae_slliq56	aeq0, aeq0, 5
    1026:	060844        	ae_satq48s	aeq0, aeq0
    1029:	368a04        	ae_trunca32q48	a10, aeq0
    102c:	fc1021        	l32r	a2, 6c (950 <fxexp>)
    102f:	0002e0        	callx8	a2
    1032:	360a34        	ae_cvtq48a32s	aeq0, a10
    1035:	f8e3b0f15e 	{ l32i	a5, a1, 60; ae_roundsp16q48sym	aep0, aeq0 }
    103a:	262d           	ae_l16si.n	a2, a6, 0
    103c:	360e24        	ae_trunca16p24s.l	a14, aep0
    103f:	e1d8           	l32i.n	a13, a1, 56
    1041:	b1b8           	l32i.n	a11, a1, 44
    1043:	d188           	l32i.n	a8, a1, 52
    1045:	c1f8           	l32i.n	a15, a1, 48
    1047:	22ea           	add.n	a2, a2, a14
    1049:	554b           	addi.n	a5, a5, 4
    104b:	f159           	s32i.n	a5, a1, 60
    104d:	5d2b           	addi.n	a5, a13, 2
    104f:	a22d           	ae_clamps16	a2, a2
    1051:	fc248ff44e 	{ addi	a4, a4, -1; ae_zeroq56	aeq0 }
    1056:	662d           	ae_s16i.n	a2, a6, 0
    1058:	334b           	addi.n	a3, a3, 4
    105a:	e159           	s32i.n	a5, a1, 56
    105c:	bb2b           	addi.n	a11, a11, 2
    105e:	882b           	addi.n	a8, a8, 2
    1060:	af2b           	addi.n	a10, a15, 2
    1062:	662b           	addi.n	a6, a6, 2
    1064:	0f4416        	beqz	a4, 115c <calc_amt+0x28c>
    1067:	285d           	ae_l16si.n	a5, a8, 0
    1069:	d189           	s32i.n	a8, a1, 52
    106b:	a128           	l32i.n	a2, a1, 40
    106d:	1c15a6        	blti	a5, 1, 108d <calc_amt+0x1bd>
    1070:	2a8d           	ae_l16si.n	a8, a10, 0
    1072:	959d           	ae_zext16	a9, a5
    1074:	540124        	ae_lp24x2.i	aep0, a1, 16
    1077:	a0f820        	addx4	a15, a8, a2
    107a:	5fcb           	addi.n	a5, a15, 12
    107c:	605504        	ae_lq32f.iu	aeq1, a5, 0
    107f:	078976        	loop	a9, 108a <calc_amt+0x1ba>
    1082:	f403bd351f 	{ ae_lq32f.iu	aeq1, a5, 4; ae_mulafq32sp16s.h	aeq0, aeq1, aep0 }
    1087:	408714        	ae_lp16f.iu	aep0, a7, 2

0000108a <calc_amt+0x1ba>:
    108a:	560124        	ae_sp24x2s.i	aep0, a1, 16

0000108d <calc_amt+0x1bd>:
    108d:	2b5d           	ae_l16si.n	a5, a11, 0
    108f:	fc2471312e 	{ l32i	a2, a1, 76; ae_roundsq32asym	aeq0, aeq0 }
    1094:	368804        	ae_trunca32q48	a8, aeq0
    1097:	540144        	ae_lp24x2.i	aep0, a1, 32
    109a:	825520        	mull	a5, a5, a2
    109d:	36c534        	ae_cvtq48a32s	aeq3, a5
    10a0:	353054        	ae_slliq56	aeq0, aeq3, 1
    10a3:	fc00f0113f 	{ ae_lp24x2.i	aep1, a1, 24; ae_satq48s	aeq0, aeq0 }
    10a8:	e42114c1af 	{ s32i.n	a10, a1, 48; ae_mulafs32p16s.lh	aeq0, aep0, aep1 }
    10ad:	04d892        	addmi	a9, a8, 0x400
    10b0:	31ff80        	srai	a15, a8, 31
    10b3:	628980        	saltu	a8, a9, a8
    10b6:	f8e3905f8f 	{ add	a5, a15, a8; ae_roundsp16q48sym	aep0, aeq0 }
    10bb:	ea2314b1bf 	{ s32i.n	a11, a1, 44; ae_mulfs32p16s.ll	aeq0, aep0, aep1 }
    10c0:	419b90        	srli	a9, a9, 11
    10c3:	0155b0        	slli	a5, a5, 21
    10c6:	f8e390a95f 	{ add	a10, a9, a5; ae_roundsp16q48sym	aep0, aeq0 }
    10cb:	fbe951        	l32r	a5, 70 (cb4 <fxlog10>)
    10ce:	360224        	ae_trunca16p24s.l	a2, aep0
    10d1:	0005e0        	callx8	a5
    10d4:	afa052        	movi	a5, 175
    10d7:	1122d0        	slli	a2, a2, 3
    10da:	a22d           	ae_clamps16	a2, a2
    10dc:	c02a20        	sub	a2, a10, a2
    10df:	a22d           	ae_clamps16	a2, a2
    10e1:	49d552        	addmi	a5, a5, 0x4900
    10e4:	d12250        	mul16s	a2, a2, a5
    10e7:	01d282        	addmi	a8, a2, 0x100
    10ea:	315f20        	srai	a5, a2, 31
    10ed:	622820        	saltu	a2, a8, a2
    10f0:	252a           	add.n	a2, a5, a2
    10f2:	418980        	srli	a8, a8, 9
    10f5:	012290        	slli	a2, a2, 23
    10f8:	a82a           	add.n	a10, a8, a2
    10fa:	fbdc21        	l32r	a2, 6c (950 <fxexp>)
    10fd:	0002e0        	callx8	a2
    1100:	e128           	l32i.n	a2, a1, 56
    1102:	f1f8           	l32i.n	a15, a1, 60
    1104:	360a34        	ae_cvtq48a32s	aeq0, a10
    1107:	422d           	ae_l16ui.n	a2, a2, 0
    1109:	300224        	ae_cvtp24a16x2.ll	aep0, a2, a2
    110c:	d4e2300f5e 	{ l32i	a5, a15, 0; ae_mulfq32sp16s.l	aeq0, aeq0, aep0 }
    1111:	360054        	ae_sllisq56s	aeq0, aeq0, 1
    1114:	fc00c0008f 	{ movi	a8, 0; ae_satq48s	aeq0, aeq0 }
    1119:	fc2440ffbf 	{ movi	a11, 255; ae_roundsq32asym	aeq0, aeq0 }
    111e:	ef1516        	beqz	a5, 1013 <calc_amt+0x143>
    1121:	368204        	ae_trunca32q48	a2, aeq0
    1124:	0388           	l32i.n	a8, a3, 0
    1126:	40e5a0        	nsa	a10, a5
    1129:	8acd           	ae_sext16	a12, a10
    112b:	539280        	max	a9, a2, a8
    112e:	7fdb82        	addmi	a8, a11, 0x7f00
    1131:	022957        	blt	a9, a5, 1137 <calc_amt+0x267>
    1134:	ffb6c6        	j	1013 <calc_amt+0x143>
    1137:	360934        	ae_cvtq48a32s	aeq0, a9
    113a:	fc24fe8c0f 	{ ae_slaasq56s	aeq0, aeq0, a12; nop }
    113f:	fc00fec57f 	{ ae_cvtq48a32s	aeq1, a5; ae_satq48s	aeq0, aeq0 }
    1144:	f1cc22        	addi	a2, a12, -15
    1147:	fc24fe924f 	{ ae_slaasq56s	aeq1, aeq1, a2; nop }
    114c:	fd04ff0eef 	{ ae_trunca32q48	a14, aeq0; ae_satq48s	aeq1, aeq1 }
    1151:	369f04        	ae_trunca32q48	a15, aeq1
    1154:	d22ef0        	quos	a2, a14, a15
    1157:	a28d           	ae_clamps16	a8, a2
    1159:	ffad86        	j	1013 <calc_amt+0x143>

0000115c <calc_amt+0x28c>:
    115c:	fbc621        	l32r	a2, 74 (e58 <inv_mel_filter>)
    115f:	1021a2        	l32i	a10, a1, 64
    1162:	1221b2        	l32i	a11, a1, 72
    1165:	1121c2        	l32i	a12, a1, 68
    1168:	0002e0        	callx8	a2
    116b:	f01d           	retw.n

0000116d <calc_amt+0x29d>:
    116d:	000000                                        ...

00001170 <fn_ini_fb_noise_est>:
    1170:	004136        	entry	a1, 32
    1173:	fbc141        	l32r	a4, 78 (90e4 <xt_memset>)
    1176:	0b0c           	movi.n	a11, 0
    1178:	0ea2c2        	movi	a12, 0x20e
    117b:	02ad           	mov.n	a10, a2
    117d:	0004e0        	callx8	a4
    1180:	fbaa41        	l32r	a4, 28 (90f8 <xt_memcpy>)
    1183:	cc0c           	movi.n	a12, 12
    1185:	02ad           	mov.n	a10, a2
    1187:	03bd           	mov.n	a11, a3
    1189:	0004e0        	callx8	a4
    118c:	01a142        	movi	a4, 0x101
    118f:	18c222        	addi	a2, a2, 24
    1192:	00a132        	movi	a3, 0x100
    1195:	038476        	loop	a4, 119c <fn_ini_fb_noise_est+0x2c>
    1198:	0239           	s32i.n	a3, a2, 0
    119a:	224b           	addi.n	a2, a2, 4

0000119c <fn_ini_fb_noise_est+0x2c>:
    119c:	f01d           	retw.n

0000119e <fn_ini_fb_noise_est+0x2e>:
	...

000011a0 <fn_fb_noise_est>:
    11a0:	004136        	entry	a1, 32
    11a3:	18c262        	addi	a6, a2, 24
    11a6:	067d           	mov.n	a7, a6
    11a8:	508704        	ae_lp24f.iu	aep0, a7, 0
    11ab:	077416        	beqz	a4, 1226 <fn_fb_noise_est+0x86>
    11ae:	2238           	l32i.n	a3, a2, 8
    11b0:	81a042        	movi	a4, 129
    11b3:	413830        	srli	a3, a3, 8
    11b6:	399334        	ae_movpa24x2	aep1, a3, a3
    11b9:	0b8476        	loop	a4, 11c8 <fn_fb_noise_est+0x28>
    11bc:	010144        	ae_mulfp24s.hh	aeq0, aep0, aep1
    11bf:	1b8d04        	ae_roundsp24q48asym	aep0, aeq0
    11c2:	528704        	ae_sp24f.l.iu	aep0, a7, 0
    11c5:	508714        	ae_lp24f.iu	aep0, a7, 4

000011c8 <fn_fb_noise_est+0x28>:
    11c8:	3238           	l32i.n	a3, a2, 12
    11ca:	80a042        	movi	a4, 128
    11cd:	413830        	srli	a3, a3, 8
    11d0:	399334        	ae_movpa24x2	aep1, a3, a3
    11d3:	f03d           	nop.n
    11d5:	0b8476        	loop	a4, 11e4 <fn_fb_noise_est+0x44>
    11d8:	010144        	ae_mulfp24s.hh	aeq0, aep0, aep1
    11db:	1b8d04        	ae_roundsp24q48asym	aep0, aeq0
    11de:	528704        	ae_sp24f.l.iu	aep0, a7, 0
    11e1:	508714        	ae_lp24f.iu	aep0, a7, 4

000011e4 <fn_fb_noise_est+0x44>:
    11e4:	4238           	l32i.n	a3, a2, 16
    11e6:	80a042        	movi	a4, 128
    11e9:	508604        	ae_lp24f.iu	aep0, a6, 0
    11ec:	413830        	srli	a3, a3, 8
    11ef:	399334        	ae_movpa24x2	aep1, a3, a3
    11f2:	fcc532        	addi	a3, a5, -4
    11f5:	0e8476        	loop	a4, 1207 <fn_fb_noise_est+0x67>
    11f8:	010174        	ae_mulfp24s.ll	aeq0, aep0, aep1
    11fb:	1b8d24        	ae_roundsp24q48asym	aep2, aeq0
    11fe:	07a074        	ae_addsp24s	aep7, aep2, aep0
    1201:	52f314        	ae_sp24f.l.iu	aep7, a3, 4
    1204:	508614        	ae_lp24f.iu	aep0, a6, 4

00001207 <fn_fb_noise_est+0x67>:
    1207:	5228           	l32i.n	a2, a2, 20
    1209:	81a042        	movi	a4, 129
    120c:	412820        	srli	a2, a2, 8
    120f:	399224        	ae_movpa24x2	aep1, a2, a2
    1212:	0e8476        	loop	a4, 1224 <fn_fb_noise_est+0x84>
    1215:	010174        	ae_mulfp24s.ll	aeq0, aep0, aep1
    1218:	1b8d24        	ae_roundsp24q48asym	aep2, aeq0
    121b:	07a074        	ae_addsp24s	aep7, aep2, aep0
    121e:	52f314        	ae_sp24f.l.iu	aep7, a3, 4
    1221:	508614        	ae_lp24f.iu	aep0, a6, 4
    1224:	f01d           	retw.n

00001226 <fn_fb_noise_est+0x86>:
    1226:	0248           	l32i.n	a4, a2, 0
    1228:	1288           	l32i.n	a8, a2, 4
    122a:	01a192        	movi	a9, 0x101
    122d:	414840        	srli	a4, a4, 8
    1230:	418880        	srli	a8, a8, 8
    1233:	399484        	ae_movpa24x2	aep1, a4, a8
    1236:	50a304        	ae_lp24f.iu	aep2, a3, 0
    1239:	118976        	loop	a9, 124e <fn_fb_noise_est+0xae>
    123c:	010144        	ae_mulfp24s.hh	aeq0, aep0, aep1
    123f:	012134        	ae_mulafp24s.ll	aeq0, aep2, aep1
    1242:	1b8d74        	ae_roundsp24q48asym	aep7, aeq0
    1245:	52f704        	ae_sp24f.l.iu	aep7, a7, 0
    1248:	508714        	ae_lp24f.iu	aep0, a7, 4
    124b:	50a314        	ae_lp24f.iu	aep2, a3, 4

0000124e <fn_fb_noise_est+0xae>:
    124e:	ffe486        	j	11e4 <fn_fb_noise_est+0x44>

00001251 <fn_fb_noise_est+0xb1>:
    1251:	000000                                        ...

00001254 <fn_ini_st_noise_est>:
    1254:	004136        	entry	a1, 32
    1257:	fb8841        	l32r	a4, 78 (90e4 <xt_memset>)
    125a:	0b0c           	movi.n	a11, 0
    125c:	5ea3c2        	movi	a12, 0x35e
    125f:	02ad           	mov.n	a10, a2
    1261:	0004e0        	callx8	a4
    1264:	98a472        	movi	a7, 0x498
    1267:	6ca682        	movi	a8, 0x66c
    126a:	757c           	movi.n	a5, -9
    126c:	940c           	movi.n	a4, 9
    126e:	115550        	slli	a5, a5, 11
    1271:	c60c           	movi.n	a6, 12
    1273:	727a           	add.n	a7, a2, a7
    1275:	828a           	add.n	a8, a2, a8

00001277 <fn_ini_st_noise_est+0x23>:
    1277:	079d           	mov.n	a9, a7
    1279:	0859           	s32i.n	a5, a8, 0
    127b:	038676        	loop	a6, 1282 <fn_ini_st_noise_est+0x2e>
    127e:	0959           	s32i.n	a5, a9, 0
    1280:	994b           	addi.n	a9, a9, 4

00001282 <fn_ini_st_noise_est+0x2e>:
    1282:	440b           	addi.n	a4, a4, -1
    1284:	30c772        	addi	a7, a7, 48
    1287:	884b           	addi.n	a8, a8, 4
    1289:	fea456        	bnez	a4, 1277 <fn_ini_st_noise_est+0x23>
    128c:	fb6741        	l32r	a4, 28 (90f8 <xt_memcpy>)
    128f:	4c1c           	movi.n	a12, 20
    1291:	02ad           	mov.n	a10, a2
    1293:	03bd           	mov.n	a11, a3
    1295:	0004e0        	callx8	a4
    1298:	eda042        	movi	a4, 237
    129b:	28c222        	addi	a2, a2, 40
    129e:	00a132        	movi	a3, 0x100
    12a1:	038476        	loop	a4, 12a8 <fn_ini_st_noise_est+0x54>
    12a4:	0239           	s32i.n	a3, a2, 0
    12a6:	224b           	addi.n	a2, a2, 4
    12a8:	f01d           	retw.n

000012aa <fn_ini_st_noise_est+0x56>:
	...

000012ac <fn_st_noise_est>:
    12ac:	00c136        	entry	a1, 96
    12af:	06d2f2        	addmi	a15, a2, 0x600
    12b2:	050c           	movi.n	a5, 0
    12b4:	460c           	movi.n	a6, 4
    12b6:	2ca4e2        	movi	a14, 0x42c
    12b9:	fb7081        	l32r	a8, 7c (e6c0 <sb_ptn>)
    12bc:	170c           	movi.n	a7, 1
    12be:	39a664        	ae_movpa24x2	aep2, a6, a6
    12c1:	62ea           	add.n	a6, a2, a14
    12c3:	fe7c           	movi.n	a14, -1
    12c5:	d1f9           	s32i.n	a15, a1, 52
    12c7:	5d5f52        	s16i	a5, a15, 186
    12ca:	ff7c           	movi.n	a15, -1
    12cc:	c149           	s32i.n	a4, a1, 48
    12ce:	e139           	s32i.n	a3, a1, 56
    12d0:	990c           	movi.n	a9, 9
    12d2:	117710        	slli	a7, a7, 15
    12d5:	9129           	s32i.n	a2, a1, 36
    12d7:	01ee10        	slli	a14, a14, 31
    12da:	41f1f0        	srli	a15, a15, 1
    12dd:	fc20b7213f 	{ ae_sp24x2s.i	aep2, a1, 24; ae_zerop48	aep0 }

000012e2 <fn_st_noise_est+0x36>:
    12e2:	0f5d           	mov.n	a5, a15
    12e4:	282d           	ae_l16si.n	a2, a8, 0
    12e6:	38fd           	ae_l16si.n	a15, a8, 2
    12e8:	a189           	s32i.n	a8, a1, 40
    12ea:	040c           	movi.n	a4, 0
    12ec:	c08f20        	sub	a8, a15, a2
    12ef:	0e3d           	mov.n	a3, a14
    12f1:	f199           	s32i.n	a9, a1, 60
    12f3:	8149           	s32i.n	a4, a1, 32
    12f5:	1618a6        	blti	a8, 1, 130f <fn_st_noise_est+0x63>
    12f8:	0e2142        	l32i	a4, a1, 56
    12fb:	a02240        	addx4	a2, a2, a4
    12fe:	509204        	ae_lp24f.iu	aep1, a2, 0
    1301:	0a8876        	loop	a8, 130f <fn_st_noise_est+0x63>
    1304:	079214        	ae_addsp24s	aep1, aep1, aep2
    1307:	0f1194        	ae_sraip24	aep1, aep1, 3
    130a:	d8212e921f 	{ ae_lp24f.iu	aep1, a2, 4; ae_addsp24s	aep0, aep0, aep1 }

0000130f <fn_st_noise_est+0x63>:
    130f:	20c122        	addi	a2, a1, 32
    1312:	520204        	ae_sp24f.l.i	aep0, a2, 0
    1315:	8128           	l32i.n	a2, a1, 32
    1317:	21a820        	srai	a10, a2, 8
    131a:	fb5521        	l32r	a2, 70 (cb4 <fxlog10>)
    131d:	0002e0        	callx8	a2
    1320:	fb5841        	l32r	a4, 80 (d49a <mel_tab64+0x33a>)
    1323:	058d           	mov.n	a8, a5
    1325:	05bd           	mov.n	a11, a5
    1327:	829a40        	mull	a9, a10, a4
    132a:	05cd           	mov.n	a12, a5
    132c:	b159           	s32i.n	a5, a1, 44
    132e:	f57c           	movi.n	a5, -1
    1330:	a97a           	add.n	a10, a9, a7
    1332:	114500        	slli	a4, a5, 16
    1335:	3190a0        	srai	a9, a10, 16
    1338:	105a40        	and	a5, a10, a4
    133b:	31afa0        	srai	a10, a10, 31
    133e:	f5f090        	extui	a15, a9, 16, 16
    1341:	11aa00        	slli	a10, a10, 16
    1344:	122622        	l32i	a2, a6, 72
    1347:	aafa           	add.n	a10, a10, a15
    1349:	f77c           	movi.n	a7, -1
    134b:	53fa70        	max	a15, a10, a7
    134e:	734530        	maxu	a4, a5, a3
    1351:	7a1b           	addi.n	a7, a10, 1
    1353:	a353a0        	movltz	a5, a3, a10
    1356:	835470        	moveqz	a5, a4, a7
    1359:	a3b5f0        	movltz	a11, a5, a15
    135c:	63a580        	minu	a10, a5, a8
    135f:	c05290        	sub	a5, a2, a9
    1362:	722290        	salt	a2, a2, a9
    1365:	170c           	movi.n	a7, 1
    1367:	302270        	xor	a2, a2, a7
    136a:	9178           	l32i.n	a7, a1, 36
    136c:	96d8           	l32i.n	a13, a6, 36
    136e:	93abf0        	movnez	a10, a11, a15
    1371:	0b0c           	movi.n	a11, 0
    1373:	902270        	addx2	a2, a2, a7
    1376:	43bfb0        	min	a11, a15, a11
    1379:	c0fd90        	sub	a15, a13, a9
    137c:	a54d           	ae_clamps16	a4, a5
    137e:	225d           	ae_l16si.n	a5, a2, 0
    1380:	7229d0        	salt	a2, a9, a13
    1383:	6e0c           	movi.n	a14, 6
    1385:	4d0c           	movi.n	a13, 4
    1387:	93ed20        	movnez	a14, a13, a2
    138a:	27ea           	add.n	a2, a7, a14
    138c:	222d           	ae_l16si.n	a2, a2, 0
    138e:	affd           	ae_clamps16	a15, a15
    1390:	d1e540        	mul16s	a14, a5, a4
    1393:	d122f0        	mul16s	a2, a2, a15
    1396:	0497d2        	l16si	a13, a7, 8
    1399:	9042a0        	addx2	a4, a2, a10
    139c:	1122f0        	slli	a2, a2, 1
    139f:	312f20        	srai	a2, a2, 31
    13a2:	6274a0        	saltu	a7, a4, a10
    13a5:	2b2a           	add.n	a2, a11, a2
    13a7:	227a           	add.n	a2, a2, a7
    13a9:	08fd           	mov.n	a15, a8
    13ab:	738430        	maxu	a8, a4, a3
    13ae:	521b           	addi.n	a5, a2, 1
    13b0:	a34320        	movltz	a4, a3, a2
    13b3:	834850        	moveqz	a4, a8, a5
    13b6:	f87c           	movi.n	a8, -1
    13b8:	532280        	max	a2, a2, a8
    13bb:	a3c420        	movltz	a12, a4, a2
    13be:	6344f0        	minu	a4, a4, a15
    13c1:	170c           	movi.n	a7, 1
    13c3:	934c20        	movnez	a4, a12, a2
    13c6:	112710        	slli	a2, a7, 15
    13c9:	0699           	s32i.n	a9, a6, 0
    13cb:	119ef0        	slli	a9, a14, 1
    13ce:	242a           	add.n	a2, a4, a2
    13d0:	314f90        	srai	a4, a9, 31
    13d3:	905ea0        	addx2	a5, a14, a10
    13d6:	4b4a           	add.n	a4, a11, a4
    13d8:	62c5a0        	saltu	a12, a5, a10
    13db:	44ca           	add.n	a4, a4, a12
    13dd:	b1a8           	l32i.n	a10, a1, 44
    13df:	73b530        	maxu	a11, a5, a3
    13e2:	941b           	addi.n	a9, a4, 1
    13e4:	a35340        	movltz	a5, a3, a4
    13e7:	835b90        	moveqz	a5, a11, a9
    13ea:	534480        	max	a4, a4, a8
    13ed:	6375f0        	minu	a7, a5, a15
    13f0:	a3a540        	movltz	a10, a5, a4
    13f3:	1b0c           	movi.n	a11, 1
    13f5:	937a40        	movnez	a7, a10, a4
    13f8:	114b10        	slli	a4, a11, 15
    13fb:	474a           	add.n	a4, a7, a4
    13fd:	312020        	srai	a2, a2, 16
    1400:	314040        	srai	a4, a4, 16
    1403:	126642        	s32i	a4, a6, 72
    1406:	c04420        	sub	a4, a4, a2
    1409:	1c0c           	movi.n	a12, 1
    140b:	a44d           	ae_clamps16	a4, a4
    140d:	03ed           	mov.n	a14, a3
    140f:	117c10        	slli	a7, a12, 15
    1412:	9629           	s32i.n	a2, a6, 36
    1414:	10ad47        	bge	a13, a4, 1428 <fn_st_noise_est+0x17c>
    1417:	9128           	l32i.n	a2, a1, 36
    1419:	d138           	l32i.n	a3, a1, 52
    141b:	059222        	l16si	a2, a2, 10
    141e:	5d9342        	l16si	a4, a3, 186
    1421:	242a           	add.n	a2, a4, a2
    1423:	a22d           	ae_clamps16	a2, a2
    1425:	5d5322        	s16i	a2, a3, 186

00001428 <fn_st_noise_est+0x17c>:
    1428:	f198           	l32i.n	a9, a1, 60
    142a:	a188           	l32i.n	a8, a1, 40
    142c:	664b           	addi.n	a6, a6, 4
    142e:	990b           	addi.n	a9, a9, -1
    1430:	882b           	addi.n	a8, a8, 2
    1432:	fc20b0213f 	{ ae_lp24x2.i	aep2, a1, 24; ae_zerop48	aep0 }
    1437:	ea7956        	bnez	a9, 12e2 <fn_st_noise_est+0x36>
    143a:	d128           	l32i.n	a2, a1, 52
    143c:	91a8           	l32i.n	a10, a1, 36
    143e:	cb0c           	movi.n	a11, 12
    1440:	5d9252        	l16si	a5, a2, 186
    1443:	020c           	movi.n	a2, 0
    1445:	e80c           	movi.n	a8, 14
    1447:	725250        	salt	a5, a2, a5
    144a:	938b50        	movnez	a8, a11, a5
    144d:	5a8a           	add.n	a5, a10, a8
    144f:	255d           	ae_l16si.n	a5, a5, 0
    1451:	fb0c41        	l32r	a4, 84 (83ff8000 <_end+0x83fe919c>)
    1454:	166c           	movi.n	a6, -31
    1456:	2ca492        	movi	a9, 0x42c
    1459:	9c0c           	movi.n	a12, 9
    145b:	8a9a           	add.n	a8, a10, a9
    145d:	07dd           	mov.n	a13, a7
    145f:	f37c           	movi.n	a3, -1
    1461:	116660        	slli	a6, a6, 10
    1464:	1195f0        	slli	a9, a5, 1
    1467:	698c76        	loop	a12, 14d4 <fn_st_noise_est+0x228>
    146a:	0858           	l32i.n	a5, a8, 0
    146c:	872872        	l32i	a7, a8, 0x21c
    146f:	31af50        	srai	a10, a5, 31
    1472:	f5b050        	extui	a11, a5, 16, 16
    1475:	0afba0        	depbits	a10, a11, 0, 16
    1478:	11c500        	slli	a12, a5, 16
    147b:	c05750        	sub	a5, a7, a5
    147e:	737ce0        	maxu	a7, a12, a14
    1481:	a3cea0        	movltz	a12, a14, a10
    1484:	ba1b           	addi.n	a11, a10, 1
    1486:	a55d           	ae_clamps16	a5, a5
    1488:	83c7b0        	moveqz	a12, a7, a11
    148b:	53aa30        	max	a10, a10, a3
    148e:	0f7d           	mov.n	a7, a15
    1490:	a37ca0        	movltz	a7, a12, a10
    1493:	63ccf0        	minu	a12, a12, a15
    1496:	825950        	mull	a5, a9, a5
    1499:	93c7a0        	movnez	a12, a7, a10
    149c:	43ba20        	min	a11, a10, a2
    149f:	31af50        	srai	a10, a5, 31
    14a2:	5c5a           	add.n	a5, a12, a5
    14a4:	7baa           	add.n	a7, a11, a10
    14a6:	62a5c0        	saltu	a10, a5, a12
    14a9:	77aa           	add.n	a7, a7, a10
    14ab:	73c5e0        	maxu	a12, a5, a14
    14ae:	a71b           	addi.n	a10, a7, 1
    14b0:	a35e70        	movltz	a5, a14, a7
    14b3:	835ca0        	moveqz	a5, a12, a10
    14b6:	537730        	max	a7, a7, a3
    14b9:	0fcd           	mov.n	a12, a15
    14bb:	a3c570        	movltz	a12, a5, a7
    14be:	6355f0        	minu	a5, a5, a15
    14c1:	935c70        	movnez	a5, a12, a7
    14c4:	75da           	add.n	a7, a5, a13
    14c6:	725540        	salt	a5, a5, a4
    14c9:	317070        	srai	a7, a7, 16
    14cc:	937650        	movnez	a7, a6, a5
    14cf:	876872        	s32i	a7, a8, 0x21c
    14d2:	884b           	addi.n	a8, a8, 4

000014d4 <fn_st_noise_est+0x228>:
    14d4:	9188           	l32i.n	a8, a1, 36
    14d6:	b30c           	movi.n	a3, 11
    14d8:	020c           	movi.n	a2, 0
    14da:	06d842        	addmi	a4, a8, 0x600
    14dd:	5a9452        	l16si	a5, a4, 180
    14e0:	ff7c           	movi.n	a15, -1
    14e2:	06d872        	addmi	a7, a8, 0x600
    14e5:	551b           	addi.n	a5, a5, 1
    14e7:	856d           	ae_sext16	a6, a5
    14e9:	726360        	salt	a6, a3, a6
    14ec:	935260        	movnez	a5, a2, a6
    14ef:	f460f0        	extui	a6, a15, 0, 16
    14f2:	5a5452        	s16i	a5, a4, 180
    14f5:	028657        	bany	a6, a5, 14fb <fn_st_noise_est+0x24f>
    14f8:	003146        	j	15c1 <fn_st_noise_est+0x315>
    14fb:	5b9722        	l16si	a2, a7, 182
    14fe:	c1a8           	l32i.n	a10, a1, 48
    1500:	170c           	movi.n	a7, 1
    1502:	98a432        	movi	a3, 0x498
    1505:	a02280        	addx4	a2, a2, a8
    1508:	940c           	movi.n	a4, 9
    150a:	48a6f2        	movi	a15, 0x648
    150d:	223a           	add.n	a2, a2, a3
    150f:	8038f0        	add	a3, a8, a15
    1512:	117710        	slli	a7, a7, 15
    1515:	0d8476        	loop	a4, 1526 <fn_st_noise_est+0x27a>
    1518:	0348           	l32i.n	a4, a3, 0
    151a:	0258           	l32i.n	a5, a2, 0
    151c:	334b           	addi.n	a3, a3, 4
    151e:	434450        	min	a4, a4, a5
    1521:	0249           	s32i.n	a4, a2, 0
    1523:	30c222        	addi	a2, a2, 48

00001526 <fn_st_noise_est+0x27a>:
    1526:	48a632        	movi	a3, 0x648
    1529:	72a022        	movi	a2, 114
    152c:	950c           	movi.n	a5, 9
    152e:	040c           	movi.n	a4, 0
    1530:	1cd222        	addmi	a2, a2, 0x1c00
    1533:	383a           	add.n	a3, a8, a3
    1535:	168576        	loop	a5, 154f <fn_st_noise_est+0x2a3>
    1538:	0358           	l32i.n	a5, a3, 0
    153a:	9368           	l32i.n	a6, a3, 36
    153c:	334b           	addi.n	a3, a3, 4
    153e:	c05560        	sub	a5, a5, a6
    1541:	a55d           	ae_clamps16	a5, a5
    1543:	d15520        	mul16s	a5, a5, a2
    1546:	557a           	add.n	a5, a5, a7
    1548:	315050        	srai	a5, a5, 16
    154b:	454a           	add.n	a4, a5, a4
    154d:	a44d           	ae_clamps16	a4, a4

0000154f <fn_st_noise_est+0x2a3>:
    154f:	facf21        	l32r	a2, 8c (e700 <vad_thrd_bands>)
    1552:	ffa072        	movi	a7, 255
    1555:	7fd772        	addmi	a7, a7, 0x7f00
    1558:	099252        	l16si	a5, a2, 18
    155b:	48a662        	movi	a6, 0x648
    155e:	06d832        	addmi	a3, a8, 0x600
    1561:	724540        	salt	a4, a5, a4
    1564:	facb51        	l32r	a5, 90 (e6e0 <score_bands>)
    1567:	934740        	movnez	a4, a7, a4
    156a:	9f0c           	movi.n	a15, 9
    156c:	686a           	add.n	a6, a8, a6
    156e:	5c5342        	s16i	a4, a3, 184
    1571:	268f76        	loop	a15, 159b <fn_st_noise_est+0x2ef>
    1574:	0678           	l32i.n	a7, a6, 0
    1576:	9688           	l32i.n	a8, a6, 36
    1578:	22fd           	ae_l16si.n	a15, a2, 0
    157a:	849d           	ae_sext16	a9, a4
    157c:	c07780        	sub	a7, a7, a8
    157f:	a77d           	ae_clamps16	a7, a7
    1581:	c077f0        	sub	a7, a7, a15
    1584:	a77d           	ae_clamps16	a7, a7
    1586:	126672        	s32i	a7, a6, 72
    1589:	0817a6        	blti	a7, 1, 1595 <fn_st_noise_est+0x2e9>
    158c:	257d           	ae_l16si.n	a7, a5, 0
    158e:	497a           	add.n	a4, a9, a7
    1590:	a44d           	ae_clamps16	a4, a4
    1592:	5c5342        	s16i	a4, a3, 184

00001595 <fn_st_noise_est+0x2e9>:
    1595:	552b           	addi.n	a5, a5, 2
    1597:	222b           	addi.n	a2, a2, 2
    1599:	664b           	addi.n	a6, a6, 4

0000159b <fn_st_noise_est+0x2ef>:
    159b:	9188           	l32i.n	a8, a1, 36
    159d:	842d           	ae_sext16	a2, a4
    159f:	089832        	l16si	a3, a8, 16
    15a2:	0a9842        	l16si	a4, a8, 20
    15a5:	022237        	blt	a2, a3, 15ab <fn_st_noise_est+0x2ff>
    15a8:	005a46        	j	1715 <fn_st_noise_est+0x469>
    15ab:	022427        	blt	a4, a2, 15b1 <fn_st_noise_est+0x305>
    15ae:	003ac6        	j	169d <fn_st_noise_est+0x3f1>
    15b1:	099832        	l16si	a3, a8, 18
    15b4:	8848           	l32i.n	a4, a8, 32
    15b6:	022327        	blt	a3, a2, 15bc <fn_st_noise_est+0x310>
    15b9:	003946        	j	16a2 <fn_st_noise_est+0x3f6>
    15bc:	042d           	mov.n	a2, a4
    15be:	003886        	j	16a4 <fn_st_noise_est+0x3f8>

000015c1 <fn_st_noise_est+0x315>:
    15c1:	06d8a2        	addmi	a10, a8, 0x600
    15c4:	5b9a42        	l16si	a4, a10, 182
    15c7:	9f0c           	movi.n	a15, 9
    15c9:	98a472        	movi	a7, 0x498
    15cc:	441b           	addi.n	a4, a4, 1
    15ce:	846d           	ae_sext16	a6, a4
    15d0:	723360        	salt	a3, a3, a6
    15d3:	fa9561        	l32r	a6, 28 (90f8 <xt_memcpy>)
    15d6:	832430        	moveqz	a2, a4, a3
    15d9:	48a6e2        	movi	a14, 0x648
    15dc:	12c152        	addi	a5, a1, 18
    15df:	a1f9           	s32i.n	a15, a1, 40
    15e1:	b1a9           	s32i.n	a10, a1, 44
    15e3:	5b5a22        	s16i	a2, a10, 182
    15e6:	787a           	add.n	a7, a8, a7
    15e8:	48ea           	add.n	a4, a8, a14
    15ea:	000d06        	j	1622 <fn_st_noise_est+0x376>

000015ed <fn_st_noise_est+0x341>:
    15ed:	089122        	l16si	a2, a1, 16
    15f0:	099132        	l16si	a3, a1, 18
    15f3:	0a9182        	l16si	a8, a1, 20
    15f6:	0b9192        	l16si	a9, a1, 22
    15f9:	b1e8           	l32i.n	a14, a1, 44
    15fb:	223a           	add.n	a2, a2, a3
    15fd:	889a           	add.n	a8, a8, a9
    15ff:	5b9e32        	l16si	a3, a14, 182
    1602:	a1a8           	l32i.n	a10, a1, 40
    1604:	228a           	add.n	a2, a2, a8
    1606:	222b           	addi.n	a2, a2, 2
    1608:	212220        	srai	a2, a2, 2
    160b:	aa0b           	addi.n	a10, a10, -1
    160d:	a03370        	addx4	a3, a3, a7
    1610:	a22d           	ae_clamps16	a2, a2
    1612:	04f8           	l32i.n	a15, a4, 0
    1614:	9429           	s32i.n	a2, a4, 36
    1616:	30c772        	addi	a7, a7, 48
    1619:	444b           	addi.n	a4, a4, 4
    161b:	03f9           	s32i.n	a15, a3, 0
    161d:	a1a9           	s32i.n	a10, a1, 40
    161f:	06ea16        	beqz	a10, 1691 <fn_st_noise_est+0x3e5>
    1622:	0788           	l32i.n	a8, a7, 0
    1624:	ffa032        	movi	a3, 255
    1627:	7fd332        	addmi	a3, a3, 0x7f00
    162a:	fa97f1        	l32r	a15, 88 (7fff7fff <_end+0x7ffe919b>)
    162d:	0a5132        	s16i	a3, a1, 20
    1630:	274b           	addi.n	a2, a7, 4
    1632:	41f9           	s32i.n	a15, a1, 16
    1634:	a30c           	movi.n	a3, 10
    1636:	889d           	ae_sext16	a9, a8
    1638:	0b5182        	s16i	a8, a1, 22
    163b:	0288           	l32i.n	a8, a2, 0
    163d:	0a91a2        	l16si	a10, a1, 20
    1640:	2c0c           	movi.n	a12, 2
    1642:	11a897        	bge	a8, a9, 1657 <fn_st_noise_est+0x3ab>
    1645:	10c1a2        	addi	a10, a1, 16
    1648:	3c0c           	movi.n	a12, 3
    164a:	05bd           	mov.n	a11, a5
    164c:	0006e0        	callx8	a6
    164f:	0288           	l32i.n	a8, a2, 0
    1651:	0b5182        	s16i	a8, a1, 22
    1654:	000b06        	j	1684 <fn_st_noise_est+0x3d8>

00001657 <fn_st_noise_est+0x3ab>:
    1657:	0fa8a7        	bge	a8, a10, 166a <fn_st_noise_est+0x3be>
    165a:	10c1a2        	addi	a10, a1, 16
    165d:	05bd           	mov.n	a11, a5
    165f:	0006e0        	callx8	a6
    1662:	0288           	l32i.n	a8, a2, 0
    1664:	0a5182        	s16i	a8, a1, 20
    1667:	000646        	j	1684 <fn_st_noise_est+0x3d8>

0000166a <fn_st_noise_est+0x3be>:
    166a:	099192        	l16si	a9, a1, 18
    166d:	0891a2        	l16si	a10, a1, 16
    1670:	0aa897        	bge	a8, a9, 167e <fn_st_noise_est+0x3d2>
    1673:	999d           	ae_zext16	a9, a9
    1675:	095182        	s16i	a8, a1, 18
    1678:	085192        	s16i	a9, a1, 16
    167b:	000146        	j	1684 <fn_st_noise_est+0x3d8>

0000167e <fn_st_noise_est+0x3d2>:
    167e:	02a8a7        	bge	a8, a10, 1684 <fn_st_noise_est+0x3d8>
    1681:	085182        	s16i	a8, a1, 16
    1684:	f65316        	beqz	a3, 15ed <fn_st_noise_est+0x341>
    1687:	0b9192        	l16si	a9, a1, 22
    168a:	330b           	addi.n	a3, a3, -1
    168c:	224b           	addi.n	a2, a2, 4
    168e:	ffea46        	j	163b <fn_st_noise_est+0x38f>

00001691 <fn_st_noise_est+0x3e5>:
    1691:	c1a8           	l32i.n	a10, a1, 48
    1693:	9188           	l32i.n	a8, a1, 36
    1695:	170c           	movi.n	a7, 1
    1697:	117710        	slli	a7, a7, 15
    169a:	ffa206        	j	1526 <fn_st_noise_est+0x27a>

0000169d <fn_st_noise_est+0x3f1>:
    169d:	6828           	l32i.n	a2, a8, 24
    169f:	000046        	j	16a4 <fn_st_noise_est+0x3f8>

000016a2 <fn_st_noise_est+0x3f6>:
    16a2:	7828           	l32i.n	a2, a8, 28
    16a4:	00af32        	movi	a3, 0xffffff00
    16a7:	360334        	ae_cvtq48a32s	aeq0, a3
    16aa:	fa7431        	l32r	a3, 7c (e6c0 <sb_ptn>)
    16ad:	414820        	srli	a4, a2, 8
    16b0:	8129           	s32i.n	a2, a1, 32
    16b2:	398444        	ae_movpa24x2	aep0, a4, a4
    16b5:	020c           	movi.n	a2, 0
    16b7:	940c           	movi.n	a4, 9
    16b9:	001086        	j	16ff <fn_st_noise_est+0x453>

000016bc <fn_st_noise_est+0x410>:
    16bc:	221b           	addi.n	a2, a2, 1
    16be:	90f230        	addx2	a15, a2, a3
    16c1:	266d           	ae_l16si.n	a6, a6, 0
    16c3:	2f7d           	ae_l16si.n	a7, a15, 0
    16c5:	e158           	l32i.n	a5, a1, 56
    16c7:	a0c6b0        	addx4	a12, a6, a11
    16ca:	2ea677        	bge	a6, a7, 16fc <fn_st_noise_est+0x450>
    16cd:	c09760        	sub	a9, a7, a6
    16d0:	a05650        	addx4	a5, a6, a5
    16d3:	28cc62        	addi	a6, a12, 40
    16d6:	9188           	l32i.n	a8, a1, 36
    16d8:	fcc672        	addi	a7, a6, -4
    16db:	605504        	ae_lq32f.iu	aeq1, a5, 0
    16de:	609604        	ae_lq32f.iu	aeq2, a6, 0
    16e1:	178976        	loop	a9, 16fc <fn_st_noise_est+0x450>
    16e4:	01c1e4        	ae_andq56	aeq3, aeq1, aeq0
    16e7:	01afc4        	ae_subq56	aeq2, aeq2, aeq3
    16ea:	09ae14        	ae_truncp24q48x2	aep1, aeq2, aeq2
    16ed:	011834        	ae_mulafp24s.ll	aeq1, aep1, aep0
    16f0:	1b9d14        	ae_roundsp24q48asym	aep1, aeq1
    16f3:	529714        	ae_sp24f.l.iu	aep1, a7, 4
    16f6:	605514        	ae_lq32f.iu	aeq1, a5, 4
    16f9:	609614        	ae_lq32f.iu	aeq2, a6, 4

000016fc <fn_st_noise_est+0x450>:
    16fc:	151247        	beq	a2, a4, 1715 <fn_st_noise_est+0x469>

000016ff <fn_st_noise_est+0x453>:
    16ff:	a05280        	addx4	a5, a2, a8
    1702:	06d552        	addmi	a5, a5, 0x600
    1705:	242552        	l32i	a5, a5, 144
    1708:	906230        	addx2	a6, a2, a3
    170b:	91b8           	l32i.n	a11, a1, 36
    170d:	ab15a6        	blti	a5, 1, 16bc <fn_st_noise_est+0x410>
    1710:	221b           	addi.n	a2, a2, 1
    1712:	fff986        	j	16fc <fn_st_noise_est+0x450>

00001715 <fn_st_noise_est+0x469>:
    1715:	9838           	l32i.n	a3, a8, 36
    1717:	eda042        	movi	a4, 237
    171a:	fcca22        	addi	a2, a10, -4
    171d:	413830        	srli	a3, a3, 8
    1720:	398334        	ae_movpa24x2	aep0, a3, a3
    1723:	28c832        	addi	a3, a8, 40
    1726:	509304        	ae_lp24f.iu	aep1, a3, 0
    1729:	0e8476        	loop	a4, 173b <fn_st_noise_est+0x48f>
    172c:	011074        	ae_mulfp24s.ll	aeq0, aep1, aep0
    172f:	1b8d24        	ae_roundsp24q48asym	aep2, aeq0
    1732:	07a174        	ae_addsp24s	aep7, aep2, aep1
    1735:	52f214        	ae_sp24f.l.iu	aep7, a2, 4
    1738:	509314        	ae_lp24f.iu	aep1, a3, 4

0000173b <fn_st_noise_est+0x48f>:
    173b:	b4a322        	movi	a2, 0x3b4
    173e:	aa2a           	add.n	a10, a10, a2
    1740:	fa5521        	l32r	a2, 94 (90d0 <memset>)
    1743:	0b0c           	movi.n	a11, 0
    1745:	0c5c           	movi.n	a12, 80
    1747:	0002e0        	callx8	a2
    174a:	f01d           	retw.n

0000174c <fn_ini_analysis_frame>:
    174c:	004136        	entry	a1, 32
    174f:	fa4a41        	l32r	a4, 78 (90e4 <xt_memset>)
    1752:	0b0c           	movi.n	a11, 0
    1754:	c8a3c2        	movi	a12, 0x3c8
    1757:	02ad           	mov.n	a10, a2
    1759:	0004e0        	callx8	a4
    175c:	07d222        	addmi	a2, a2, 0x700
    175f:	226232        	s32i	a3, a2, 136
    1762:	f01d           	retw.n

00001764 <fn_analysis_frame>:
    1764:	006136        	entry	a1, 48
    1767:	07d272        	addmi	a7, a2, 0x700
    176a:	222772        	l32i	a7, a7, 136
    176d:	c8a382        	movi	a8, 0x3c8
    1770:	a28b           	addi.n	a10, a2, 8
    1772:	300664        	ae_cvtp24a16x2.ll	aep0, a6, a6
    1775:	3149           	s32i.n	a4, a1, 12
    1777:	5c1566        	bnei	a5, 1, 17d7 <fn_analysis_frame+0x73>
    177a:	1298           	l32i.n	a9, a2, 4
    177c:	0022d2        	l32i	a13, a2, 0
    177f:	fa4651        	l32r	a5, 98 (15cc64 <_end+0x14de00>)
    1782:	fa4661        	l32r	a6, 9c (7af1aa <_end+0x7a0346>)
    1785:	399654        	ae_movpa24x2	aep1, a6, a5
    1788:	c4a3e2        	movi	a14, 0x3c4
    178b:	419890        	srli	a9, a9, 8
    178e:	4158d0        	srli	a5, a13, 8
    1791:	78a0f2        	movi	a15, 120
    1794:	39b954        	ae_movpa24x2	aep3, a9, a5
    1797:	44a304        	ae_lp16x2f.iu	aep2, a3, 0
    179a:	8052e0        	add	a5, a2, a14
    179d:	2d8f76        	loop	a15, 17ce <fn_analysis_frame+0x6a>
    17a0:	fc443e2bcf 	{ ae_selp24.hh	aep7, aep2, aep3; ae_cvtq48p24s.h	aeq0, aep2 }
    17a5:	ec643e22ef 	{ ae_selp24.lh	aep3, aep2, aep2; ae_mulsafp24s.hh.ll	aeq0, aep1, aep3 }
    17aa:	fd4c2da31f 	{ ae_lp16x2f.iu	aep2, a3, 4; ae_cvtq48p24s.l	aeq1, aep2 }
    17af:	051f84        	ae_mulsafp24s.hh.ll	aeq1, aep1, aep7
    17b2:	060934        	ae_roundsq32asym	aeq0, aeq0
    17b5:	065934        	ae_roundsq32asym	aeq1, aeq1
    17b8:	030214        	ae_mulfq32sp16s.l	aeq0, aeq0, aep0
    17bb:	030a54        	ae_mulfq32sp16s.l	aeq1, aeq1, aep0
    17be:	360114        	ae_sllisq56s	aeq0, aeq0, 4
    17c1:	fc247ad1cf 	{ ae_sllisq56s	aeq3, aeq1, 4; ae_roundsq32asym	aeq0, aeq0 }
    17c6:	fc3c79c51f 	{ ae_sq32f.iu	aeq0, a5, 4; ae_roundsq32asym	aeq0, aeq3 }
    17cb:	624514        	ae_sq32f.iu	aeq0, a5, 4

000017ce <fn_analysis_frame+0x6a>:
    17ce:	1ab384        	ae_selp24.lh	aep0, aep3, aep3
    17d1:	5e0204        	ae_sp24x2f.i	aep0, a2, 0
    17d4:	000b06        	j	1804 <fn_analysis_frame+0xa0>

000017d7 <fn_analysis_frame+0x73>:
    17d7:	c4a352        	movi	a5, 0x3c4
    17da:	78a062        	movi	a6, 120
    17dd:	fcc332        	addi	a3, a3, -4
    17e0:	525a           	add.n	a5, a2, a5
    17e2:	1e8676        	loop	a6, 1804 <fn_analysis_frame+0xa0>
    17e5:	449314        	ae_lp16x2f.iu	aep1, a3, 4
    17e8:	0a0984        	ae_cvtq48p24s.h	aeq0, aep1
    17eb:	0a4184        	ae_cvtq48p24s.l	aeq1, aep1
    17ee:	030214        	ae_mulfq32sp16s.l	aeq0, aeq0, aep0
    17f1:	030a54        	ae_mulfq32sp16s.l	aeq1, aeq1, aep0
    17f4:	360114        	ae_sllisq56s	aeq0, aeq0, 4
    17f7:	fc247ad14f 	{ ae_sllisq56s	aeq1, aeq1, 4; ae_roundsq32asym	aeq0, aeq0 }
    17fc:	ff2c79c51f 	{ ae_sq32f.iu	aeq0, a5, 4; ae_roundsq32asym	aeq3, aeq1 }
    1801:	627514        	ae_sq32f.iu	aeq3, a5, 4

00001804 <fn_analysis_frame+0xa0>:
    1804:	fa2761        	l32r	a6, a0 (b6a0 <window>)
    1807:	428a           	add.n	a4, a2, a8
    1809:	0a8d           	mov.n	a8, a10
    180b:	f0a092        	movi	a9, 240
    180e:	08d722        	addmi	a2, a7, 0x800
    1811:	fcc752        	addi	a5, a7, -4
    1814:	203aa0        	or	a3, a10, a10
    1817:	601804        	ae_lq32f.iu	aeq0, a8, 0
    181a:	448604        	ae_lp16x2f.iu	aep0, a6, 0
    181d:	198976        	loop	a9, 183a <fn_analysis_frame+0xd6>
    1820:	030204        	ae_mulfq32sp16s.h	aeq0, aeq0, aep0
    1823:	060934        	ae_roundsq32asym	aeq0, aeq0
    1826:	624514        	ae_sq32f.iu	aeq0, a5, 4
    1829:	601814        	ae_lq32f.iu	aeq0, a8, 4
    182c:	d4e22d861f 	{ ae_lp16x2f.iu	aep0, a6, 4; ae_mulfq32sp16s.l	aeq0, aeq0, aep0 }
    1831:	060934        	ae_roundsq32asym	aeq0, aeq0
    1834:	624514        	ae_sq32f.iu	aeq0, a5, 4
    1837:	601814        	ae_lq32f.iu	aeq0, a8, 4

0000183a <fn_analysis_frame+0xd6>:
    183a:	80a752        	movi	a5, 0x780
    183d:	a75a           	add.n	a10, a7, a5
    183f:	fa1551        	l32r	a5, 94 (90d0 <memset>)
    1842:	0b0c           	movi.n	a11, 0
    1844:	80a0c2        	movi	a12, 128
    1847:	0005e0        	callx8	a5
    184a:	fa1651        	l32r	a5, a4 (5038 <real_512_fft>)
    184d:	07ad           	mov.n	a10, a7
    184f:	02bd           	mov.n	a11, a2
    1851:	0005e0        	callx8	a5
    1854:	3158           	l32i.n	a5, a1, 12
    1856:	fcca62        	addi	a6, a10, -4
    1859:	866d           	ae_sext16	a6, a6
    185b:	f8c552        	addi	a5, a5, -8
    185e:	5c8204        	ae_lp24x2f.iu	aep0, a2, 0
    1861:	1416a6        	blti	a6, 1, 1879 <fn_analysis_frame+0x115>
    1864:	01a172        	movi	a7, 0x101
    1867:	031664        	wur.ae_sar	a6
    186a:	088776        	loop	a7, 1876 <fn_analysis_frame+0x112>
    186d:	0b0084        	ae_sllssp24s	aep0, aep0
    1870:	5e8514        	ae_sp24x2f.iu	aep0, a5, 8
    1873:	5c8214        	ae_lp24x2f.iu	aep0, a2, 8
    1876:	000506        	j	188e <fn_analysis_frame+0x12a>

00001879 <fn_analysis_frame+0x115>:
    1879:	606060        	neg	a6, a6
    187c:	01a172        	movi	a7, 0x101
    187f:	031664        	wur.ae_sar	a6
    1882:	088776        	loop	a7, 188e <fn_analysis_frame+0x12a>
    1885:	0b0384        	ae_srasp24	aep0, aep0
    1888:	5e8514        	ae_sp24x2f.iu	aep0, a5, 8
    188b:	5c8214        	ae_lp24x2f.iu	aep0, a2, 8

0000188e <fn_analysis_frame+0x12a>:
    188e:	f9e621        	l32r	a2, 28 (90f8 <xt_memcpy>)
    1891:	e0a1c2        	movi	a12, 0x1e0
    1894:	03ad           	mov.n	a10, a3
    1896:	04bd           	mov.n	a11, a4
    1898:	0002e0        	callx8	a2
    189b:	f01d           	retw.n

0000189d <fn_analysis_frame+0x139>:
    189d:	000000                                        ...

000018a0 <fn_analysis_frame_32>:
    18a0:	008136        	entry	a1, 64
    18a3:	07d2e2        	addmi	a14, a2, 0x700
    18a6:	222e92        	l32i	a9, a14, 136
    18a9:	02fd           	mov.n	a15, a2
    18ab:	038d           	mov.n	a8, a3
    18ad:	c8a3a2        	movi	a10, 0x3c8
    18b0:	728b           	addi.n	a7, a2, 8
    18b2:	7149           	s32i.n	a4, a1, 28
    18b4:	021526        	beqi	a5, 1, 18ba <fn_analysis_frame_32+0x1a>
    18b7:	009886        	j	1b1d <fn_analysis_frame_32+0x27d>
    18ba:	1fe8           	l32i.n	a14, a15, 4
    18bc:	0f48           	l32i.n	a4, a15, 0
    18be:	0838           	l32i.n	a3, a8, 0
    18c0:	f9faa1        	l32r	a10, a8 (ff0a1cac <_end+0xff092e48>)
    18c3:	6199           	s32i.n	a9, a1, 24
    18c5:	2158e0        	srai	a5, a14, 8
    18c8:	f9f991        	l32r	a9, ac (2b98c8 <_end+0x2aaa64>)
    18cb:	5179           	s32i.n	a7, a1, 20
    18cd:	212840        	srai	a2, a4, 8
    18d0:	31ef30        	srai	a14, a3, 31
    18d3:	f57030        	extui	a7, a3, 16, 16
    18d6:	b245a0        	mulsh	a4, a5, a10
    18d9:	0af7e0        	depbits	a14, a7, 0, 16
    18dc:	4e4a           	add.n	a4, a14, a4
    18de:	b2e290        	mulsh	a14, a2, a9
    18e1:	822290        	mull	a2, a2, a9
    18e4:	4129           	s32i.n	a2, a1, 16
    18e6:	44ea           	add.n	a4, a4, a14
    18e8:	8275a0        	mull	a7, a5, a10
    18eb:	41e8           	l32i.n	a14, a1, 16
    18ed:	113300        	slli	a3, a3, 16
    18f0:	237a           	add.n	a2, a3, a7
    18f2:	1c0c           	movi.n	a12, 1
    18f4:	623230        	saltu	a3, a2, a3
    18f7:	11cc10        	slli	a12, a12, 15
    18fa:	e2ea           	add.n	a14, a2, a14
    18fc:	734a           	add.n	a7, a3, a4
    18fe:	623e20        	saltu	a3, a14, a2
    1901:	4eca           	add.n	a4, a14, a12
    1903:	f52040        	extui	a2, a4, 16, 16
    1906:	6244e0        	saltu	a4, a4, a14
    1909:	373a           	add.n	a3, a7, a3
    190b:	334a           	add.n	a3, a3, a4
    190d:	314030        	srai	a4, a3, 16
    1910:	fb7c           	movi.n	a11, -1
    1912:	741b           	addi.n	a7, a4, 1
    1914:	4179           	s32i.n	a7, a1, 16
    1916:	f77c           	movi.n	a7, -1
    1918:	01bb10        	slli	a11, a11, 31
    191b:	0bf320        	depbits	a2, a3, 16, 16
    191e:	7332b0        	maxu	a3, a2, a11
    1921:	53e470        	max	a14, a4, a7
    1924:	a32b40        	movltz	a2, a11, a4
    1927:	4148           	l32i.n	a4, a1, 16
    1929:	fd7c           	movi.n	a13, -1
    192b:	41d1d0        	srli	a13, a13, 1
    192e:	832340        	moveqz	a2, a3, a4
    1931:	0d3d           	mov.n	a3, a13
    1933:	6342d0        	minu	a4, a2, a13
    1936:	a332e0        	movltz	a3, a2, a14
    1939:	9343e0        	movnez	a4, a3, a14
    193c:	b22460        	mulsh	a2, a4, a6
    193f:	823460        	mull	a3, a4, a6
    1942:	11e2b0        	slli	a14, a2, 5
    1945:	41e9           	s32i.n	a14, a1, 16
    1947:	ffa3e2        	movi	a14, 0x3ff
    194a:	724e20        	salt	a4, a14, a2
    194d:	4128           	l32i.n	a2, a1, 16
    194f:	45eb30        	extui	a14, a3, 27, 5
    1952:	1133b0        	slli	a3, a3, 5
    1955:	22ea           	add.n	a2, a2, a14
    1957:	e3ca           	add.n	a14, a3, a12
    1959:	4129           	s32i.n	a2, a1, 16
    195b:	f520e0        	extui	a2, a14, 16, 16
    195e:	623e30        	saltu	a3, a14, a3
    1961:	41e8           	l32i.n	a14, a1, 16
    1963:	3e3a           	add.n	a3, a14, a3
    1965:	0bf320        	depbits	a2, a3, 16, 16
    1968:	31e030        	srai	a14, a3, 16
    196b:	030c           	movi.n	a3, 0
    196d:	93e340        	movnez	a14, a3, a4
    1970:	3e1b           	addi.n	a3, a14, 1
    1972:	932b40        	movnez	a2, a11, a4
    1975:	4139           	s32i.n	a3, a1, 16
    1977:	534e70        	max	a4, a14, a7
    197a:	7372b0        	maxu	a7, a2, a11
    197d:	a32be0        	movltz	a2, a11, a14
    1980:	41e8           	l32i.n	a14, a1, 16
    1982:	8327e0        	moveqz	a2, a7, a14
    1985:	0ded           	mov.n	a14, a13
    1987:	6372d0        	minu	a7, a2, a13
    198a:	a3e240        	movltz	a14, a2, a4
    198d:	937e40        	movnez	a7, a14, a4
    1990:	f26f72        	s32i	a7, a15, 0x3c8
    1993:	0878           	l32i.n	a7, a8, 0
    1995:	1838           	l32i.n	a3, a8, 4
    1997:	b2e590        	mulsh	a14, a5, a9
    199a:	212870        	srai	a2, a7, 8
    199d:	41e9           	s32i.n	a14, a1, 16
    199f:	31ef30        	srai	a14, a3, 31
    19a2:	f57030        	extui	a7, a3, 16, 16
    19a5:	0af7e0        	depbits	a14, a7, 0, 16
    19a8:	4178           	l32i.n	a7, a1, 16
    19aa:	829590        	mull	a9, a5, a9
    19ad:	113300        	slli	a3, a3, 16
    19b0:	b242a0        	mulsh	a4, a2, a10
    19b3:	8222a0        	mull	a2, a2, a10
    19b6:	e7ea           	add.n	a14, a7, a14
    19b8:	393a           	add.n	a3, a9, a3
    19ba:	4e4a           	add.n	a4, a14, a4
    19bc:	62e390        	saltu	a14, a3, a9
    19bf:	232a           	add.n	a2, a3, a2
    19c1:	4e4a           	add.n	a4, a14, a4
    19c3:	623230        	saltu	a3, a2, a3
    19c6:	a2ca           	add.n	a10, a2, a12
    19c8:	622a20        	saltu	a2, a10, a2
    19cb:	343a           	add.n	a3, a4, a3
    19cd:	232a           	add.n	a2, a3, a2
    19cf:	f5e0a0        	extui	a14, a10, 16, 16
    19d2:	313020        	srai	a3, a2, 16
    19d5:	0bf2e0        	depbits	a14, a2, 16, 16
    19d8:	735eb0        	maxu	a5, a14, a11
    19db:	431b           	addi.n	a4, a3, 1
    19dd:	a3eb30        	movltz	a14, a11, a3
    19e0:	f77c           	movi.n	a7, -1
    19e2:	83e540        	moveqz	a14, a5, a4
    19e5:	533370        	max	a3, a3, a7
    19e8:	0d9d           	mov.n	a9, a13
    19ea:	634ed0        	minu	a4, a14, a13
    19ed:	a39e30        	movltz	a9, a14, a3
    19f0:	934930        	movnez	a4, a9, a3
    19f3:	823460        	mull	a3, a4, a6
    19f6:	b22460        	mulsh	a2, a4, a6
    19f9:	455b30        	extui	a5, a3, 27, 5
    19fc:	1133b0        	slli	a3, a3, 5
    19ff:	93ca           	add.n	a9, a3, a12
    1a01:	11a2b0        	slli	a10, a2, 5
    1a04:	ffa3e2        	movi	a14, 0x3ff
    1a07:	4a5a           	add.n	a4, a10, a5
    1a09:	623930        	saltu	a3, a9, a3
    1a0c:	343a           	add.n	a3, a4, a3
    1a0e:	722e20        	salt	a2, a14, a2
    1a11:	f5e090        	extui	a14, a9, 16, 16
    1a14:	0bf3e0        	depbits	a14, a3, 16, 16
    1a17:	314030        	srai	a4, a3, 16
    1a1a:	0a0c           	movi.n	a10, 0
    1a1c:	934a20        	movnez	a4, a10, a2
    1a1f:	93eb20        	movnez	a14, a11, a2
    1a22:	73ceb0        	maxu	a12, a14, a11
    1a25:	241b           	addi.n	a2, a4, 1
    1a27:	a3eb40        	movltz	a14, a11, a4
    1a2a:	83ec20        	moveqz	a14, a12, a2
    1a2d:	535470        	max	a5, a4, a7
    1a30:	0d7d           	mov.n	a7, a13
    1a32:	a37e50        	movltz	a7, a14, a5
    1a35:	639ed0        	minu	a9, a14, a13
    1a38:	939750        	movnez	a9, a7, a5
    1a3b:	d0a3a2        	movi	a10, 0x3d0
    1a3e:	eea0c2        	movi	a12, 238
    1a41:	f36f92        	s32i	a9, a15, 0x3cc
    1a44:	083d           	mov.n	a3, a8
    1a46:	4faa           	add.n	a4, a15, a10
    1a48:	41f9           	s32i.n	a15, a1, 16
    1a4a:	b98c76        	loop	a12, 1b07 <fn_analysis_frame_32+0x267>
    1a4d:	1378           	l32i.n	a7, a3, 4
    1a4f:	23e8           	l32i.n	a14, a3, 8
    1a51:	f995a1        	l32r	a10, a8 (ff0a1cac <_end+0xff092e48>)
    1a54:	0328           	l32i.n	a2, a3, 0
    1a56:	217870        	srai	a7, a7, 8
    1a59:	f994c1        	l32r	a12, ac (2b98c8 <_end+0x2aaa64>)
    1a5c:	b297a0        	mulsh	a9, a7, a10
    1a5f:	31ffe0        	srai	a15, a14, 31
    1a62:	f550e0        	extui	a5, a14, 16, 16
    1a65:	0af5f0        	depbits	a15, a5, 0, 16
    1a68:	212820        	srai	a2, a2, 8
    1a6b:	8277a0        	mull	a7, a7, a10
    1a6e:	b252c0        	mulsh	a5, a2, a12
    1a71:	9f9a           	add.n	a9, a15, a9
    1a73:	11fe00        	slli	a15, a14, 16
    1a76:	8222c0        	mull	a2, a2, a12
    1a79:	7f7a           	add.n	a7, a15, a7
    1a7b:	1c0c           	movi.n	a12, 1
    1a7d:	595a           	add.n	a5, a9, a5
    1a7f:	6297f0        	saltu	a9, a7, a15
    1a82:	272a           	add.n	a2, a7, a2
    1a84:	11ac10        	slli	a10, a12, 15
    1a87:	595a           	add.n	a5, a9, a5
    1a89:	e2aa           	add.n	a14, a2, a10
    1a8b:	627270        	saltu	a7, a2, a7
    1a8e:	622e20        	saltu	a2, a14, a2
    1a91:	557a           	add.n	a5, a5, a7
    1a93:	252a           	add.n	a2, a5, a2
    1a95:	f590e0        	extui	a9, a14, 16, 16
    1a98:	315020        	srai	a5, a2, 16
    1a9b:	0bf290        	depbits	a9, a2, 16, 16
    1a9e:	7329b0        	maxu	a2, a9, a11
    1aa1:	f51b           	addi.n	a15, a5, 1
    1aa3:	a39b50        	movltz	a9, a11, a5
    1aa6:	fc7c           	movi.n	a12, -1
    1aa8:	8392f0        	moveqz	a9, a2, a15
    1aab:	5355c0        	max	a5, a5, a12
    1aae:	0ded           	mov.n	a14, a13
    1ab0:	6379d0        	minu	a7, a9, a13
    1ab3:	a3e950        	movltz	a14, a9, a5
    1ab6:	937e50        	movnez	a7, a14, a5
    1ab9:	825760        	mull	a5, a7, a6
    1abc:	b22760        	mulsh	a2, a7, a6
    1abf:	45eb50        	extui	a14, a5, 27, 5
    1ac2:	ffa3f2        	movi	a15, 0x3ff
    1ac5:	1155b0        	slli	a5, a5, 5
    1ac8:	1172b0        	slli	a7, a2, 5
    1acb:	722f20        	salt	a2, a15, a2
    1ace:	f5aa           	add.n	a15, a5, a10
    1ad0:	77ea           	add.n	a7, a7, a14
    1ad2:	625f50        	saltu	a5, a15, a5
    1ad5:	575a           	add.n	a5, a7, a5
    1ad7:	f590f0        	extui	a9, a15, 16, 16
    1ada:	0bf590        	depbits	a9, a5, 16, 16
    1add:	317050        	srai	a7, a5, 16
    1ae0:	0a0c           	movi.n	a10, 0
    1ae2:	937a20        	movnez	a7, a10, a2
    1ae5:	939b20        	movnez	a9, a11, a2
    1ae8:	7329b0        	maxu	a2, a9, a11
    1aeb:	571b           	addi.n	a5, a7, 1
    1aed:	a39b70        	movltz	a9, a11, a7
    1af0:	839250        	moveqz	a9, a2, a5
    1af3:	53c7c0        	max	a12, a7, a12
    1af6:	0ded           	mov.n	a14, a13
    1af8:	a3e9c0        	movltz	a14, a9, a12
    1afb:	63f9d0        	minu	a15, a9, a13
    1afe:	93fec0        	movnez	a15, a14, a12
    1b01:	04f9           	s32i.n	a15, a4, 0
    1b03:	334b           	addi.n	a3, a3, 4
    1b05:	444b           	addi.n	a4, a4, 4

00001b07 <fn_analysis_frame_32+0x267>:
    1b07:	41f8           	l32i.n	a15, a1, 16
    1b09:	ee2822        	l32i	a2, a8, 0x3b8
    1b0c:	5178           	l32i.n	a7, a1, 20
    1b0e:	0f29           	s32i.n	a2, a15, 0
    1b10:	6198           	l32i.n	a9, a1, 24
    1b12:	ef2822        	l32i	a2, a8, 0x3bc
    1b15:	c8a3a2        	movi	a10, 0x3c8
    1b18:	1f29           	s32i.n	a2, a15, 4
    1b1a:	000846        	j	1b3f <fn_analysis_frame_32+0x29f>

00001b1d <fn_analysis_frame_32+0x27d>:
    1b1d:	c4a322        	movi	a2, 0x3c4
    1b20:	f0a042        	movi	a4, 240
    1b23:	300664        	ae_cvtp24a16x2.ll	aep0, a6, a6
    1b26:	601804        	ae_lq32f.iu	aeq0, a8, 0
    1b29:	3f2a           	add.n	a3, a15, a2
    1b2b:	f03d           	nop.n
    1b2d:	0e8476        	loop	a4, 1b3f <fn_analysis_frame_32+0x29f>
    1b30:	030214        	ae_mulfq32sp16s.l	aeq0, aeq0, aep0
    1b33:	360114        	ae_sllisq56s	aeq0, aeq0, 4
    1b36:	060934        	ae_roundsq32asym	aeq0, aeq0
    1b39:	624314        	ae_sq32f.iu	aeq0, a3, 4
    1b3c:	601814        	ae_lq32f.iu	aeq0, a8, 4

00001b3f <fn_analysis_frame_32+0x29f>:
    1b3f:	f95851        	l32r	a5, a0 (b6a0 <window>)
    1b42:	2faa           	add.n	a2, a15, a10
    1b44:	076d           	mov.n	a6, a7
    1b46:	f0a0f2        	movi	a15, 240
    1b49:	5129           	s32i.n	a2, a1, 20
    1b4b:	08d922        	addmi	a2, a9, 0x800
    1b4e:	fcc942        	addi	a4, a9, -4
    1b51:	073d           	mov.n	a3, a7
    1b53:	601604        	ae_lq32f.iu	aeq0, a6, 0
    1b56:	448504        	ae_lp16x2f.iu	aep0, a5, 0
    1b59:	198f76        	loop	a15, 1b76 <fn_analysis_frame_32+0x2d6>
    1b5c:	030204        	ae_mulfq32sp16s.h	aeq0, aeq0, aep0
    1b5f:	060934        	ae_roundsq32asym	aeq0, aeq0
    1b62:	624414        	ae_sq32f.iu	aeq0, a4, 4
    1b65:	601614        	ae_lq32f.iu	aeq0, a6, 4
    1b68:	d4e22d851f 	{ ae_lp16x2f.iu	aep0, a5, 4; ae_mulfq32sp16s.l	aeq0, aeq0, aep0 }
    1b6d:	060934        	ae_roundsq32asym	aeq0, aeq0
    1b70:	624414        	ae_sq32f.iu	aeq0, a4, 4
    1b73:	601614        	ae_lq32f.iu	aeq0, a6, 4

00001b76 <fn_analysis_frame_32+0x2d6>:
    1b76:	80a742        	movi	a4, 0x780
    1b79:	a94a           	add.n	a10, a9, a4
    1b7b:	f94641        	l32r	a4, 94 (90d0 <memset>)
    1b7e:	0b0c           	movi.n	a11, 0
    1b80:	80a0c2        	movi	a12, 128
    1b83:	095d           	mov.n	a5, a9
    1b85:	0004e0        	callx8	a4
    1b88:	f94741        	l32r	a4, a4 (5038 <real_512_fft>)
    1b8b:	05ad           	mov.n	a10, a5
    1b8d:	02bd           	mov.n	a11, a2
    1b8f:	0004e0        	callx8	a4
    1b92:	072142        	l32i	a4, a1, 28
    1b95:	fcca52        	addi	a5, a10, -4
    1b98:	855d           	ae_sext16	a5, a5
    1b9a:	f8c442        	addi	a4, a4, -8
    1b9d:	5c8204        	ae_lp24x2f.iu	aep0, a2, 0
    1ba0:	1415a6        	blti	a5, 1, 1bb8 <fn_analysis_frame_32+0x318>
    1ba3:	01a162        	movi	a6, 0x101
    1ba6:	031654        	wur.ae_sar	a5
    1ba9:	088676        	loop	a6, 1bb5 <fn_analysis_frame_32+0x315>
    1bac:	0b0084        	ae_sllssp24s	aep0, aep0
    1baf:	5e8414        	ae_sp24x2f.iu	aep0, a4, 8
    1bb2:	5c8214        	ae_lp24x2f.iu	aep0, a2, 8
    1bb5:	000506        	j	1bcd <fn_analysis_frame_32+0x32d>

00001bb8 <fn_analysis_frame_32+0x318>:
    1bb8:	605050        	neg	a5, a5
    1bbb:	01a162        	movi	a6, 0x101
    1bbe:	031654        	wur.ae_sar	a5
    1bc1:	088676        	loop	a6, 1bcd <fn_analysis_frame_32+0x32d>
    1bc4:	0b0384        	ae_srasp24	aep0, aep0
    1bc7:	5e8414        	ae_sp24x2f.iu	aep0, a4, 8
    1bca:	5c8214        	ae_lp24x2f.iu	aep0, a2, 8

00001bcd <fn_analysis_frame_32+0x32d>:
    1bcd:	f91621        	l32r	a2, 28 (90f8 <xt_memcpy>)
    1bd0:	51b8           	l32i.n	a11, a1, 20
    1bd2:	e0a1c2        	movi	a12, 0x1e0
    1bd5:	03ad           	mov.n	a10, a3
    1bd7:	0002e0        	callx8	a2
    1bda:	f01d           	retw.n

00001bdc <fn_ini_syn_frame>:
    1bdc:	004136        	entry	a1, 32
    1bdf:	f92641        	l32r	a4, 78 (90e4 <xt_memset>)
    1be2:	0b0c           	movi.n	a11, 0
    1be4:	e8a1c2        	movi	a12, 0x1e8
    1be7:	02ad           	mov.n	a10, a2
    1be9:	0004e0        	callx8	a4
    1bec:	f26232        	s32i	a3, a2, 0x3c8
    1bef:	f01d           	retw.n

00001bf1 <fn_ini_syn_frame+0x15>:
    1bf1:	000000                                        ...

00001bf4 <fn_syn_frame>:
    1bf4:	004136        	entry	a1, 32
    1bf7:	f92e71        	l32r	a7, b0 (5128 <real_512_ifft>)
    1bfa:	f22262        	l32i	a6, a2, 0x3c8
    1bfd:	03ad           	mov.n	a10, a3
    1bff:	04bd           	mov.n	a11, a4
    1c01:	0007e0        	callx8	a7
    1c04:	f92771        	l32r	a7, a0 (b6a0 <window>)
    1c07:	9a4b           	addi.n	a9, a10, 4
    1c09:	208440        	or	a8, a4, a4
    1c0c:	899d           	ae_sext16	a9, a9
    1c0e:	fcc632        	addi	a3, a6, -4
    1c11:	601804        	ae_lq32f.iu	aeq0, a8, 0
    1c14:	448704        	ae_lp16x2f.iu	aep0, a7, 0
    1c17:	f0a0a2        	movi	a10, 240
    1c1a:	2f19a6        	blti	a9, 1, 1c4d <fn_syn_frame+0x59>
    1c1d:	298a76        	loop	a10, 1c4a <fn_syn_frame+0x56>
    1c20:	fc24fe890f 	{ ae_slaasq56s	aeq0, aeq0, a9; nop }
    1c25:	030204        	ae_mulfq32sp16s.h	aeq0, aeq0, aep0
    1c28:	060844        	ae_satq48s	aeq0, aeq0
    1c2b:	098c14        	ae_truncp24q48x2	aep1, aeq0, aeq0
    1c2e:	529314        	ae_sp24f.l.iu	aep1, a3, 4
    1c31:	60d814        	ae_lq32f.iu	aeq3, a8, 4
    1c34:	fc24feb90f 	{ ae_slaasq56s	aeq0, aeq3, a9; nop }
    1c39:	d4e22d871f 	{ ae_lp16x2f.iu	aep0, a7, 4; ae_mulfq32sp16s.l	aeq0, aeq0, aep0 }
    1c3e:	060844        	ae_satq48s	aeq0, aeq0
    1c41:	098c74        	ae_truncp24q48x2	aep7, aeq0, aeq0
    1c44:	52f314        	ae_sp24f.l.iu	aep7, a3, 4
    1c47:	601814        	ae_lq32f.iu	aeq0, a8, 4

00001c4a <fn_syn_frame+0x56>:
    1c4a:	000b06        	j	1c7a <fn_syn_frame+0x86>

00001c4d <fn_syn_frame+0x59>:
    1c4d:	298a76        	loop	a10, 1c7a <fn_syn_frame+0x86>
    1c50:	fc24fe890f 	{ ae_slaasq56s	aeq0, aeq0, a9; nop }
    1c55:	060934        	ae_roundsq32asym	aeq0, aeq0
    1c58:	030204        	ae_mulfq32sp16s.h	aeq0, aeq0, aep0
    1c5b:	1b8d14        	ae_roundsp24q48asym	aep1, aeq0
    1c5e:	529314        	ae_sp24f.l.iu	aep1, a3, 4
    1c61:	60d814        	ae_lq32f.iu	aeq3, a8, 4
    1c64:	fc24feb90f 	{ ae_slaasq56s	aeq0, aeq3, a9; nop }
    1c69:	060934        	ae_roundsq32asym	aeq0, aeq0
    1c6c:	d4e22d871f 	{ ae_lp16x2f.iu	aep0, a7, 4; ae_mulfq32sp16s.l	aeq0, aeq0, aep0 }
    1c71:	1b8d74        	ae_roundsp24q48asym	aep7, aeq0
    1c74:	52f314        	ae_sp24f.l.iu	aep7, a3, 4
    1c77:	601814        	ae_lq32f.iu	aeq0, a8, 4

00001c7a <fn_syn_frame+0x86>:
    1c7a:	328b           	addi.n	a3, a2, 8
    1c7c:	068d           	mov.n	a8, a6
    1c7e:	78a092        	movi	a9, 120
    1c81:	f8c472        	addi	a7, a4, -8
    1c84:	5c8304        	ae_lp24x2f.iu	aep0, a3, 0
    1c87:	5c9804        	ae_lp24x2f.iu	aep1, a8, 0
    1c8a:	0b8976        	loop	a9, 1c99 <fn_syn_frame+0xa5>
    1c8d:	078104        	ae_addsp24s	aep0, aep0, aep1
    1c90:	5e8714        	ae_sp24x2f.iu	aep0, a7, 8
    1c93:	5c8314        	ae_lp24x2f.iu	aep0, a3, 8
    1c96:	5c9814        	ae_lp24x2f.iu	aep1, a8, 8

00001c99 <fn_syn_frame+0xa5>:
    1c99:	021526        	beqi	a5, 1, 1c9f <fn_syn_frame+0xab>
    1c9c:	004a86        	j	1dca <fn_syn_frame+0x1d6>
    1c9f:	12a8           	l32i.n	a10, a2, 4
    1ca1:	02b8           	l32i.n	a11, a2, 0
    1ca3:	0498           	l32i.n	a9, a4, 0
    1ca5:	f90331        	l32r	a3, b4 (f5e354 <_end+0xf4f4f0>)
    1ca8:	f90451        	l32r	a5, b8 (ffd46738 <_end+0xffd378d4>)
    1cab:	21f8a0        	srai	a15, a10, 8
    1cae:	f8fad1        	l32r	a13, 98 (15cc64 <_end+0x14de00>)
    1cb1:	f8fae1        	l32r	a14, 9c (7af1aa <_end+0x7a0346>)
    1cb4:	398ed4        	ae_movpa24x2	aep0, a14, a13
    1cb7:	b2af30        	mulsh	a10, a15, a3
    1cba:	31df90        	srai	a13, a9, 31
    1cbd:	f5e090        	extui	a14, a9, 16, 16
    1cc0:	21b8b0        	srai	a11, a11, 8
    1cc3:	82ff30        	mull	a15, a15, a3
    1cc6:	0afed0        	depbits	a13, a14, 0, 16
    1cc9:	b2eb50        	mulsh	a14, a11, a5
    1ccc:	119900        	slli	a9, a9, 16
    1ccf:	82bb50        	mull	a11, a11, a5
    1cd2:	ddaa           	add.n	a13, a13, a10
    1cd4:	f9fa           	add.n	a15, a9, a15
    1cd6:	170c           	movi.n	a7, 1
    1cd8:	ddea           	add.n	a13, a13, a14
    1cda:	629f90        	saltu	a9, a15, a9
    1cdd:	bfba           	add.n	a11, a15, a11
    1cdf:	017790        	slli	a7, a7, 23
    1ce2:	99da           	add.n	a9, a9, a13
    1ce4:	62fbf0        	saltu	a15, a11, a15
    1ce7:	db7a           	add.n	a13, a11, a7
    1ce9:	62bdb0        	saltu	a11, a13, a11
    1cec:	99fa           	add.n	a9, a9, a15
    1cee:	99ba           	add.n	a9, a9, a11
    1cf0:	75d8d0        	extui	a13, a13, 24, 8
    1cf3:	11b980        	slli	a11, a9, 8
    1cf6:	31f890        	srai	a15, a9, 24
    1cf9:	f87c           	movi.n	a8, -1
    1cfb:	bdba           	add.n	a11, a13, a11
    1cfd:	14e8           	l32i.n	a14, a4, 4
    1cff:	f59090        	extui	a9, a9, 16, 16
    1d02:	11df80        	slli	a13, a15, 8
    1d05:	0a79d0        	depbits	a13, a9, 0, 8
    1d08:	119b80        	slli	a9, a11, 8
    1d0b:	018810        	slli	a8, a8, 31
    1d0e:	f8eba1        	l32r	a10, bc (7fffff00 <_end+0x7fff109c>)
    1d11:	73f980        	maxu	a15, a9, a8
    1d14:	bd1b           	addi.n	a11, a13, 1
    1d16:	a398d0        	movltz	a9, a8, a13
    1d19:	839fb0        	moveqz	a9, a15, a11
    1d1c:	fc7c           	movi.n	a12, -1
    1d1e:	31bfe0        	srai	a11, a14, 31
    1d21:	f5f0e0        	extui	a15, a14, 16, 16
    1d24:	0affb0        	depbits	a11, a15, 0, 16
    1d27:	0afd           	mov.n	a15, a10
    1d29:	53ddc0        	max	a13, a13, a12
    1d2c:	a3f9d0        	movltz	a15, a9, a13
    1d2f:	6399a0        	minu	a9, a9, a10
    1d32:	939fd0        	movnez	a9, a15, a13
    1d35:	0499           	s32i.n	a9, a4, 0
    1d37:	12d8           	l32i.n	a13, a2, 4
    1d39:	219890        	srai	a9, a9, 8
    1d3c:	b2f930        	mulsh	a15, a9, a3
    1d3f:	829930        	mull	a9, a9, a3
    1d42:	2138d0        	srai	a3, a13, 8
    1d45:	82d350        	mull	a13, a3, a5
    1d48:	b25350        	mulsh	a5, a3, a5
    1d4b:	11ee00        	slli	a14, a14, 16
    1d4e:	deda           	add.n	a13, a14, a13
    1d50:	5b5a           	add.n	a5, a11, a5
    1d52:	62ede0        	saltu	a14, a13, a14
    1d55:	9d9a           	add.n	a9, a13, a9
    1d57:	55ea           	add.n	a5, a5, a14
    1d59:	62d9d0        	saltu	a13, a9, a13
    1d5c:	797a           	add.n	a7, a9, a7
    1d5e:	55fa           	add.n	a5, a5, a15
    1d60:	629790        	saltu	a9, a7, a9
    1d63:	55da           	add.n	a5, a5, a13
    1d65:	559a           	add.n	a5, a5, a9
    1d67:	31e850        	srai	a14, a5, 24
    1d6a:	119580        	slli	a9, a5, 8
    1d6d:	757870        	extui	a7, a7, 24, 8
    1d70:	779a           	add.n	a7, a7, a9
    1d72:	f55050        	extui	a5, a5, 16, 16
    1d75:	11fe80        	slli	a15, a14, 8
    1d78:	0a75f0        	depbits	a15, a5, 0, 8
    1d7b:	117780        	slli	a7, a7, 8
    1d7e:	73e780        	maxu	a14, a7, a8
    1d81:	df1b           	addi.n	a13, a15, 1
    1d83:	a378f0        	movltz	a7, a8, a15
    1d86:	53cfc0        	max	a12, a15, a12
    1d89:	93e7d0        	movnez	a14, a7, a13
    1d8c:	0afd           	mov.n	a15, a10
    1d8e:	a3fec0        	movltz	a15, a14, a12
    1d91:	635ea0        	minu	a5, a14, a10
    1d94:	348b           	addi.n	a3, a4, 8
    1d96:	935fc0        	movnez	a5, a15, a12
    1d99:	509304        	ae_lp24f.iu	aep1, a3, 0
    1d9c:	1459           	s32i.n	a5, a4, 4
    1d9e:	fc2c00eebf 	{ movi	a11, 238; ae_cvtq48p24s.l	aeq0, aep1 }
    1da3:	5023f4        	ae_lp24f.i	aep2, a3, -4
    1da6:	5013e4        	ae_lp24f.i	aep1, a3, -8
    1da9:	138b76        	loop	a11, 1dc0 <fn_syn_frame+0x1cc>
    1dac:	012004        	ae_mulafp24s.hh	aeq0, aep2, aep0
    1daf:	ee05bf207f 	{ ae_movp48	aep1, aep2; ae_mulsfp24s.ll	aeq0, aep1, aep0 }
    1db4:	1b8d24        	ae_roundsp24q48asym	aep2, aeq0
    1db7:	52a304        	ae_sp24f.l.iu	aep2, a3, 0
    1dba:	50b314        	ae_lp24f.iu	aep3, a3, 4
    1dbd:	0a0384        	ae_cvtq48p24s.l	aeq0, aep3
    1dc0:	ee2432        	l32i	a3, a4, 0x3b8
    1dc3:	0239           	s32i.n	a3, a2, 0
    1dc5:	ef2432        	l32i	a3, a4, 0x3bc
    1dc8:	1239           	s32i.n	a3, a2, 4

00001dca <fn_syn_frame+0x1d6>:
    1dca:	b8a332        	movi	a3, 0x3b8
    1dcd:	78a042        	movi	a4, 120
    1dd0:	363a           	add.n	a3, a6, a3
    1dd2:	058476        	loop	a4, 1ddb <fn_syn_frame+0x1e7>
    1dd5:	5c8314        	ae_lp24x2f.iu	aep0, a3, 8
    1dd8:	5e8214        	ae_sp24x2f.iu	aep0, a2, 8

00001ddb <fn_syn_frame+0x1e7>:
    1ddb:	f01d           	retw.n

00001ddd <fn_syn_frame+0x1e9>:
    1ddd:	000000                                        ...

00001de0 <fn_ini_calc_sup_gain>:
    1de0:	006136        	entry	a1, 48
    1de3:	025d           	mov.n	a5, a2
    1de5:	f8a421        	l32r	a2, 78 (90e4 <xt_memset>)
    1de8:	0b0c           	movi.n	a11, 0
    1dea:	0aa2c2        	movi	a12, 0x20a
    1ded:	05ad           	mov.n	a10, a5
    1def:	3149           	s32i.n	a4, a1, 12
    1df1:	060c           	movi.n	a6, 0
    1df3:	0002e0        	callx8	a2
    1df6:	f88c21        	l32r	a2, 28 (90f8 <xt_memcpy>)
    1df9:	6c0c           	movi.n	a12, 6
    1dfb:	05ad           	mov.n	a10, a5
    1dfd:	03bd           	mov.n	a11, a3
    1dff:	0002e0        	callx8	a2
    1e02:	041342        	l16ui	a4, a3, 8
    1e05:	2159           	s32i.n	a5, a1, 8
    1e07:	f89721        	l32r	a2, 64 (e640 <all_amt_tab>)
    1e0a:	549c           	beqz.n	a4, 1e23 <fn_ini_calc_sup_gain+0x43>
    1e0c:	940b           	addi.n	a9, a4, -1
    1e0e:	897d           	ae_sext16	a7, a9
    1e10:	a07770        	addx4	a7, a7, a7
    1e13:	b02720        	addx8	a2, a7, a2
    1e16:	227d           	ae_l16si.n	a7, a2, 0
    1e18:	a02750        	addx4	a2, a7, a5
    1e1b:	22cb           	addi.n	a2, a2, 12
    1e1d:	0517e6        	bgei	a7, 1, 1e26 <fn_ini_calc_sup_gain+0x46>
    1e20:	000546        	j	1e39 <fn_ini_calc_sup_gain+0x59>

00001e23 <fn_ini_calc_sup_gain+0x43>:
    1e23:	01a172        	movi	a7, 0x101
    1e26:	2158           	l32i.n	a5, a1, 8
    1e28:	00a182        	movi	a8, 0x100
    1e2b:	65cb           	addi.n	a6, a5, 12
    1e2d:	038776        	loop	a7, 1e34 <fn_ini_calc_sup_gain+0x54>
    1e30:	0689           	s32i.n	a8, a6, 0
    1e32:	664b           	addi.n	a6, a6, 4

00001e34 <fn_ini_calc_sup_gain+0x54>:
    1e34:	160c           	movi.n	a6, 1
    1e36:	09e416        	beqz	a4, 1ed8 <fn_ini_calc_sup_gain+0xf8>

00001e39 <fn_ini_calc_sup_gain+0x59>:
    1e39:	059382        	l16si	a8, a3, 10
    1e3c:	f88a51        	l32r	a5, 64 (e640 <all_amt_tab>)
    1e3f:	894d           	ae_sext16	a4, a9
    1e41:	04c896        	bltz	a8, 1e91 <fn_ini_calc_sup_gain+0xb1>
    1e44:	090616        	beqz	a6, 1ed8 <fn_ini_calc_sup_gain+0xf8>
    1e47:	a04440        	addx4	a4, a4, a4
    1e4a:	b04450        	addx8	a4, a4, a5
    1e4d:	9458           	l32i.n	a5, a4, 36
    1e4f:	f67c           	movi.n	a6, -1
    1e51:	ff7c           	movi.n	a15, -1
    1e53:	983d           	ae_zext16	a3, a8
    1e55:	016610        	slli	a6, a6, 31
    1e58:	4141f0        	srli	a4, a15, 1
    1e5b:	05a8           	l32i.n	a10, a5, 0
    1e5d:	f89881        	l32r	a8, c0 (9140 <__ashldi3>)
    1e60:	03cd           	mov.n	a12, a3
    1e62:	31bfa0        	srai	a11, a10, 31
    1e65:	0008e0        	callx8	a8
    1e68:	738a60        	maxu	a8, a10, a6
    1e6b:	a3a6b0        	movltz	a10, a6, a11
    1e6e:	9b1b           	addi.n	a9, a11, 1
    1e70:	ff7c           	movi.n	a15, -1
    1e72:	83a890        	moveqz	a10, a8, a9
    1e75:	04ed           	mov.n	a14, a4
    1e77:	539bf0        	max	a9, a11, a15
    1e7a:	a3ea90        	movltz	a14, a10, a9
    1e7d:	63aa40        	minu	a10, a10, a4
    1e80:	93ae90        	movnez	a10, a14, a9
    1e83:	770b           	addi.n	a7, a7, -1
    1e85:	02a9           	s32i.n	a10, a2, 0
    1e87:	554b           	addi.n	a5, a5, 4
    1e89:	224b           	addi.n	a2, a2, 4
    1e8b:	fcc756        	bnez	a7, 1e5b <fn_ini_calc_sup_gain+0x7b>
    1e8e:	001186        	j	1ed8 <fn_ini_calc_sup_gain+0xf8>

00001e91 <fn_ini_calc_sup_gain+0xb1>:
    1e91:	043616        	beqz	a6, 1ed8 <fn_ini_calc_sup_gain+0xf8>
    1e94:	f87451        	l32r	a5, 64 (e640 <all_amt_tab>)
    1e97:	894d           	ae_sext16	a4, a9
    1e99:	a04440        	addx4	a4, a4, a4
    1e9c:	b04450        	addx8	a4, a4, a5
    1e9f:	ff7c           	movi.n	a15, -1
    1ea1:	f88751        	l32r	a5, c0 (9140 <__ashldi3>)
    1ea4:	9448           	l32i.n	a4, a4, 36
    1ea6:	30c8f0        	xor	a12, a8, a15
    1ea9:	1a0c           	movi.n	a10, 1
    1eab:	0b0c           	movi.n	a11, 0
    1ead:	603080        	neg	a3, a8
    1eb0:	0005e0        	callx8	a5
    1eb3:	0a5d           	mov.n	a5, a10
    1eb5:	0b6d           	mov.n	a6, a11
    1eb7:	0488           	l32i.n	a8, a4, 0
    1eb9:	03cd           	mov.n	a12, a3
    1ebb:	770b           	addi.n	a7, a7, -1
    1ebd:	319f80        	srai	a9, a8, 31
    1ec0:	a58a           	add.n	a10, a5, a8
    1ec2:	628a50        	saltu	a8, a10, a5
    1ec5:	969a           	add.n	a9, a6, a9
    1ec7:	b98a           	add.n	a11, a9, a8
    1ec9:	f87e81        	l32r	a8, c4 (9158 <__ashrdi3>)
    1ecc:	0008e0        	callx8	a8
    1ecf:	02a9           	s32i.n	a10, a2, 0
    1ed1:	444b           	addi.n	a4, a4, 4
    1ed3:	224b           	addi.n	a2, a2, 4
    1ed5:	fde756        	bnez	a7, 1eb7 <fn_ini_calc_sup_gain+0xd7>
    1ed8:	2128           	l32i.n	a2, a1, 8
    1eda:	3138           	l32i.n	a3, a1, 12
    1edc:	04d222        	addmi	a2, a2, 0x400
    1edf:	4239           	s32i.n	a3, a2, 16
    1ee1:	f01d           	retw.n

00001ee3 <fn_ini_calc_sup_gain+0x103>:
	...

00001ee4 <fn_calc_sup_gain>:
    1ee4:	010136        	entry	a1, 128
    1ee7:	02bd           	mov.n	a11, a2
    1ee9:	041222        	l16ui	a2, a2, 8
    1eec:	1361b2        	s32i	a11, a1, 76
    1eef:	156152        	s32i	a5, a1, 84
    1ef2:	e2bc           	beqz.n	a2, 1f34 <fn_calc_sup_gain+0x50>
    1ef4:	220b           	addi.n	a2, a2, -1
    1ef6:	f85b61        	l32r	a6, 64 (e640 <all_amt_tab>)
    1ef9:	827d           	ae_sext16	a7, a2
    1efb:	a02770        	addx4	a2, a7, a7
    1efe:	b02260        	addx8	a2, a2, a6
    1f01:	04db52        	addmi	a5, a11, 0x400
    1f04:	226d           	ae_l16si.n	a6, a2, 0
    1f06:	116142        	s32i	a4, a1, 68
    1f09:	4548           	l32i.n	a4, a5, 16
    1f0b:	962d           	ae_zext16	a2, a6
    1f0d:	03ad           	mov.n	a10, a3
    1f0f:	a05640        	addx4	a5, a6, a4
    1f12:	b06640        	addx8	a6, a6, a4
    1f15:	126162        	s32i	a6, a1, 72
    1f18:	f86c61        	l32r	a6, c8 (da0 <mel_filter>)
    1f1b:	05bd           	mov.n	a11, a5
    1f1d:	07cd           	mov.n	a12, a7
    1f1f:	0006e0        	callx8	a6
    1f22:	1121a2        	l32i	a10, a1, 68
    1f25:	04bd           	mov.n	a11, a4
    1f27:	07cd           	mov.n	a12, a7
    1f29:	0006e0        	callx8	a6
    1f2c:	1321b2        	l32i	a11, a1, 76
    1f2f:	053d           	mov.n	a3, a5
    1f31:	000146        	j	1f3a <fn_calc_sup_gain+0x56>

00001f34 <fn_calc_sup_gain+0x50>:
    1f34:	01a122        	movi	a2, 0x101
    1f37:	126152        	s32i	a5, a1, 72
    1f3a:	4b6d           	ae_l16ui.n	a6, a11, 0
    1f3c:	116142        	s32i	a4, a1, 68
    1f3f:	fe2480015f 	{ movi	a5, 1; ae_zeroq56	aeq2 }
    1f44:	41b616        	beqz	a6, 2363 <fn_calc_sup_gain+0x47f>
    1f47:	822d           	ae_sext16	a2, a2
    1f49:	021626        	beqi	a6, 1, 1f4f <fn_calc_sup_gain+0x6b>
    1f4c:	012d86        	j	2406 <fn_calc_sup_gain+0x522>
    1f4f:	0212e6        	bgei	a2, 1, 1f55 <fn_calc_sup_gain+0x71>
    1f52:	01afc6        	j	2615 <fn_calc_sup_gain+0x731>
    1f55:	112152        	l32i	a5, a1, 68
    1f58:	1221a2        	l32i	a10, a1, 72
    1f5b:	ff7c           	movi.n	a15, -1
    1f5d:	f77c           	movi.n	a7, -1
    1f5f:	140c           	movi.n	a4, 1
    1f61:	cbcb           	addi.n	a12, a11, 12
    1f63:	41f1f0        	srli	a15, a15, 1
    1f66:	017710        	slli	a7, a7, 31
    1f69:	014490        	slli	a4, a4, 23
    1f6c:	fe7c           	movi.n	a14, -1
    1f6e:	0d0c           	movi.n	a13, 0
    1f70:	176122        	s32i	a2, a1, 92
    1f73:	0528           	l32i.n	a2, a5, 0
    1f75:	0368           	l32i.n	a6, a3, 0
    1f77:	8159           	s32i.n	a5, a1, 32
    1f79:	090c           	movi.n	a9, 0
    1f7b:	c05620        	sub	a5, a6, a2
    1f7e:	728920        	salt	a8, a9, a2
    1f81:	726560        	salt	a6, a5, a6
    1f84:	306860        	xor	a6, a8, a6
    1f87:	61a9           	s32i.n	a10, a1, 24
    1f89:	568c           	beqz.n	a6, 1f92 <fn_calc_sup_gain+0xae>
    1f8b:	076d           	mov.n	a6, a7
    1f8d:	a36f50        	movltz	a6, a15, a5
    1f90:	065d           	mov.n	a5, a6
    1f92:	060c           	movi.n	a6, 0
    1f94:	0cad           	mov.n	a10, a12
    1f96:	080c           	movi.n	a8, 0
    1f98:	06b216        	beqz	a2, 2007 <fn_calc_sup_gain+0x123>
    1f9b:	060c           	movi.n	a6, 0
    1f9d:	536560        	max	a6, a5, a6
    1fa0:	418860        	srli	a8, a6, 8
    1fa3:	ffa0a2        	movi	a10, 255
    1fa6:	40e250        	nsa	a5, a2
    1fa9:	360234        	ae_cvtq48a32s	aeq0, a2
    1fac:	7fda62        	addmi	a6, a10, 0x7f00
    1faf:	20a827        	bge	a8, a2, 1fd3 <fn_calc_sup_gain+0xef>
    1fb2:	364834        	ae_cvtq48a32s	aeq1, a8
    1fb5:	856d           	ae_sext16	a6, a5
    1fb7:	fc24fe964f 	{ ae_slaasq56s	aeq1, aeq1, a6; nop }
    1fbc:	fd04cf166e 	{ addi	a6, a6, -15; ae_satq48s	aeq1, aeq1 }
    1fc1:	fc24fe868f 	{ ae_slaasq56s	aeq2, aeq0, a6; nop }
    1fc6:	fe80ff19ef 	{ ae_trunca32q48	a9, aeq1; ae_satq48s	aeq2, aeq2 }
    1fcb:	36aa04        	ae_trunca32q48	a10, aeq2
    1fce:	d269a0        	quos	a6, a9, a10
    1fd1:	a66d           	ae_clamps16	a6, a6
    1fd3:	0c88           	l32i.n	a8, a12, 0
    1fd5:	a0adb0        	addx4	a10, a13, a11
    1fd8:	aacb           	addi.n	a10, a10, 12
    1fda:	219880        	srai	a9, a8, 8
    1fdd:	ffa082        	movi	a8, 255
    1fe0:	7fd882        	addmi	a8, a8, 0x7f00
    1fe3:	20a927        	bge	a9, a2, 2007 <fn_calc_sup_gain+0x123>
    1fe6:	364934        	ae_cvtq48a32s	aeq1, a9
    1fe9:	852d           	ae_sext16	a2, a5
    1feb:	fc24fe924f 	{ ae_slaasq56s	aeq1, aeq1, a2; nop }
    1ff0:	fd04cf122e 	{ addi	a2, a2, -15; ae_satq48s	aeq1, aeq1 }
    1ff5:	fc24fe820f 	{ ae_slaasq56s	aeq0, aeq0, a2; nop }
    1ffa:	fc00ff18ef 	{ ae_trunca32q48	a8, aeq1; ae_satq48s	aeq0, aeq0 }
    1fff:	368904        	ae_trunca32q48	a9, aeq0
    2002:	d22890        	quos	a2, a8, a9
    2005:	a28d           	ae_clamps16	a8, a2
    2007:	029b92        	l16si	a9, a11, 4
    200a:	115800        	slli	a5, a8, 16
    200d:	3b8d           	ae_l16si.n	a8, a11, 2
    200f:	1661c2        	s32i	a12, a1, 88
    2012:	86cd           	ae_sext16	a12, a6
    2014:	118800        	slli	a8, a8, 16
    2017:	119900        	slli	a9, a9, 16
    201a:	41d9           	s32i.n	a13, a1, 16
    201c:	a139           	s32i.n	a3, a1, 40
    201e:	113600        	slli	a3, a6, 16
    2021:	31dfc0        	srai	a13, a12, 31
    2024:	21a9           	s32i.n	a10, a1, 8
    2026:	21b850        	srai	a11, a5, 8
    2029:	21a830        	srai	a10, a3, 8
    202c:	115c80        	slli	a5, a12, 8
    202f:	7538c0        	extui	a3, a12, 24, 8
    2032:	11cd80        	slli	a12, a13, 8
    2035:	218880        	srai	a8, a8, 8
    2038:	219890        	srai	a9, a9, 8
    203b:	0a73c0        	depbits	a12, a3, 0, 8
    203e:	82d8b0        	mull	a13, a8, a11
    2041:	b288b0        	mulsh	a8, a8, a11
    2044:	82b9a0        	mull	a11, a9, a10
    2047:	b299a0        	mulsh	a9, a9, a10
    204a:	f80fa1        	l32r	a10, 88 (7fff7fff <_end+0x7ffe919b>)
    204d:	736570        	maxu	a6, a5, a7
    2050:	3c1b           	addi.n	a3, a12, 1
    2052:	a357c0        	movltz	a5, a7, a12
    2055:	835630        	moveqz	a5, a6, a3
    2058:	020c           	movi.n	a2, 0
    205a:	53cce0        	max	a12, a12, a14
    205d:	72ec20        	salt	a14, a12, a2
    2060:	6265a0        	saltu	a6, a5, a10
    2063:	83e6c0        	moveqz	a14, a6, a12
    2066:	cbda           	add.n	a12, a11, a13
    2068:	698a           	add.n	a6, a9, a8
    206a:	628cb0        	saltu	a8, a12, a11
    206d:	903c40        	addx2	a3, a12, a4
    2070:	11dcf0        	slli	a13, a12, 1
    2073:	059fc0        	extui	a9, a12, 31, 1
    2076:	668a           	add.n	a6, a6, a8
    2078:	62a3d0        	saltu	a10, a3, a13
    207b:	906690        	addx2	a6, a6, a9
    207e:	66aa           	add.n	a6, a6, a10
    2080:	754830        	extui	a4, a3, 24, 8
    2083:	119680        	slli	a9, a6, 8
    2086:	31a860        	srai	a10, a6, 24
    2089:	849a           	add.n	a8, a4, a9
    208b:	f56060        	extui	a6, a6, 16, 16
    208e:	119a80        	slli	a9, a10, 8
    2091:	11b880        	slli	a11, a8, 8
    2094:	0a7690        	depbits	a9, a6, 0, 8
    2097:	fd7c           	movi.n	a13, -1
    2099:	738b70        	maxu	a8, a11, a7
    209c:	c91b           	addi.n	a12, a9, 1
    209e:	a3b790        	movltz	a11, a7, a9
    20a1:	5339d0        	max	a3, a9, a13
    20a4:	f80691        	l32r	a9, bc (7fffff00 <_end+0x7fff109c>)
    20a7:	83b8c0        	moveqz	a11, a8, a12
    20aa:	140c           	movi.n	a4, 1
    20ac:	09ad           	mov.n	a10, a9
    20ae:	639b90        	minu	a9, a11, a9
    20b1:	a3ab30        	movltz	a10, a11, a3
    20b4:	939a30        	movnez	a9, a10, a3
    20b7:	213890        	srai	a3, a9, 8
    20ba:	828390        	mull	a8, a3, a9
    20bd:	b2c390        	mulsh	a12, a3, a9
    20c0:	418780        	srli	a8, a8, 7
    20c3:	01dc70        	slli	a13, a12, 25
    20c6:	116410        	slli	a6, a4, 15
    20c9:	88da           	add.n	a8, a8, a13
    20cb:	b86a           	add.n	a11, a8, a6
    20cd:	21a7c0        	srai	a10, a12, 7
    20d0:	628b80        	saltu	a8, a11, a8
    20d3:	8a8a           	add.n	a8, a10, a8
    20d5:	f5c0b0        	extui	a12, a11, 16, 16
    20d8:	31d080        	srai	a13, a8, 16
    20db:	0bf8c0        	depbits	a12, a8, 16, 16
    20de:	73bc70        	maxu	a11, a12, a7
    20e1:	ad1b           	addi.n	a10, a13, 1
    20e3:	a3c7d0        	movltz	a12, a7, a13
    20e6:	83cba0        	moveqz	a12, a11, a10
    20e9:	a56a           	add.n	a10, a5, a6
    20eb:	83afe0        	moveqz	a10, a15, a14
    20ee:	31ef90        	srai	a14, a9, 31
    20f1:	f47c           	movi.n	a4, -1
    20f3:	1461e2        	s32i	a14, a1, 80
    20f6:	0f8d           	mov.n	a8, a15
    20f8:	53ed40        	max	a14, a13, a4
    20fb:	a38ce0        	movltz	a8, a12, a14
    20fe:	639cf0        	minu	a9, a12, a15
    2101:	9398e0        	movnez	a9, a8, a14
    2104:	0b0c           	movi.n	a11, 0
    2106:	536a           	add.n	a5, a3, a6
    2108:	438e20        	min	a8, a14, a2
    210b:	08ea16        	beqz	a10, 219d <fn_calc_sup_gain+0x2b9>
    210e:	142142        	l32i	a4, a1, 80
    2111:	b93a           	add.n	a11, a9, a3
    2113:	62db90        	saltu	a13, a11, a9
    2116:	c84a           	add.n	a12, a8, a4
    2118:	ccda           	add.n	a12, a12, a13
    211a:	73eb70        	maxu	a14, a11, a7
    211d:	f67c           	movi.n	a6, -1
    211f:	dc1b           	addi.n	a13, a12, 1
    2121:	a3b7c0        	movltz	a11, a7, a12
    2124:	53cc60        	max	a12, a12, a6
    2127:	83bed0        	moveqz	a11, a14, a13
    212a:	0f4d           	mov.n	a4, a15
    212c:	a34bc0        	movltz	a4, a11, a12
    212f:	63bbf0        	minu	a11, a11, a15
    2132:	93b4c0        	movnez	a11, a4, a12
    2135:	436c20        	min	a6, a12, a2
    2138:	05cfb0        	extui	a12, a11, 31, 1
    213b:	90c6c0        	addx2	a12, a6, a12
    213e:	11bbf0        	slli	a11, a11, 1
    2141:	734b70        	maxu	a4, a11, a7
    2144:	ec1b           	addi.n	a14, a12, 1
    2146:	a3b7c0        	movltz	a11, a7, a12
    2149:	83b4e0        	moveqz	a11, a4, a14
    214c:	f47c           	movi.n	a4, -1
    214e:	53cc40        	max	a12, a12, a4
    2151:	0f6d           	mov.n	a6, a15
    2153:	a36bc0        	movltz	a6, a11, a12
    2156:	63bbf0        	minu	a11, a11, a15
    2159:	93b6c0        	movnez	a11, a6, a12
    215c:	80a062        	movi	a6, 128
    215f:	db6a           	add.n	a13, a11, a6
    2161:	43cc20        	min	a12, a12, a2
    2164:	62bdb0        	saltu	a11, a13, a11
    2167:	bcba           	add.n	a11, a12, a11
    2169:	41c8d0        	srli	a12, a13, 8
    216c:	8b7bc0        	depbits	a12, a11, 24, 8
    216f:	ffa0e2        	movi	a14, 255
    2172:	7fdeb2        	addmi	a11, a14, 0x7f00
    2175:	24aca7        	bge	a12, a10, 219d <fn_calc_sup_gain+0x2b9>
    2178:	40eab0        	nsa	a11, a10
    217b:	360c34        	ae_cvtq48a32s	aeq0, a12
    217e:	8bcd           	ae_sext16	a12, a11
    2180:	364a34        	ae_cvtq48a32s	aeq1, a10
    2183:	f1cca2        	addi	a10, a12, -15
    2186:	fc24fe8c0f 	{ ae_slaasq56s	aeq0, aeq0, a12; nop }
    218b:	fc00fe9a4f 	{ ae_slaasq56s	aeq1, aeq1, a10; ae_satq48s	aeq0, aeq0 }
    2190:	ff04ff0def 	{ ae_trunca32q48	a13, aeq0; ae_satq48s	aeq3, aeq1 }
    2195:	36be04        	ae_trunca32q48	a14, aeq3
    2198:	d2ade0        	quos	a10, a13, a14
    219b:	aabd           	ae_clamps16	a11, a10
    219d:	8bbd           	ae_sext16	a11, a11
    219f:	31cfb0        	srai	a12, a11, 31
    21a2:	45dbb0        	extui	a13, a11, 27, 5
    21a5:	11ecb0        	slli	a14, a12, 5
    21a8:	a94b           	addi.n	a10, a9, 4
    21aa:	0a4de0        	depbits	a14, a13, 0, 5
    21ad:	11bbb0        	slli	a11, a11, 5
    21b0:	629a90        	saltu	a9, a10, a9
    21b3:	736b70        	maxu	a6, a11, a7
    21b6:	a3b7e0        	movltz	a11, a7, a14
    21b9:	de1b           	addi.n	a13, a14, 1
    21bb:	889a           	add.n	a8, a8, a9
    21bd:	539e40        	max	a9, a14, a4
    21c0:	83b6d0        	moveqz	a11, a6, a13
    21c3:	0fed           	mov.n	a14, a15
    21c5:	41a3a0        	srli	a10, a10, 3
    21c8:	a3eb90        	movltz	a14, a11, a9
    21cb:	63bbf0        	minu	a11, a11, a15
    21ce:	db28a0        	depbits	a10, a8, 29, 3
    21d1:	93be90        	movnez	a11, a14, a9
    21d4:	436920        	min	a6, a9, a2
    21d7:	9baa           	add.n	a9, a11, a10
    21d9:	218380        	srai	a8, a8, 3
    21dc:	868a           	add.n	a8, a6, a8
    21de:	62a9b0        	saltu	a10, a9, a11
    21e1:	88aa           	add.n	a8, a8, a10
    21e3:	73d970        	maxu	a13, a9, a7
    21e6:	a81b           	addi.n	a10, a8, 1
    21e8:	a39780        	movltz	a9, a7, a8
    21eb:	839da0        	moveqz	a9, a13, a10
    21ee:	538840        	max	a8, a8, a4
    21f1:	0fed           	mov.n	a14, a15
    21f3:	a3e980        	movltz	a14, a9, a8
    21f6:	63a9f0        	minu	a10, a9, a15
    21f9:	f7b461        	l32r	a6, cc (c44 <fxsqrt_ie>)
    21fc:	93ae80        	movnez	a10, a14, a8
    21ff:	0f4d           	mov.n	a4, a15
    2201:	0006e0        	callx8	a6
    2204:	318f50        	srai	a8, a5, 31
    2207:	11c5f0        	slli	a12, a5, 1
    220a:	739c70        	maxu	a9, a12, a7
    220d:	fe7c           	movi.n	a14, -1
    220f:	a3c780        	movltz	a12, a7, a8
    2212:	b81b           	addi.n	a11, a8, 1
    2214:	83c9b0        	moveqz	a12, a9, a11
    2217:	5388e0        	max	a8, a8, a14
    221a:	04dd           	mov.n	a13, a4
    221c:	a3dc80        	movltz	a13, a12, a8
    221f:	635c40        	minu	a5, a12, a4
    2222:	935d80        	movnez	a5, a13, a8
    2225:	04fd           	mov.n	a15, a4
    2227:	07c516        	beqz	a5, 22a7 <fn_calc_sup_gain+0x3c3>
    222a:	318fa0        	srai	a8, a10, 31
    222d:	8597a0        	extui	a9, a10, 23, 9
    2230:	11da70        	slli	a13, a10, 9
    2233:	0a8980        	depbits	a8, a9, 0, 9
    2236:	734d70        	maxu	a4, a13, a7
    2239:	b81b           	addi.n	a11, a8, 1
    223b:	a3d780        	movltz	a13, a7, a8
    223e:	83d4b0        	moveqz	a13, a4, a11
    2241:	5388e0        	max	a8, a8, a14
    2244:	0f6d           	mov.n	a6, a15
    2246:	a36d80        	movltz	a6, a13, a8
    2249:	63adf0        	minu	a10, a13, a15
    224c:	142142        	l32i	a4, a1, 80
    224f:	93a680        	movnez	a10, a6, a8
    2252:	432820        	min	a2, a8, a2
    2255:	6a3a           	add.n	a6, a10, a3
    2257:	224a           	add.n	a2, a2, a4
    2259:	6286a0        	saltu	a8, a6, a10
    225c:	228a           	add.n	a2, a2, a8
    225e:	73b670        	maxu	a11, a6, a7
    2261:	821b           	addi.n	a8, a2, 1
    2263:	a36720        	movltz	a6, a7, a2
    2266:	5322e0        	max	a2, a2, a14
    2269:	836b80        	moveqz	a6, a11, a8
    226c:	0fcd           	mov.n	a12, a15
    226e:	a3c620        	movltz	a12, a6, a2
    2271:	6366f0        	minu	a6, a6, a15
    2274:	936c20        	movnez	a6, a12, a2
    2277:	ffa0d2        	movi	a13, 255
    227a:	7fdd22        	addmi	a2, a13, 0x7f00
    227d:	26a657        	bge	a6, a5, 22a7 <fn_calc_sup_gain+0x3c3>
    2280:	40e520        	nsa	a2, a5
    2283:	360634        	ae_cvtq48a32s	aeq0, a6
    2286:	822d           	ae_sext16	a2, a2
    2288:	fc24fe820f 	{ ae_slaasq56s	aeq0, aeq0, a2; nop }
    228d:	fc00fec57f 	{ ae_cvtq48a32s	aeq1, a5; ae_satq48s	aeq0, aeq0 }
    2292:	f1c222        	addi	a2, a2, -15
    2295:	fc24fe924f 	{ ae_slaasq56s	aeq1, aeq1, a2; nop }
    229a:	fd04ff0cef 	{ ae_trunca32q48	a12, aeq0; ae_satq48s	aeq1, aeq1 }
    229f:	369d04        	ae_trunca32q48	a13, aeq1
    22a2:	d22cd0        	quos	a2, a12, a13
    22a5:	a22d           	ae_clamps16	a2, a2
    22a7:	61a8           	l32i.n	a10, a1, 24
    22a9:	1321b2        	l32i	a11, a1, 76
    22ac:	828d           	ae_sext16	a8, a2
    22ae:	6a2d           	ae_s16i.n	a2, a10, 0
    22b0:	039b52        	l16si	a5, a11, 6
    22b3:	a138           	l32i.n	a3, a1, 40
    22b5:	140c           	movi.n	a4, 1
    22b7:	532850        	max	a2, a8, a5
    22ba:	6a2d           	ae_s16i.n	a2, a10, 0
    22bc:	112200        	slli	a2, a2, 16
    22bf:	212820        	srai	a2, a2, 8
    22c2:	b26220        	mulsh	a6, a2, a2
    22c5:	822220        	mull	a2, a2, a2
    22c8:	0398           	l32i.n	a9, a3, 0
    22ca:	014490        	slli	a4, a4, 23
    22cd:	058f20        	extui	a8, a2, 31, 1
    22d0:	11c2f0        	slli	a12, a2, 1
    22d3:	902240        	addx2	a2, a2, a4
    22d6:	906680        	addx2	a6, a6, a8
    22d9:	6282c0        	saltu	a8, a2, a12
    22dc:	668a           	add.n	a6, a6, a8
    22de:	f52020        	extui	a2, a2, 16, 16
    22e1:	215890        	srai	a5, a9, 8
    22e4:	f77691        	l32r	a9, bc (7fffff00 <_end+0x7fff109c>)
    22e7:	0bf620        	depbits	a2, a6, 16, 16
    22ea:	00afd2        	movi	a13, 0xffffff00
    22ed:	1022d0        	and	a2, a2, a13
    22f0:	f58060        	extui	a8, a6, 16, 16
    22f3:	632290        	minu	a2, a2, a9
    22f6:	932980        	movnez	a2, a9, a8
    22f9:	412820        	srli	a2, a2, 8
    22fc:	828520        	mull	a8, a5, a2
    22ff:	b22520        	mulsh	a2, a5, a2
    2302:	05cf80        	extui	a12, a8, 31, 1
    2305:	11d8f0        	slli	a13, a8, 1
    2308:	906840        	addx2	a6, a8, a4
    230b:	9022c0        	addx2	a2, a2, a12
    230e:	75c860        	extui	a12, a6, 24, 8
    2311:	6266d0        	saltu	a6, a6, a13
    2314:	226a           	add.n	a2, a2, a6
    2316:	116280        	slli	a6, a2, 8
    2319:	31d820        	srai	a13, a2, 24
    231c:	5c6a           	add.n	a5, a12, a6
    231e:	f52020        	extui	a2, a2, 16, 16
    2321:	11cd80        	slli	a12, a13, 8
    2324:	0a72c0        	depbits	a12, a2, 0, 8
    2327:	112580        	slli	a2, a5, 8
    232a:	735270        	maxu	a5, a2, a7
    232d:	dc1b           	addi.n	a13, a12, 1
    232f:	a327c0        	movltz	a2, a7, a12
    2332:	8325d0        	moveqz	a2, a5, a13
    2335:	53cce0        	max	a12, a12, a14
    2338:	09dd           	mov.n	a13, a9
    233a:	a3d2c0        	movltz	a13, a2, a12
    233d:	632290        	minu	a2, a2, a9
    2340:	932dc0        	movnez	a2, a13, a12
    2343:	81c8           	l32i.n	a12, a1, 32
    2345:	2188           	l32i.n	a8, a1, 8
    2347:	172192        	l32i	a9, a1, 92
    234a:	41d8           	l32i.n	a13, a1, 16
    234c:	5c4b           	addi.n	a5, a12, 4
    234e:	1621c2        	l32i	a12, a1, 88
    2351:	0829           	s32i.n	a2, a8, 0
    2353:	290b           	addi.n	a2, a9, -1
    2355:	dd1b           	addi.n	a13, a13, 1
    2357:	cc4b           	addi.n	a12, a12, 4
    2359:	aa2b           	addi.n	a10, a10, 2
    235b:	334b           	addi.n	a3, a3, 4
    235d:	c0f256        	bnez	a2, 1f70 <fn_calc_sup_gain+0x8c>
    2360:	00ac46        	j	2615 <fn_calc_sup_gain+0x731>

00002363 <fn_calc_sup_gain+0x47f>:
    2363:	827d           	ae_sext16	a7, a2
    2365:	0217e6        	bgei	a7, 1, 236b <fn_calc_sup_gain+0x487>
    2368:	00aa46        	j	2615 <fn_calc_sup_gain+0x731>
    236b:	5b5d           	ae_l16ui.n	a5, a11, 2
    236d:	021b62        	l16ui	a6, a11, 4
    2370:	300564        	ae_cvtp24a16x2.ll	aep0, a5, a6
    2373:	112152        	l32i	a5, a1, 68
    2376:	122162        	l32i	a6, a1, 72
    2379:	2bcb           	addi.n	a2, a11, 12
    237b:	ffa042        	movi	a4, 255
    237e:	601304        	ae_lq32f.iu	aeq0, a3, 0
    2381:	7fd442        	addmi	a4, a4, 0x7f00
    2384:	609204        	ae_lq32f.iu	aeq2, a2, 0
    2387:	605504        	ae_lq32f.iu	aeq1, a5, 0
    238a:	0020f0        	nop
    238d:	728776        	loop	a7, 2403 <fn_calc_sup_gain+0x51f>
    2390:	fa763f19ef 	{ ae_trunca32q48	a9, aeq1; ae_addq56	aeq2, aeq2, aeq1 }
    2395:	fe80d3844f 	{ or	a8, a4, a4; ae_satq48s	aeq2, aeq2 }
    239a:	d7623ec97f 	{ ae_cvtq48a32s	aeq1, a9; ae_mulfq32sp16s.h	aeq2, aeq2, aep0 }
    239f:	038014        	ae_mulafq32sp16s.l	aeq2, aeq0, aep0
    23a2:	1bad14        	ae_roundsp24q48asym	aep1, aeq2
    23a5:	0097d4        	ae_cvta32p24.h	a7, aep1
    23a8:	368734        	ae_cvtq48a32s	aeq2, a7
    23ab:	37ac           	beqz.n	a7, 23d2 <fn_calc_sup_gain+0x4ee>
    23ad:	23a977        	bge	a9, a7, 23d4 <fn_calc_sup_gain+0x4f0>
    23b0:	40e780        	nsa	a8, a7
    23b3:	88dd           	ae_sext16	a13, a8
    23b5:	f1cd72        	addi	a7, a13, -15
    23b8:	fc24fe9d4f 	{ ae_slaasq56s	aeq1, aeq1, a13; nop }
    23bd:	fd04fea78f 	{ ae_slaasq56s	aeq2, aeq2, a7; ae_satq48s	aeq1, aeq1 }
    23c2:	fe80ff1eef 	{ ae_trunca32q48	a14, aeq1; ae_satq48s	aeq2, aeq2 }
    23c7:	36af04        	ae_trunca32q48	a15, aeq2
    23ca:	d27ef0        	quos	a7, a14, a15
    23cd:	a78d           	ae_clamps16	a8, a7
    23cf:	000046        	j	23d4 <fn_calc_sup_gain+0x4f0>

000023d2 <fn_calc_sup_gain+0x4ee>:
    23d2:	080c           	movi.n	a8, 0
    23d4:	fb42603bfe 	{ l16si	a15, a11, 6; ae_truncp24q48x2	aep7, aeq0, aeq0 }
    23d9:	c07480        	sub	a7, a4, a8
    23dc:	877d           	ae_sext16	a7, a7
    23de:	5377f0        	max	a7, a7, a15
    23e1:	301774        	ae_cvtp24a16x2.ll	aep1, a7, a7
    23e4:	011944        	ae_mulfp24s.hh	aeq1, aep1, aep1
    23e7:	667d           	ae_s16i.n	a7, a6, 0
    23e9:	f96f80266e 	{ addi	a6, a6, 2; ae_roundsp24q48asym	aep2, aeq1 }
    23ee:	012744        	ae_mulfp24s.hh	aeq0, aep2, aep7
    23f1:	1b8d14        	ae_roundsp24q48asym	aep1, aeq0
    23f4:	0a0184        	ae_cvtq48p24s.l	aeq0, aep1
    23f7:	624204        	ae_sq32f.iu	aeq0, a2, 0
    23fa:	609214        	ae_lq32f.iu	aeq2, a2, 4
    23fd:	601314        	ae_lq32f.iu	aeq0, a3, 4
    2400:	605514        	ae_lq32f.iu	aeq1, a5, 4

00002403 <fn_calc_sup_gain+0x51f>:
    2403:	008386        	j	2615 <fn_calc_sup_gain+0x731>

00002406 <fn_calc_sup_gain+0x522>:
    2406:	0212e6        	bgei	a2, 1, 240c <fn_calc_sup_gain+0x528>
    2409:	008206        	j	2615 <fn_calc_sup_gain+0x731>
    240c:	5b6d           	ae_l16ui.n	a6, a11, 2
    240e:	021b72        	l16ui	a7, a11, 4
    2411:	300674        	ae_cvtp24a16x2.ll	aep0, a6, a7
    2414:	112162        	l32i	a6, a1, 68
    2417:	115510        	slli	a5, a5, 15
    241a:	360534        	ae_cvtq48a32s	aeq0, a5
    241d:	122152        	l32i	a5, a1, 72
    2420:	ffa0c2        	movi	a12, 255
    2423:	4bcb           	addi.n	a4, a11, 12
    2425:	560154        	ae_sp24x2s.i	aep0, a1, 40
    2428:	50a304        	ae_lp24f.iu	aep2, a3, 0
    242b:	7fdcc2        	addmi	a12, a12, 0x7f00
    242e:	170c           	movi.n	a7, 1
    2430:	fd4c2e840f 	{ ae_lp24f.iu	aep0, a4, 0; ae_cvtq48p24s.l	aeq1, aep2 }
    2435:	509604        	ae_lp24f.iu	aep1, a6, 0
    2438:	fc2c3a016f 	{ ae_sq56s.i	aeq0, a1, 48; ae_cvtq48p24s.l	aeq0, aep1 }
    243d:	f92ac0008f 	{ movi	a8, 0; ae_subq56	aeq1, aeq1, aeq0 }
    2442:	064944        	ae_satq48s	aeq1, aeq1
    2445:	09a104        	ae_ltq56s	b0, aeq1, aeq2
    2448:	d38700        	movt	a8, a7, b0
    244b:	188c           	beqz.n	a8, 2450 <fn_calc_sup_gain+0x56c>
    244d:	0a5084        	ae_zeroq56	aeq1
    2450:	d4500000bf 	{ movi	a11, 0; ae_eqq56	b0, aeq0, aeq2 }
    2455:	080c           	movi.n	a8, 0
    2457:	090c           	movi.n	a9, 0
    2459:	d3b700        	movt	a11, a7, b0
    245c:	0a0c           	movi.n	a10, 0
    245e:	070b56        	bnez	a11, 24d2 <fn_calc_sup_gain+0x5ee>
    2461:	355234        	ae_sraiq56	aeq1, aeq1, 8
    2464:	d5480000af 	{ movi	a10, 0; ae_leq56s	b0, aeq0, aeq1 }
    2469:	0c9d           	mov.n	a9, a12
    246b:	364b04        	ae_nsaq56s	a11, aeq0
    246e:	d3a700        	movt	a10, a7, b0
    2471:	3aec           	bnez.n	a10, 2498 <fn_calc_sup_gain+0x5b4>
    2473:	f8cb92        	addi	a9, a11, -8
    2476:	119900        	slli	a9, a9, 16
    2479:	319090        	srai	a9, a9, 16
    247c:	fc24fe994f 	{ ae_slaasq56s	aeq1, aeq1, a9; nop }
    2481:	fd04cf199e 	{ addi	a9, a9, -15; ae_satq48s	aeq1, aeq1 }
    2486:	fc24fe898f 	{ ae_slaasq56s	aeq2, aeq0, a9; nop }
    248b:	fe80ff1fef 	{ ae_trunca32q48	a15, aeq1; ae_satq48s	aeq2, aeq2 }
    2490:	36aa04        	ae_trunca32q48	a10, aeq2
    2493:	d29fa0        	quos	a9, a15, a10
    2496:	a99d           	ae_clamps16	a9, a9
    2498:	fd0c0000bf 	{ movi	a11, 0; ae_cvtq48p24s.l	aeq1, aep0 }
    249d:	355234        	ae_sraiq56	aeq1, aeq1, 8
    24a0:	d54813accf 	{ or	a10, a12, a12; ae_leq56s	b0, aeq0, aeq1 }
    24a5:	364d04        	ae_nsaq56s	a13, aeq0
    24a8:	d3b700        	movt	a11, a7, b0
    24ab:	3bec           	bnez.n	a11, 24d2 <fn_calc_sup_gain+0x5ee>
    24ad:	f8cda2        	addi	a10, a13, -8
    24b0:	11aa00        	slli	a10, a10, 16
    24b3:	31a0a0        	srai	a10, a10, 16
    24b6:	fc24fe9a4f 	{ ae_slaasq56s	aeq1, aeq1, a10; nop }
    24bb:	fd04cf1aae 	{ addi	a10, a10, -15; ae_satq48s	aeq1, aeq1 }
    24c0:	fc24fe8acf 	{ ae_slaasq56s	aeq3, aeq0, a10; nop }
    24c5:	fc84ff1fef 	{ ae_trunca32q48	a15, aeq1; ae_satq48s	aeq0, aeq3 }
    24ca:	368b04        	ae_trunca32q48	a11, aeq0
    24cd:	d2afb0        	quos	a10, a15, a11
    24d0:	aaad           	ae_clamps16	a10, a10
    24d2:	300aa4        	ae_cvtp24a16x2.ll	aep0, a10, a10
    24d5:	541154        	ae_lp24x2.i	aep1, a1, 40
    24d8:	e82098f99f 	{ ae_cvtp24a16x2.ll	aep7, a9, a9; ae_mulfp24s.hh	aeq0, aep0, aep1 }
    24dd:	e23fbde16f 	{ ae_lq56.i	aeq3, a1, 48; ae_mulafp24s.ll	aeq0, aep7, aep1 }
    24e2:	11d900        	slli	a13, a9, 16
    24e5:	f8678000ff 	{ movi	a15, 0; ae_roundsp24q48asym	aep0, aeq0 }
    24ea:	21e8d0        	srai	a14, a13, 8
    24ed:	fc0c3ece7f 	{ ae_cvtq48a32s	aeq1, a14; ae_cvtq48p24s.l	aeq0, aep0 }
    24f2:	e900ba014f 	{ ae_sq56s.i	aeq0, a1, 32; ae_mulfp24s.hh	aeq2, aep0, aep0 }
    24f7:	fbee3da14f 	{ ae_lq56.i	aeq1, a1, 32; ae_addq56	aeq3, aeq1, aeq3 }
    24fc:	fd24bb120f 	{ ae_sraiq56	aeq0, aeq1, 8; ae_zeroq56	aeq1 }
    2501:	d4cc3f317f 	{ ae_movq56	aeq1, aeq3; ae_eqq56	b0, aeq3, aeq1 }
    2506:	fe347de16f 	{ ae_lq56.i	aeq3, a1, 48; ae_roundsq32asym	aeq2, aeq2 }
    250b:	fae23a213f 	{ ae_sq56s.i	aeq2, a1, 24; ae_addq56	aeq2, aeq0, aeq2 }
    2510:	fe80fa011f 	{ ae_sq56s.i	aeq0, a1, 8; ae_satq48s	aeq2, aeq2 }
    2515:	f8e63b228f 	{ ae_sraiq56	aeq2, aeq2, 8; ae_addq56	aeq0, aeq0, aeq3 }
    251a:	fe3456f70f 	{ movt	a15, a7, b0; ae_roundsq32asym	aeq2, aeq2 }
    251f:	d55437217f 	{ ae_sp24x2s.i	aep2, a1, 56; ae_leq56s	b0, aeq1, aeq2 }
    2524:	630124        	ae_sq56s.i	aeq0, a1, 16
    2527:	ffec           	bnez.n	a15, 255a <fn_calc_sup_gain+0x676>
    2529:	090c           	movi.n	a9, 0
    252b:	0c8d           	mov.n	a8, a12
    252d:	d39700        	movt	a9, a7, b0
    2530:	69ec           	bnez.n	a9, 255a <fn_calc_sup_gain+0x676>
    2532:	365804        	ae_nsaq56s	a8, aeq1
    2535:	f8c882        	addi	a8, a8, -8
    2538:	118800        	slli	a8, a8, 16
    253b:	318080        	srai	a8, a8, 16
    253e:	fc24fea88f 	{ ae_slaasq56s	aeq2, aeq2, a8; nop }
    2543:	fe80cf188e 	{ addi	a8, a8, -15; ae_satq48s	aeq2, aeq2 }
    2548:	fc24fe98cf 	{ ae_slaasq56s	aeq3, aeq1, a8; nop }
    254d:	fd84ff2fef 	{ ae_trunca32q48	a15, aeq2; ae_satq48s	aeq1, aeq3 }
    2552:	369904        	ae_trunca32q48	a9, aeq1
    2555:	d28f90        	quos	a8, a15, a9
    2558:	a88d           	ae_clamps16	a8, a8
    255a:	610134        	ae_lq56.i	aeq0, a1, 24
    255d:	888d           	ae_sext16	a8, a8
    255f:	364834        	ae_cvtq48a32s	aeq1, a8
    2562:	3500f4        	ae_sraiq56	aeq0, aeq0, 3
    2565:	fc247a915f 	{ ae_slliq56	aeq1, aeq1, 5; ae_roundsq32asym	aeq0, aeq0 }
    256a:	f866137ccf 	{ or	a7, a12, a12; ae_addq56	aeq0, aeq0, aeq1 }
    256f:	368a04        	ae_trunca32q48	a10, aeq0
    2572:	f6d681        	l32r	a8, cc (c44 <fxsqrt_ie>)
    2575:	0008e0        	callx8	a8
    2578:	fe24bd812f 	{ ae_lq56.i	aeq0, a1, 16; ae_zeroq56	aeq2 }
    257d:	350054        	ae_slliq56	aeq0, aeq0, 1
    2580:	fc00d3c77f 	{ or	a12, a7, a7; ae_satq48s	aeq0, aeq0 }
    2585:	170c           	movi.n	a7, 1
    2587:	118a70        	slli	a8, a10, 9
    258a:	090c           	movi.n	a9, 0
    258c:	d4503ec87f 	{ ae_cvtq48a32s	aeq1, a8; ae_eqq56	b0, aeq0, aeq2 }
    2591:	61c114        	ae_lq56.i	aeq3, a1, 8
    2594:	f97e3131be 	{ l32i	a11, a1, 76; ae_addq56	aeq1, aeq3, aeq1 }
    2599:	fd04d6970f 	{ movt	a9, a7, b0; ae_satq48s	aeq1, aeq1 }
    259e:	080c           	movi.n	a8, 0
    25a0:	d54830117f 	{ ae_lp24x2.i	aep1, a1, 56; ae_leq56s	b0, aeq0, aeq1 }
    25a5:	d98c           	beqz.n	a9, 25b6 <fn_calc_sup_gain+0x6d2>
    25a7:	658d           	ae_s16i.n	a8, a5, 0
    25a9:	039b92        	l16si	a9, a11, 6
    25ac:	88fd           	ae_sext16	a15, a8
    25ae:	538f90        	max	a8, a15, a9
    25b1:	658d           	ae_s16i.n	a8, a5, 0
    25b3:	000286        	j	25c1 <fn_calc_sup_gain+0x6dd>

000025b6 <fn_calc_sup_gain+0x6d2>:
    25b6:	080c           	movi.n	a8, 0
    25b8:	d38700        	movt	a8, a7, b0
    25bb:	b8ac           	beqz.n	a8, 25ea <fn_calc_sup_gain+0x706>
    25bd:	0c8d           	mov.n	a8, a12
    25bf:	65cd           	ae_s16i.n	a12, a5, 0
    25c1:	300884        	ae_cvtp24a16x2.ll	aep0, a8, a8
    25c4:	ea018ff22e 	{ addi	a2, a2, -1; ae_mulfp24s.ll	aeq0, aep0, aep0 }
    25c9:	552b           	addi.n	a5, a5, 2
    25cb:	1b8d04        	ae_roundsp24q48asym	aep0, aeq0
    25ce:	010174        	ae_mulfp24s.ll	aeq0, aep0, aep1
    25d1:	1b8d04        	ae_roundsp24q48asym	aep0, aeq0
    25d4:	528404        	ae_sp24f.l.iu	aep0, a4, 0
    25d7:	50a314        	ae_lp24f.iu	aep2, a3, 4
    25da:	fd4c2e961f 	{ ae_lp24f.iu	aep1, a6, 4; ae_cvtq48p24s.l	aeq1, aep2 }
    25df:	fc2c2e841f 	{ ae_lp24f.iu	aep0, a4, 4; ae_cvtq48p24s.l	aeq0, aep1 }
    25e4:	e55256        	bnez	a2, 243d <fn_calc_sup_gain+0x559>
    25e7:	000a86        	j	2615 <fn_calc_sup_gain+0x731>

000025ea <fn_calc_sup_gain+0x706>:
    25ea:	364804        	ae_nsaq56s	a8, aeq0
    25ed:	f8c882        	addi	a8, a8, -8
    25f0:	118800        	slli	a8, a8, 16
    25f3:	318080        	srai	a8, a8, 16
    25f6:	fc24fe984f 	{ ae_slaasq56s	aeq1, aeq1, a8; nop }
    25fb:	fd04cf188e 	{ addi	a8, a8, -15; ae_satq48s	aeq1, aeq1 }
    2600:	fc24fe88cf 	{ ae_slaasq56s	aeq3, aeq0, a8; nop }
    2605:	fc84ff1fef 	{ ae_trunca32q48	a15, aeq1; ae_satq48s	aeq0, aeq3 }
    260a:	368904        	ae_trunca32q48	a9, aeq0
    260d:	d28f90        	quos	a8, a15, a9
    2610:	a88d           	ae_clamps16	a8, a8
    2612:	ffe446        	j	25a7 <fn_calc_sup_gain+0x6c3>

00002615 <fn_calc_sup_gain+0x731>:
    2615:	041b22        	l16ui	a2, a11, 8
    2618:	0bad           	mov.n	a10, a11
    261a:	1121b2        	l32i	a11, a1, 68
    261d:	a28c           	beqz.n	a2, 262b <fn_calc_sup_gain+0x747>
    261f:	f6ac21        	l32r	a2, d0 (ed0 <calc_amt>)
    2622:	1221c2        	l32i	a12, a1, 72
    2625:	1521d2        	l32i	a13, a1, 84
    2628:	0002e0        	callx8	a2
    262b:	f01d           	retw.n

0000262d <fn_calc_sup_gain+0x749>:
    262d:	000000                                        ...

00002630 <fn_ini_win_detection>:
    2630:	004136        	entry	a1, 32
    2633:	f69151        	l32r	a5, 78 (90e4 <xt_memset>)
    2636:	0b0c           	movi.n	a11, 0
    2638:	64a2c2        	movi	a12, 0x264
    263b:	02ad           	mov.n	a10, a2
    263d:	0005e0        	callx8	a5
    2640:	f67a51        	l32r	a5, 28 (90f8 <xt_memcpy>)
    2643:	8c1c           	movi.n	a12, 24
    2645:	02ad           	mov.n	a10, a2
    2647:	03bd           	mov.n	a11, a3
    2649:	0005e0        	callx8	a5
    264c:	9238           	l32i.n	a3, a2, 36
    264e:	029252        	l16si	a5, a2, 4
    2651:	1e0c           	movi.n	a14, 1
    2653:	185252        	s16i	a5, a2, 48
    2656:	195252        	s16i	a5, a2, 50
    2659:	015e80        	slli	a5, a14, 24
    265c:	04d2f2        	addmi	a15, a2, 0x400
    265f:	335a           	add.n	a3, a3, a5
    2661:	306f42        	s32i	a4, a15, 192
    2664:	2e6f32        	s32i	a3, a15, 184
    2667:	f01d           	retw.n

00002669 <fn_ini_win_detection+0x39>:
    2669:	000000                                        ...

0000266c <fn_win_detection>:
    266c:	00a136        	entry	a1, 80
    266f:	fc2094516f 	{ s32i.n	a6, a1, 20; ae_zerop48	aep0 }
    2674:	071262        	l16ui	a6, a2, 14
    2677:	0f0c           	movi.n	a15, 0
    2679:	9179           	s32i.n	a7, a1, 36
    267b:	868d           	ae_sext16	a8, a6
    267d:	6129           	s32i.n	a2, a1, 24
    267f:	41f9           	s32i.n	a15, a1, 16
    2681:	1e68a6        	blti	a8, 6, 26a3 <fn_win_detection+0x37>
    2684:	fcc662        	addi	a6, a6, -4
    2687:	10c522        	addi	a2, a5, 16
    268a:	4f0c           	movi.n	a15, 4
    268c:	216160        	srai	a6, a6, 1
    268f:	5ca204        	ae_lp24x2f.iu	aep2, a2, 0
    2692:	399ff4        	ae_movpa24x2	aep1, a15, a15
    2695:	0a8676        	loop	a6, 26a3 <fn_win_detection+0x37>
    2698:	07a124        	ae_addsp24s	aep2, aep2, aep1
    269b:	0f21a4        	ae_sraip24	aep2, aep2, 3
    269e:	d8412fa21f 	{ ae_lp24x2f.iu	aep2, a2, 8; ae_addsp24s	aep0, aep0, aep2 }

000026a3 <fn_win_detection+0x37>:
    26a3:	1a8894        	ae_selp24.hh	aep1, aep0, aep0
    26a6:	d82100016f 	{ movi	a6, 1; ae_addsp24s	aep0, aep0, aep1 }
    26ab:	520144        	ae_sp24f.l.i	aep0, a1, 16
    26ae:	4128           	l32i.n	a2, a1, 16
    26b0:	116610        	slli	a6, a6, 15
    26b3:	21a820        	srai	a10, a2, 8
    26b6:	f66e21        	l32r	a2, 70 (cb4 <fxlog10>)
    26b9:	0002e0        	callx8	a2
    26bc:	f67151        	l32r	a5, 80 (d49a <mel_tab64+0x33a>)
    26bf:	61e8           	l32i.n	a14, a1, 24
    26c1:	825a50        	mull	a5, a10, a5
    26c4:	029e82        	l16si	a8, a14, 4
    26c7:	556a           	add.n	a5, a5, a6
    26c9:	f56050        	extui	a6, a5, 16, 16
    26cc:	315050        	srai	a5, a5, 16
    26cf:	725580        	salt	a5, a5, a8
    26d2:	189e22        	l16si	a2, a14, 48
    26d5:	936850        	movnez	a6, a8, a5
    26d8:	866d           	ae_sext16	a6, a6
    26da:	690c           	movi.n	a9, 6
    26dc:	8b0c           	movi.n	a11, 8
    26de:	72f260        	salt	a15, a2, a6
    26e1:	93b9f0        	movnez	a11, a9, a15
    26e4:	8eba           	add.n	a8, a14, a11
    26e6:	288d           	ae_l16si.n	a8, a8, 0
    26e8:	c0f620        	sub	a15, a6, a2
    26eb:	af9d           	ae_clamps16	a9, a15
    26ed:	d18980        	mul16s	a8, a9, a8
    26f0:	199ec2        	l16si	a12, a14, 50
    26f3:	40d882        	addmi	a8, a8, 0x4000
    26f6:	1188f0        	slli	a8, a8, 1
    26f9:	318080        	srai	a8, a8, 16
    26fc:	282a           	add.n	a2, a8, a2
    26fe:	c0b6c0        	sub	a11, a6, a12
    2701:	ad0c           	movi.n	a13, 10
    2703:	ca0c           	movi.n	a10, 12
    2705:	726c60        	salt	a6, a12, a6
    2708:	93ad60        	movnez	a10, a13, a6
    270b:	a22d           	ae_clamps16	a2, a2
    270d:	6eaa           	add.n	a6, a14, a10
    270f:	185e22        	s16i	a2, a14, 48
    2712:	266d           	ae_l16si.n	a6, a6, 0
    2714:	2e5d           	ae_l16si.n	a5, a14, 0
    2716:	abdd           	ae_clamps16	a13, a11
    2718:	d1fd60        	mul16s	a15, a13, a6
    271b:	225a           	add.n	a2, a2, a5
    271d:	40df52        	addmi	a5, a15, 0x4000
    2720:	1155f0        	slli	a5, a5, 1
    2723:	315050        	srai	a5, a5, 16
    2726:	55ca           	add.n	a5, a5, a12
    2728:	a55d           	ae_clamps16	a5, a5
    272a:	a22d           	ae_clamps16	a2, a2
    272c:	195e52        	s16i	a5, a14, 50
    272f:	04a257        	bge	a2, a5, 2737 <fn_win_detection+0xcb>
    2732:	120c           	movi.n	a2, 1
    2734:	0003c6        	j	2747 <fn_win_detection+0xdb>

00002737 <fn_win_detection+0xcb>:
    2737:	1a1e22        	l16ui	a2, a14, 52
    273a:	1b9e52        	l16si	a5, a14, 54
    273d:	3e6d           	ae_l16si.n	a6, a14, 2
    273f:	091266        	bnei	a2, 1, 274c <fn_win_detection+0xe0>
    2742:	06a657        	bge	a6, a5, 274c <fn_win_detection+0xe0>
    2745:	020c           	movi.n	a2, 0
    2747:	de29           	s32i.n	a2, a14, 52
    2749:	000106        	j	2751 <fn_win_detection+0xe5>

0000274c <fn_win_detection+0xe0>:
    274c:	551b           	addi.n	a5, a5, 1
    274e:	1b5e52        	s16i	a5, a14, 54
    2751:	51b8           	l32i.n	a11, a1, 20
    2753:	9ec8           	l32i.n	a12, a14, 36
    2755:	7ef8           	l32i.n	a15, a14, 28
    2757:	4e88           	l32i.n	a8, a14, 16
    2759:	142192        	l32i	a9, a1, 80
    275c:	04de52        	addmi	a5, a14, 0x400
    275f:	04ad           	mov.n	a10, a4
    2761:	6b2d           	ae_s16i.n	a2, a11, 0
    2763:	38a262        	movi	a6, 0x238
    2766:	412ec0        	srli	a2, a12, 14
    2769:	7199           	s32i.n	a9, a1, 28
    276b:	8159           	s32i.n	a5, a1, 32
    276d:	070c           	movi.n	a7, 0
    276f:	4158f0        	srli	a5, a15, 8
    2772:	38a4b2        	movi	a11, 0x438
    2775:	38ce42        	addi	a4, a14, 56
    2778:	38a192        	movi	a9, 0x138
    277b:	6e6a           	add.n	a6, a14, a6
    277d:	398574        	ae_movpa24x2	aep0, a5, a7
    2780:	5e9a           	add.n	a5, a14, a9
    2782:	feba           	add.n	a15, a14, a11
    2784:	04bd           	mov.n	a11, a4
    2786:	418880        	srli	a8, a8, 8
    2789:	04d222        	addmi	a2, a2, 0x400
    278c:	0d4c           	movi.n	a13, 64
    278e:	a129           	s32i.n	a2, a1, 40
    2790:	5cd304        	ae_lp24x2f.iu	aep5, a3, 0
    2793:	5cea04        	ae_lp24x2f.iu	aep6, a10, 0
    2796:	4179           	s32i.n	a7, a1, 16
    2798:	399884        	ae_movpa24x2	aep1, a8, a8
    279b:	5ca604        	ae_lp24x2f.iu	aep2, a6, 0
    279e:	50bb04        	ae_lp24f.iu	aep3, a11, 0
    27a1:	50c504        	ae_lp24f.iu	aep4, a5, 0
    27a4:	020c           	movi.n	a2, 0
    27a6:	178d76        	loop	a13, 27c1 <fn_win_detection+0x155>
    27a9:	0301d0        	rsr.lend	a13
    27ac:	1300d0        	wsr.lbeg	a13
    27af:	f64ad1        	l32r	a13, d8 (28e8 <fn_win_detection+0x27c>)
    27b2:	0020f0        	nop
    27b5:	1301d0        	wsr.lend	a13
    27b8:	002000        	isync
    27bb:	0302d0        	rsr.lcount	a13
    27be:	01cdd2        	addi	a13, a13, 1
    27c1:	db1570a1de 	{ l32i	a13, a1, 40; ae_addsp24s	aep7, aep5, aep0 }
    27c6:	db1901019f 	{ movi	a9, 0x101; ae_addsp24s	aep6, aep6, aep0 }
    27cb:	f0de94b1af 	{ s32i.n	a10, a1, 44; ae_mulzaafp24s.hh.ll	aeq0, aep7, aep6 }
    27d0:	04f694        	ae_mulzsafp24s.hl.lh	aeq2, aep7, aep6
    27d3:	f1dafac20f 	{ ae_sllisq56s	aeq0, aeq0, 8; ae_mulzaafp24s.hh.ll	aeq3, aep6, aep6 }
    27d8:	f0fefae28f 	{ ae_sllisq56s	aeq2, aeq2, 8; ae_mulzaafp24s.hh.ll	aeq1, aep7, aep7 }
    27dd:	fc00faf2cf 	{ ae_sllisq56s	aeq3, aeq3, 8; ae_satq48s	aeq0, aeq0 }
    27e2:	fb67bad24f 	{ ae_sllisq56s	aeq1, aeq1, 8; ae_roundsp24q48asym	aep6, aeq0 }
    27e7:	060a44        	ae_satq48s	aeq0, aeq2
    27ea:	068b44        	ae_satq48s	aeq2, aeq3
    27ed:	1b8d74        	ae_roundsp24q48asym	aep7, aeq0
    27f0:	07e2d4        	ae_subsp24s	aep5, aep6, aep2
    27f3:	07f2e4        	ae_subsp24s	aep6, aep7, aep2
    27f6:	064944        	ae_satq48s	aeq1, aeq1
    27f9:	1bad74        	ae_roundsp24q48asym	aep7, aeq2
    27fc:	01d944        	ae_mulfp24s.hh	aeq3, aep5, aep1
    27ff:	1b9d54        	ae_roundsp24q48asym	aep5, aeq1
    2802:	016964        	ae_mulfp24s.lh	aeq1, aep6, aep1
    2805:	07f4e4        	ae_subsp24s	aep6, aep7, aep4
    2808:	01e144        	ae_mulfp24s.hh	aeq2, aep6, aep1
    280b:	07d3d4        	ae_subsp24s	aep5, aep5, aep3
    280e:	1bbd64        	ae_roundsp24q48asym	aep6, aeq3
    2811:	01d944        	ae_mulfp24s.hh	aeq3, aep5, aep1
    2814:	1bad74        	ae_roundsp24q48asym	aep7, aeq2
    2817:	07c744        	ae_addsp24s	aep4, aep4, aep7
    281a:	1bbd74        	ae_roundsp24q48asym	aep7, aeq3
    281d:	07b734        	ae_addsp24s	aep3, aep3, aep7
    2820:	01bc74        	ae_mulfp24s.ll	aeq3, aep3, aep4
    2823:	1b9d74        	ae_roundsp24q48asym	aep7, aeq1
    2826:	fc3c40ffcf 	{ movi	a12, 255; ae_roundsq32asym	aeq0, aeq3 }
    282b:	dbc93f08ef 	{ ae_trunca32q48	a8, aeq0; ae_addsp24s	aep6, aep2, aep6 }
    2830:	07a774        	ae_addsp24s	aep7, aep2, aep7
    2833:	1aef24        	ae_selp24.hl	aep2, aep6, aep7
    2836:	f04ab6a60f 	{ ae_sp24x2f.iu	aep2, a6, 0; ae_mulzaafp24s.hh.ll	aeq0, aep2, aep2 }
    283b:	52bb04        	ae_sp24f.l.iu	aep3, a11, 0
    283e:	52c504        	ae_sp24f.l.iu	aep4, a5, 0
    2841:	2f2897        	blt	a8, a9, 2874 <fn_win_detection+0x208>
    2844:	7fdcd2        	addmi	a13, a12, 0x7f00
    2847:	fc247ec87f 	{ ae_cvtq48a32s	aeq1, a8; ae_roundsq32asym	aeq0, aeq0 }
    284c:	368904        	ae_trunca32q48	a9, aeq0
    284f:	40e8a0        	nsa	a10, a8
    2852:	8acd           	ae_sext16	a12, a10
    2854:	1ca987        	bge	a9, a8, 2874 <fn_win_detection+0x208>
    2857:	360934        	ae_cvtq48a32s	aeq0, a9
    285a:	f1cc82        	addi	a8, a12, -15
    285d:	fc24fe8c0f 	{ ae_slaasq56s	aeq0, aeq0, a12; nop }
    2862:	fc00fe984f 	{ ae_slaasq56s	aeq1, aeq1, a8; ae_satq48s	aeq0, aeq0 }
    2867:	fd04ff0def 	{ ae_trunca32q48	a13, aeq0; ae_satq48s	aeq1, aeq1 }
    286c:	369e04        	ae_trunca32q48	a14, aeq1
    286f:	d28de0        	quos	a8, a13, a14
    2872:	a8dd           	ae_clamps16	a13, a8
    2874:	119d00        	slli	a9, a13, 16
    2877:	219890        	srai	a9, a9, 8
    287a:	318f70        	srai	a8, a7, 31
    287d:	797a           	add.n	a7, a9, a7
    287f:	fa7c           	movi.n	a10, -1
    2881:	04e8           	l32i.n	a14, a4, 0
    2883:	629790        	saltu	a9, a7, a9
    2886:	889a           	add.n	a8, a8, a9
    2888:	01aa10        	slli	a10, a10, 31
    288b:	73c7a0        	maxu	a12, a7, a10
    288e:	981b           	addi.n	a9, a8, 1
    2890:	a37a80        	movltz	a7, a10, a8
    2893:	837c90        	moveqz	a7, a12, a9
    2896:	319f20        	srai	a9, a2, 31
    2899:	31cfe0        	srai	a12, a14, 31
    289c:	2e2a           	add.n	a2, a14, a2
    289e:	9c9a           	add.n	a9, a12, a9
    28a0:	62e2e0        	saltu	a14, a2, a14
    28a3:	99ea           	add.n	a9, a9, a14
    28a5:	73c2a0        	maxu	a12, a2, a10
    28a8:	a32a90        	movltz	a2, a10, a9
    28ab:	e91b           	addi.n	a14, a9, 1
    28ad:	832ce0        	moveqz	a2, a12, a14
    28b0:	f603e1        	l32r	a14, bc (7fffff00 <_end+0x7fff109c>)
    28b3:	fa7c           	movi.n	a10, -1
    28b5:	5388a0        	max	a8, a8, a10
    28b8:	0ecd           	mov.n	a12, a14
    28ba:	a3c780        	movltz	a12, a7, a8
    28bd:	6377e0        	minu	a7, a7, a14
    28c0:	5399a0        	max	a9, a9, a10
    28c3:	b1a8           	l32i.n	a10, a1, 44
    28c5:	937c80        	movnez	a7, a12, a8
    28c8:	0ecd           	mov.n	a12, a14
    28ca:	6fdd           	ae_s16i.n	a13, a15, 0
    28cc:	a3c290        	movltz	a12, a2, a9
    28cf:	6322e0        	minu	a2, a2, a14
    28d2:	932c90        	movnez	a2, a12, a9
    28d5:	444b           	addi.n	a4, a4, 4
    28d7:	ff2b           	addi.n	a15, a15, 2
    28d9:	5cd314        	ae_lp24x2f.iu	aep5, a3, 8
    28dc:	5cea14        	ae_lp24x2f.iu	aep6, a10, 8
    28df:	5ca614        	ae_lp24x2f.iu	aep2, a6, 8
    28e2:	50bb14        	ae_lp24f.iu	aep3, a11, 4
    28e5:	50c514        	ae_lp24f.iu	aep4, a5, 4

000028e8 <fn_win_detection+0x27c>:
    28e8:	61b8           	l32i.n	a11, a1, 24
    28ea:	7158           	l32i.n	a5, a1, 28
    28ec:	fc7c           	movi.n	a12, -1
    28ee:	04db32        	addmi	a3, a11, 0x400
    28f1:	2e2342        	l32i	a4, a3, 184
    28f4:	01cc10        	slli	a12, a12, 31
    28f7:	4179           	s32i.n	a7, a1, 16
    28f9:	021526        	beqi	a5, 1, 28ff <fn_win_detection+0x293>
    28fc:	0030c6        	j	29c3 <fn_win_detection+0x357>
    28ff:	ab68           	l32i.n	a6, a11, 40
    2901:	212620        	srai	a2, a2, 6
    2904:	00af52        	movi	a5, 0xffffff00
    2907:	102250        	and	a2, a2, a5
    290a:	02a267        	bge	a2, a6, 2910 <fn_win_detection+0x2a4>
    290d:	002c86        	j	29c3 <fn_win_detection+0x357>
    2910:	315f40        	srai	a5, a4, 31
    2913:	312f70        	srai	a2, a7, 31
    2916:	626740        	saltu	a6, a7, a4
    2919:	c02250        	sub	a2, a2, a5
    291c:	c06260        	sub	a6, a2, a6
    291f:	c08740        	sub	a8, a7, a4
    2922:	7398c0        	maxu	a9, a8, a12
    2925:	261b           	addi.n	a2, a6, 1
    2927:	a38c60        	movltz	a8, a12, a6
    292a:	838920        	moveqz	a8, a9, a2
    292d:	f27c           	movi.n	a2, -1
    292f:	536620        	max	a6, a6, a2
    2932:	0efd           	mov.n	a15, a14
    2934:	a3f860        	movltz	a15, a8, a6
    2937:	6388e0        	minu	a8, a8, a14
    293a:	938f60        	movnez	a8, a15, a6
    293d:	216880        	srai	a6, a8, 8
    2940:	04a477        	bge	a4, a7, 2948 <fn_win_detection+0x2dc>
    2943:	5b88           	l32i.n	a8, a11, 20
    2945:	000046        	j	294a <fn_win_detection+0x2de>

00002948 <fn_win_detection+0x2dc>:
    2948:	6b88           	l32i.n	a8, a11, 24
    294a:	218880        	srai	a8, a8, 8
    294d:	190c           	movi.n	a9, 1
    294f:	82a680        	mull	a10, a6, a8
    2952:	019990        	slli	a9, a9, 23
    2955:	b2d680        	mulsh	a13, a6, a8
    2958:	05ffa0        	extui	a15, a10, 31, 1
    295b:	909a90        	addx2	a9, a10, a9
    295e:	11aaf0        	slli	a10, a10, 1
    2961:	906df0        	addx2	a6, a13, a15
    2964:	62d9a0        	saltu	a13, a9, a10
    2967:	66da           	add.n	a6, a6, a13
    2969:	759890        	extui	a9, a9, 24, 8
    296c:	118680        	slli	a8, a6, 8
    296f:	31f860        	srai	a15, a6, 24
    2972:	898a           	add.n	a8, a9, a8
    2974:	f56060        	extui	a6, a6, 16, 16
    2977:	119f80        	slli	a9, a15, 8
    297a:	0a7690        	depbits	a9, a6, 0, 8
    297d:	116880        	slli	a6, a8, 8
    2980:	73f6c0        	maxu	a15, a6, a12
    2983:	d91b           	addi.n	a13, a9, 1
    2985:	a36c90        	movltz	a6, a12, a9
    2988:	836fd0        	moveqz	a6, a15, a13
    298b:	539920        	max	a9, a9, a2
    298e:	0efd           	mov.n	a15, a14
    2990:	a3f690        	movltz	a15, a6, a9
    2993:	6366e0        	minu	a6, a6, a14
    2996:	936f90        	movnez	a6, a15, a9
    2999:	0d0c           	movi.n	a13, 0
    299b:	464a           	add.n	a4, a6, a4
    299d:	4389d0        	min	a8, a9, a13
    29a0:	585a           	add.n	a5, a8, a5
    29a2:	626460        	saltu	a6, a4, a6
    29a5:	556a           	add.n	a5, a5, a6
    29a7:	73a4c0        	maxu	a10, a4, a12
    29aa:	651b           	addi.n	a6, a5, 1
    29ac:	a34c50        	movltz	a4, a12, a5
    29af:	53d520        	max	a13, a5, a2
    29b2:	834a60        	moveqz	a4, a10, a6
    29b5:	0efd           	mov.n	a15, a14
    29b7:	a3f4d0        	movltz	a15, a4, a13
    29ba:	6344e0        	minu	a4, a4, a14
    29bd:	934fd0        	movnez	a4, a15, a13
    29c0:	2e6342        	s32i	a4, a3, 184
    29c3:	8b28           	l32i.n	a2, a11, 32
    29c5:	250c           	movi.n	a5, 2
    29c7:	9b38           	l32i.n	a3, a11, 36
    29c9:	022427        	blt	a4, a2, 29cf <fn_win_detection+0x363>
    29cc:	725430        	salt	a5, a4, a3
    29cf:	04db22        	addmi	a2, a11, 0x400
    29d2:	9148           	l32i.n	a4, a1, 36
    29d4:	2f2232        	l32i	a3, a2, 188
    29d7:	316f70        	srai	a6, a7, 31
    29da:	645d           	ae_s16i.n	a5, a4, 0
    29dc:	074d           	mov.n	a4, a7
    29de:	022377        	blt	a3, a7, 29e4 <fn_win_detection+0x378>
    29e1:	002606        	j	2a7d <fn_win_detection+0x411>
    29e4:	314f30        	srai	a4, a3, 31
    29e7:	628730        	saltu	a8, a7, a3
    29ea:	c06640        	sub	a6, a6, a4
    29ed:	c06680        	sub	a6, a6, a8
    29f0:	c09730        	sub	a9, a7, a3
    29f3:	73a9c0        	maxu	a10, a9, a12
    29f6:	f57c           	movi.n	a5, -1
    29f8:	861b           	addi.n	a8, a6, 1
    29fa:	a39c60        	movltz	a9, a12, a6
    29fd:	839a80        	moveqz	a9, a10, a8
    2a00:	0efd           	mov.n	a15, a14
    2a02:	536650        	max	a6, a6, a5
    2a05:	a3f960        	movltz	a15, a9, a6
    2a08:	6399e0        	minu	a9, a9, a14
    2a0b:	f5b281        	l32r	a8, d4 (333334 <_end+0x3244d0>)
    2a0e:	939f60        	movnez	a9, a15, a6
    2a11:	219890        	srai	a9, a9, 8
    2a14:	1d0c           	movi.n	a13, 1
    2a16:	82f980        	mull	a15, a9, a8
    2a19:	016d90        	slli	a6, a13, 23
    2a1c:	6f6a           	add.n	a6, a15, a6
    2a1e:	b28980        	mulsh	a8, a9, a8
    2a21:	62a6f0        	saltu	a10, a6, a15
    2a24:	88aa           	add.n	a8, a8, a10
    2a26:	756860        	extui	a6, a6, 24, 8
    2a29:	119880        	slli	a9, a8, 8
    2a2c:	31d880        	srai	a13, a8, 24
    2a2f:	669a           	add.n	a6, a6, a9
    2a31:	119d80        	slli	a9, a13, 8
    2a34:	f58080        	extui	a8, a8, 16, 16
    2a37:	0a7890        	depbits	a9, a8, 0, 8
    2a3a:	116680        	slli	a6, a6, 8
    2a3d:	73f6c0        	maxu	a15, a6, a12
    2a40:	891b           	addi.n	a8, a9, 1
    2a42:	a36c90        	movltz	a6, a12, a9
    2a45:	836f80        	moveqz	a6, a15, a8
    2a48:	539950        	max	a9, a9, a5
    2a4b:	0efd           	mov.n	a15, a14
    2a4d:	a3f690        	movltz	a15, a6, a9
    2a50:	6366e0        	minu	a6, a6, a14
    2a53:	936f90        	movnez	a6, a15, a9
    2a56:	0d0c           	movi.n	a13, 0
    2a58:	a63a           	add.n	a10, a6, a3
    2a5a:	4389d0        	min	a8, a9, a13
    2a5d:	484a           	add.n	a4, a8, a4
    2a5f:	626a60        	saltu	a6, a10, a6
    2a62:	446a           	add.n	a4, a4, a6
    2a64:	73dac0        	maxu	a13, a10, a12
    2a67:	a3ac40        	movltz	a10, a12, a4
    2a6a:	641b           	addi.n	a6, a4, 1
    2a6c:	535450        	max	a5, a4, a5
    2a6f:	93da60        	movnez	a13, a10, a6
    2a72:	0efd           	mov.n	a15, a14
    2a74:	a3fd50        	movltz	a15, a13, a5
    2a77:	634de0        	minu	a4, a13, a14
    2a7a:	934f50        	movnez	a4, a15, a5
    2a7d:	bb38           	l32i.n	a3, a11, 44
    2a7f:	2f6242        	s32i	a4, a2, 188
    2a82:	5158           	l32i.n	a5, a1, 20
    2a84:	03a347        	bge	a3, a4, 2a8b <fn_win_detection+0x41f>
    2a87:	020c           	movi.n	a2, 0
    2a89:	652d           	ae_s16i.n	a2, a5, 0
    2a8b:	8128           	l32i.n	a2, a1, 32
    2a8d:	302222        	l32i	a2, a2, 192
    2a90:	0279           	s32i.n	a7, a2, 0
    2a92:	f01d           	retw.n

00002a94 <fn_calc_pow>:
    2a94:	004136        	entry	a1, 32
    2a97:	1fa457        	bge	a4, a5, 2aba <fn_calc_pow+0x26>
    2a9a:	c04540        	sub	a4, a5, a4
    2a9d:	5c8204        	ae_lp24x2f.iu	aep0, a2, 0
    2aa0:	fcc332        	addi	a3, a3, -4
    2aa3:	f03d           	nop.n
    2aa5:	118476        	loop	a4, 2aba <fn_calc_pow+0x26>
    2aa8:	040004        	ae_mulzaafp24s.hh.ll	aeq0, aep0, aep0
    2aab:	360114        	ae_sllisq56s	aeq0, aeq0, 4
    2aae:	060844        	ae_satq48s	aeq0, aeq0
    2ab1:	060934        	ae_roundsq32asym	aeq0, aeq0
    2ab4:	624314        	ae_sq32f.iu	aeq0, a3, 4
    2ab7:	5c8214        	ae_lp24x2f.iu	aep0, a2, 8

00002aba <fn_calc_pow+0x26>:
    2aba:	f01d           	retw.n

00002abc <fn_low_bin_noise_est>:
    2abc:	006136        	entry	a1, 48
    2abf:	04d292        	addmi	a9, a2, 0x400
    2ac2:	282982        	l32i	a8, a9, 160
    2ac5:	3d99f2        	l16si	a15, a9, 122
    2ac8:	31f9           	s32i.n	a15, a1, 12
    2aca:	05fd           	mov.n	a15, a5
    2acc:	021626        	beqi	a6, 1, 2ad2 <fn_low_bin_noise_est+0x16>
    2acf:	006f86        	j	2c91 <fn_low_bin_noise_est+0x1d5>
    2ad2:	04d262        	addmi	a6, a2, 0x400
    2ad5:	820662        	l8ui	a6, a6, 130
    2ad8:	3178           	l32i.n	a7, a1, 12
    2ada:	f578b1        	l32r	a11, bc (7fffff00 <_end+0x7fff109c>)
    2add:	2ce657        	bbsi	a6, 5, 2b0d <fn_low_bin_noise_est+0x51>
    2ae0:	04d262        	addmi	a6, a2, 0x400
    2ae3:	3e9692        	l16si	a9, a6, 124
    2ae6:	31f8           	l32i.n	a15, a1, 12
    2ae8:	08bd           	mov.n	a11, a8
    2aea:	99ad           	ae_zext16	a10, a9
    2aec:	116ff0        	slli	a6, a15, 1
    2aef:	0219e6        	bgei	a9, 1, 2af5 <fn_low_bin_noise_est+0x39>
    2af2:	004106        	j	2bfa <fn_low_bin_noise_est+0x13e>
    2af5:	11caf0        	slli	a12, a10, 1
    2af8:	090c           	movi.n	a9, 0
    2afa:	20a550        	or	a10, a5, a5
    2afd:	098c76        	loop	a12, 2b0a <fn_low_bin_noise_est+0x4e>
    2b00:	0a78           	l32i.n	a7, a10, 0
    2b02:	0b79           	s32i.n	a7, a11, 0
    2b04:	aa4b           	addi.n	a10, a10, 4
    2b06:	991b           	addi.n	a9, a9, 1
    2b08:	bb4b           	addi.n	a11, a11, 4

00002b0a <fn_low_bin_noise_est+0x4e>:
    2b0a:	003b86        	j	2bfc <fn_low_bin_noise_est+0x140>

00002b0d <fn_low_bin_noise_est+0x51>:
    2b0d:	076d           	mov.n	a6, a7
    2b0f:	0217e6        	bgei	a7, 1, 2b15 <fn_low_bin_noise_est+0x59>
    2b12:	007b46        	j	2d03 <fn_low_bin_noise_est+0x247>
    2b15:	fd7c           	movi.n	a13, -1
    2b17:	1c0c           	movi.n	a12, 1
    2b19:	f8a3e2        	movi	a14, 0x3f8
    2b1c:	22ea           	add.n	a2, a2, a14
    2b1e:	01dd10        	slli	a13, a13, 31
    2b21:	08ed           	mov.n	a14, a8
    2b23:	01cc90        	slli	a12, a12, 23
    2b26:	cd8676        	loop	a6, 2bf7 <fn_low_bin_noise_est+0x13b>
    2b29:	227d           	ae_l16si.n	a7, a2, 0
    2b2b:	05f8           	l32i.n	a15, a5, 0
    2b2d:	ffa3a2        	movi	a10, 0x3ff
    2b30:	117700        	slli	a7, a7, 16
    2b33:	2168f0        	srai	a6, a15, 8
    2b36:	21f870        	srai	a15, a7, 8
    2b39:	b27f60        	mulsh	a7, a15, a6
    2b3c:	826f60        	mull	a6, a15, a6
    2b3f:	1197b0        	slli	a9, a7, 5
    2b42:	727a70        	salt	a7, a10, a7
    2b45:	45ab60        	extui	a10, a6, 27, 5
    2b48:	1166b0        	slli	a6, a6, 5
    2b4b:	99aa           	add.n	a9, a9, a10
    2b4d:	a6ca           	add.n	a10, a6, a12
    2b4f:	626a60        	saltu	a6, a10, a6
    2b52:	696a           	add.n	a6, a9, a6
    2b54:	75a8a0        	extui	a10, a10, 24, 8
    2b57:	119680        	slli	a9, a6, 8
    2b5a:	9a9a           	add.n	a9, a10, a9
    2b5c:	31a860        	srai	a10, a6, 24
    2b5f:	f56060        	extui	a6, a6, 16, 16
    2b62:	11aa80        	slli	a10, a10, 8
    2b65:	119980        	slli	a9, a9, 8
    2b68:	0a76a0        	depbits	a10, a6, 0, 8
    2b6b:	060c           	movi.n	a6, 0
    2b6d:	93a670        	movnez	a10, a6, a7
    2b70:	939d70        	movnez	a9, a13, a7
    2b73:	7369d0        	maxu	a6, a9, a13
    2b76:	7a1b           	addi.n	a7, a10, 1
    2b78:	a39da0        	movltz	a9, a13, a10
    2b7b:	839670        	moveqz	a9, a6, a7
    2b7e:	f77c           	movi.n	a7, -1
    2b80:	536a70        	max	a6, a10, a7
    2b83:	0bad           	mov.n	a10, a11
    2b85:	a3a960        	movltz	a10, a9, a6
    2b88:	6399b0        	minu	a9, a9, a11
    2b8b:	939a60        	movnez	a9, a10, a6
    2b8e:	0e99           	s32i.n	a9, a14, 0
    2b90:	1598           	l32i.n	a9, a5, 4
    2b92:	222b           	addi.n	a2, a2, 2
    2b94:	558b           	addi.n	a5, a5, 8
    2b96:	216890        	srai	a6, a9, 8
    2b99:	b2a6f0        	mulsh	a10, a6, a15
    2b9c:	8266f0        	mull	a6, a6, a15
    2b9f:	ffa3f2        	movi	a15, 0x3ff
    2ba2:	727fa0        	salt	a7, a15, a10
    2ba5:	45fb60        	extui	a15, a6, 27, 5
    2ba8:	119ab0        	slli	a9, a10, 5
    2bab:	1166b0        	slli	a6, a6, 5
    2bae:	99fa           	add.n	a9, a9, a15
    2bb0:	f6ca           	add.n	a15, a6, a12
    2bb2:	626f60        	saltu	a6, a15, a6
    2bb5:	696a           	add.n	a6, a9, a6
    2bb7:	75a8f0        	extui	a10, a15, 24, 8
    2bba:	119680        	slli	a9, a6, 8
    2bbd:	31f860        	srai	a15, a6, 24
    2bc0:	9a9a           	add.n	a9, a10, a9
    2bc2:	11af80        	slli	a10, a15, 8
    2bc5:	f56060        	extui	a6, a6, 16, 16
    2bc8:	119980        	slli	a9, a9, 8
    2bcb:	0a76a0        	depbits	a10, a6, 0, 8
    2bce:	0f0c           	movi.n	a15, 0
    2bd0:	93af70        	movnez	a10, a15, a7
    2bd3:	939d70        	movnez	a9, a13, a7
    2bd6:	7379d0        	maxu	a7, a9, a13
    2bd9:	fa1b           	addi.n	a15, a10, 1
    2bdb:	a39da0        	movltz	a9, a13, a10
    2bde:	8397f0        	moveqz	a9, a7, a15
    2be1:	f77c           	movi.n	a7, -1
    2be3:	536a70        	max	a6, a10, a7
    2be6:	0bfd           	mov.n	a15, a11
    2be8:	a3f960        	movltz	a15, a9, a6
    2beb:	6399b0        	minu	a9, a9, a11
    2bee:	939f60        	movnez	a9, a15, a6
    2bf1:	1e99           	s32i.n	a9, a14, 4
    2bf3:	08fd           	mov.n	a15, a8
    2bf5:	ee8b           	addi.n	a14, a14, 8

00002bf7 <fn_low_bin_noise_est+0x13b>:
    2bf7:	002586        	j	2c91 <fn_low_bin_noise_est+0x1d5>

00002bfa <fn_low_bin_noise_est+0x13e>:
    2bfa:	090c           	movi.n	a9, 0
    2bfc:	08fd           	mov.n	a15, a8
    2bfe:	022967        	blt	a9, a6, 2c04 <fn_low_bin_noise_est+0x148>
    2c01:	002306        	j	2c91 <fn_low_bin_noise_est+0x1d5>
    2c04:	04d272        	addmi	a7, a2, 0x400
    2c07:	3c9772        	l16si	a7, a7, 120
    2c0a:	c0e960        	sub	a14, a9, a6
    2c0d:	f52bd1        	l32r	a13, bc (7fffff00 <_end+0x7fff109c>)
    2c10:	fb7c           	movi.n	a11, -1
    2c12:	60f0e0        	neg	a15, a14
    2c15:	117700        	slli	a7, a7, 16
    2c18:	a02980        	addx4	a2, a9, a8
    2c1b:	a05950        	addx4	a5, a9, a5
    2c1e:	01bb10        	slli	a11, a11, 31
    2c21:	fc7c           	movi.n	a12, -1
    2c23:	21e870        	srai	a14, a7, 8
    2c26:	ffa3a2        	movi	a10, 0x3ff
    2c29:	648f76        	loop	a15, 2c91 <fn_low_bin_noise_est+0x1d5>
    2c2c:	0578           	l32i.n	a7, a5, 0
    2c2e:	554b           	addi.n	a5, a5, 4
    2c30:	217870        	srai	a7, a7, 8
    2c33:	82fe70        	mull	a15, a14, a7
    2c36:	b27e70        	mulsh	a7, a14, a7
    2c39:	456bf0        	extui	a6, a15, 27, 5
    2c3c:	1197b0        	slli	a9, a7, 5
    2c3f:	696a           	add.n	a6, a9, a6
    2c41:	190c           	movi.n	a9, 1
    2c43:	11ffb0        	slli	a15, a15, 5
    2c46:	019990        	slli	a9, a9, 23
    2c49:	9f9a           	add.n	a9, a15, a9
    2c4b:	62f9f0        	saltu	a15, a9, a15
    2c4e:	66fa           	add.n	a6, a6, a15
    2c50:	759890        	extui	a9, a9, 24, 8
    2c53:	11f680        	slli	a15, a6, 8
    2c56:	99fa           	add.n	a9, a9, a15
    2c58:	31f860        	srai	a15, a6, 24
    2c5b:	f56060        	extui	a6, a6, 16, 16
    2c5e:	11ff80        	slli	a15, a15, 8
    2c61:	0a76f0        	depbits	a15, a6, 0, 8
    2c64:	116980        	slli	a6, a9, 8
    2c67:	727a70        	salt	a7, a10, a7
    2c6a:	090c           	movi.n	a9, 0
    2c6c:	93f970        	movnez	a15, a9, a7
    2c6f:	936b70        	movnez	a6, a11, a7
    2c72:	7396b0        	maxu	a9, a6, a11
    2c75:	7f1b           	addi.n	a7, a15, 1
    2c77:	a36bf0        	movltz	a6, a11, a15
    2c7a:	836970        	moveqz	a6, a9, a7
    2c7d:	0d9d           	mov.n	a9, a13
    2c7f:	53ffc0        	max	a15, a15, a12
    2c82:	a396f0        	movltz	a9, a6, a15
    2c85:	6366d0        	minu	a6, a6, a13
    2c88:	9369f0        	movnez	a6, a9, a15
    2c8b:	0269           	s32i.n	a6, a2, 0
    2c8d:	08fd           	mov.n	a15, a8
    2c8f:	224b           	addi.n	a2, a2, 4

00002c91 <fn_low_bin_noise_est+0x1d5>:
    2c91:	3178           	l32i.n	a7, a1, 12
    2c93:	6c17a6        	blti	a7, 1, 2d03 <fn_low_bin_noise_est+0x247>
    2c96:	b02780        	addx8	a2, a7, a8
    2c99:	5c8f04        	ae_lp24x2f.iu	aep0, a15, 0
    2c9c:	fcc252        	addi	a5, a2, -4
    2c9f:	118776        	loop	a7, 2cb4 <fn_low_bin_noise_est+0x1f8>
    2ca2:	040004        	ae_mulzaafp24s.hh.ll	aeq0, aep0, aep0
    2ca5:	360114        	ae_sllisq56s	aeq0, aeq0, 4
    2ca8:	060844        	ae_satq48s	aeq0, aeq0
    2cab:	060934        	ae_roundsq32asym	aeq0, aeq0
    2cae:	624514        	ae_sq32f.iu	aeq0, a5, 4
    2cb1:	5c8f14        	ae_lp24x2f.iu	aep0, a15, 8

00002cb4 <fn_low_bin_noise_est+0x1f8>:
    2cb4:	f50281        	l32r	a8, bc (7fffff00 <_end+0x7fff109c>)
    2cb7:	f57c           	movi.n	a5, -1
    2cb9:	015510        	slli	a5, a5, 31
    2cbc:	f67c           	movi.n	a6, -1
    2cbe:	190c           	movi.n	a9, 1
    2cc0:	00a1a2        	movi	a10, 0x100
    2cc3:	3c8776        	loop	a7, 2d03 <fn_low_bin_noise_est+0x247>
    2cc6:	0478           	l32i.n	a7, a4, 0
    2cc8:	02b8           	l32i.n	a11, a2, 0
    2cca:	08fd           	mov.n	a15, a8
    2ccc:	31cf70        	srai	a12, a7, 31
    2ccf:	31dfb0        	srai	a13, a11, 31
    2cd2:	62e7b0        	saltu	a14, a7, a11
    2cd5:	c0ccd0        	sub	a12, a12, a13
    2cd8:	c077b0        	sub	a7, a7, a11
    2cdb:	c0bce0        	sub	a11, a12, a14
    2cde:	73d750        	maxu	a13, a7, a5
    2ce1:	eb1b           	addi.n	a14, a11, 1
    2ce3:	a375b0        	movltz	a7, a5, a11
    2ce6:	53bb60        	max	a11, a11, a6
    2ce9:	837de0        	moveqz	a7, a13, a14
    2cec:	a3f7b0        	movltz	a15, a7, a11
    2cef:	637780        	minu	a7, a7, a8
    2cf2:	937fb0        	movnez	a7, a15, a11
    2cf5:	72b790        	salt	a11, a7, a9
    2cf8:	937ab0        	movnez	a7, a10, a11
    2cfb:	0379           	s32i.n	a7, a3, 0
    2cfd:	444b           	addi.n	a4, a4, 4
    2cff:	224b           	addi.n	a2, a2, 4
    2d01:	334b           	addi.n	a3, a3, 4

00002d03 <fn_low_bin_noise_est+0x247>:
    2d03:	f01d           	retw.n

00002d05 <fn_low_bin_noise_est+0x249>:
    2d05:	000000                                        ...

00002d08 <fn_low_bin_compensate_phase>:
    2d08:	00a136        	entry	a1, 80
    2d0b:	04d222        	addmi	a2, a2, 0x400
    2d0e:	a129           	s32i.n	a2, a1, 40
    2d10:	3d9222        	l16si	a2, a2, 122
    2d13:	f4ee71        	l32r	a7, cc (c44 <fxsqrt_ie>)
    2d16:	046d           	mov.n	a6, a4
    2d18:	0212e6        	bgei	a2, 1, 2d1e <fn_low_bin_compensate_phase+0x16>
    2d1b:	0046c6        	j	2e3a <fn_low_bin_compensate_phase+0x132>
    2d1e:	20c122        	addi	a2, a1, 32
    2d21:	5c9304        	ae_lp24x2f.iu	aep1, a3, 0
    2d24:	050c           	movi.n	a5, 0
    2d26:	5c8604        	ae_lp24x2f.iu	aep0, a6, 0
    2d29:	f00294912f 	{ s32i.n	a2, a1, 36; ae_mulzaafp24s.hh.ll	aeq0, aep0, aep0 }

00002d2e <fn_low_bin_compensate_phase+0x26>:
    2d2e:	9128           	l32i.n	a2, a1, 36
    2d30:	561124        	ae_sp24x2s.i	aep1, a1, 16
    2d33:	360054        	ae_sllisq56s	aeq0, aeq0, 1
    2d36:	fc00d4b16f 	{ s32i.n	a6, a1, 44; ae_satq48s	aeq0, aeq0 }
    2d3b:	fb67cfff6f 	{ movi	a6, -1; ae_roundsp24q48asym	aep7, aeq0 }
    2d40:	4e7204        	ae_sp24s.l.i	aep7, a2, 0
    2d43:	81a8           	l32i.n	a10, a1, 32
    2d45:	0007e0        	callx8	a7
    2d48:	312fa0        	srai	a2, a10, 31
    2d4b:	418da0        	srli	a8, a10, 13
    2d4e:	0122d0        	slli	a2, a2, 19
    2d51:	228a           	add.n	a2, a2, a8
    2d53:	019ad0        	slli	a9, a10, 19
    2d56:	016610        	slli	a6, a6, 31
    2d59:	73a960        	maxu	a10, a9, a6
    2d5c:	821b           	addi.n	a8, a2, 1
    2d5e:	a39620        	movltz	a9, a6, a2
    2d61:	fb7c           	movi.n	a11, -1
    2d63:	839a80        	moveqz	a9, a10, a8
    2d66:	41a1b0        	srli	a10, a11, 1
    2d69:	fd7c           	movi.n	a13, -1
    2d6b:	0acd           	mov.n	a12, a10
    2d6d:	5322d0        	max	a2, a2, a13
    2d70:	a3c920        	movltz	a12, a9, a2
    2d73:	6399a0        	minu	a9, a9, a10
    2d76:	0478           	l32i.n	a7, a4, 0
    2d78:	ffa0f2        	movi	a15, 255
    2d7b:	939c20        	movnez	a9, a12, a2
    2d7e:	1e0c           	movi.n	a14, 1
    2d80:	7fdf62        	addmi	a6, a15, 0x7f00
    2d83:	5389e0        	max	a8, a9, a14
    2d86:	062d           	mov.n	a2, a6
    2d88:	26a787        	bge	a7, a8, 2db2 <fn_low_bin_compensate_phase+0xaa>
    2d8b:	40e820        	nsa	a2, a8
    2d8e:	360734        	ae_cvtq48a32s	aeq0, a7
    2d91:	822d           	ae_sext16	a2, a2
    2d93:	fc24fe820f 	{ ae_slaasq56s	aeq0, aeq0, a2; nop }
    2d98:	fc00fec87f 	{ ae_cvtq48a32s	aeq1, a8; ae_satq48s	aeq0, aeq0 }
    2d9d:	f1c222        	addi	a2, a2, -15
    2da0:	fc24fe924f 	{ ae_slaasq56s	aeq1, aeq1, a2; nop }
    2da5:	fd04ff0eef 	{ ae_trunca32q48	a14, aeq0; ae_satq48s	aeq1, aeq1 }
    2daa:	369f04        	ae_trunca32q48	a15, aeq1
    2dad:	d22ef0        	quos	a2, a14, a15
    2db0:	a22d           	ae_clamps16	a2, a2
    2db2:	1498           	l32i.n	a9, a4, 4
    2db4:	540124        	ae_lp24x2.i	aep0, a1, 16
    2db7:	40e870        	nsa	a7, a8
    2dba:	23a987        	bge	a9, a8, 2de1 <fn_low_bin_compensate_phase+0xd9>
    2dbd:	360934        	ae_cvtq48a32s	aeq0, a9
    2dc0:	877d           	ae_sext16	a7, a7
    2dc2:	fc24fe870f 	{ ae_slaasq56s	aeq0, aeq0, a7; nop }
    2dc7:	fc00fec87f 	{ ae_cvtq48a32s	aeq1, a8; ae_satq48s	aeq0, aeq0 }
    2dcc:	f1c772        	addi	a7, a7, -15
    2dcf:	fc24fe974f 	{ ae_slaasq56s	aeq1, aeq1, a7; nop }
    2dd4:	fd04ff0eef 	{ ae_trunca32q48	a14, aeq0; ae_satq48s	aeq1, aeq1 }
    2dd9:	369f04        	ae_trunca32q48	a15, aeq1
    2ddc:	d27ef0        	quos	a7, a14, a15
    2ddf:	a76d           	ae_clamps16	a6, a7
    2de1:	040004        	ae_mulzaafp24s.hh.ll	aeq0, aep0, aep0
    2de4:	f4ba71        	l32r	a7, cc (c44 <fxsqrt_ie>)
    2de7:	360054        	ae_sllisq56s	aeq0, aeq0, 1
    2dea:	060844        	ae_satq48s	aeq0, aeq0
    2ded:	1b8d74        	ae_roundsp24q48asym	aep7, aeq0
    2df0:	4e7174        	ae_sp24s.l.i	aep7, a1, 28
    2df3:	71a8           	l32i.n	a10, a1, 28
    2df5:	0007e0        	callx8	a7
    2df8:	9aed           	ae_zext16	a14, a10
    2dfa:	300224        	ae_cvtp24a16x2.ll	aep0, a2, a2
    2dfd:	301ee4        	ae_cvtp24a16x2.ll	aep1, a14, a14
    2e00:	ea0598a66f 	{ ae_cvtp24a16x2.ll	aep2, a6, a6; ae_mulfp24s.ll	aeq0, aep1, aep0 }
    2e05:	ea45f0a1fe 	{ l32i	a15, a1, 40; ae_mulfp24s.ll	aeq1, aep1, aep2 }
    2e0a:	3600d4        	ae_sllisq56s	aeq0, aeq0, 3
    2e0d:	fc00fad0ff 	{ ae_sllisq56s	aeq3, aeq1, 3; ae_satq48s	aeq0, aeq0 }
    2e12:	fb67a3df2e 	{ l16si	a2, a15, 122; ae_roundsp24q48asym	aep6, aeq0 }
    2e17:	fc84f0b16e 	{ l32i	a6, a1, 44; ae_satq48s	aeq0, aeq3 }
    2e1c:	fb67c0155e 	{ addi	a5, a5, 1; ae_roundsp24q48asym	aep7, aeq0 }
    2e21:	dcf900844e 	{ addi	a4, a4, 8; ae_selp24.hh	aep0, aep6, aep7 }
    2e26:	5e8304        	ae_sp24x2f.iu	aep0, a3, 0
    2e29:	5c9314        	ae_lp24x2f.iu	aep1, a3, 8
    2e2c:	5c8614        	ae_lp24x2f.iu	aep0, a6, 8
    2e2f:	f002bf033f 	{ nop; ae_mulzaafp24s.hh.ll	aeq0, aep0, aep0 }
    2e34:	02a527        	bge	a5, a2, 2e3a <fn_low_bin_compensate_phase+0x132>
    2e37:	ffbcc6        	j	2d2e <fn_low_bin_compensate_phase+0x26>
    2e3a:	f01d           	retw.n

00002e3c <fn_calc_zp_gain>:
    2e3c:	008136        	entry	a1, 64
    2e3f:	08a462        	movi	a6, 0x408
    2e42:	01a372        	movi	a7, 0x301
    2e45:	626a           	add.n	a6, a2, a6
    2e47:	1177e0        	slli	a7, a7, 2
    2e4a:	7159           	s32i.n	a5, a1, 28
    2e4c:	4169           	s32i.n	a6, a1, 16
    2e4e:	627a           	add.n	a6, a2, a7
    2e50:	01a152        	movi	a5, 0x101
    2e53:	fcc272        	addi	a7, a2, -4
    2e56:	5c8304        	ae_lp24x2f.iu	aep0, a3, 0

00002e59 <fn_calc_zp_gain+0x1d>:
    2e59:	f0028007af 	{ movi	a10, 7; ae_mulzaafp24s.hh.ll	aeq0, aep0, aep0 }
    2e5e:	360054        	ae_sllisq56s	aeq0, aeq0, 1
    2e61:	060934        	ae_roundsq32asym	aeq0, aeq0
    2e64:	368804        	ae_trunca32q48	a8, aeq0
    2e67:	40e890        	nsa	a9, a8
    2e6a:	899d           	ae_sext16	a9, a9
    2e6c:	401900        	ssl	a9
    2e6f:	a1b800        	sll	a11, a8
    2e72:	f49a81        	l32r	a8, dc (8f8 <HIFI_sqrt_ie>)
    2e75:	c0aa90        	sub	a10, a10, a9
    2e78:	0008e0        	callx8	a8
    2e7b:	feca82        	addi	a8, a10, -2
    2e7e:	40eb90        	nsa	a9, a11
    2e81:	118800        	slli	a8, a8, 16
    2e84:	89cd           	ae_sext16	a12, a9
    2e86:	ff7c           	movi.n	a15, -1
    2e88:	319080        	srai	a9, a8, 16
    2e8b:	41a1f0        	srli	a10, a15, 1
    2e8e:	162c97        	blt	a12, a9, 2ea8 <fn_calc_zp_gain+0x6c>
    2e91:	401900        	ssl	a9
    2e94:	60f090        	neg	a15, a9
    2e97:	0a0c           	movi.n	a10, 0
    2e99:	a1cb00        	sll	a12, a11
    2e9c:	400f00        	ssr	a15
    2e9f:	728a80        	salt	a8, a10, a8
    2ea2:	b1a0b0        	sra	a10, a11
    2ea5:	93ac80        	movnez	a10, a12, a8
    2ea8:	ff24beca3f 	{ ae_cvtq48a32s	aeq0, a10; ae_zeroq56	aeq3 }
    2ead:	624614        	ae_sq32f.iu	aeq0, a6, 4
    2eb0:	624714        	ae_sq32f.iu	aeq0, a7, 4
    2eb3:	627614        	ae_sq32f.iu	aeq3, a6, 4
    2eb6:	550b           	addi.n	a5, a5, -1
    2eb8:	5c8314        	ae_lp24x2f.iu	aep0, a3, 8
    2ebb:	f9a556        	bnez	a5, 2e59 <fn_calc_zp_gain+0x1d>
    2ebe:	81a132        	movi	a3, 0x181
    2ec1:	4168           	l32i.n	a6, a1, 16
    2ec3:	1133d0        	slli	a3, a3, 3
    2ec6:	323a           	add.n	a3, a2, a3
    2ec8:	f47a51        	l32r	a5, b0 (5128 <real_512_ifft>)
    2ecb:	20a330        	or	a10, a3, a3
    2ece:	20b660        	or	a11, a6, a6
    2ed1:	0005e0        	callx8	a5
    2ed4:	fecaf2        	addi	a15, a10, -2
    2ed7:	205660        	or	a5, a6, a6
    2eda:	8f6d           	ae_sext16	a6, a15
    2edc:	601504        	ae_lq32f.iu	aeq0, a5, 0
    2edf:	00a272        	movi	a7, 0x200
    2ee2:	1316a6        	blti	a6, 1, 2ef9 <fn_calc_zp_gain+0xbd>
    2ee5:	0d8776        	loop	a7, 2ef6 <fn_calc_zp_gain+0xba>
    2ee8:	fc24fe860f 	{ ae_slaasq56s	aeq0, aeq0, a6; nop }
    2eed:	060844        	ae_satq48s	aeq0, aeq0
    2ef0:	624504        	ae_sq32f.iu	aeq0, a5, 0
    2ef3:	601514        	ae_lq32f.iu	aeq0, a5, 4

00002ef6 <fn_calc_zp_gain+0xba>:
    2ef6:	000506        	j	2f0e <fn_calc_zp_gain+0xd2>

00002ef9 <fn_calc_zp_gain+0xbd>:
    2ef9:	f03d           	nop.n
    2efb:	f03d           	nop.n
    2efd:	0d8776        	loop	a7, 2f0e <fn_calc_zp_gain+0xd2>
    2f00:	fc24fe860f 	{ ae_slaasq56s	aeq0, aeq0, a6; nop }
    2f05:	060934        	ae_roundsq32asym	aeq0, aeq0
    2f08:	624504        	ae_sq32f.iu	aeq0, a5, 0
    2f0b:	601514        	ae_lq32f.iu	aeq0, a5, 4

00002f0e <fn_calc_zp_gain+0xd2>:
    2f0e:	f47481        	l32r	a8, e0 (fffe7961 <_end+0xfffd8afd>)
    2f11:	dca472        	movi	a7, 0x4dc
    2f14:	6ba092        	movi	a9, 107
    2f17:	563c           	movi.n	a6, 53
    2f19:	553c           	movi.n	a5, 53
    2f1b:	727a           	add.n	a7, a2, a7
    2f1d:	108976        	loop	a9, 2f31 <fn_calc_zp_gain+0xf5>
    2f20:	0798           	l32i.n	a9, a7, 0
    2f22:	774b           	addi.n	a7, a7, 4
    2f24:	72f890        	salt	a15, a8, a9
    2f27:	53a980        	max	a10, a9, a8
    2f2a:	9356f0        	movnez	a5, a6, a15
    2f2d:	661b           	addi.n	a6, a6, 1
    2f2f:	0a8d           	mov.n	a8, a10

00002f31 <fn_calc_zp_gain+0xf5>:
    2f31:	f46ca1        	l32r	a10, e4 (e720 <scale_tab>)
    2f34:	4178           	l32i.n	a7, a1, 16
    2f36:	fb7c           	movi.n	a11, -1
    2f38:	1165e0        	slli	a6, a5, 2
    2f3b:	11d5f0        	slli	a13, a5, 1
    2f3e:	fe7c           	movi.n	a14, -1
    2f40:	4f1c           	movi.n	a15, 20
    2f42:	6169           	s32i.n	a6, a1, 24
    2f44:	51d9           	s32i.n	a13, a1, 20
    2f46:	01bb10        	slli	a11, a11, 31
    2f49:	fc7c           	movi.n	a12, -1
    2f4b:	4161e0        	srli	a6, a14, 1
    2f4e:	ea8f76        	loop	a15, 303c <fn_calc_zp_gain+0x200>
    2f51:	5158           	l32i.n	a5, a1, 20
    2f53:	5a5a           	add.n	a5, a10, a5
    2f55:	255d           	ae_l16si.n	a5, a5, 0
    2f57:	31df50        	srai	a13, a5, 31
    2f5a:	e5e150        	extui	a14, a5, 17, 15
    2f5d:	11dd10        	slli	a13, a13, 15
    2f60:	ddea           	add.n	a13, a13, a14
    2f62:	115510        	slli	a5, a5, 15
    2f65:	73f5b0        	maxu	a15, a5, a11
    2f68:	ed1b           	addi.n	a14, a13, 1
    2f6a:	a35bd0        	movltz	a5, a11, a13
    2f6d:	835fe0        	moveqz	a5, a15, a14
    2f70:	53ddc0        	max	a13, a13, a12
    2f73:	06fd           	mov.n	a15, a6
    2f75:	a3f5d0        	movltz	a15, a5, a13
    2f78:	635560        	minu	a5, a5, a6
    2f7b:	935fd0        	movnez	a5, a15, a13
    2f7e:	0d0c           	movi.n	a13, 0
    2f80:	056516        	beqz	a5, 2fda <fn_calc_zp_gain+0x19e>
    2f83:	2add           	ae_l16si.n	a13, a10, 0
    2f85:	31efd0        	srai	a14, a13, 31
    2f88:	c5f3d0        	extui	a15, a13, 19, 13
    2f8b:	11ee30        	slli	a14, a14, 13
    2f8e:	eefa           	add.n	a14, a14, a15
    2f90:	11dd30        	slli	a13, a13, 13
    2f93:	73fdb0        	maxu	a15, a13, a11
    2f96:	a3dbe0        	movltz	a13, a11, a14
    2f99:	8e1b           	addi.n	a8, a14, 1
    2f9b:	83df80        	moveqz	a13, a15, a8
    2f9e:	539ec0        	max	a9, a14, a12
    2fa1:	06fd           	mov.n	a15, a6
    2fa3:	a3fd90        	movltz	a15, a13, a9
    2fa6:	63ed60        	minu	a14, a13, a6
    2fa9:	93ef90        	movnez	a14, a15, a9
    2fac:	ffa0f2        	movi	a15, 255
    2faf:	7fdfd2        	addmi	a13, a15, 0x7f00
    2fb2:	24ae57        	bge	a14, a5, 2fda <fn_calc_zp_gain+0x19e>
    2fb5:	40e580        	nsa	a8, a5
    2fb8:	88dd           	ae_sext16	a13, a8
    2fba:	360e34        	ae_cvtq48a32s	aeq0, a14
    2fbd:	364534        	ae_cvtq48a32s	aeq1, a5
    2fc0:	f1cd52        	addi	a5, a13, -15
    2fc3:	fc24fe8d0f 	{ ae_slaasq56s	aeq0, aeq0, a13; nop }
    2fc8:	fc00fe954f 	{ ae_slaasq56s	aeq1, aeq1, a5; ae_satq48s	aeq0, aeq0 }
    2fcd:	fd04ff0eef 	{ ae_trunca32q48	a14, aeq0; ae_satq48s	aeq1, aeq1 }
    2fd2:	369f04        	ae_trunca32q48	a15, aeq1
    2fd5:	d25ef0        	quos	a5, a14, a15
    2fd8:	a5dd           	ae_clamps16	a13, a5

00002fda <fn_calc_zp_gain+0x19e>:
    2fda:	6158           	l32i.n	a5, a1, 24
    2fdc:	8d8d           	ae_sext16	a8, a13
    2fde:	1e0c           	movi.n	a14, 1
    2fe0:	575a           	add.n	a5, a7, a5
    2fe2:	0558           	l32i.n	a5, a5, 0
    2fe4:	11ee10        	slli	a14, a14, 15
    2fe7:	829580        	mull	a9, a5, a8
    2fea:	b25580        	mulsh	a5, a5, a8
    2fed:	25fd90        	extui	a15, a9, 29, 3
    2ff0:	11d9d0        	slli	a13, a9, 3
    2ff3:	b099e0        	addx8	a9, a9, a14
    2ff6:	b085f0        	addx8	a8, a5, a15
    2ff9:	62d9d0        	saltu	a13, a9, a13
    2ffc:	55a5f2        	movi	a15, 0x555
    2fff:	90eff0        	addx2	a14, a15, a15
    3002:	f59090        	extui	a9, a9, 16, 16
    3005:	88da           	add.n	a8, a8, a13
    3007:	725e50        	salt	a5, a14, a5
    300a:	0bf890        	depbits	a9, a8, 16, 16
    300d:	318080        	srai	a8, a8, 16
    3010:	0e0c           	movi.n	a14, 0
    3012:	938e50        	movnez	a8, a14, a5
    3015:	939b50        	movnez	a9, a11, a5
    3018:	7359b0        	maxu	a5, a9, a11
    301b:	a39b80        	movltz	a9, a11, a8
    301e:	d81b           	addi.n	a13, a8, 1
    3020:	8395d0        	moveqz	a9, a5, a13
    3023:	07d8           	l32i.n	a13, a7, 0
    3025:	06fd           	mov.n	a15, a6
    3027:	5388c0        	max	a8, a8, a12
    302a:	a3f980        	movltz	a15, a9, a8
    302d:	635960        	minu	a5, a9, a6
    3030:	935f80        	movnez	a5, a15, a8
    3033:	01a5d7        	bge	a5, a13, 3038 <fn_calc_zp_gain+0x1fc>
    3036:	0759           	s32i.n	a5, a7, 0
    3038:	774b           	addi.n	a7, a7, 4
    303a:	aa2b           	addi.n	a10, a10, 2

0000303c <fn_calc_zp_gain+0x200>:
    303c:	01a352        	movi	a5, 0x301
    303f:	1155e0        	slli	a5, a5, 2
    3042:	0ca472        	movi	a7, 0x40c
    3045:	381c           	movi.n	a8, 19
    3047:	525a           	add.n	a5, a2, a5
    3049:	727a           	add.n	a7, a2, a7
    304b:	088876        	loop	a8, 3057 <fn_calc_zp_gain+0x21b>
    304e:	0788           	l32i.n	a8, a7, 0
    3050:	0589           	s32i.n	a8, a5, 0
    3052:	774b           	addi.n	a7, a7, 4
    3054:	fcc552        	addi	a5, a5, -4
    3057:	f41351        	l32r	a5, a4 (5038 <real_512_fft>)
    305a:	41a8           	l32i.n	a10, a1, 16
    305c:	03bd           	mov.n	a11, a3
    305e:	0005e0        	callx8	a5
    3061:	205330        	or	a5, a3, a3
    3064:	601504        	ae_lq32f.iu	aeq0, a5, 0
    3067:	02a272        	movi	a7, 0x202
    306a:	131aa6        	blti	a10, 1, 3081 <fn_calc_zp_gain+0x245>
    306d:	0d8776        	loop	a7, 307e <fn_calc_zp_gain+0x242>
    3070:	fc24fe8a0f 	{ ae_slaasq56s	aeq0, aeq0, a10; nop }
    3075:	060844        	ae_satq48s	aeq0, aeq0
    3078:	624504        	ae_sq32f.iu	aeq0, a5, 0
    307b:	601514        	ae_lq32f.iu	aeq0, a5, 4
    307e:	000506        	j	3096 <fn_calc_zp_gain+0x25a>

00003081 <fn_calc_zp_gain+0x245>:
    3081:	f03d           	nop.n
    3083:	f03d           	nop.n
    3085:	0d8776        	loop	a7, 3096 <fn_calc_zp_gain+0x25a>
    3088:	fc24fe8a0f 	{ ae_slaasq56s	aeq0, aeq0, a10; nop }
    308d:	060934        	ae_roundsq32asym	aeq0, aeq0
    3090:	624504        	ae_sq32f.iu	aeq0, a5, 0
    3093:	601514        	ae_lq32f.iu	aeq0, a5, 4

00003096 <fn_calc_zp_gain+0x25a>:
    3096:	5c8304        	ae_lp24x2f.iu	aep0, a3, 0
    3099:	f00281017f 	{ movi	a7, 0x101; ae_mulzaafp24s.hh.ll	aeq0, aep0, aep0 }
    309e:	750c           	movi.n	a5, 7
    30a0:	000646        	j	30bd <fn_calc_zp_gain+0x281>

000030a3 <fn_calc_zp_gain+0x267>:
    30a3:	0a0c           	movi.n	a10, 0
    30a5:	7198           	l32i.n	a9, a1, 28
    30a7:	8a8d           	ae_sext16	a8, a10
    30a9:	770b           	addi.n	a7, a7, -1
    30ab:	538890        	max	a8, a8, a9
    30ae:	648d           	ae_s16i.n	a8, a4, 0
    30b0:	5c8314        	ae_lp24x2f.iu	aep0, a3, 8
    30b3:	f00280422e 	{ addi	a2, a2, 4; ae_mulzaafp24s.hh.ll	aeq0, aep0, aep0 }
    30b8:	442b           	addi.n	a4, a4, 2
    30ba:	07c716        	beqz	a7, 313a <fn_calc_zp_gain+0x2fe>
    30bd:	360054        	ae_sllisq56s	aeq0, aeq0, 1
    30c0:	060934        	ae_roundsq32asym	aeq0, aeq0
    30c3:	368804        	ae_trunca32q48	a8, aeq0
    30c6:	40e890        	nsa	a9, a8
    30c9:	899d           	ae_sext16	a9, a9
    30cb:	401900        	ssl	a9
    30ce:	a1b800        	sll	a11, a8
    30d1:	f40281        	l32r	a8, dc (8f8 <HIFI_sqrt_ie>)
    30d4:	c0a590        	sub	a10, a5, a9
    30d7:	0008e0        	callx8	a8
    30da:	feca82        	addi	a8, a10, -2
    30dd:	119800        	slli	a9, a8, 16
    30e0:	40ebf0        	nsa	a15, a11
    30e3:	8fcd           	ae_sext16	a12, a15
    30e5:	31a090        	srai	a10, a9, 16
    30e8:	068d           	mov.n	a8, a6
    30ea:	162ca7        	blt	a12, a10, 3104 <fn_calc_zp_gain+0x2c8>
    30ed:	401a00        	ssl	a10
    30f0:	6080a0        	neg	a8, a10
    30f3:	0e0c           	movi.n	a14, 0
    30f5:	a1fb00        	sll	a15, a11
    30f8:	400800        	ssr	a8
    30fb:	729e90        	salt	a9, a14, a9
    30fe:	b180b0        	sra	a8, a11
    3101:	938f90        	movnez	a8, a15, a9
    3104:	0298           	l32i.n	a9, a2, 0
    3106:	ffa0a2        	movi	a10, 255
    3109:	7fdaa2        	addmi	a10, a10, 0x7f00
    310c:	f93916        	beqz	a9, 30a3 <fn_calc_zp_gain+0x267>
    310f:	92a897        	bge	a8, a9, 30a5 <fn_calc_zp_gain+0x269>
    3112:	40e9a0        	nsa	a10, a9
    3115:	8add           	ae_sext16	a13, a10
    3117:	360834        	ae_cvtq48a32s	aeq0, a8
    311a:	364934        	ae_cvtq48a32s	aeq1, a9
    311d:	f1cd82        	addi	a8, a13, -15
    3120:	fc24fe8d0f 	{ ae_slaasq56s	aeq0, aeq0, a13; nop }
    3125:	fc00fe984f 	{ ae_slaasq56s	aeq1, aeq1, a8; ae_satq48s	aeq0, aeq0 }
    312a:	fd04ff0eef 	{ ae_trunca32q48	a14, aeq0; ae_satq48s	aeq1, aeq1 }
    312f:	369f04        	ae_trunca32q48	a15, aeq1
    3132:	d28ef0        	quos	a8, a14, a15
    3135:	a8ad           	ae_clamps16	a10, a8
    3137:	ffda86        	j	30a5 <fn_calc_zp_gain+0x269>

0000313a <fn_calc_zp_gain+0x2fe>:
    313a:	f01d           	retw.n

0000313c <fn_ini_pitch_detection>:
    313c:	004136        	entry	a1, 32
    313f:	f3ce51        	l32r	a5, 78 (90e4 <xt_memset>)
    3142:	0b0c           	movi.n	a11, 0
    3144:	2c1c           	movi.n	a12, 18
    3146:	02ad           	mov.n	a10, a2
    3148:	0005e0        	callx8	a5
    314b:	f3b751        	l32r	a5, 28 (90f8 <xt_memcpy>)
    314e:	ec0c           	movi.n	a12, 14
    3150:	02ad           	mov.n	a10, a2
    3152:	03bd           	mov.n	a11, a3
    3154:	0005e0        	callx8	a5
    3157:	8249           	s32i.n	a4, a2, 32
    3159:	f01d           	retw.n

0000315b <fn_ini_pitch_detection+0x1f>:
	...

0000315c <fn_pitch_detection>:
    315c:	008136        	entry	a1, 64
    315f:	82a8           	l32i.n	a10, a2, 32
    3161:	0a92e2        	l16si	a14, a2, 20
    3164:	ff7c           	movi.n	a15, -1
    3166:	08da52        	addmi	a5, a10, 0x800
    3169:	5149           	s32i.n	a4, a1, 20
    316b:	014f10        	slli	a4, a15, 31
    316e:	7129           	s32i.n	a2, a1, 28
    3170:	4159           	s32i.n	a5, a1, 16
    3172:	61a9           	s32i.n	a10, a1, 24
    3174:	021ee6        	bgei	a14, 1, 317a <fn_pitch_detection+0x1e>
    3177:	002206        	j	3203 <fn_pitch_detection+0xa7>
    317a:	f3db51        	l32r	a5, e8 (d49a784c <_end+0xd49989e8>)
    317d:	0a2d           	mov.n	a2, a10
    317f:	f67c           	movi.n	a6, -1

00003181 <fn_pitch_detection+0x25>:
    3181:	0378           	l32i.n	a7, a3, 0
    3183:	a71b           	addi.n	a10, a7, 1
    3185:	f3ba71        	l32r	a7, 70 (cb4 <fxlog10>)
    3188:	0007e0        	callx8	a7
    318b:	7178           	l32i.n	a7, a1, 28
    318d:	fba0c2        	movi	a12, 251
    3190:	1daad2        	movi	a13, 0xfffffa1d
    3193:	0a9792        	l16si	a9, a7, 20
    3196:	b4dc72        	addmi	a7, a12, 0xffffb400
    3199:	537a70        	max	a7, a10, a7
    319c:	b0add0        	addx8	a10, a13, a13
    319f:	77aa           	add.n	a7, a7, a10
    31a1:	87ad           	ae_sext16	a10, a7
    31a3:	1d0c           	movi.n	a13, 1
    31a5:	82ba50        	mull	a11, a10, a5
    31a8:	a2ca50        	muluh	a12, a10, a5
    31ab:	31afa0        	srai	a10, a10, 31
    31ae:	82aa50        	mull	a10, a10, a5
    31b1:	11dd10        	slli	a13, a13, 15
    31b4:	dbda           	add.n	a13, a11, a13
    31b6:	acaa           	add.n	a10, a12, a10
    31b8:	62bdb0        	saltu	a11, a13, a11
    31bb:	aaba           	add.n	a10, a10, a11
    31bd:	f5b0d0        	extui	a11, a13, 16, 16
    31c0:	fe7c           	movi.n	a14, -1
    31c2:	0bfab0        	depbits	a11, a10, 16, 16
    31c5:	31a0a0        	srai	a10, a10, 16
    31c8:	41e1e0        	srli	a14, a14, 1
    31cb:	73cb40        	maxu	a12, a11, a4
    31ce:	a3b4a0        	movltz	a11, a4, a10
    31d1:	da1b           	addi.n	a13, a10, 1
    31d3:	ff7c           	movi.n	a15, -1
    31d5:	53aaf0        	max	a10, a10, a15
    31d8:	0e8d           	mov.n	a8, a14
    31da:	83bcd0        	moveqz	a11, a12, a13
    31dd:	a38ba0        	movltz	a8, a11, a10
    31e0:	63bbe0        	minu	a11, a11, a14
    31e3:	93b8a0        	movnez	a11, a8, a10
    31e6:	f62b           	addi.n	a15, a6, 2
    31e8:	02b9           	s32i.n	a11, a2, 0
    31ea:	334b           	addi.n	a3, a3, 4
    31ec:	661b           	addi.n	a6, a6, 1
    31ee:	224b           	addi.n	a2, a2, 4
    31f0:	8d2f97        	blt	a15, a9, 3181 <fn_pitch_detection+0x25>
    31f3:	61a8           	l32i.n	a10, a1, 24
    31f5:	261b           	addi.n	a2, a6, 1
    31f7:	0af6b6        	bltui	a6, 0x100, 3205 <fn_pitch_detection+0xa9>
    31fa:	fea132        	movi	a3, 0x1fe
    31fd:	1eb367        	bgeu	a3, a6, 321f <fn_pitch_detection+0xc3>
    3200:	000e46        	j	323d <fn_pitch_detection+0xe1>

00003203 <fn_pitch_detection+0xa7>:
    3203:	020c           	movi.n	a2, 0
    3205:	ffae42        	movi	a4, 0xfffffeff
    3208:	e24a           	add.n	a14, a2, a4
    320a:	6040e0        	neg	a4, a14
    320d:	ff7c           	movi.n	a15, -1
    320f:	a032a0        	addx4	a3, a2, a10
    3212:	012f20        	slli	a2, a15, 30
    3215:	038476        	loop	a4, 321c <fn_pitch_detection+0xc0>
    3218:	0329           	s32i.n	a2, a3, 0
    321a:	334b           	addi.n	a3, a3, 4

0000321c <fn_pitch_detection+0xc0>:
    321c:	01a122        	movi	a2, 0x101

0000321f <fn_pitch_detection+0xc3>:
    321f:	fed242        	addmi	a4, a2, 0xfffffe00
    3222:	00a252        	movi	a5, 0x200
    3225:	c0f520        	sub	a15, a5, a2
    3228:	604040        	neg	a4, a4
    322b:	a032a0        	addx4	a3, a2, a10
    322e:	a02fa0        	addx4	a2, a15, a10
    3231:	088476        	loop	a4, 323d <fn_pitch_detection+0xe1>
    3234:	0248           	l32i.n	a4, a2, 0
    3236:	0349           	s32i.n	a4, a3, 0
    3238:	fcc222        	addi	a2, a2, -4
    323b:	334b           	addi.n	a3, a3, 4

0000323d <fn_pitch_detection+0xe1>:
    323d:	4168           	l32i.n	a6, a1, 16
    323f:	f39921        	l32r	a2, a4 (5038 <real_512_fft>)
    3242:	06bd           	mov.n	a11, a6
    3244:	0002e0        	callx8	a2
    3247:	7128           	l32i.n	a2, a1, 28
    3249:	0a3d           	mov.n	a3, a10
    324b:	19aca2        	movi	a10, 0xfffffc19
    324e:	049242        	l16si	a4, a2, 8
    3251:	059252        	l16si	a5, a2, 10
    3254:	235b           	addi.n	a2, a3, 5
    3256:	61f8           	l32i.n	a15, a1, 24
    3258:	36a457        	bge	a4, a5, 3292 <fn_pitch_detection+0x136>
    325b:	b03460        	addx8	a3, a4, a6
    325e:	c09540        	sub	a9, a5, a4
    3261:	a084f0        	addx4	a8, a4, a15
    3264:	19ac62        	movi	a6, 0xfffffc19
    3267:	5c8304        	ae_lp24x2f.iu	aep0, a3, 0
    326a:	fcc852        	addi	a5, a8, -4
    326d:	218976        	loop	a9, 3292 <fn_pitch_detection+0x136>
    3270:	010044        	ae_mulfp24s.hh	aeq0, aep0, aep0
    3273:	010034        	ae_mulafp24s.ll	aeq0, aep0, aep0
    3276:	350074        	ae_sraiq56	aeq0, aeq0, 1
    3279:	060934        	ae_roundsq32asym	aeq0, aeq0
    327c:	368804        	ae_trunca32q48	a8, aeq0
    327f:	624514        	ae_sq32f.iu	aeq0, a5, 4
    3282:	5c8314        	ae_lp24x2f.iu	aep0, a3, 8
    3285:	72f680        	salt	a15, a6, a8
    3288:	53a860        	max	a10, a8, a6
    328b:	9374f0        	movnez	a7, a4, a15
    328e:	441b           	addi.n	a4, a4, 1
    3290:	0a6d           	mov.n	a6, a10
    3292:	f38e31        	l32r	a3, cc (c44 <fxsqrt_ie>)
    3295:	0003e0        	callx8	a3
    3298:	823d           	ae_sext16	a3, a2
    329a:	f38921        	l32r	a2, c0 (9140 <__ashldi3>)
    329d:	31bfa0        	srai	a11, a10, 31
    32a0:	03cd           	mov.n	a12, a3
    32a2:	0002e0        	callx8	a2
    32a5:	fd7c           	movi.n	a13, -1
    32a7:	f27c           	movi.n	a2, -1
    32a9:	01dd10        	slli	a13, a13, 31
    32ac:	71f8           	l32i.n	a15, a1, 28
    32ae:	fc7c           	movi.n	a12, -1
    32b0:	734ad0        	maxu	a4, a10, a13
    32b3:	535b20        	max	a5, a11, a2
    32b6:	a3adb0        	movltz	a10, a13, a11
    32b9:	bb1b           	addi.n	a11, a11, 1
    32bb:	4121c0        	srli	a2, a12, 1
    32be:	83a4b0        	moveqz	a10, a4, a11
    32c1:	02ed           	mov.n	a14, a2
    32c3:	0f68           	l32i.n	a6, a15, 0
    32c5:	a3ea50        	movltz	a14, a10, a5
    32c8:	632a20        	minu	a2, a10, a2
    32cb:	932e50        	movnez	a2, a14, a5
    32ce:	51e8           	l32i.n	a14, a1, 20
    32d0:	022267        	blt	a2, a6, 32d6 <fn_pitch_detection+0x17a>
    32d3:	003106        	j	339b <fn_pitch_detection+0x23f>
    32d6:	1f48           	l32i.n	a4, a15, 4
    32d8:	0e9f52        	l16si	a5, a15, 28
    32db:	02a247        	bge	a2, a4, 32e1 <fn_pitch_detection+0x185>
    32de:	002746        	j	337f <fn_pitch_detection+0x223>
    32e1:	052d           	mov.n	a2, a5
    32e3:	098516        	beqz	a5, 337f <fn_pitch_detection+0x223>
    32e6:	875d           	ae_sext16	a5, a7
    32e8:	069f42        	l16si	a4, a15, 12
    32eb:	c02250        	sub	a2, a2, a5
    32ee:	602120        	abs	a2, a2
    32f1:	022427        	blt	a4, a2, 32f7 <fn_pitch_detection+0x19b>
    32f4:	0028c6        	j	339b <fn_pitch_detection+0x23f>
    32f7:	6128           	l32i.n	a2, a1, 24
    32f9:	0b0c           	movi.n	a11, 0
    32fb:	0c5c           	movi.n	a12, 80
    32fd:	a02520        	addx4	a2, a5, a2
    3300:	d8c2a2        	addi	a10, a2, -40
    3303:	f36421        	l32r	a2, 94 (90d0 <memset>)
    3306:	4159           	s32i.n	a5, a1, 16
    3308:	060c           	movi.n	a6, 0
    330a:	0f4d           	mov.n	a4, a15
    330c:	0002e0        	callx8	a2
    330f:	049422        	l16si	a2, a4, 8
    3312:	059452        	l16si	a5, a4, 10
    3315:	19aca2        	movi	a10, 0xfffffc19
    3318:	6148           	l32i.n	a4, a1, 24
    331a:	22a257        	bge	a2, a5, 3340 <fn_pitch_detection+0x1e4>
    331d:	c05520        	sub	a5, a5, a2
    3320:	19aca2        	movi	a10, 0xfffffc19
    3323:	a04240        	addx4	a4, a2, a4
    3326:	108576        	loop	a5, 333a <fn_pitch_detection+0x1de>
    3329:	0458           	l32i.n	a5, a4, 0
    332b:	0a6d           	mov.n	a6, a10
    332d:	444b           	addi.n	a4, a4, 4
    332f:	53a5a0        	max	a10, a5, a10
    3332:	725650        	salt	a5, a6, a5
    3335:	937250        	movnez	a7, a2, a5
    3338:	221b           	addi.n	a2, a2, 1

0000333a <fn_pitch_detection+0x1de>:
    333a:	872d           	ae_sext16	a2, a7
    333c:	060c           	movi.n	a6, 0
    333e:	4129           	s32i.n	a2, a1, 16

00003340 <fn_pitch_detection+0x1e4>:
    3340:	f36321        	l32r	a2, cc (c44 <fxsqrt_ie>)
    3343:	0002e0        	callx8	a2
    3346:	f35e21        	l32r	a2, c0 (9140 <__ashldi3>)
    3349:	31bfa0        	srai	a11, a10, 31
    334c:	03cd           	mov.n	a12, a3
    334e:	0002e0        	callx8	a2
    3351:	fd7c           	movi.n	a13, -1
    3353:	71f8           	l32i.n	a15, a1, 28
    3355:	f57c           	movi.n	a5, -1
    3357:	01dd10        	slli	a13, a13, 31
    335a:	f27c           	movi.n	a2, -1
    335c:	733ad0        	maxu	a3, a10, a13
    335f:	a3adb0        	movltz	a10, a13, a11
    3362:	4b1b           	addi.n	a4, a11, 1
    3364:	415150        	srli	a5, a5, 1
    3367:	532b20        	max	a2, a11, a2
    336a:	83a340        	moveqz	a10, a3, a4
    336d:	05bd           	mov.n	a11, a5
    336f:	1fc8           	l32i.n	a12, a15, 4
    3371:	51e8           	l32i.n	a14, a1, 20
    3373:	a3ba20        	movltz	a11, a10, a2
    3376:	635a50        	minu	a5, a10, a5
    3379:	935b20        	movnez	a5, a11, a2
    337c:	07a5c7        	bge	a5, a12, 3387 <fn_pitch_detection+0x22b>
    337f:	070c           	movi.n	a7, 0
    3381:	0e5f72        	s16i	a7, a15, 28
    3384:	005c46        	j	34f9 <fn_pitch_detection+0x39d>

00003387 <fn_pitch_detection+0x22b>:
    3387:	0e9f22        	l16si	a2, a15, 28
    338a:	4138           	l32i.n	a3, a1, 16
    338c:	069fc2        	l16si	a12, a15, 12
    338f:	c02230        	sub	a2, a2, a3
    3392:	602120        	abs	a2, a2
    3395:	722c20        	salt	a2, a12, a2
    3398:	937620        	movnez	a7, a6, a2
    339b:	f27c           	movi.n	a2, -1
    339d:	f42020        	extui	a2, a2, 0, 16
    33a0:	0e5f72        	s16i	a7, a15, 28
    33a3:	3c0277        	bnone	a2, a7, 33e3 <fn_pitch_detection+0x287>
    33a6:	01a142        	movi	a4, 0x101
    33a9:	878d           	ae_sext16	a8, a7
    33ab:	0e2d           	mov.n	a2, a14
    33ad:	068476        	loop	a4, 33b7 <fn_pitch_detection+0x25b>
    33b0:	089f42        	l16si	a4, a15, 16
    33b3:	624d           	ae_s16i.n	a4, a2, 0
    33b5:	222b           	addi.n	a2, a2, 2

000033b7 <fn_pitch_detection+0x25b>:
    33b7:	6138           	l32i.n	a3, a1, 24
    33b9:	481b           	addi.n	a4, a8, 1
    33bb:	4149           	s32i.n	a4, a1, 16
    33bd:	a09830        	addx4	a9, a8, a3
    33c0:	fcc922        	addi	a2, a9, -4
    33c3:	a04430        	addx4	a4, a4, a3
    33c6:	0228           	l32i.n	a2, a2, 0
    33c8:	0458           	l32i.n	a5, a4, 0
    33ca:	060c           	movi.n	a6, 0
    33cc:	5189           	s32i.n	a8, a1, 20
    33ce:	425a           	add.n	a4, a2, a5
    33d0:	72a560        	salt	a10, a5, a6
    33d3:	72b420        	salt	a11, a4, a2
    33d6:	30aab0        	xor	a10, a10, a11
    33d9:	bacc           	bnez.n	a10, 33e8 <fn_pitch_detection+0x28c>
    33db:	f37c           	movi.n	a3, -1
    33dd:	413130        	srli	a3, a3, 1
    33e0:	000406        	j	33f4 <fn_pitch_detection+0x298>

000033e3 <fn_pitch_detection+0x287>:
    33e3:	070c           	movi.n	a7, 0
    33e5:	004406        	j	34f9 <fn_pitch_detection+0x39d>

000033e8 <fn_pitch_detection+0x28c>:
    33e8:	f37c           	movi.n	a3, -1
    33ea:	0dad           	mov.n	a10, a13
    33ec:	413130        	srli	a3, a3, 1
    33ef:	a3a340        	movltz	a10, a3, a4
    33f2:	0a4d           	mov.n	a4, a10
    33f4:	0998           	l32i.n	a9, a9, 0
    33f6:	31af40        	srai	a10, a4, 31
    33f9:	11c9f0        	slli	a12, a9, 1
    33fc:	31bf90        	srai	a11, a9, 31
    33ff:	738cd0        	maxu	a8, a12, a13
    3402:	9b1b           	addi.n	a9, a11, 1
    3404:	a3cdb0        	movltz	a12, a13, a11
    3407:	83c890        	moveqz	a12, a8, a9
    340a:	c09250        	sub	a9, a2, a5
    340d:	f87c           	movi.n	a8, -1
    340f:	725650        	salt	a5, a6, a5
    3412:	722920        	salt	a2, a9, a2
    3415:	305520        	xor	a5, a5, a2
    3418:	532b80        	max	a2, a11, a8
    341b:	03bd           	mov.n	a11, a3
    341d:	a3bc20        	movltz	a11, a12, a2
    3420:	63cc30        	minu	a12, a12, a3
    3423:	436260        	min	a6, a2, a6
    3426:	93cb20        	movnez	a12, a11, a2
    3429:	c024c0        	sub	a2, a4, a12
    342c:	c06a60        	sub	a6, a10, a6
    342f:	62c4c0        	saltu	a12, a4, a12
    3432:	c046c0        	sub	a4, a6, a12
    3435:	73a2d0        	maxu	a10, a2, a13
    3438:	a32d40        	movltz	a2, a13, a4
    343b:	b41b           	addi.n	a11, a4, 1
    343d:	534480        	max	a4, a4, a8
    3440:	03cd           	mov.n	a12, a3
    3442:	832ab0        	moveqz	a2, a10, a11
    3445:	a3c240        	movltz	a12, a2, a4
    3448:	632230        	minu	a2, a2, a3
    344b:	932c40        	movnez	a2, a12, a4
    344e:	358c           	beqz.n	a5, 3455 <fn_pitch_detection+0x2f9>
    3450:	a3d390        	movltz	a13, a3, a9
    3453:	0d9d           	mov.n	a9, a13
    3455:	5138           	l32i.n	a3, a1, 20
    3457:	114990        	slli	a4, a9, 7
    345a:	160c           	movi.n	a6, 1
    345c:	115390        	slli	a5, a3, 7
    345f:	d22420        	quos	a2, a4, a2
    3462:	0166b0        	slli	a6, a6, 21
    3465:	225a           	add.n	a2, a2, a5
    3467:	d22620        	quos	a2, a6, a2
    346a:	10c2b2        	addi	a11, a2, 16
    346d:	2fc2c2        	addi	a12, a2, 47
    3470:	b3cbb0        	movgez	a12, a11, a11
    3473:	2155c0        	srai	a5, a12, 5
    3476:	114500        	slli	a4, a5, 16
    3479:	21df40        	srai	a13, a4, 15
    347c:	6dea           	add.n	a6, a13, a14
    347e:	0d9f82        	l16si	a8, a15, 26
    3481:	fec6a2        	addi	a10, a6, -2
    3484:	6a8d           	ae_s16i.n	a8, a10, 0
    3486:	099f92        	l16si	a9, a15, 18
    3489:	669d           	ae_s16i.n	a9, a6, 0
    348b:	0d9f92        	l16si	a9, a15, 26
    348e:	769d           	ae_s16i.n	a9, a6, 2
    3490:	0443e6        	bgei	a3, 4, 3498 <fn_pitch_detection+0x33c>
    3493:	855d           	ae_sext16	a5, a5
    3495:	0010c6        	j	34dc <fn_pitch_detection+0x380>

00003498 <fn_pitch_detection+0x33c>:
    3498:	4148           	l32i.n	a4, a1, 16
    349a:	08c2d2        	addi	a13, a2, 8
    349d:	a33430        	movltz	a3, a4, a3
    34a0:	213130        	srai	a3, a3, 1
    34a3:	ffc352        	addi	a5, a3, -1
    34a6:	113df0        	slli	a3, a13, 1
    34a9:	2f8576        	loop	a5, 34dc <fn_pitch_detection+0x380>
    34ac:	1fc342        	addi	a4, a3, 31
    34af:	b34330        	movgez	a4, a3, a3
    34b2:	216540        	srai	a6, a4, 5
    34b5:	114600        	slli	a4, a6, 16
    34b8:	218f40        	srai	a8, a4, 15
    34bb:	88ea           	add.n	a8, a8, a14
    34bd:	0c9f52        	l16si	a5, a15, 24
    34c0:	fec892        	addi	a9, a8, -2
    34c3:	695d           	ae_s16i.n	a5, a9, 0
    34c5:	079f52        	l16si	a5, a15, 14
    34c8:	685d           	ae_s16i.n	a5, a8, 0
    34ca:	0b9f82        	l16si	a8, a15, 22
    34cd:	865d           	ae_sext16	a5, a6
    34cf:	0c9f62        	l16si	a6, a15, 24
    34d2:	06a587        	bge	a5, a8, 34dc <fn_pitch_detection+0x380>
    34d5:	9085e0        	addx2	a8, a5, a14
    34d8:	332a           	add.n	a3, a3, a2
    34da:	786d           	ae_s16i.n	a6, a8, 2

000034dc <fn_pitch_detection+0x380>:
    34dc:	f30421        	l32r	a2, ec (feffff <_end+0xfe119b>)
    34df:	352b           	addi.n	a3, a5, 2
    34e1:	01a162        	movi	a6, 0x101
    34e4:	112247        	blt	a2, a4, 34f9 <fn_pitch_detection+0x39d>
    34e7:	120c           	movi.n	a2, 1
    34e9:	c04630        	sub	a4, a6, a3
    34ec:	112240        	slli	a2, a2, 12
    34ef:	9033e0        	addx2	a3, a3, a14
    34f2:	038476        	loop	a4, 34f9 <fn_pitch_detection+0x39d>
    34f5:	632d           	ae_s16i.n	a2, a3, 0
    34f7:	332b           	addi.n	a3, a3, 2
    34f9:	872d           	ae_sext16	a2, a7
    34fb:	f01d           	retw.n

000034fd <fn_pitch_detection+0x3a1>:
    34fd:	000000                                        ...

00003500 <fn_ini_mic_chk_status>:
    3500:	004136        	entry	a1, 32
    3503:	f2dd41        	l32r	a4, 78 (90e4 <xt_memset>)
    3506:	0b0c           	movi.n	a11, 0
    3508:	9c0c           	movi.n	a12, 9
    350a:	02ad           	mov.n	a10, a2
    350c:	0004e0        	callx8	a4
    350f:	f2c641        	l32r	a4, 28 (90f8 <xt_memcpy>)
    3512:	6c0c           	movi.n	a12, 6
    3514:	02ad           	mov.n	a10, a2
    3516:	03bd           	mov.n	a11, a3
    3518:	0004e0        	callx8	a4
    351b:	333d           	ae_l16si.n	a3, a3, 2
    351d:	9aa142        	movi	a4, 0x19a
    3520:	334a           	add.n	a3, a3, a4
    3522:	075232        	s16i	a3, a2, 14
    3525:	f01d           	retw.n

00003527 <fn_ini_mic_chk_status+0x27>:
	...

00003528 <fn_mic_chk_status>:
    3528:	006136        	entry	a1, 48
    352b:	021526        	beqi	a5, 1, 3531 <fn_mic_chk_status+0x9>
    352e:	003cc6        	j	3625 <fn_mic_chk_status+0xfd>
    3531:	021626        	beqi	a6, 1, 3537 <fn_mic_chk_status+0xf>
    3534:	003b46        	j	3625 <fn_mic_chk_status+0xfd>
    3537:	fd2482005f 	{ movi	a5, 0x200; ae_zeroq56	aeq1 }
    353c:	fe0c58855f 	{ ae_cvtp24a16x2.ll	aep0, a5, a5; ae_movq56	aeq2, aeq1 }
    3541:	045d           	mov.n	a5, a4
    3543:	601304        	ae_lq32f.iu	aeq0, a3, 0
    3546:	60d504        	ae_lq32f.iu	aeq3, a5, 0
    3549:	420174        	ae_sp16f.l.i	aep0, a1, 14
    354c:	074c           	movi.n	a7, 64
    354e:	400174        	ae_lp16f.i	aep0, a1, 14
    3551:	f03d           	nop.n
    3553:	f03d           	nop.n
    3555:	098776        	loop	a7, 3562 <fn_mic_chk_status+0x3a>
    3558:	f683fd751f 	{ ae_lq32f.iu	aeq3, a5, 4; ae_mulafq32sp16s.l	aeq1, aeq3, aep0 }
    355d:	f582bd131f 	{ ae_lq32f.iu	aeq0, a3, 4; ae_mulafq32sp16s.l	aeq2, aeq0, aep0 }

00003562 <fn_mic_chk_status+0x3a>:
    3562:	369a04        	ae_trunca32q48	a10, aeq1
    3565:	f2c261        	l32r	a6, 70 (cb4 <fxlog10>)
    3568:	36a504        	ae_trunca32q48	a5, aeq2
    356b:	0006e0        	callx8	a6
    356e:	0a3d           	mov.n	a3, a10
    3570:	05ad           	mov.n	a10, a5
    3572:	0006e0        	callx8	a6
    3575:	fc24a0227e 	{ l16si	a7, a2, 4; ae_zeroq56	aeq0 }
    357a:	ff0460328e 	{ l16si	a8, a2, 6; ae_movq56	aeq3, aeq0 }
    357f:	01a052        	movi	a5, 1
    3582:	115540        	slli	a5, a5, 12
    3585:	300554        	ae_cvtp24a16x2.ll	aep0, a5, a5
    3588:	a05740        	addx4	a5, a7, a4
    358b:	a04840        	addx4	a4, a8, a4
    358e:	08a0f2        	movi	a15, 8
    3591:	605504        	ae_lq32f.iu	aeq1, a5, 0
    3594:	609404        	ae_lq32f.iu	aeq2, a4, 0
    3597:	420164        	ae_sp16f.l.i	aep0, a1, 12
    359a:	400164        	ae_lp16f.i	aep0, a1, 12
    359d:	098f76        	loop	a15, 35aa <fn_mic_chk_status+0x82>
    35a0:	f583fd351f 	{ ae_lq32f.iu	aeq1, a5, 4; ae_mulafq32sp16s.l	aeq3, aeq1, aep0 }
    35a5:	f682bd541f 	{ ae_lq32f.iu	aeq2, a4, 4; ae_mulafq32sp16s.l	aeq0, aeq2, aep0 }
    35aa:	c043a0        	sub	a4, a3, a10
    35ad:	36ba04        	ae_trunca32q48	a10, aeq3
    35b0:	368304        	ae_trunca32q48	a3, aeq0
    35b3:	a45d           	ae_clamps16	a5, a4
    35b5:	0006e0        	callx8	a6
    35b8:	0a4d           	mov.n	a4, a10
    35ba:	03ad           	mov.n	a10, a3
    35bc:	0006e0        	callx8	a6
    35bf:	069232        	l16si	a3, a2, 12
    35c2:	049262        	l16si	a6, a2, 8
    35c5:	079272        	l16si	a7, a2, 14
    35c8:	c05530        	sub	a5, a5, a3
    35cb:	a55d           	ae_clamps16	a5, a5
    35cd:	c044a0        	sub	a4, a4, a10
    35d0:	d15560        	mul16s	a5, a5, a6
    35d3:	a44d           	ae_clamps16	a4, a4
    35d5:	0592e2        	l16si	a14, a2, 10
    35d8:	c04470        	sub	a4, a4, a7
    35db:	415f50        	srli	a5, a5, 15
    35de:	a44d           	ae_clamps16	a4, a4
    35e0:	855d           	ae_sext16	a5, a5
    35e2:	089282        	l16si	a8, a2, 16
    35e5:	22fd           	ae_l16si.n	a15, a2, 0
    35e7:	d144e0        	mul16s	a4, a4, a14
    35ea:	353a           	add.n	a3, a5, a3
    35ec:	e97c           	movi.n	a9, -2
    35ee:	a33d           	ae_clamps16	a3, a3
    35f0:	1d0c           	movi.n	a13, 1
    35f2:	109890        	and	a9, a8, a9
    35f5:	2088d0        	or	a8, a8, a13
    35f8:	065232        	s16i	a3, a2, 12
    35fb:	723f30        	salt	a3, a15, a3
    35fe:	41ef40        	srli	a14, a4, 15
    3601:	838930        	moveqz	a8, a9, a3
    3604:	8e3d           	ae_sext16	a3, a14
    3606:	32bd           	ae_l16si.n	a11, a2, 2
    3608:	337a           	add.n	a3, a3, a7
    360a:	a33d           	ae_clamps16	a3, a3
    360c:	dc7c           	movi.n	a12, -3
    360e:	2d0c           	movi.n	a13, 2
    3610:	075232        	s16i	a3, a2, 14
    3613:	72f3b0        	salt	a15, a3, a11
    3616:	1058c0        	and	a5, a8, a12
    3619:	2038d0        	or	a3, a8, a13
    361c:	8335f0        	moveqz	a3, a5, a15
    361f:	085232        	s16i	a3, a2, 16
    3622:	000246        	j	362f <fn_mic_chk_status+0x107>

00003625 <fn_mic_chk_status+0xfd>:
    3625:	468c           	beqz.n	a6, 362d <fn_mic_chk_status+0x105>
    3627:	081232        	l16ui	a3, a2, 16
    362a:	000046        	j	362f <fn_mic_chk_status+0x107>

0000362d <fn_mic_chk_status+0x105>:
    362d:	430c           	movi.n	a3, 4
    362f:	832d           	ae_sext16	a2, a3
    3631:	f01d           	retw.n

00003633 <fn_mic_chk_status+0x10b>:
	...

00003634 <biquad_sec>:
    3634:	004136        	entry	a1, 32
    3637:	0368           	l32i.n	a6, a3, 0
    3639:	1388           	l32i.n	a8, a3, 4
    363b:	0458           	l32i.n	a5, a4, 0
    363d:	219860        	srai	a9, a6, 8
    3640:	23c8           	l32i.n	a12, a3, 8
    3642:	82e920        	mull	a14, a9, a2
    3645:	218880        	srai	a8, a8, 8
    3648:	14a8           	l32i.n	a10, a4, 4
    364a:	82f850        	mull	a15, a8, a5
    364d:	b29920        	mulsh	a9, a9, a2
    3650:	33b8           	l32i.n	a11, a3, 12
    3652:	41e7e0        	srli	a14, a14, 7
    3655:	21c8c0        	srai	a12, a12, 8
    3658:	b28850        	mulsh	a8, a8, a5
    365b:	43d8           	l32i.n	a13, a3, 16
    365d:	2468           	l32i.n	a6, a4, 8
    365f:	9b69e0        	depbits	a14, a9, 25, 7
    3662:	213790        	srai	a3, a9, 7
    3665:	4197f0        	srli	a9, a15, 7
    3668:	82fca0        	mull	a15, a12, a10
    366b:	9b6890        	depbits	a9, a8, 25, 7
    366e:	218780        	srai	a8, a8, 7
    3671:	b2aca0        	mulsh	a10, a12, a10
    3674:	838a           	add.n	a8, a3, a8
    3676:	4137f0        	srli	a3, a15, 7
    3679:	21b8b0        	srai	a11, a11, 8
    367c:	34c8           	l32i.n	a12, a4, 12
    367e:	9e9a           	add.n	a9, a14, a9
    3680:	9b6a30        	depbits	a3, a10, 25, 7
    3683:	82fb60        	mull	a15, a11, a6
    3686:	21a7a0        	srai	a10, a10, 7
    3689:	21d8d0        	srai	a13, a13, 8
    368c:	393a           	add.n	a3, a9, a3
    368e:	b2bb60        	mulsh	a11, a11, a6
    3691:	a8aa           	add.n	a10, a8, a10
    3693:	4187f0        	srli	a8, a15, 7
    3696:	62e9e0        	saltu	a14, a9, a14
    3699:	62f390        	saltu	a15, a3, a9
    369c:	829dc0        	mull	a9, a13, a12
    369f:	eeaa           	add.n	a14, a14, a10
    36a1:	9b6b80        	depbits	a8, a11, 25, 7
    36a4:	b2adc0        	mulsh	a10, a13, a12
    36a7:	419790        	srli	a9, a9, 7
    36aa:	05df80        	extui	a13, a8, 31, 1
    36ad:	21b7b0        	srai	a11, a11, 7
    36b0:	908830        	addx2	a8, a8, a3
    36b3:	9b6a90        	depbits	a9, a10, 25, 7
    36b6:	170c           	movi.n	a7, 1
    36b8:	90bbd0        	addx2	a11, a11, a13
    36bb:	fefa           	add.n	a15, a14, a15
    36bd:	21a7a0        	srai	a10, a10, 7
    36c0:	623830        	saltu	a3, a8, a3
    36c3:	989a           	add.n	a9, a8, a9
    36c5:	117710        	slli	a7, a7, 15
    36c8:	bfba           	add.n	a11, a15, a11
    36ca:	33aa           	add.n	a3, a3, a10
    36cc:	3b3a           	add.n	a3, a11, a3
    36ce:	628980        	saltu	a8, a9, a8
    36d1:	797a           	add.n	a7, a9, a7
    36d3:	629790        	saltu	a9, a7, a9
    36d6:	338a           	add.n	a3, a3, a8
    36d8:	339a           	add.n	a3, a3, a9
    36da:	f57070        	extui	a7, a7, 16, 16
    36dd:	fd7c           	movi.n	a13, -1
    36df:	fe7c           	movi.n	a14, -1
    36e1:	0bf370        	depbits	a7, a3, 16, 16
    36e4:	01cd10        	slli	a12, a13, 31
    36e7:	41d1e0        	srli	a13, a14, 1
    36ea:	319030        	srai	a9, a3, 16
    36ed:	07ed           	mov.n	a14, a7
    36ef:	ff7c           	movi.n	a15, -1
    36f1:	a91b           	addi.n	a10, a9, 1
    36f3:	7377c0        	maxu	a7, a7, a12
    36f6:	a3ec90        	movltz	a14, a12, a9
    36f9:	53b9f0        	max	a11, a9, a15
    36fc:	937ea0        	movnez	a7, a14, a10
    36ff:	0dfd           	mov.n	a15, a13
    3701:	6337d0        	minu	a3, a7, a13
    3704:	a3f7b0        	movltz	a15, a7, a11
    3707:	933fb0        	movnez	a3, a15, a11
    370a:	0429           	s32i.n	a2, a4, 0
    370c:	1459           	s32i.n	a5, a4, 4
    370e:	3469           	s32i.n	a6, a4, 12
    3710:	032d           	mov.n	a2, a3
    3712:	2439           	s32i.n	a3, a4, 8
    3714:	f01d           	retw.n

00003716 <biquad_sec+0xe2>:
	...

00003718 <fn_ini_over_subtract>:
    3718:	004136        	entry	a1, 32
    371b:	f25731        	l32r	a3, 78 (90e4 <xt_memset>)
    371e:	0b0c           	movi.n	a11, 0
    3720:	ac3c           	movi.n	a12, 58
    3722:	02ad           	mov.n	a10, a2
    3724:	0003e0        	callx8	a3
    3727:	f01d           	retw.n

00003729 <fn_ini_over_subtract+0x11>:
    3729:	000000                                        ...

0000372c <fn_over_subtract>:
    372c:	006136        	entry	a1, 48
    372f:	f27081        	l32r	a8, f0 (e890 <biquad_coef>)
    3732:	2159           	s32i.n	a5, a1, 8
    3734:	1149           	s32i.n	a4, a1, 4
    3736:	fc2480f07f 	{ movi	a7, 240; ae_zeroq56	aeq0 }
    373b:	690c           	movi.n	a9, 6
    373d:	408304        	ae_lp16f.iu	aep0, a3, 0
    3740:	fd0c00c2ae 	{ addi	a10, a2, 12; ae_cvtq48p24s.l	aeq1, aep0 }

00003745 <fn_over_subtract+0x19>:
    3745:	408314        	ae_lp16f.iu	aep0, a3, 2
    3748:	0abd           	mov.n	a11, a10
    374a:	20c880        	or	a12, a8, a8
    374d:	408976        	loop	a9, 3791 <fn_over_subtract+0x65>
    3750:	0cdd           	mov.n	a13, a12
    3752:	5c9d04        	ae_lp24x2f.iu	aep1, a13, 0
    3755:	0bed           	mov.n	a14, a11
    3757:	f9052fad1f 	{ ae_lp24x2f.iu	aep2, a13, 8; ae_mulfq32sp24s.h	aeq2, aeq1, aep1 }
    375c:	5cbd14        	ae_lp24x2f.iu	aep3, a13, 8
    375f:	60de04        	ae_lq32f.iu	aeq3, a14, 0
    3762:	f7c7bf1def 	{ ae_trunca32q48	a13, aeq1; ae_mulafq32sp24s.l	aeq2, aeq3, aep1 }
    3767:	605e14        	ae_lq32f.iu	aeq1, a14, 4
    376a:	f54bbd7e1f 	{ ae_lq32f.iu	aeq3, a14, 4; ae_mulafq32sp24s.h	aeq2, aeq1, aep2 }
    376f:	f7cbbd3e1f 	{ ae_lq32f.iu	aeq1, a14, 4; ae_mulafq32sp24s.l	aeq2, aeq3, aep2 }
    3774:	f7cbb00bee 	{ l32i	a14, a11, 0; ae_mulafq32sp24s.l	aeq2, aeq3, aep2 }
    3779:	f54fb02b5e 	{ l32i	a5, a11, 8; ae_mulafq32sp24s.h	aeq2, aeq1, aep3 }
    377e:	1be9           	s32i.n	a14, a11, 4
    3780:	fd34418cce 	{ addi	a12, a12, 24; ae_roundsq32asym	aeq1, aeq2 }
    3785:	369f04        	ae_trunca32q48	a15, aeq1
    3788:	0bd9           	s32i.n	a13, a11, 0
    378a:	3b59           	s32i.n	a5, a11, 12
    378c:	2bf9           	s32i.n	a15, a11, 8
    378e:	10cbb2        	addi	a11, a11, 16

00003791 <fn_over_subtract+0x65>:
    3791:	fd048ff77e 	{ addi	a7, a7, -1; ae_absq56	aeq1, aeq1 }
    3796:	0109c4        	ae_addq56	aeq0, aeq0, aeq1
    3799:	060934        	ae_roundsq32asym	aeq0, aeq0
    379c:	0a4084        	ae_cvtq48p24s.l	aeq1, aep0
    379f:	fa2756        	bnez	a7, 3745 <fn_over_subtract+0x19>
    37a2:	368904        	ae_trunca32q48	a9, aeq0
    37a5:	12c8           	l32i.n	a12, a2, 4
    37a7:	0b0c           	movi.n	a11, 0
    37a9:	f37c           	movi.n	a3, -1
    37ab:	c0a9c0        	sub	a10, a9, a12
    37ae:	728bc0        	salt	a8, a11, a12
    37b1:	72da90        	salt	a13, a10, a9
    37b4:	f77c           	movi.n	a7, -1
    37b6:	3088d0        	xor	a8, a8, a13
    37b9:	413130        	srli	a3, a3, 1
    37bc:	017710        	slli	a7, a7, 31
    37bf:	31dfc0        	srai	a13, a12, 31
    37c2:	588c           	beqz.n	a8, 37cb <fn_over_subtract+0x9f>
    37c4:	078d           	mov.n	a8, a7
    37c6:	a383a0        	movltz	a8, a3, a10
    37c9:	08ad           	mov.n	a10, a8

000037cb <fn_over_subtract+0x9f>:
    37cb:	fa8b           	addi.n	a15, a10, 8
    37cd:	31efa0        	srai	a14, a10, 31
    37d0:	62afa0        	saltu	a10, a15, a10
    37d3:	eeaa           	add.n	a14, a14, a10
    37d5:	01ae40        	slli	a10, a14, 28
    37d8:	41f4f0        	srli	a15, a15, 4
    37db:	ffaa           	add.n	a15, a15, a10
    37dd:	21e4e0        	srai	a14, a14, 4
    37e0:	deda           	add.n	a13, a14, a13
    37e2:	efca           	add.n	a14, a15, a12
    37e4:	62cef0        	saltu	a12, a14, a15
    37e7:	ddca           	add.n	a13, a13, a12
    37e9:	02a8           	l32i.n	a10, a2, 0
    37eb:	738e70        	maxu	a8, a14, a7
    37ee:	f47c           	movi.n	a4, -1
    37f0:	cd1b           	addi.n	a12, a13, 1
    37f2:	a3e7d0        	movltz	a14, a7, a13
    37f5:	83e8c0        	moveqz	a14, a8, a12
    37f8:	038d           	mov.n	a8, a3
    37fa:	53dd40        	max	a13, a13, a4
    37fd:	725ba0        	salt	a5, a11, a10
    3800:	a38ed0        	movltz	a8, a14, a13
    3803:	63be30        	minu	a11, a14, a3
    3806:	93b8d0        	movnez	a11, a8, a13
    3809:	c0d9a0        	sub	a13, a9, a10
    380c:	72ed90        	salt	a14, a13, a9
    380f:	3085e0        	xor	a8, a5, a14
    3812:	31cfa0        	srai	a12, a10, 31
    3815:	12b9           	s32i.n	a11, a2, 4
    3817:	3169           	s32i.n	a6, a1, 12
    3819:	588c           	beqz.n	a8, 3822 <fn_over_subtract+0xf6>
    381b:	078d           	mov.n	a8, a7
    381d:	a383d0        	movltz	a8, a3, a13
    3820:	08dd           	mov.n	a13, a8
    3822:	72ea90        	salt	a14, a10, a9
    3825:	80a0f2        	movi	a15, 128
    3828:	850c           	movi.n	a5, 8
    382a:	935fe0        	movnez	a5, a15, a14
    382d:	460c           	movi.n	a6, 4
    382f:	f5da           	add.n	a15, a5, a13
    3831:	a06e60        	addx4	a6, a14, a6
    3834:	fe1c           	movi.n	a14, 31
    3836:	318fd0        	srai	a8, a13, 31
    3839:	625f50        	saltu	a5, a15, a5
    383c:	400600        	ssr	a6
    383f:	585a           	add.n	a5, a8, a5
    3841:	30e6e0        	xor	a14, a6, a14
    3844:	b18050        	sra	a8, a5
    3847:	401e00        	ssl	a14
    384a:	1155f0        	slli	a5, a5, 1
    384d:	a15500        	sll	a5, a5
    3850:	400600        	ssr	a6
    3853:	91d0f0        	srl	a13, a15
    3856:	205d50        	or	a5, a13, a5
    3859:	c8ca           	add.n	a12, a8, a12
    385b:	85aa           	add.n	a8, a5, a10
    385d:	625850        	saltu	a5, a8, a5
    3860:	5c5a           	add.n	a5, a12, a5
    3862:	73a870        	maxu	a10, a8, a7
    3865:	651b           	addi.n	a6, a5, 1
    3867:	a38750        	movltz	a8, a7, a5
    386a:	f222e1        	l32r	a14, f4 (a3d70b <_end+0xa2e8a7>)
    386d:	534540        	max	a4, a5, a4
    3870:	03fd           	mov.n	a15, a3
    3872:	838a60        	moveqz	a8, a10, a6
    3875:	a3f840        	movltz	a15, a8, a4
    3878:	638830        	minu	a8, a8, a3
    387b:	938f40        	movnez	a8, a15, a4
    387e:	0289           	s32i.n	a8, a2, 0
    3880:	522be7        	blt	a11, a14, 38d6 <fn_over_subtract+0x1aa>
    3883:	057816        	beqz	a8, 38de <fn_over_subtract+0x1b2>
    3886:	592b           	addi.n	a5, a9, 2
    3888:	314f90        	srai	a4, a9, 31
    388b:	626590        	saltu	a6, a5, a9
    388e:	41a250        	srli	a10, a5, 2
    3891:	446a           	add.n	a4, a4, a6
    3893:	eb14a0        	depbits	a10, a4, 30, 2
    3896:	58aa87        	bge	a10, a8, 38f2 <fn_over_subtract+0x1c6>
    3899:	40e840        	nsa	a4, a8
    389c:	360a34        	ae_cvtq48a32s	aeq0, a10
    389f:	844d           	ae_sext16	a4, a4
    38a1:	fc24fe840f 	{ ae_slaasq56s	aeq0, aeq0, a4; nop }
    38a6:	fc00fec87f 	{ ae_cvtq48a32s	aeq1, a8; ae_satq48s	aeq0, aeq0 }
    38ab:	f1c442        	addi	a4, a4, -15
    38ae:	fc24fe944f 	{ ae_slaasq56s	aeq1, aeq1, a4; nop }
    38b3:	fd04ff0fef 	{ ae_trunca32q48	a15, aeq0; ae_satq48s	aeq1, aeq1 }
    38b8:	369504        	ae_trunca32q48	a5, aeq1
    38bb:	ffa062        	movi	a6, 255
    38be:	11e8           	l32i.n	a14, a1, 4
    38c0:	d24f50        	quos	a4, a15, a5
    38c3:	a44d           	ae_clamps16	a4, a4
    38c5:	848d           	ae_sext16	a8, a4
    38c7:	1fd662        	addmi	a6, a6, 0x1f00
    38ca:	365242        	s16i	a4, a2, 108
    38cd:	2c2687        	blt	a6, a8, 38fd <fn_over_subtract+0x1d1>
    38d0:	6cc2a2        	addi	a10, a2, 108
    38d3:	000446        	j	38e8 <fn_over_subtract+0x1bc>

000038d6 <fn_over_subtract+0x1aa>:
    38d6:	180c           	movi.n	a8, 1
    38d8:	118830        	slli	a8, a8, 13
    38db:	000646        	j	38f8 <fn_over_subtract+0x1cc>

000038de <fn_over_subtract+0x1b2>:
    38de:	11e8           	l32i.n	a14, a1, 4
    38e0:	040c           	movi.n	a4, 0
    38e2:	6cc2a2        	addi	a10, a2, 108
    38e5:	365242        	s16i	a4, a2, 108
    38e8:	180c           	movi.n	a8, 1
    38ea:	118830        	slli	a8, a8, 13
    38ed:	6a8d           	ae_s16i.n	a8, a10, 0
    38ef:	000286        	j	38fd <fn_over_subtract+0x1d1>

000038f2 <fn_over_subtract+0x1c6>:
    38f2:	ffa082        	movi	a8, 255
    38f5:	7fd882        	addmi	a8, a8, 0x7f00
    38f8:	11e8           	l32i.n	a14, a1, 4
    38fa:	365282        	s16i	a8, a2, 108
    38fd:	80a242        	movi	a4, 0x280
    3900:	055c           	movi.n	a5, 80
    3902:	2299           	s32i.n	a9, a2, 8
    3904:	0b0c           	movi.n	a11, 0
    3906:	fc7c           	movi.n	a12, -1
    3908:	0a0c           	movi.n	a10, 0
    390a:	090c           	movi.n	a9, 0
    390c:	de4a           	add.n	a13, a14, a4
    390e:	3e8576        	loop	a5, 3950 <fn_over_subtract+0x224>
    3911:	0d48           	l32i.n	a4, a13, 0
    3913:	03fd           	mov.n	a15, a3
    3915:	dd4b           	addi.n	a13, a13, 4
    3917:	20c462        	addi	a6, a4, 32
    391a:	315f40        	srai	a5, a4, 31
    391d:	624640        	saltu	a4, a6, a4
    3920:	454a           	add.n	a4, a5, a4
    3922:	215640        	srai	a5, a4, 6
    3925:	416660        	srli	a6, a6, 6
    3928:	014460        	slli	a4, a4, 26
    392b:	464a           	add.n	a4, a6, a4
    392d:	64aa           	add.n	a6, a4, a10
    392f:	559a           	add.n	a5, a5, a9
    3931:	624640        	saltu	a4, a6, a4
    3934:	454a           	add.n	a4, a5, a4
    3936:	73a670        	maxu	a10, a6, a7
    3939:	541b           	addi.n	a5, a4, 1
    393b:	a36740        	movltz	a6, a7, a4
    393e:	836a50        	moveqz	a6, a10, a5
    3941:	5344c0        	max	a4, a4, a12
    3944:	a3f640        	movltz	a15, a6, a4
    3947:	63a630        	minu	a10, a6, a3
    394a:	4394b0        	min	a9, a4, a11
    394d:	93af40        	movnez	a10, a15, a4

00003950 <fn_over_subtract+0x224>:
    3950:	40a142        	movi	a4, 0x140
    3953:	055c           	movi.n	a5, 80
    3955:	4e4a           	add.n	a4, a14, a4
    3957:	0c0c           	movi.n	a12, 0
    3959:	fd7c           	movi.n	a13, -1
    395b:	0b0c           	movi.n	a11, 0
    395d:	0e0c           	movi.n	a14, 0
    395f:	3e8576        	loop	a5, 39a1 <fn_over_subtract+0x275>
    3962:	0458           	l32i.n	a5, a4, 0
    3964:	444b           	addi.n	a4, a4, 4
    3966:	20c5f2        	addi	a15, a5, 32
    3969:	316f50        	srai	a6, a5, 31
    396c:	625f50        	saltu	a5, a15, a5
    396f:	565a           	add.n	a5, a6, a5
    3971:	216650        	srai	a6, a5, 6
    3974:	41f6f0        	srli	a15, a15, 6
    3977:	015560        	slli	a5, a5, 26
    397a:	5f5a           	add.n	a5, a15, a5
    397c:	b5ba           	add.n	a11, a5, a11
    397e:	66ea           	add.n	a6, a6, a14
    3980:	625b50        	saltu	a5, a11, a5
    3983:	565a           	add.n	a5, a6, a5
    3985:	73fb70        	maxu	a15, a11, a7
    3988:	651b           	addi.n	a6, a5, 1
    398a:	a3b750        	movltz	a11, a7, a5
    398d:	5355d0        	max	a5, a5, a13
    3990:	83bf60        	moveqz	a11, a15, a6
    3993:	03fd           	mov.n	a15, a3
    3995:	a3fb50        	movltz	a15, a11, a5
    3998:	63bb30        	minu	a11, a11, a3
    399b:	43e5c0        	min	a14, a5, a12
    399e:	93bf50        	movnez	a11, a15, a5
    39a1:	07bb16        	beqz	a11, 3a20 <fn_over_subtract+0x2f4>
    39a4:	314fb0        	srai	a4, a11, 31
    39a7:	c06ab0        	sub	a6, a10, a11
    39aa:	c04940        	sub	a4, a9, a4
    39ad:	625ab0        	saltu	a5, a10, a11
    39b0:	c04450        	sub	a4, a4, a5
    39b3:	06ed           	mov.n	a14, a6
    39b5:	fd7c           	movi.n	a13, -1
    39b7:	736670        	maxu	a6, a6, a7
    39ba:	a3e740        	movltz	a14, a7, a4
    39bd:	f41b           	addi.n	a15, a4, 1
    39bf:	936ef0        	movnez	a6, a14, a15
    39c2:	5344d0        	max	a4, a4, a13
    39c5:	03dd           	mov.n	a13, a3
    39c7:	5c0c           	movi.n	a12, 5
    39c9:	a3d640        	movltz	a13, a6, a4
    39cc:	63e630        	minu	a14, a6, a3
    39cf:	01cc90        	slli	a12, a12, 23
    39d2:	93ed40        	movnez	a14, a13, a4
    39d5:	090c           	movi.n	a9, 0
    39d7:	724ec0        	salt	a4, a14, a12
    39da:	839e40        	moveqz	a9, a14, a4
    39dd:	392b           	addi.n	a3, a9, 2
    39df:	62f390        	saltu	a15, a3, a9
    39e2:	314f90        	srai	a4, a9, 31
    39e5:	413230        	srli	a3, a3, 2
    39e8:	44fa           	add.n	a4, a4, a15
    39ea:	eb1430        	depbits	a3, a4, 30, 2
    39ed:	37a3b7        	bge	a3, a11, 3a28 <fn_over_subtract+0x2fc>
    39f0:	40eb40        	nsa	a4, a11
    39f3:	84dd           	ae_sext16	a13, a4
    39f5:	360334        	ae_cvtq48a32s	aeq0, a3
    39f8:	364b34        	ae_cvtq48a32s	aeq1, a11
    39fb:	f1cd32        	addi	a3, a13, -15
    39fe:	fc24fe8d0f 	{ ae_slaasq56s	aeq0, aeq0, a13; nop }
    3a03:	fc00fe934f 	{ ae_slaasq56s	aeq1, aeq1, a3; ae_satq48s	aeq0, aeq0 }
    3a08:	fd04ff0eef 	{ ae_trunca32q48	a14, aeq0; ae_satq48s	aeq1, aeq1 }
    3a0d:	369f04        	ae_trunca32q48	a15, aeq1
    3a10:	ffa052        	movi	a5, 255
    3a13:	1fd552        	addmi	a5, a5, 0x1f00
    3a16:	d23ef0        	quos	a3, a14, a15
    3a19:	a33d           	ae_clamps16	a3, a3
    3a1b:	837d           	ae_sext16	a7, a3
    3a1d:	0d2577        	blt	a5, a7, 3a2e <fn_over_subtract+0x302>

00003a20 <fn_over_subtract+0x2f4>:
    3a20:	170c           	movi.n	a7, 1
    3a22:	117730        	slli	a7, a7, 13
    3a25:	000146        	j	3a2e <fn_over_subtract+0x302>

00003a28 <fn_over_subtract+0x2fc>:
    3a28:	ffa072        	movi	a7, 255
    3a2b:	7fd772        	addmi	a7, a7, 0x7f00
    3a2e:	389242        	l16si	a4, a2, 112
    3a31:	533780        	max	a3, a7, a8
    3a34:	375272        	s16i	a7, a2, 110
    3a37:	0da347        	bge	a3, a4, 3a48 <fn_over_subtract+0x31c>
    3a3a:	c03340        	sub	a3, a3, a4
    3a3d:	a33d           	ae_clamps16	a3, a3
    3a3f:	338b           	addi.n	a3, a3, 8
    3a41:	213430        	srai	a3, a3, 4
    3a44:	334a           	add.n	a3, a3, a4
    3a46:	a33d           	ae_clamps16	a3, a3
    3a48:	3158           	l32i.n	a5, a1, 12
    3a4a:	00a142        	movi	a4, 0x100
    3a4d:	385232        	s16i	a3, a2, 112
    3a50:	242457        	blt	a4, a5, 3a78 <fn_over_subtract+0x34c>
    3a53:	2128           	l32i.n	a2, a1, 8
    3a55:	ffaef2        	movi	a15, 0xfffffeff
    3a58:	300334        	ae_cvtp24a16x2.ll	aep0, a3, a3
    3a5b:	35fa           	add.n	a3, a5, a15
    3a5d:	a02520        	addx4	a2, a5, a2
    3a60:	603030        	neg	a3, a3
    3a63:	601204        	ae_lq32f.iu	aeq0, a2, 0
    3a66:	0e8376        	loop	a3, 3a78 <fn_over_subtract+0x34c>
    3a69:	030214        	ae_mulfq32sp16s.l	aeq0, aeq0, aep0
    3a6c:	350094        	ae_slliq56	aeq0, aeq0, 2
    3a6f:	060934        	ae_roundsq32asym	aeq0, aeq0
    3a72:	624204        	ae_sq32f.iu	aeq0, a2, 0
    3a75:	601214        	ae_lq32f.iu	aeq0, a2, 4

00003a78 <fn_over_subtract+0x34c>:
    3a78:	f01d           	retw.n

00003a7a <fn_over_subtract+0x34e>:
	...

00003a7c <fn_ini_noise_cancellation>:
    3a7c:	004136        	entry	a1, 32
    3a7f:	6ba2c2        	movi	a12, 0x26b
    3a82:	f17d71        	l32r	a7, 78 (90e4 <xt_memset>)
    3a85:	11cce0        	slli	a12, a12, 2
    3a88:	0b0c           	movi.n	a11, 0
    3a8a:	02ad           	mov.n	a10, a2
    3a8c:	0007e0        	callx8	a7
    3a8f:	13d272        	addmi	a7, a2, 0x1300
    3a92:	275742        	s16i	a4, a7, 78
    3a95:	126732        	s32i	a3, a7, 72
    3a98:	285752        	s16i	a5, a7, 80
    3a9b:	156762        	s32i	a6, a7, 84
    3a9e:	f01d           	retw.n

00003aa0 <dot_prod_q31>:
    3aa0:	004136        	entry	a1, 32
    3aa3:	0358           	l32i.n	a5, a3, 0
    3aa5:	0268           	l32i.n	a6, a2, 0
    3aa7:	215850        	srai	a5, a5, 8
    3aaa:	216860        	srai	a6, a6, 8
    3aad:	827650        	mull	a7, a6, a5
    3ab0:	b26650        	mulsh	a6, a6, a5
    3ab3:	058f70        	extui	a8, a7, 31, 1
    3ab6:	1157f0        	slli	a5, a7, 1
    3ab9:	906680        	addx2	a6, a6, a8
    3abc:	2f24a6        	blti	a4, 2, 3aef <dot_prod_q31+0x4f>
    3abf:	440b           	addi.n	a4, a4, -1
    3ac1:	334b           	addi.n	a3, a3, 4
    3ac3:	224b           	addi.n	a2, a2, 4
    3ac5:	268476        	loop	a4, 3aef <dot_prod_q31+0x4f>
    3ac8:	0248           	l32i.n	a4, a2, 0
    3aca:	0378           	l32i.n	a7, a3, 0
    3acc:	224b           	addi.n	a2, a2, 4
    3ace:	214840        	srai	a4, a4, 8
    3ad1:	217870        	srai	a7, a7, 8
    3ad4:	828470        	mull	a8, a4, a7
    3ad7:	b24470        	mulsh	a4, a4, a7
    3ada:	05ef80        	extui	a14, a8, 31, 1
    3add:	9044e0        	addx2	a4, a4, a14
    3ae0:	905850        	addx2	a5, a8, a5
    3ae3:	1188f0        	slli	a8, a8, 1
    3ae6:	62f580        	saltu	a15, a5, a8
    3ae9:	446a           	add.n	a4, a4, a6
    3aeb:	334b           	addi.n	a3, a3, 4
    3aed:	64fa           	add.n	a6, a4, a15

00003aef <dot_prod_q31+0x4f>:
    3aef:	120c           	movi.n	a2, 1
    3af1:	112210        	slli	a2, a2, 15
    3af4:	252a           	add.n	a2, a5, a2
    3af6:	625250        	saltu	a5, a2, a5
    3af9:	f52020        	extui	a2, a2, 16, 16
    3afc:	565a           	add.n	a5, a6, a5
    3afe:	f37c           	movi.n	a3, -1
    3b00:	0bf520        	depbits	a2, a5, 16, 16
    3b03:	f77c           	movi.n	a7, -1
    3b05:	315050        	srai	a5, a5, 16
    3b08:	013310        	slli	a3, a3, 31
    3b0b:	02cd           	mov.n	a12, a2
    3b0d:	f47c           	movi.n	a4, -1
    3b0f:	417170        	srli	a7, a7, 1
    3b12:	732230        	maxu	a2, a2, a3
    3b15:	a3c350        	movltz	a12, a3, a5
    3b18:	d51b           	addi.n	a13, a5, 1
    3b1a:	932cd0        	movnez	a2, a12, a13
    3b1d:	53e540        	max	a14, a5, a4
    3b20:	07fd           	mov.n	a15, a7
    3b22:	a3f2e0        	movltz	a15, a2, a14
    3b25:	632270        	minu	a2, a2, a7
    3b28:	932fe0        	movnez	a2, a15, a14
    3b2b:	f01d           	retw.n

00003b2d <dot_prod_q31+0x8d>:
    3b2d:	000000                                        ...

00003b30 <fn_noise_cancellation>:
    3b30:	00c136        	entry	a1, 96
    3b33:	05bd           	mov.n	a11, a5
    3b35:	13d2a2        	addmi	a10, a2, 0x1300
    3b38:	f17051        	l32r	a5, f8 (e920 <nc_biquad_coef>)
    3b3b:	c4a792        	movi	a9, 0x7c4
    3b3e:	152aa2        	l32i	a10, a10, 84
    3b41:	2c0c           	movi.n	a12, 2
    3b43:	e1a9           	s32i.n	a10, a1, 56
    3b45:	f0a062        	movi	a6, 240
    3b48:	408304        	ae_lp16f.iu	aep0, a3, 0
    3b4b:	fc0c2c940f 	{ ae_lp16f.iu	aep1, a4, 0; ae_cvtq48p24s.l	aeq0, aep0 }
    3b50:	14c272        	addi	a7, a2, 20
    3b53:	28c282        	addi	a8, a2, 40
    3b56:	7129           	s32i.n	a2, a1, 28
    3b58:	929a           	add.n	a9, a2, a9
    3b5a:	0c2d           	mov.n	a2, a12
    3b5c:	0bad           	mov.n	a10, a11
    3b5e:	c1b9           	s32i.n	a11, a1, 48

00003b60 <fn_noise_cancellation+0x30>:
    3b60:	408314        	ae_lp16f.iu	aep0, a3, 2
    3b63:	07bd           	mov.n	a11, a7
    3b65:	05cd           	mov.n	a12, a5
    3b67:	448276        	loop	a2, 3baf <fn_noise_cancellation+0x7f>
    3b6a:	0cdd           	mov.n	a13, a12
    3b6c:	5cad04        	ae_lp24x2f.iu	aep2, a13, 0
    3b6f:	5cbd14        	ae_lp24x2f.iu	aep3, a13, 8
    3b72:	f4cbe2        	addi	a14, a11, -12
    3b75:	0efd           	mov.n	a15, a14
    3b77:	5ccd14        	ae_lp24x2f.iu	aep4, a13, 8
    3b7a:	605f04        	ae_lq32f.iu	aeq1, a15, 0
    3b7d:	f8083f0def 	{ ae_trunca32q48	a13, aeq0; ae_mulfq32sp24s.h	aeq0, aeq0, aep2 }
    3b82:	f4cbbd7f1f 	{ ae_lq32f.iu	aeq3, a15, 4; ae_mulafq32sp24s.l	aeq0, aeq1, aep2 }
    3b87:	f64fbd5f1f 	{ ae_lq32f.iu	aeq2, a15, 4; ae_mulafq32sp24s.h	aeq0, aeq3, aep3 }
    3b8c:	f6cebd7f1f 	{ ae_lq32f.iu	aeq3, a15, 4; ae_mulafq32sp24s.l	aeq0, aeq2, aep3 }
    3b91:	f6ceb00efe 	{ l32i	a15, a14, 0; ae_mulafq32sp24s.l	aeq0, aeq2, aep3 }
    3b96:	f653940edf 	{ s32i.n	a13, a14, 0; ae_mulafq32sp24s.h	aeq0, aeq3, aep4 }
    3b9b:	1ef9           	s32i.n	a15, a14, 4
    3b9d:	fc24702efe 	{ l32i	a15, a14, 8; ae_roundsq32asym	aeq0, aeq0 }
    3ba2:	368d04        	ae_trunca32q48	a13, aeq0
    3ba5:	0bf9           	s32i.n	a15, a11, 0
    3ba7:	18ccc2        	addi	a12, a12, 24
    3baa:	10cbb2        	addi	a11, a11, 16
    3bad:	2ed9           	s32i.n	a13, a14, 8

00003baf <fn_noise_cancellation+0x7f>:
    3baf:	fd2c1409df 	{ s32i.n	a13, a9, 0; ae_cvtq48p24s.l	aeq1, aep1 }
    3bb4:	08bd           	mov.n	a11, a8
    3bb6:	05cd           	mov.n	a12, a5
    3bb8:	409414        	ae_lp16f.iu	aep1, a4, 2
    3bbb:	408276        	loop	a2, 3bff <fn_noise_cancellation+0xcf>
    3bbe:	0cdd           	mov.n	a13, a12
    3bc0:	5cad04        	ae_lp24x2f.iu	aep2, a13, 0
    3bc3:	f80913ebbf 	{ or	a14, a11, a11; ae_mulfq32sp24s.h	aeq0, aeq1, aep2 }
    3bc8:	609e04        	ae_lq32f.iu	aeq2, a14, 0
    3bcb:	f6caafbd1f 	{ ae_lp24x2f.iu	aep3, a13, 8; ae_mulafq32sp24s.l	aeq0, aeq2, aep2 }
    3bd0:	60de14        	ae_lq32f.iu	aeq3, a14, 4
    3bd3:	f64fbd5e1f 	{ ae_lq32f.iu	aeq2, a14, 4; ae_mulafq32sp24s.h	aeq0, aeq3, aep3 }
    3bd8:	f6ceafcd1f 	{ ae_lp24x2f.iu	aep4, a13, 8; ae_mulafq32sp24s.l	aeq0, aeq2, aep3 }
    3bdd:	f6cebd7e1f 	{ ae_lq32f.iu	aeq3, a14, 4; ae_mulafq32sp24s.l	aeq0, aeq2, aep3 }
    3be2:	f653bf1def 	{ ae_trunca32q48	a13, aeq1; ae_mulafq32sp24s.h	aeq0, aeq3, aep4 }
    3be7:	0be8           	l32i.n	a14, a11, 0
    3be9:	fd24540bdf 	{ s32i.n	a13, a11, 0; ae_roundsq32asym	aeq1, aeq0 }
    3bee:	369d04        	ae_trunca32q48	a13, aeq1
    3bf1:	2bf8           	l32i.n	a15, a11, 8
    3bf3:	1be9           	s32i.n	a14, a11, 4
    3bf5:	18ccc2        	addi	a12, a12, 24
    3bf8:	3bf9           	s32i.n	a15, a11, 12
    3bfa:	2bd9           	s32i.n	a13, a11, 8
    3bfc:	10cbb2        	addi	a11, a11, 16
    3bff:	fc0c0ff66e 	{ addi	a6, a6, -1; ae_cvtq48p24s.l	aeq0, aep0 }
    3c04:	0ad9           	s32i.n	a13, a10, 0
    3c06:	aa4b           	addi.n	a10, a10, 4
    3c08:	994b           	addi.n	a9, a9, 4
    3c0a:	f52656        	bnez	a6, 3b60 <fn_noise_cancellation+0x30>
    3c0d:	7158           	l32i.n	a5, a1, 28
    3c0f:	e1a132        	movi	a3, 0x1e1
    3c12:	84a722        	movi	a2, 0x784
    3c15:	1133d0        	slli	a3, a3, 3
    3c18:	ffa042        	movi	a4, 255
    3c1b:	802520        	add	a2, a5, a2
    3c1e:	803530        	add	a3, a5, a3
    3c21:	058476        	loop	a4, 3c2a <fn_noise_cancellation+0xfa>
    3c24:	601214        	ae_lq32f.iu	aeq0, a2, 4
    3c27:	624314        	ae_sq32f.iu	aeq0, a3, 4
    3c2a:	e128           	l32i.n	a2, a1, 56
    3c2c:	13d532        	addmi	a3, a5, 0x1300
    3c2f:	c148           	l32i.n	a4, a1, 48
    3c31:	289332        	l16si	a3, a3, 80
    3c34:	fcc222        	addi	a2, a2, -4
    3c37:	61a2f2        	movi	a15, 0x261
    3c3a:	9129           	s32i.n	a2, a1, 36
    3c3c:	112fd0        	slli	a2, a15, 3
    3c3f:	652a           	add.n	a6, a5, a2
    3c41:	f11f21        	l32r	a2, c0 (9140 <__ashldi3>)
    3c44:	601404        	ae_lq32f.iu	aeq0, a4, 0
    3c47:	c30b           	addi.n	a12, a3, -1
    3c49:	1a0c           	movi.n	a10, 1
    3c4b:	0b0c           	movi.n	a11, 0
    3c4d:	630124        	ae_sq56s.i	aeq0, a1, 16
    3c50:	8149           	s32i.n	a4, a1, 32
    3c52:	b139           	s32i.n	a3, a1, 44
    3c54:	0002e0        	callx8	a2
    3c57:	c3a332        	movi	a3, 0x3c3
    3c5a:	057d           	mov.n	a7, a5
    3c5c:	1133e0        	slli	a3, a3, 2
    3c5f:	88a722        	movi	a2, 0x788
    3c62:	a1a9           	s32i.n	a10, a1, 40
    3c64:	f1b9           	s32i.n	a11, a1, 60
    3c66:	fc2480005f 	{ movi	a5, 0; ae_zeroq56	aeq0 }
    3c6b:	0c0c           	movi.n	a12, 0
    3c6d:	272a           	add.n	a2, a7, a2
    3c6f:	373a           	add.n	a3, a7, a3
    3c71:	d169           	s32i.n	a6, a1, 52
    3c73:	000706        	j	3c93 <fn_noise_cancellation+0x163>

00003c76 <fn_noise_cancellation+0x146>:
    3c76:	fc7c           	movi.n	a12, -1
    3c78:	f47c           	movi.n	a4, -1
    3c7a:	01cc10        	slli	a12, a12, 31
    3c7d:	414140        	srli	a4, a4, 1
    3c80:	a3c480        	movltz	a12, a4, a8
    3c83:	d168           	l32i.n	a6, a1, 52
    3c85:	551b           	addi.n	a5, a5, 1
    3c87:	fc2480f04f 	{ movi	a4, 240; ae_zeroq56	aeq0 }
    3c8c:	334b           	addi.n	a3, a3, 4
    3c8e:	224b           	addi.n	a2, a2, 4
    3c90:	751547        	beq	a5, a4, 3d09 <fn_noise_cancellation+0x1d9>
    3c93:	049050        	extui	a9, a5, 0, 1
    3c96:	028d           	mov.n	a8, a2
    3c98:	938390        	movnez	a8, a3, a9
    3c9b:	069d           	mov.n	a9, a6
    3c9d:	8f0c           	movi.n	a15, 8
    3c9f:	0c4d           	mov.n	a4, a12
    3ca1:	5c8904        	ae_lp24x2f.iu	aep0, a9, 0
    3ca4:	5c9804        	ae_lp24x2f.iu	aep1, a8, 0
    3ca7:	078f76        	loop	a15, 3cb2 <fn_noise_cancellation+0x182>
    3caa:	e2202f891f 	{ ae_lp24x2f.iu	aep0, a9, 8; ae_mulaafp24s.hh.ll	aeq0, aep0, aep1 }
    3caf:	5c9814        	ae_lp24x2f.iu	aep1, a8, 8

00003cb2 <fn_noise_cancellation+0x182>:
    3cb2:	fc247da12f 	{ ae_lq56.i	aeq1, a1, 16; ae_roundsq32asym	aeq0, aeq0 }
    3cb7:	f82af0917e 	{ l32i	a7, a1, 36; ae_subq56	aeq0, aeq1, aeq0 }
    3cbc:	fc2470a16e 	{ l32i	a6, a1, 40; ae_roundsq32asym	aeq0, aeq0 }
    3cc1:	8188           	l32i.n	a8, a1, 32
    3cc3:	624714        	ae_sq32f.iu	aeq0, a7, 4
    3cc6:	9179           	s32i.n	a7, a1, 36
    3cc8:	368704        	ae_trunca32q48	a7, aeq0
    3ccb:	f1f8           	l32i.n	a15, a1, 60
    3ccd:	60d814        	ae_lq32f.iu	aeq3, a8, 4
    3cd0:	a67a           	add.n	a10, a6, a7
    3cd2:	629a60        	saltu	a9, a10, a6
    3cd5:	b168           	l32i.n	a6, a1, 44
    3cd7:	31ef70        	srai	a14, a7, 31
    3cda:	8189           	s32i.n	a8, a1, 32
    3cdc:	8fea           	add.n	a8, a15, a14
    3cde:	b89a           	add.n	a11, a8, a9
    3ce0:	f0f981        	l32r	a8, c4 (9158 <__ashrdi3>)
    3ce3:	06cd           	mov.n	a12, a6
    3ce5:	633124        	ae_sq56s.i	aeq3, a1, 16
    3ce8:	0008e0        	callx8	a8
    3ceb:	090c           	movi.n	a9, 0
    3ced:	728960        	salt	a8, a9, a6
    3cf0:	83a780        	moveqz	a10, a7, a8
    3cf3:	6071a0        	abs	a7, a10
    3cf6:	847a           	add.n	a8, a4, a7
    3cf8:	729790        	salt	a9, a7, a9
    3cfb:	727840        	salt	a7, a8, a4
    3cfe:	307970        	xor	a7, a9, a7
    3d01:	f71756        	bnez	a7, 3c76 <fn_noise_cancellation+0x146>
    3d04:	08cd           	mov.n	a12, a8
    3d06:	ffde46        	j	3c83 <fn_noise_cancellation+0x153>

00003d09 <fn_noise_cancellation+0x1d9>:
    3d09:	7128           	l32i.n	a2, a1, 28
    3d0b:	030c           	movi.n	a3, 0
    3d0d:	fe7c           	movi.n	a14, -1
    3d0f:	1228           	l32i.n	a2, a2, 4
    3d11:	fd7c           	movi.n	a13, -1
    3d13:	01ee10        	slli	a14, a14, 31
    3d16:	c04c20        	sub	a4, a12, a2
    3d19:	723320        	salt	a3, a3, a2
    3d1c:	7254c0        	salt	a5, a4, a12
    3d1f:	305350        	xor	a5, a3, a5
    3d22:	313f20        	srai	a3, a2, 31
    3d25:	b5cc           	bnez.n	a5, 3d34 <fn_noise_cancellation+0x204>
    3d27:	fd7c           	movi.n	a13, -1
    3d29:	fe7c           	movi.n	a14, -1
    3d2b:	41d1d0        	srli	a13, a13, 1
    3d2e:	01ee10        	slli	a14, a14, 31
    3d31:	000246        	j	3d3e <fn_noise_cancellation+0x20e>

00003d34 <fn_noise_cancellation+0x204>:
    3d34:	0e5d           	mov.n	a5, a14
    3d36:	41d1d0        	srli	a13, a13, 1
    3d39:	a35d40        	movltz	a5, a13, a4
    3d3c:	054d           	mov.n	a4, a5
    3d3e:	7272c0        	salt	a7, a2, a12
    3d41:	80a082        	movi	a8, 128
    3d44:	890c           	movi.n	a9, 8
    3d46:	4a0c           	movi.n	a10, 4
    3d48:	939870        	movnez	a9, a8, a7
    3d4b:	a077a0        	addx4	a7, a7, a10
    3d4e:	fb1c           	movi.n	a11, 31
    3d50:	a94a           	add.n	a10, a9, a4
    3d52:	30f7b0        	xor	a15, a7, a11
    3d55:	315f40        	srai	a5, a4, 31
    3d58:	62ba90        	saltu	a11, a10, a9
    3d5b:	55ba           	add.n	a5, a5, a11
    3d5d:	400700        	ssr	a7
    3d60:	b18050        	sra	a8, a5
    3d63:	401f00        	ssl	a15
    3d66:	1155f0        	slli	a5, a5, 1
    3d69:	a15500        	sll	a5, a5
    3d6c:	400700        	ssr	a7
    3d6f:	9170a0        	srl	a7, a10
    3d72:	205750        	or	a5, a7, a5
    3d75:	383a           	add.n	a3, a8, a3
    3d77:	852a           	add.n	a8, a5, a2
    3d79:	71b8           	l32i.n	a11, a1, 28
    3d7b:	625850        	saltu	a5, a8, a5
    3d7e:	335a           	add.n	a3, a3, a5
    3d80:	73a8e0        	maxu	a10, a8, a14
    3d83:	ff7c           	movi.n	a15, -1
    3d85:	531b           	addi.n	a5, a3, 1
    3d87:	a38e30        	movltz	a8, a14, a3
    3d8a:	838a50        	moveqz	a8, a10, a5
    3d8d:	5333f0        	max	a3, a3, a15
    3d90:	0dfd           	mov.n	a15, a13
    3d92:	0b48           	l32i.n	a4, a11, 0
    3d94:	a3f830        	movltz	a15, a8, a3
    3d97:	6328d0        	minu	a2, a8, a13
    3d9a:	932f30        	movnez	a2, a15, a3
    3d9d:	0b5d           	mov.n	a5, a11
    3d9f:	0d7d           	mov.n	a7, a13
    3da1:	1b29           	s32i.n	a2, a11, 4
    3da3:	6e24c7        	blt	a4, a12, 3e15 <fn_noise_cancellation+0x2e5>
    3da6:	030c           	movi.n	a3, 0
    3da8:	c05c40        	sub	a5, a12, a4
    3dab:	723340        	salt	a3, a3, a4
    3dae:	7275c0        	salt	a7, a5, a12
    3db1:	307370        	xor	a7, a3, a7
    3db4:	313f40        	srai	a3, a4, 31
    3db7:	b7cc           	bnez.n	a7, 3dc6 <fn_noise_cancellation+0x296>
    3db9:	f97c           	movi.n	a9, -1
    3dbb:	fa7c           	movi.n	a10, -1
    3dbd:	419190        	srli	a9, a9, 1
    3dc0:	01aa10        	slli	a10, a10, 31
    3dc3:	000406        	j	3dd7 <fn_noise_cancellation+0x2a7>

00003dc6 <fn_noise_cancellation+0x296>:
    3dc6:	fa7c           	movi.n	a10, -1
    3dc8:	f97c           	movi.n	a9, -1
    3dca:	01aa10        	slli	a10, a10, 31
    3dcd:	0a7d           	mov.n	a7, a10
    3dcf:	419190        	srli	a9, a9, 1
    3dd2:	a37950        	movltz	a7, a9, a5
    3dd5:	075d           	mov.n	a5, a7
    3dd7:	10c582        	addi	a8, a5, 16
    3dda:	317f50        	srai	a7, a5, 31
    3ddd:	625850        	saltu	a5, a8, a5
    3de0:	575a           	add.n	a5, a7, a5
    3de2:	017550        	slli	a7, a5, 27
    3de5:	418580        	srli	a8, a8, 5
    3de8:	787a           	add.n	a7, a8, a7
    3dea:	474a           	add.n	a4, a7, a4
    3dec:	215550        	srai	a5, a5, 5
    3def:	62d470        	saltu	a13, a4, a7
    3df2:	353a           	add.n	a3, a5, a3
    3df4:	33da           	add.n	a3, a3, a13
    3df6:	73e4a0        	maxu	a14, a4, a10
    3df9:	fc7c           	movi.n	a12, -1
    3dfb:	531b           	addi.n	a5, a3, 1
    3dfd:	a34a30        	movltz	a4, a10, a3
    3e00:	834e50        	moveqz	a4, a14, a5
    3e03:	5333c0        	max	a3, a3, a12
    3e06:	09fd           	mov.n	a15, a9
    3e08:	7158           	l32i.n	a5, a1, 28
    3e0a:	a3f430        	movltz	a15, a4, a3
    3e0d:	63c490        	minu	a12, a4, a9
    3e10:	93cf30        	movnez	a12, a15, a3
    3e13:	097d           	mov.n	a7, a9
    3e15:	13d532        	addmi	a3, a5, 0x1300
    3e18:	122332        	l32i	a3, a3, 72
    3e1b:	080c           	movi.n	a8, 0
    3e1d:	040c           	movi.n	a4, 0
    3e1f:	72f380        	salt	a15, a3, a8
    3e22:	323a           	add.n	a3, a2, a3
    3e24:	722320        	salt	a2, a3, a2
    3e27:	302f20        	xor	a2, a15, a2
    3e2a:	8149           	s32i.n	a4, a1, 32
    3e2c:	05c9           	s32i.n	a12, a5, 0
    3e2e:	828c           	beqz.n	a2, 3e3a <fn_noise_cancellation+0x30a>
    3e30:	f27c           	movi.n	a2, -1
    3e32:	012210        	slli	a2, a2, 31
    3e35:	a32730        	movltz	a2, a7, a3
    3e38:	023d           	mov.n	a3, a2
    3e3a:	c4a7f2        	movi	a15, 0x7c4
    3e3d:	7223c0        	salt	a2, a3, a12
    3e40:	13d5e2        	addmi	a14, a5, 0x1300
    3e43:	45fa           	add.n	a4, a5, a15
    3e45:	265e22        	s16i	a2, a14, 76
    3e48:	f0ad21        	l32r	a2, fc (3aa0 <dot_prod_q31>)
    3e4b:	b1c9           	s32i.n	a12, a1, 44
    3e4d:	f0a0c2        	movi	a12, 240
    3e50:	04ad           	mov.n	a10, a4
    3e52:	04bd           	mov.n	a11, a4
    3e54:	a139           	s32i.n	a3, a1, 40
    3e56:	0002e0        	callx8	a2
    3e59:	aabc           	beqz.n	a10, 3e97 <fn_noise_cancellation+0x367>
    3e5b:	13d522        	addmi	a2, a5, 0x1300
    3e5e:	279222        	l16si	a2, a2, 78
    3e61:	ffa032        	movi	a3, 255
    3e64:	40ea80        	nsa	a8, a10
    3e67:	112200        	slli	a2, a2, 16
    3e6a:	24a2a7        	bge	a2, a10, 3e92 <fn_noise_cancellation+0x362>
    3e6d:	88dd           	ae_sext16	a13, a8
    3e6f:	360234        	ae_cvtq48a32s	aeq0, a2
    3e72:	364a34        	ae_cvtq48a32s	aeq1, a10
    3e75:	f1cd22        	addi	a2, a13, -15
    3e78:	fc24fe8d0f 	{ ae_slaasq56s	aeq0, aeq0, a13; nop }
    3e7d:	fc00fe924f 	{ ae_slaasq56s	aeq1, aeq1, a2; ae_satq48s	aeq0, aeq0 }
    3e82:	fd04ff0eef 	{ ae_trunca32q48	a14, aeq0; ae_satq48s	aeq1, aeq1 }
    3e87:	369f04        	ae_trunca32q48	a15, aeq1
    3e8a:	d22ef0        	quos	a2, a14, a15
    3e8d:	a22d           	ae_clamps16	a2, a2
    3e8f:	000086        	j	3e95 <fn_noise_cancellation+0x365>

00003e92 <fn_noise_cancellation+0x362>:
    3e92:	7fd322        	addmi	a2, a3, 0x7f00
    3e95:	8129           	s32i.n	a2, a1, 32
    3e97:	8128           	l32i.n	a2, a1, 32
    3e99:	059d           	mov.n	a9, a5
    3e9b:	88a782        	movi	a8, 0x788
    3e9e:	823d           	ae_sext16	a3, a2
    3ea0:	31ff30        	srai	a15, a3, 31
    3ea3:	075d           	mov.n	a5, a7
    3ea5:	1173f0        	slli	a7, a3, 1
    3ea8:	021c           	movi.n	a2, 16
    3eaa:	398a           	add.n	a3, a9, a8
    3eac:	91f9           	s32i.n	a15, a1, 36
    3eae:	e1a8           	l32i.n	a10, a1, 56
    3eb0:	f09381        	l32r	a8, fc (3aa0 <dot_prod_q31>)
    3eb3:	f0a0c2        	movi	a12, 240
    3eb6:	03bd           	mov.n	a11, a3
    3eb8:	0008e0        	callx8	a8
    3ebb:	91e8           	l32i.n	a14, a1, 36
    3ebd:	a2d7a0        	muluh	a13, a7, a10
    3ec0:	31cfa0        	srai	a12, a10, 31
    3ec3:	82eea0        	mull	a14, a14, a10
    3ec6:	82a7a0        	mull	a10, a7, a10
    3ec9:	1f0c           	movi.n	a15, 1
    3ecb:	ddea           	add.n	a13, a13, a14
    3ecd:	11ef10        	slli	a14, a15, 15
    3ed0:	82c7c0        	mull	a12, a7, a12
    3ed3:	eaea           	add.n	a14, a10, a14
    3ed5:	62aea0        	saltu	a10, a14, a10
    3ed8:	ccda           	add.n	a12, a12, a13
    3eda:	acaa           	add.n	a10, a12, a10
    3edc:	f5e0e0        	extui	a14, a14, 16, 16
    3edf:	ff7c           	movi.n	a15, -1
    3ee1:	31c0a0        	srai	a12, a10, 16
    3ee4:	0bfae0        	depbits	a14, a10, 16, 16
    3ee7:	01ff10        	slli	a15, a15, 31
    3eea:	73def0        	maxu	a13, a14, a15
    3eed:	ac1b           	addi.n	a10, a12, 1
    3eef:	a3efc0        	movltz	a14, a15, a12
    3ef2:	83eda0        	moveqz	a14, a13, a10
    3ef5:	fd7c           	movi.n	a13, -1
    3ef7:	53acd0        	max	a10, a12, a13
    3efa:	05bd           	mov.n	a11, a5
    3efc:	0698           	l32i.n	a9, a6, 0
    3efe:	a3bea0        	movltz	a11, a14, a10
    3f01:	63ce50        	minu	a12, a14, a5
    3f04:	93cba0        	movnez	a12, a11, a10
    3f07:	0e0c           	movi.n	a14, 0
    3f09:	31bf90        	srai	a11, a9, 31
    3f0c:	43aae0        	min	a10, a10, a14
    3f0f:	9c9a           	add.n	a9, a12, a9
    3f11:	aaba           	add.n	a10, a10, a11
    3f13:	62c9c0        	saltu	a12, a9, a12
    3f16:	aaca           	add.n	a10, a10, a12
    3f18:	73e9f0        	maxu	a14, a9, a15
    3f1b:	ca1b           	addi.n	a12, a10, 1
    3f1d:	a39fa0        	movltz	a9, a15, a10
    3f20:	058d           	mov.n	a8, a5
    3f22:	839ec0        	moveqz	a9, a14, a12
    3f25:	53aad0        	max	a10, a10, a13
    3f28:	a389a0        	movltz	a8, a9, a10
    3f2b:	639950        	minu	a9, a9, a5
    3f2e:	9398a0        	movnez	a9, a8, a10
    3f31:	220b           	addi.n	a2, a2, -1
    3f33:	0699           	s32i.n	a9, a6, 0
    3f35:	334b           	addi.n	a3, a3, 4
    3f37:	664b           	addi.n	a6, a6, 4
    3f39:	f71256        	bnez	a2, 3eae <fn_noise_cancellation+0x37e>
    3f3c:	7158           	l32i.n	a5, a1, 28
    3f3e:	71a132        	movi	a3, 0x171
    3f41:	04a422        	movi	a2, 0x404
    3f44:	1133d0        	slli	a3, a3, 3
    3f47:	dfa162        	movi	a6, 0x1df
    3f4a:	252a           	add.n	a2, a5, a2
    3f4c:	353a           	add.n	a3, a5, a3
    3f4e:	205220        	or	a5, a2, a2
    3f51:	058676        	loop	a6, 3f5a <fn_noise_cancellation+0x42a>
    3f54:	601514        	ae_lq32f.iu	aeq0, a5, 4
    3f57:	624314        	ae_sq32f.iu	aeq0, a3, 4

00003f5a <fn_noise_cancellation+0x42a>:
    3f5a:	c1f8           	l32i.n	a15, a1, 48
    3f5c:	71b8           	l32i.n	a11, a1, 28
    3f5e:	e3a252        	movi	a5, 0x2e3
    3f61:	08a4a2        	movi	a10, 0x408
    3f64:	0f8d           	mov.n	a8, a15
    3f66:	1155e0        	slli	a5, a5, 2
    3f69:	fd24848b3e 	{ addi	a3, a11, 72; ae_zeroq56	aeq1 }
    3f6e:	abaa           	add.n	a10, a11, a10
    3f70:	060c           	movi.n	a6, 0
    3f72:	f0a072        	movi	a7, 240
    3f75:	78a092        	movi	a9, 120
    3f78:	601804        	ae_lq32f.iu	aeq0, a8, 0
    3f7b:	bb5a           	add.n	a11, a11, a5

00003f7d <fn_noise_cancellation+0x44d>:
    3f7d:	0acd           	mov.n	a12, a10
    3f7f:	04e060        	extui	a14, a6, 0, 1
    3f82:	03dd           	mov.n	a13, a3
    3f84:	93cbe0        	movnez	a12, a11, a14
    3f87:	5c8d04        	ae_lp24x2f.iu	aep0, a13, 0
    3f8a:	5c9c04        	ae_lp24x2f.iu	aep1, a12, 0
    3f8d:	078976        	loop	a9, 3f98 <fn_noise_cancellation+0x468>
    3f90:	e2206f8d1f 	{ ae_lp24x2f.iu	aep0, a13, 8; ae_mulaafp24s.hh.ll	aeq1, aep0, aep1 }
    3f95:	5c9c14        	ae_lp24x2f.iu	aep1, a12, 8

00003f98 <fn_noise_cancellation+0x468>:
    3f98:	fd2c40166e 	{ addi	a6, a6, 1; ae_roundsq32asym	aeq1, aeq1 }
    3f9d:	f826c04bbe 	{ addi	a11, a11, 4; ae_subq56	aeq0, aeq0, aeq1 }
    3fa2:	fc24404aae 	{ addi	a10, a10, 4; ae_roundsq32asym	aeq0, aeq0 }
    3fa7:	fd24b9c80f 	{ ae_sq32f.iu	aeq0, a8, 0; ae_zeroq56	aeq1 }
    3fac:	601814        	ae_lq32f.iu	aeq0, a8, 4
    3faf:	ca9677        	bne	a6, a7, 3f7d <fn_noise_cancellation+0x44d>
    3fb2:	b168           	l32i.n	a6, a1, 44
    3fb4:	a178           	l32i.n	a7, a1, 40
    3fb6:	7198           	l32i.n	a9, a1, 28
    3fb8:	08a482        	movi	a8, 0x408
    3fbb:	4f2767        	blt	a7, a6, 400e <fn_noise_cancellation+0x4de>
    3fbe:	8168           	l32i.n	a6, a1, 32
    3fc0:	300664        	ae_cvtp24a16x2.ll	aep0, a6, a6
    3fc3:	fd24bd130f 	{ ae_lq32f.iu	aeq0, a3, 0; ae_zeroq56	aeq1 }
    3fc8:	595a           	add.n	a5, a9, a5
    3fca:	898a           	add.n	a8, a9, a8
    3fcc:	060c           	movi.n	a6, 0
    3fce:	f0a072        	movi	a7, 240
    3fd1:	78a092        	movi	a9, 120

00003fd4 <fn_noise_cancellation+0x4a4>:
    3fd4:	04b060        	extui	a11, a6, 0, 1
    3fd7:	08ad           	mov.n	a10, a8
    3fd9:	93a5b0        	movnez	a10, a5, a11
    3fdc:	20bff0        	or	a11, a15, a15
    3fdf:	5c9b04        	ae_lp24x2f.iu	aep1, a11, 0
    3fe2:	5caa04        	ae_lp24x2f.iu	aep2, a10, 0
    3fe5:	078976        	loop	a9, 3ff0 <fn_noise_cancellation+0x4c0>
    3fe8:	e2446f9b1f 	{ ae_lp24x2f.iu	aep1, a11, 8; ae_mulaafp24s.hh.ll	aeq1, aep1, aep2 }
    3fed:	5caa14        	ae_lp24x2f.iu	aep2, a10, 8

00003ff0 <fn_noise_cancellation+0x4c0>:
    3ff0:	fd2c40166e 	{ addi	a6, a6, 1; ae_roundsq32asym	aeq1, aeq1 }
    3ff5:	d4e340455e 	{ addi	a5, a5, 4; ae_mulfq32sp16s.l	aeq1, aeq1, aep0 }
    3ffa:	04c882        	addi	a8, a8, 4
    3ffd:	065934        	ae_roundsq32asym	aeq1, aeq1
    4000:	0109c4        	ae_addq56	aeq0, aeq0, aeq1
    4003:	fd24b9c30f 	{ ae_sq32f.iu	aeq0, a3, 0; ae_zeroq56	aeq1 }
    4008:	601314        	ae_lq32f.iu	aeq0, a3, 4
    400b:	c59677        	bne	a6, a7, 3fd4 <fn_noise_cancellation+0x4a4>

0000400e <fn_noise_cancellation+0x4de>:
    400e:	efa032        	movi	a3, 239
    4011:	058376        	loop	a3, 401a <fn_noise_cancellation+0x4ea>
    4014:	601414        	ae_lq32f.iu	aeq0, a4, 4
    4017:	624214        	ae_sq32f.iu	aeq0, a2, 4

0000401a <fn_noise_cancellation+0x4ea>:
    401a:	f01d           	retw.n

0000401c <fn_gen_noise_fd_frame>:
    401c:	004136        	entry	a1, 32
    401f:	048d           	mov.n	a8, a4
    4021:	f1a3f2        	movi	a15, 0x3f1
    4024:	01a152        	movi	a5, 0x101
    4027:	e67c           	movi.n	a6, -2
    4029:	b04ff0        	addx8	a4, a15, a15
    402c:	fcc872        	addi	a7, a8, -4

0000402f <fn_gen_noise_fd_frame+0x13>:
    402f:	0388           	l32i.n	a8, a3, 0
    4031:	a81b           	addi.n	a10, a8, 1
    4033:	059f80        	extui	a9, a8, 31, 1
    4036:	628a80        	saltu	a8, a10, a8
    4039:	41a1a0        	srli	a10, a10, 1
    403c:	898a           	add.n	a8, a9, a8
    403e:	fb08a0        	depbits	a10, a8, 31, 1
    4041:	f02281        	l32r	a8, cc (c44 <fxsqrt_ie>)
    4044:	0008e0        	callx8	a8
    4047:	228d           	ae_l16si.n	a8, a2, 0
    4049:	75a0f2        	movi	a15, 117
    404c:	9a9d           	ae_zext16	a9, a10
    404e:	bbdfa2        	addmi	a10, a15, 0xffffbb00
    4051:	82a8a0        	mull	a10, a8, a10
    4054:	300994        	ae_cvtp24a16x2.ll	aep0, a9, a9
    4057:	301aa4        	ae_cvtp24a16x2.ll	aep1, a10, a10
    405a:	ea070ff55e 	{ addi	a5, a5, -1; ae_mulfs32p16s.ll	aeq0, aep1, aep0 }
    405f:	828840        	mull	a8, a8, a4
    4062:	307884        	ae_cvtp24a16x2.ll	aep7, a8, a8
    4065:	eb1f7e860f 	{ ae_slaasq56s	aeq0, aeq0, a6; ae_mulfs32p16s.ll	aeq3, aep7, aep0 }
    406a:	fc2440433e 	{ addi	a3, a3, 4; ae_roundsq32asym	aeq0, aeq0 }
    406f:	624714        	ae_sq32f.iu	aeq0, a7, 4
    4072:	fc24feb60f 	{ ae_slaasq56s	aeq0, aeq3, a6; nop }
    4077:	060934        	ae_roundsq32asym	aeq0, aeq0
    407a:	624714        	ae_sq32f.iu	aeq0, a7, 4
    407d:	628d           	ae_s16i.n	a8, a2, 0
    407f:	fac556        	bnez	a5, 402f <fn_gen_noise_fd_frame+0x13>
    4082:	f01d           	retw.n

00004084 <fn_get_airdump>:
    4084:	004136        	entry	a1, 32
    4087:	50d242        	addmi	a4, a2, 0x5000
    408a:	162452        	l32i	a5, a4, 88
    408d:	172442        	l32i	a4, a4, 92
    4090:	635d           	ae_s16i.n	a5, a3, 0
    4092:	315050        	srai	a5, a5, 16
    4095:	025342        	s16i	a4, a3, 4
    4098:	314040        	srai	a4, a4, 16
    409b:	735d           	ae_s16i.n	a5, a3, 2
    409d:	4bd2e2        	addmi	a14, a2, 0x4b00
    40a0:	035342        	s16i	a4, a3, 6
    40a3:	699e42        	l16si	a4, a14, 210
    40a6:	045342        	s16i	a4, a3, 8
    40a9:	689e22        	l16si	a2, a14, 208
    40ac:	055322        	s16i	a2, a3, 10
    40af:	f01d           	retw.n

000040b1 <fn_get_airdump+0x2d>:
    40b1:	000000                                        ...

000040b4 <fn_ini_inear_ast_nr>:
    40b4:	02c136        	entry	a1, 0x160
    40b7:	c9a0c2        	movi	a12, 201
    40ba:	156162        	s32i	a6, a1, 84
    40bd:	056d           	mov.n	a6, a5
    40bf:	efee51        	l32r	a5, 78 (90e4 <xt_memset>)
    40c2:	11cca0        	slli	a12, a12, 6
    40c5:	0b0c           	movi.n	a11, 0
    40c7:	02ad           	mov.n	a10, a2
    40c9:	146142        	s32i	a4, a1, 80
    40cc:	0005e0        	callx8	a5
    40cf:	01d1a2        	addmi	a10, a1, 0x100
    40d2:	efd571        	l32r	a7, 28 (90f8 <xt_memcpy>)
    40d5:	98caa2        	addi	a10, a10, -104
    40d8:	6c0c           	movi.n	a12, 6
    40da:	03bd           	mov.n	a11, a3
    40dc:	1e61a2        	s32i	a10, a1, 120
    40df:	0007e0        	callx8	a7
    40e2:	01d1a2        	addmi	a10, a1, 0x100
    40e5:	8ccaa2        	addi	a10, a10, -116
    40e8:	b3cb           	addi.n	a11, a3, 12
    40ea:	6c0c           	movi.n	a12, 6
    40ec:	1d61a2        	s32i	a10, a1, 116
    40ef:	0007e0        	callx8	a7
    40f2:	01d1a2        	addmi	a10, a1, 0x100
    40f5:	10a142        	movi	a4, 0x110
    40f8:	80caa2        	addi	a10, a10, -128
    40fb:	b34a           	add.n	a11, a3, a4
    40fd:	6c0c           	movi.n	a12, 6
    40ff:	1c61a2        	s32i	a10, a1, 112
    4102:	0007e0        	callx8	a7
    4105:	01d1a2        	addmi	a10, a1, 0x100
    4108:	18caa2        	addi	a10, a10, 24
    410b:	58c3b2        	addi	a11, a3, 88
    410e:	4c1c           	movi.n	a12, 20
    4110:	1661a2        	s32i	a10, a1, 88
    4113:	0007e0        	callx8	a7
    4116:	01d1a2        	addmi	a10, a1, 0x100
    4119:	80a042        	movi	a4, 128
    411c:	f0caa2        	addi	a10, a10, -16
    411f:	b34a           	add.n	a11, a3, a4
    4121:	4c1c           	movi.n	a12, 20
    4123:	1a61a2        	s32i	a10, a1, 104
    4126:	0007e0        	callx8	a7
    4129:	01d1a2        	addmi	a10, a1, 0x100
    412c:	a8a042        	movi	a4, 168
    412f:	bccaa2        	addi	a10, a10, -68
    4132:	b34a           	add.n	a11, a3, a4
    4134:	cc0c           	movi.n	a12, 12
    4136:	1f61a2        	s32i	a10, a1, 124
    4139:	0007e0        	callx8	a7
    413c:	01d1a2        	addmi	a10, a1, 0x100
    413f:	c0a042        	movi	a4, 192
    4142:	a4caa2        	addi	a10, a10, -92
    4145:	b34a           	add.n	a11, a3, a4
    4147:	cc0c           	movi.n	a12, 12
    4149:	1b61a2        	s32i	a10, a1, 108
    414c:	0007e0        	callx8	a7
    414f:	1cc1a2        	addi	a10, a1, 28
    4152:	18c3b2        	addi	a11, a3, 24
    4155:	8c1c           	movi.n	a12, 24
    4157:	1761a2        	s32i	a10, a1, 92
    415a:	0007e0        	callx8	a7
    415d:	01d1a2        	addmi	a10, a1, 0x100
    4160:	e8a042        	movi	a4, 232
    4163:	d4caa2        	addi	a10, a10, -44
    4166:	b34a           	add.n	a11, a3, a4
    4168:	ec0c           	movi.n	a12, 14
    416a:	1861a2        	s32i	a10, a1, 96
    416d:	0007e0        	callx8	a7
    4170:	04a142        	movi	a4, 0x104
    4173:	10c1a2        	addi	a10, a1, 16
    4176:	b34a           	add.n	a11, a3, a4
    4178:	6c0c           	movi.n	a12, 6
    417a:	1961a2        	s32i	a10, a1, 100
    417d:	0007e0        	callx8	a7
    4180:	78a492        	movi	a9, 0x478
    4183:	64d242        	addmi	a4, a2, 0x6400
    4186:	180c           	movi.n	a8, 1
    4188:	48c3b2        	addi	a11, a3, 72
    418b:	a29a           	add.n	a10, a2, a9
    418d:	7c0c           	movi.n	a12, 7
    418f:	3d5482        	s16i	a8, a4, 122
    4192:	0007e0        	callx8	a7
    4195:	86a442        	movi	a4, 0x486
    4198:	d8a082        	movi	a8, 216
    419b:	a24a           	add.n	a10, a2, a4
    419d:	b38a           	add.n	a11, a3, a8
    419f:	8c0c           	movi.n	a12, 8
    41a1:	0007e0        	callx8	a7
    41a4:	8f9342        	l16si	a4, a3, 0x11e
    41a7:	04d282        	addmi	a8, a2, 0x400
    41aa:	4b5842        	s16i	a4, a8, 150
    41ad:	4823e2        	l32i	a14, a3, 0x120
    41b0:	2668e2        	s32i	a14, a8, 152
    41b3:	04d242        	addmi	a4, a2, 0x400
    41b6:	8e93f2        	l16si	a15, a3, 0x11c
    41b9:	b66b           	addi.n	a11, a6, 6
    41bb:	fea0c2        	movi	a12, 254
    41be:	02ad           	mov.n	a10, a2
    41c0:	1551f2        	s16i	a15, a1, 42
    41c3:	0007e0        	callx8	a7
    41c6:	142162        	l32i	a6, a1, 80
    41c9:	fca132        	movi	a3, 0x1fc
    41cc:	a23a           	add.n	a10, a2, a3
    41ce:	b66b           	addi.n	a11, a6, 6
    41d0:	fea0c2        	movi	a12, 254
    41d3:	0007e0        	callx8	a7
    41d6:	152162        	l32i	a6, a1, 84
    41d9:	f8a332        	movi	a3, 0x3f8
    41dc:	a23a           	add.n	a10, a2, a3
    41de:	b62b           	addi.n	a11, a6, 2
    41e0:	0c4c           	movi.n	a12, 64
    41e2:	0007e0        	callx8	a7
    41e5:	c9a082        	movi	a8, 201
    41e8:	64d232        	addmi	a3, a2, 0x6400
    41eb:	64a062        	movi	a6, 100
    41ee:	97a4e2        	movi	a14, 0x497
    41f1:	118890        	slli	a8, a8, 7
    41f4:	3a5362        	s16i	a6, a3, 116
    41f7:	113eb0        	slli	a3, a14, 5
    41fa:	a8a4f2        	movi	a15, 0x4a8
    41fd:	828a           	add.n	a8, a2, a8
    41ff:	623a           	add.n	a6, a2, a3
    4201:	a2fa           	add.n	a10, a2, a15
    4203:	0b0c           	movi.n	a11, 0
    4205:	c8a3c2        	movi	a12, 0x3c8
    4208:	136142        	s32i	a4, a1, 76
    420b:	276482        	s32i	a8, a4, 156
    420e:	286462        	s32i	a6, a4, 160
    4211:	054d           	mov.n	a4, a5
    4213:	0005e0        	callx8	a5
    4216:	87a182        	movi	a8, 0x187
    4219:	1188d0        	slli	a8, a8, 3
    421c:	0cd232        	addmi	a3, a2, 0xc00
    421f:	a28a           	add.n	a10, a2, a8
    4221:	0b0c           	movi.n	a11, 0
    4223:	c8a3c2        	movi	a12, 0x3c8
    4226:	c369           	s32i.n	a6, a3, 48
    4228:	0005e0        	callx8	a5
    422b:	79a282        	movi	a8, 0x279
    422e:	1188d0        	slli	a8, a8, 3
    4231:	13d232        	addmi	a3, a2, 0x1300
    4234:	a28a           	add.n	a10, a2, a8
    4236:	0b0c           	movi.n	a11, 0
    4238:	c8a3c2        	movi	a12, 0x3c8
    423b:	306362        	s32i	a6, a3, 192
    423e:	0005e0        	callx8	a5
    4241:	6ba382        	movi	a8, 0x36b
    4244:	1188d0        	slli	a8, a8, 3
    4247:	1bd232        	addmi	a3, a2, 0x1b00
    424a:	a28a           	add.n	a10, a2, a8
    424c:	0b0c           	movi.n	a11, 0
    424e:	e8a1c2        	movi	a12, 0x1e8
    4251:	146362        	s32i	a6, a3, 80
    4254:	0005e0        	callx8	a5
    4257:	e5a382        	movi	a8, 0x3e5
    425a:	1188d0        	slli	a8, a8, 3
    425d:	1fd232        	addmi	a3, a2, 0x1f00
    4260:	a28a           	add.n	a10, a2, a8
    4262:	0b0c           	movi.n	a11, 0
    4264:	e8a1c2        	movi	a12, 0x1e8
    4267:	8369           	s32i.n	a6, a3, 32
    4269:	0005e0        	callx8	a5
    426c:	5da282        	movi	a8, 0x25d
    426f:	22d232        	addmi	a3, a2, 0x2200
    4272:	1188b0        	slli	a8, a8, 5
    4275:	3c6362        	s32i	a6, a3, 240
    4278:	efa231        	l32r	a3, 100 (2630 <fn_ini_win_detection>)
    427b:	1721b2        	l32i	a11, a1, 92
    427e:	a28a           	add.n	a10, a2, a8
    4280:	06cd           	mov.n	a12, a6
    4282:	0003e0        	callx8	a3
    4285:	68a032        	movi	a3, 104
    4288:	50d332        	addmi	a3, a3, 0x5000
    428b:	323a           	add.n	a3, a2, a3
    428d:	0b0c           	movi.n	a11, 0
    428f:	2c1c           	movi.n	a12, 18
    4291:	03ad           	mov.n	a10, a3
    4293:	0005e0        	callx8	a5
    4296:	1821b2        	l32i	a11, a1, 96
    4299:	ec0c           	movi.n	a12, 14
    429b:	03ad           	mov.n	a10, a3
    429d:	0007e0        	callx8	a7
    42a0:	8ca052        	movi	a5, 140
    42a3:	50d232        	addmi	a3, a2, 0x5000
    42a6:	50d552        	addmi	a5, a5, 0x5000
    42a9:	226362        	s32i	a6, a3, 136
    42ac:	325a           	add.n	a3, a2, a5
    42ae:	0b0c           	movi.n	a11, 0
    42b0:	9c0c           	movi.n	a12, 9
    42b2:	03ad           	mov.n	a10, a3
    42b4:	0004e0        	callx8	a4
    42b7:	1921b2        	l32i	a11, a1, 100
    42ba:	6c0c           	movi.n	a12, 6
    42bc:	03ad           	mov.n	a10, a3
    42be:	0007e0        	callx8	a7
    42c1:	099132        	l16si	a3, a1, 18
    42c4:	9aa152        	movi	a5, 0x19a
    42c7:	50d272        	addmi	a7, a2, 0x5000
    42ca:	335a           	add.n	a3, a3, a5
    42cc:	5fa4f2        	movi	a15, 0x45f
    42cf:	115fd0        	slli	a5, a15, 3
    42d2:	4d5732        	s16i	a3, a7, 154
    42d5:	ef8b31        	l32r	a3, 104 (1de0 <fn_ini_calc_sup_gain>)
    42d8:	1e21b2        	l32i	a11, a1, 120
    42db:	a25a           	add.n	a10, a2, a5
    42dd:	06cd           	mov.n	a12, a6
    42df:	0003e0        	callx8	a3
    42e2:	94a552        	movi	a5, 0x594
    42e5:	f05550        	subx8	a5, a5, a5
    42e8:	1d21b2        	l32i	a11, a1, 116
    42eb:	a25a           	add.n	a10, a2, a5
    42ed:	06cd           	mov.n	a12, a6
    42ef:	0003e0        	callx8	a3
    42f2:	59a152        	movi	a5, 0x159
    42f5:	1155b0        	slli	a5, a5, 5
    42f8:	1c21b2        	l32i	a11, a1, 112
    42fb:	a25a           	add.n	a10, a2, a5
    42fd:	06cd           	mov.n	a12, a6
    42ff:	0003e0        	callx8	a3
    4302:	5fa332        	movi	a3, 0x35f
    4305:	1133c0        	slli	a3, a3, 4
    4308:	a23a           	add.n	a10, a2, a3
    430a:	ef7f31        	l32r	a3, 108 (1254 <fn_ini_st_noise_est>)
    430d:	1a21b2        	l32i	a11, a1, 104
    4310:	0003e0        	callx8	a3
    4313:	162172        	l32i	a7, a1, 88
    4316:	453c           	movi.n	a5, 52
    4318:	2fd552        	addmi	a5, a5, 0x2f00
    431b:	a25a           	add.n	a10, a2, a5
    431d:	07bd           	mov.n	a11, a7
    431f:	0003e0        	callx8	a3
    4322:	aca052        	movi	a5, 172
    4325:	3cd552        	addmi	a5, a5, 0x3c00
    4328:	a25a           	add.n	a10, a2, a5
    432a:	07bd           	mov.n	a11, a7
    432c:	0003e0        	callx8	a3
    432f:	84a032        	movi	a3, 132
    4332:	47d332        	addmi	a3, a3, 0x4700
    4335:	a23a           	add.n	a10, a2, a3
    4337:	ef7531        	l32r	a3, 10c (1170 <fn_ini_fb_noise_est>)
    433a:	1b21b2        	l32i	a11, a1, 108
    433d:	0003e0        	callx8	a3
    4340:	68a052        	movi	a5, 104
    4343:	43d552        	addmi	a5, a5, 0x4300
    4346:	1f21b2        	l32i	a11, a1, 124
    4349:	a25a           	add.n	a10, a2, a5
    434b:	0003e0        	callx8	a3
    434e:	85a232        	movi	a3, 0x285
    4351:	1133b0        	slli	a3, a3, 5
    4354:	a23a           	add.n	a10, a2, a3
    4356:	0b0c           	movi.n	a11, 0
    4358:	ac3c           	movi.n	a12, 58
    435a:	045d           	mov.n	a5, a4
    435c:	0004e0        	callx8	a4
    435f:	132142        	l32i	a4, a1, 76
    4362:	831c           	movi.n	a3, 24
    4364:	6ba2c2        	movi	a12, 0x26b
    4367:	51d332        	addmi	a3, a3, 0x5100
    436a:	4c9442        	l16si	a4, a4, 152
    436d:	a23a           	add.n	a10, a2, a3
    436f:	11cce0        	slli	a12, a12, 2
    4372:	0b0c           	movi.n	a11, 0
    4374:	0005e0        	callx8	a5
    4377:	64d232        	addmi	a3, a2, 0x6400
    437a:	48a152        	movi	a5, 0x148
    437d:	ef64f1        	l32r	a15, 110 (13333333 <_end+0x133244cf>)
    4380:	335352        	s16i	a5, a3, 102
    4383:	345342        	s16i	a4, a3, 104
    4386:	1b6362        	s32i	a6, a3, 108
    4389:	1863f2        	s32i	a15, a3, 96
    438c:	f01d           	retw.n

0000438e <fn_ini_inear_ast_nr+0x2da>:
	...

00004390 <inear_ast_nr_proc>:
    4390:	010136        	entry	a1, 128
    4393:	106172        	s32i	a7, a1, 64
    4396:	04d272        	addmi	a7, a2, 0x400
    4399:	81a0c2        	movi	a12, 129
    439c:	166152        	s32i	a5, a1, 88
    439f:	115cc0        	slli	a5, a12, 4
    43a2:	2727c2        	l32i	a12, a7, 156
    43a5:	4117f2        	l16ui	a15, a7, 130
    43a8:	a8a4e2        	movi	a14, 0x4a8
    43ab:	03bd           	mov.n	a11, a3
    43ad:	85a282        	movi	a8, 0x285
    43b0:	a2ea           	add.n	a10, a2, a14
    43b2:	1e0c           	movi.n	a14, 1
    43b4:	85a2d2        	movi	a13, 0x285
    43b7:	ef5731        	l32r	a3, 114 (1764 <fn_analysis_frame>)
    43ba:	6199           	s32i.n	a9, a1, 24
    43bc:	119dc0        	slli	a9, a13, 4
    43bf:	1188d0        	slli	a8, a8, 3
    43c2:	04d0f0        	extui	a13, a15, 0, 1
    43c5:	11ee50        	slli	a14, a14, 11
    43c8:	176162        	s32i	a6, a1, 92
    43cb:	3149           	s32i.n	a4, a1, 12
    43cd:	6c5a           	add.n	a6, a12, a5
    43cf:	4c8a           	add.n	a4, a12, a8
    43d1:	5c9a           	add.n	a5, a12, a9
    43d3:	e1b9           	s32i.n	a11, a1, 56
    43d5:	71c9           	s32i.n	a12, a1, 28
    43d7:	0003e0        	callx8	a3
    43da:	419732        	l16si	a3, a7, 130
    43dd:	4179           	s32i.n	a7, a1, 16
    43df:	b149           	s32i.n	a4, a1, 44
    43e1:	1ae3c7        	bbsi	a3, 12, 43ff <inear_ast_nr_proc+0x6f>
    43e4:	04d282        	addmi	a8, a2, 0x400
    43e7:	87a192        	movi	a9, 0x187
    43ea:	31b8           	l32i.n	a11, a1, 12
    43ec:	461882        	l16ui	a8, a8, 140
    43ef:	1199d0        	slli	a9, a9, 3
    43f2:	04d030        	extui	a13, a3, 0, 1
    43f5:	a29a           	add.n	a10, a2, a9
    43f7:	52e337        	bbsi	a3, 3, 444d <inear_ast_nr_proc+0xbd>
    43fa:	88ed           	ae_sext16	a14, a8
    43fc:	001486        	j	4452 <inear_ast_nr_proc+0xc2>

000043ff <inear_ast_nr_proc+0x6f>:
    43ff:	831c           	movi.n	a3, 24
    4401:	51d332        	addmi	a3, a3, 0x5100
    4404:	a23a           	add.n	a10, a2, a3
    4406:	ef4431        	l32r	a3, 118 (3b30 <fn_noise_cancellation>)
    4409:	e1b8           	l32i.n	a11, a1, 56
    440b:	31c8           	l32i.n	a12, a1, 12
    440d:	04dd           	mov.n	a13, a4
    440f:	0003e0        	callx8	a3
    4412:	41b8           	l32i.n	a11, a1, 16
    4414:	04d232        	addmi	a3, a2, 0x400
    4417:	87a1a2        	movi	a10, 0x187
    441a:	411b82        	l16ui	a8, a11, 130
    441d:	461392        	l16ui	a9, a3, 140
    4420:	11aad0        	slli	a10, a10, 3
    4423:	a2aa           	add.n	a10, a2, a10
    4425:	04d080        	extui	a13, a8, 0, 1
    4428:	33e837        	bbsi	a8, 3, 445f <inear_ast_nr_proc+0xcf>
    442b:	0b7d           	mov.n	a7, a11
    442d:	31b8           	l32i.n	a11, a1, 12
    442f:	ef3981        	l32r	a8, 114 (1764 <fn_analysis_frame>)
    4432:	89ed           	ae_sext16	a14, a9
    4434:	05cd           	mov.n	a12, a5
    4436:	0008e0        	callx8	a8
    4439:	411792        	l16ui	a9, a7, 130
    443c:	79a282        	movi	a8, 0x279
    443f:	4693e2        	l16si	a14, a3, 140
    4442:	1188d0        	slli	a8, a8, 3
    4445:	a28a           	add.n	a10, a2, a8
    4447:	04d090        	extui	a13, a9, 0, 1
    444a:	000e06        	j	4486 <inear_ast_nr_proc+0xf6>

0000444d <inear_ast_nr_proc+0xbd>:
    444d:	603080        	neg	a3, a8
    4450:	83ed           	ae_sext16	a14, a3
    4452:	ef3031        	l32r	a3, 114 (1764 <fn_analysis_frame>)
    4455:	06cd           	mov.n	a12, a6
    4457:	0003e0        	callx8	a3
    445a:	5169           	s32i.n	a6, a1, 20
    445c:	000c86        	j	4492 <inear_ast_nr_proc+0x102>

0000445f <inear_ast_nr_proc+0xcf>:
    445f:	609090        	neg	a9, a9
    4462:	0b7d           	mov.n	a7, a11
    4464:	31b8           	l32i.n	a11, a1, 12
    4466:	ef2b81        	l32r	a8, 114 (1764 <fn_analysis_frame>)
    4469:	89ed           	ae_sext16	a14, a9
    446b:	05cd           	mov.n	a12, a5
    446d:	0008e0        	callx8	a8
    4470:	469332        	l16si	a3, a3, 140
    4473:	411792        	l16ui	a9, a7, 130
    4476:	79a282        	movi	a8, 0x279
    4479:	1188d0        	slli	a8, a8, 3
    447c:	603030        	neg	a3, a3
    447f:	a28a           	add.n	a10, a2, a8
    4481:	04d090        	extui	a13, a9, 0, 1
    4484:	83ed           	ae_sext16	a14, a3
    4486:	ef2531        	l32r	a3, 11c (18a0 <fn_analysis_frame_32>)
    4489:	04bd           	mov.n	a11, a4
    448b:	06cd           	mov.n	a12, a6
    448d:	0003e0        	callx8	a3
    4490:	5159           	s32i.n	a5, a1, 20
    4492:	71a8           	l32i.n	a10, a1, 28
    4494:	81a0f2        	movi	a15, 129
    4497:	87a3d2        	movi	a13, 0x387
    449a:	83a1e2        	movi	a14, 0x183
    449d:	11ffb0        	slli	a15, a15, 5
    44a0:	fafa           	add.n	a15, a10, a15
    44a2:	11ddd0        	slli	a13, a13, 3
    44a5:	11eec0        	slli	a14, a14, 4
    44a8:	8ba572        	movi	a7, 0x58b
    44ab:	81a0c2        	movi	a12, 129
    44ae:	31f9           	s32i.n	a15, a1, 12
    44b0:	faea           	add.n	a15, a10, a14
    44b2:	eada           	add.n	a14, a10, a13
    44b4:	6148           	l32i.n	a4, a1, 24
    44b6:	0ca682        	movi	a8, 0x60c
    44b9:	89a492        	movi	a9, 0x489
    44bc:	1177d0        	slli	a7, a7, 3
    44bf:	f1e9           	s32i.n	a14, a1, 60
    44c1:	11cca0        	slli	a12, a12, 6
    44c4:	07a4e2        	movi	a14, 0x407
    44c7:	1199d0        	slli	a9, a9, 3
    44ca:	da7a           	add.n	a13, a10, a7
    44cc:	117ee0        	slli	a7, a14, 2
    44cf:	202142        	l32i	a4, a1, 128
    44d2:	61f9           	s32i.n	a15, a1, 24
    44d4:	faca           	add.n	a15, a10, a12
    44d6:	f08880        	subx8	a8, a8, a8
    44d9:	2221b2        	l32i	a11, a1, 136
    44dc:	212132        	l32i	a3, a1, 132
    44df:	c149           	s32i.n	a4, a1, 48
    44e1:	0a4d           	mov.n	a4, a10
    44e3:	81f9           	s32i.n	a15, a1, 32
    44e5:	9a9a           	add.n	a9, a10, a9
    44e7:	ca8a           	add.n	a12, a10, a8
    44e9:	7a7a           	add.n	a7, a10, a7
    44eb:	01a1f2        	movi	a15, 0x101
    44ee:	d199           	s32i.n	a9, a1, 52
    44f0:	a1c9           	s32i.n	a12, a1, 40
    44f2:	91d9           	s32i.n	a13, a1, 36
    44f4:	5c8404        	ae_lp24x2f.iu	aep0, a4, 0
    44f7:	078d           	mov.n	a8, a7
    44f9:	118f76        	loop	a15, 450e <inear_ast_nr_proc+0x17e>
    44fc:	040004        	ae_mulzaafp24s.hh.ll	aeq0, aep0, aep0
    44ff:	360114        	ae_sllisq56s	aeq0, aeq0, 4
    4502:	060844        	ae_satq48s	aeq0, aeq0
    4505:	060934        	ae_roundsq32asym	aeq0, aeq0
    4508:	624814        	ae_sq32f.iu	aeq0, a8, 4
    450b:	5c8414        	ae_lp24x2f.iu	aep0, a4, 8

0000450e <inear_ast_nr_proc+0x17e>:
    450e:	1021c2        	l32i	a12, a1, 64
    4511:	2b4d           	ae_l16si.n	a4, a11, 0
    4513:	049b82        	l16si	a8, a11, 8
    4516:	330b           	addi.n	a3, a3, -1
    4518:	190c           	movi.n	a9, 1
    451a:	8f0c           	movi.n	a15, 8
    451c:	623390        	saltu	a3, a3, a9
    451f:	729cf0        	salt	a9, a12, a15
    4522:	103930        	and	a3, a9, a3
    4525:	439480        	min	a9, a4, a8
    4528:	156132        	s32i	a3, a1, 84
    452b:	021326        	beqi	a3, 1, 4531 <inear_ast_nr_proc+0x1a1>
    452e:	002106        	j	45b6 <inear_ast_nr_proc+0x226>
    4531:	203660        	or	a3, a6, a6
    4534:	37a042        	movi	a4, 55
    4537:	301994        	ae_cvtp24a16x2.ll	aep1, a9, a9
    453a:	5c8304        	ae_lp24x2f.iu	aep0, a3, 0
    453d:	148476        	loop	a4, 4555 <inear_ast_nr_proc+0x1c5>
    4540:	010154        	ae_mulfp24s.hl	aeq0, aep0, aep1
    4543:	010974        	ae_mulfp24s.ll	aeq1, aep0, aep1
    4546:	1b8d74        	ae_roundsp24q48asym	aep7, aeq0
    4549:	1b9d24        	ae_roundsp24q48asym	aep2, aeq1
    454c:	1afa84        	ae_selp24.hh	aep0, aep7, aep2
    454f:	5e8304        	ae_sp24x2f.iu	aep0, a3, 0
    4552:	5c8314        	ae_lp24x2f.iu	aep0, a3, 8
    4555:	051b42        	l16ui	a4, a11, 10
    4558:	d81c           	movi.n	a8, 29
    455a:	301444        	ae_cvtp24a16x2.ll	aep1, a4, a4
    455d:	148876        	loop	a8, 4575 <inear_ast_nr_proc+0x1e5>
    4560:	010154        	ae_mulfp24s.hl	aeq0, aep0, aep1
    4563:	010974        	ae_mulfp24s.ll	aeq1, aep0, aep1
    4566:	1b8d74        	ae_roundsp24q48asym	aep7, aeq0
    4569:	1b9d24        	ae_roundsp24q48asym	aep2, aeq1
    456c:	1afa84        	ae_selp24.hh	aep0, aep7, aep2
    456f:	5e8304        	ae_sp24x2f.iu	aep0, a3, 0
    4572:	5c8314        	ae_lp24x2f.iu	aep0, a3, 8
    4575:	061b42        	l16ui	a4, a11, 12
    4578:	c82c           	movi.n	a8, 44
    457a:	301444        	ae_cvtp24a16x2.ll	aep1, a4, a4
    457d:	148876        	loop	a8, 4595 <inear_ast_nr_proc+0x205>
    4580:	010154        	ae_mulfp24s.hl	aeq0, aep0, aep1
    4583:	010974        	ae_mulfp24s.ll	aeq1, aep0, aep1
    4586:	1b8d74        	ae_roundsp24q48asym	aep7, aeq0
    4589:	1b9d24        	ae_roundsp24q48asym	aep2, aeq1
    458c:	1afa84        	ae_selp24.hh	aep0, aep7, aep2
    458f:	5e8304        	ae_sp24x2f.iu	aep0, a3, 0
    4592:	5c8314        	ae_lp24x2f.iu	aep0, a3, 8
    4595:	071b42        	l16ui	a4, a11, 14
    4598:	81a082        	movi	a8, 129
    459b:	301444        	ae_cvtp24a16x2.ll	aep1, a4, a4
    459e:	148876        	loop	a8, 45b6 <inear_ast_nr_proc+0x226>
    45a1:	010154        	ae_mulfp24s.hl	aeq0, aep0, aep1
    45a4:	010974        	ae_mulfp24s.ll	aeq1, aep0, aep1
    45a7:	1b8d74        	ae_roundsp24q48asym	aep7, aeq0
    45aa:	1b9d24        	ae_roundsp24q48asym	aep2, aeq1
    45ad:	1afa84        	ae_selp24.hh	aep0, aep7, aep2
    45b0:	5e8304        	ae_sp24x2f.iu	aep0, a3, 0
    45b3:	5c8314        	ae_lp24x2f.iu	aep0, a3, 8

000045b6 <inear_ast_nr_proc+0x226>:
    45b6:	0ba642        	movi	a4, 0x60b
    45b9:	1144e0        	slli	a4, a4, 2
    45bc:	063d           	mov.n	a3, a6
    45be:	01a182        	movi	a8, 0x101
    45c1:	116192        	s32i	a9, a1, 68
    45c4:	1261b2        	s32i	a11, a1, 72
    45c7:	5c8304        	ae_lp24x2f.iu	aep0, a3, 0
    45ca:	804a40        	add	a4, a10, a4
    45cd:	118876        	loop	a8, 45e2 <inear_ast_nr_proc+0x252>
    45d0:	040004        	ae_mulzaafp24s.hh.ll	aeq0, aep0, aep0
    45d3:	360114        	ae_sllisq56s	aeq0, aeq0, 4
    45d6:	060844        	ae_satq48s	aeq0, aeq0
    45d9:	060934        	ae_roundsq32asym	aeq0, aeq0
    45dc:	624414        	ae_sq32f.iu	aeq0, a4, 4
    45df:	5c8314        	ae_lp24x2f.iu	aep0, a3, 8

000045e2 <inear_ast_nr_proc+0x252>:
    45e2:	5fa332        	movi	a3, 0x35f
    45e5:	1133c0        	slli	a3, a3, 4
    45e8:	eece41        	l32r	a4, 120 (12ac <fn_st_noise_est>)
    45eb:	61b8           	l32i.n	a11, a1, 24
    45ed:	d1c8           	l32i.n	a12, a1, 52
    45ef:	a23a           	add.n	a10, a2, a3
    45f1:	0004e0        	callx8	a4
    45f4:	433c           	movi.n	a3, 52
    45f6:	2fd332        	addmi	a3, a3, 0x2f00
    45f9:	31b8           	l32i.n	a11, a1, 12
    45fb:	81c8           	l32i.n	a12, a1, 32
    45fd:	a23a           	add.n	a10, a2, a3
    45ff:	0004e0        	callx8	a4
    4602:	71e8           	l32i.n	a14, a1, 28
    4604:	ca4c           	movi.n	a10, 76
    4606:	20daa2        	addmi	a10, a10, 0x2000
    4609:	f87c           	movi.n	a8, -1
    460b:	f97c           	movi.n	a9, -1
    460d:	64d232        	addmi	a3, a2, 0x6400
    4610:	040c           	movi.n	a4, 0
    4612:	db2c           	movi.n	a11, 45
    4614:	418180        	srli	a8, a8, 1
    4617:	019910        	slli	a9, a9, 31
    461a:	0c0c           	movi.n	a12, 0
    461c:	aeaa           	add.n	a10, a14, a10
    461e:	1c6342        	s32i	a4, a3, 112
    4621:	1c8b76        	loop	a11, 4641 <inear_ast_nr_proc+0x2b1>
    4624:	0ab8           	l32i.n	a11, a10, 0
    4626:	09fd           	mov.n	a15, a9
    4628:	72db40        	salt	a13, a11, a4
    462b:	bcba           	add.n	a11, a12, a11
    462d:	72cbc0        	salt	a12, a11, a12
    4630:	30cdc0        	xor	a12, a13, a12
    4633:	3c8c           	beqz.n	a12, 463a <inear_ast_nr_proc+0x2aa>
    4635:	a3f8b0        	movltz	a15, a8, a11
    4638:	0fbd           	mov.n	a11, a15

0000463a <inear_ast_nr_proc+0x2aa>:
    463a:	1c63b2        	s32i	a11, a3, 112
    463d:	aa4b           	addi.n	a10, a10, 4
    463f:	0bcd           	mov.n	a12, a11

00004641 <inear_ast_nr_proc+0x2b1>:
    4641:	04d2a2        	addmi	a10, a2, 0x400
    4644:	449a42        	l16si	a4, a10, 136
    4647:	102192        	l32i	a9, a1, 64
    464a:	76a082        	movi	a8, 118
    464d:	64d882        	addmi	a8, a8, 0x6400
    4650:	1461a2        	s32i	a10, a1, 80
    4653:	26a947        	bge	a9, a4, 467d <inear_ast_nr_proc+0x2ed>
    4656:	5da242        	movi	a4, 0x25d
    4659:	1144b0        	slli	a4, a4, 5
    465c:	f28a           	add.n	a15, a2, a8
    465e:	eeb181        	l32r	a8, 124 (266c <fn_win_detection>)
    4661:	51c8           	l32i.n	a12, a1, 20
    4663:	61d8           	l32i.n	a13, a1, 24
    4665:	a24a           	add.n	a10, a2, a4
    4667:	040c           	movi.n	a4, 0
    4669:	0ebd           	mov.n	a11, a14
    466b:	e18b           	addi.n	a14, a1, 8
    466d:	0149           	s32i.n	a4, a1, 0
    466f:	0008e0        	callx8	a8
    4672:	41a8           	l32i.n	a10, a1, 16
    4674:	64d282        	addmi	a8, a2, 0x6400
    4677:	3a5842        	s16i	a4, a8, 116
    467a:	001146        	j	46c3 <inear_ast_nr_proc+0x333>

0000467d <inear_ast_nr_proc+0x2ed>:
    467d:	64d242        	addmi	a4, a2, 0x6400
    4680:	3a94a2        	l16si	a10, a4, 116
    4683:	04d292        	addmi	a9, a2, 0x400
    4686:	459992        	l16si	a9, a9, 138
    4689:	aa1b           	addi.n	a10, a10, 1
    468b:	3a54a2        	s16i	a10, a4, 116
    468e:	8aad           	ae_sext16	a10, a10
    4690:	5da2f2        	movi	a15, 0x25d
    4693:	729a90        	salt	a9, a10, a9
    4696:	11afb0        	slli	a10, a15, 5
    4699:	1b0c           	movi.n	a11, 1
    469b:	f28a           	add.n	a15, a2, a8
    469d:	eea181        	l32r	a8, 124 (266c <fn_win_detection>)
    46a0:	51c8           	l32i.n	a12, a1, 20
    46a2:	61d8           	l32i.n	a13, a1, 24
    46a4:	3099b0        	xor	a9, a9, a11
    46a7:	0ebd           	mov.n	a11, a14
    46a9:	a2aa           	add.n	a10, a2, a10
    46ab:	e18b           	addi.n	a14, a1, 8
    46ad:	0199           	s32i.n	a9, a1, 0
    46af:	0008e0        	callx8	a8
    46b2:	3a9482        	l16si	a8, a4, 116
    46b5:	41a8           	l32i.n	a10, a1, 16
    46b7:	65a092        	movi	a9, 101
    46ba:	052897        	blt	a8, a9, 46c3 <inear_ast_nr_proc+0x333>
    46bd:	64a082        	movi	a8, 100
    46c0:	3a5482        	s16i	a8, a4, 116
    46c3:	3cd242        	addmi	a4, a2, 0x3c00
    46c6:	04d282        	addmi	a8, a2, 0x400
    46c9:	549442        	l16si	a4, a4, 168
    46cc:	429882        	l16si	a8, a8, 132
    46cf:	090c           	movi.n	a9, 0
    46d1:	02a487        	bge	a4, a8, 46d7 <inear_ast_nr_proc+0x347>
    46d4:	045192        	s16i	a9, a1, 8
    46d7:	830a42        	l8ui	a4, a10, 131
    46da:	8ca082        	movi	a8, 140
    46dd:	50d882        	addmi	a8, a8, 0x5000
    46e0:	026417        	bbci	a4, 1, 46e6 <inear_ast_nr_proc+0x356>
    46e3:	008b06        	j	4913 <inear_ast_nr_proc+0x583>
    46e6:	041192        	l16ui	a9, a1, 8
    46e9:	64d242        	addmi	a4, a2, 0x6400
    46ec:	080c           	movi.n	a8, 0
    46ee:	5199           	s32i.n	a9, a1, 20
    46f0:	3c5482        	s16i	a8, a4, 120
    46f3:	51f8           	l32i.n	a15, a1, 20
    46f5:	84a042        	movi	a4, 132
    46f8:	47d442        	addmi	a4, a4, 0x4700
    46fb:	a24a           	add.n	a10, a2, a4
    46fd:	c129           	s32i.n	a2, a1, 48
    46ff:	8f2d           	ae_sext16	a2, a15
    4701:	ee8941        	l32r	a4, 128 (11a0 <fn_fb_noise_est>)
    4704:	61b8           	l32i.n	a11, a1, 24
    4706:	f1d8           	l32i.n	a13, a1, 60
    4708:	02cd           	mov.n	a12, a2
    470a:	0004e0        	callx8	a4
    470d:	c198           	l32i.n	a9, a1, 48
    470f:	136122        	s32i	a2, a1, 76
    4712:	02cd           	mov.n	a12, a2
    4714:	b128           	l32i.n	a2, a1, 44
    4716:	68a082        	movi	a8, 104
    4719:	43d882        	addmi	a8, a8, 0x4300
    471c:	31b8           	l32i.n	a11, a1, 12
    471e:	a98a           	add.n	a10, a9, a8
    4720:	02dd           	mov.n	a13, a2
    4722:	0004e0        	callx8	a4
    4725:	f188           	l32i.n	a8, a1, 60
    4727:	d198           	l32i.n	a9, a1, 52
    4729:	81b8           	l32i.n	a11, a1, 32
    472b:	01a1c2        	movi	a12, 0x101
    472e:	00a142        	movi	a4, 0x100
    4731:	1f8c76        	loop	a12, 4754 <inear_ast_nr_proc+0x3c4>
    4734:	09d8           	l32i.n	a13, a9, 0
    4736:	08c8           	l32i.n	a12, a8, 0
    4738:	994b           	addi.n	a9, a9, 4
    473a:	53ccd0        	max	a12, a12, a13
    473d:	53cc40        	max	a12, a12, a4
    4740:	08c9           	s32i.n	a12, a8, 0
    4742:	0bf8           	l32i.n	a15, a11, 0
    4744:	02c8           	l32i.n	a12, a2, 0
    4746:	884b           	addi.n	a8, a8, 4
    4748:	bb4b           	addi.n	a11, a11, 4
    474a:	53ccf0        	max	a12, a12, a15
    474d:	53cc40        	max	a12, a12, a4
    4750:	02c9           	s32i.n	a12, a2, 0
    4752:	224b           	addi.n	a2, a2, 4

00004754 <inear_ast_nr_proc+0x3c4>:
    4754:	4148           	l32i.n	a4, a1, 16
    4756:	c128           	l32i.n	a2, a1, 48
    4758:	85a292        	movi	a9, 0x285
    475b:	411482        	l16ui	a8, a4, 130
    475e:	1149b0        	slli	a4, a9, 5
    4761:	04d2b2        	addmi	a11, a2, 0x400
    4764:	1568a7        	bbci	a8, 10, 477d <inear_ast_nr_proc+0x3ed>
    4767:	a24a           	add.n	a10, a2, a4
    4769:	4b9be2        	l16si	a14, a11, 150
    476c:	ee7241        	l32r	a4, 134 (372c <fn_over_subtract>)
    476f:	e1b8           	l32i.n	a11, a1, 56
    4771:	31c8           	l32i.n	a12, a1, 12
    4773:	b1d8           	l32i.n	a13, a1, 44
    4775:	0004e0        	callx8	a4
    4778:	4148           	l32i.n	a4, a1, 16
    477a:	411482        	l16ui	a8, a4, 130

0000477d <inear_ast_nr_proc+0x3ed>:
    477d:	5198           	l32i.n	a9, a1, 20
    477f:	040c           	movi.n	a4, 0
    4781:	0a4c           	movi.n	a10, 64
    4783:	181966        	bnei	a9, 1, 479f <inear_ast_nr_proc+0x40f>
    4786:	1088a0        	and	a8, a8, a10
    4789:	289c           	beqz.n	a8, 479f <inear_ast_nr_proc+0x40f>
    478b:	68a042        	movi	a4, 104
    478e:	50d442        	addmi	a4, a4, 0x5000
    4791:	a24a           	add.n	a10, a2, a4
    4793:	ee6741        	l32r	a4, 130 (315c <fn_pitch_detection>)
    4796:	61b8           	l32i.n	a11, a1, 24
    4798:	91c8           	l32i.n	a12, a1, 36
    479a:	0004e0        	callx8	a4
    479d:	0a4d           	mov.n	a4, a10
    479f:	94a582        	movi	a8, 0x594
    47a2:	f08880        	subx8	a8, a8, a8
    47a5:	a28a           	add.n	a10, a2, a8
    47a7:	ee6481        	l32r	a8, 138 (1ee4 <fn_calc_sup_gain>)
    47aa:	61b8           	l32i.n	a11, a1, 24
    47ac:	f1c8           	l32i.n	a12, a1, 60
    47ae:	a1d8           	l32i.n	a13, a1, 40
    47b0:	0008e0        	callx8	a8
    47b3:	5188           	l32i.n	a8, a1, 20
    47b5:	a1b8           	l32i.n	a11, a1, 40
    47b7:	9198           	l32i.n	a9, a1, 36
    47b9:	2c1866        	bnei	a8, 1, 47e9 <inear_ast_nr_proc+0x459>
    47bc:	94ac           	beqz.n	a4, 47e9 <inear_ast_nr_proc+0x459>
    47be:	4188           	l32i.n	a8, a1, 16
    47c0:	01a1a2        	movi	a10, 0x101
    47c3:	820882        	l8ui	a8, a8, 130
    47c6:	1f6867        	bbci	a8, 6, 47e9 <inear_ast_nr_proc+0x459>
    47c9:	408b04        	ae_lp16f.iu	aep0, a11, 0
    47cc:	409904        	ae_lp16f.iu	aep1, a9, 0
    47cf:	0b8d           	mov.n	a8, a11
    47d1:	148a76        	loop	a10, 47e9 <inear_ast_nr_proc+0x459>
    47d4:	010174        	ae_mulfp24s.ll	aeq0, aep0, aep1
    47d7:	3600d4        	ae_sllisq56s	aeq0, aeq0, 3
    47da:	060844        	ae_satq48s	aeq0, aeq0
    47dd:	1b8e74        	ae_roundsp16q48sym	aep7, aeq0
    47e0:	42f804        	ae_sp16f.l.iu	aep7, a8, 0
    47e3:	408814        	ae_lp16f.iu	aep0, a8, 2
    47e6:	409914        	ae_lp16f.iu	aep1, a9, 2

000047e9 <inear_ast_nr_proc+0x459>:
    47e9:	ee0f81        	l32r	a8, 28 (90f8 <xt_memcpy>)
    47ec:	61a8           	l32i.n	a10, a1, 24
    47ee:	04a4c2        	movi	a12, 0x404
    47f1:	06bd           	mov.n	a11, a6
    47f3:	0008e0        	callx8	a8
    47f6:	0a2192        	l32i	a9, a1, 40
    47f9:	208660        	or	a8, a6, a6
    47fc:	01a1a2        	movi	a10, 0x101
    47ff:	5c8804        	ae_lp24x2f.iu	aep0, a8, 0
    4802:	409904        	ae_lp16f.iu	aep1, a9, 0
    4805:	178a76        	loop	a10, 4820 <inear_ast_nr_proc+0x490>
    4808:	010154        	ae_mulfp24s.hl	aeq0, aep0, aep1
    480b:	010974        	ae_mulfp24s.ll	aeq1, aep0, aep1
    480e:	1b8d74        	ae_roundsp24q48asym	aep7, aeq0
    4811:	1b9d14        	ae_roundsp24q48asym	aep1, aeq1
    4814:	1af984        	ae_selp24.hh	aep0, aep7, aep1
    4817:	5e8804        	ae_sp24x2f.iu	aep0, a8, 0
    481a:	5c8814        	ae_lp24x2f.iu	aep0, a8, 8
    481d:	409914        	ae_lp16f.iu	aep1, a9, 2

00004820 <inear_ast_nr_proc+0x490>:
    4820:	4188           	l32i.n	a8, a1, 16
    4822:	04d292        	addmi	a9, a2, 0x400
    4825:	06bd           	mov.n	a11, a6
    4827:	411882        	l16ui	a8, a8, 130
    482a:	05cd           	mov.n	a12, a5
    482c:	5f6847        	bbci	a8, 4, 488f <inear_ast_nr_proc+0x4ff>
    482f:	2829a2        	l32i	a10, a9, 160
    4832:	4399d2        	l16si	a13, a9, 134
    4835:	ee4181        	l32r	a8, 13c (2e3c <fn_calc_zp_gain>)
    4838:	0008e0        	callx8	a8
    483b:	41b8           	l32i.n	a11, a1, 16
    483d:	a1c8           	l32i.n	a12, a1, 40
    483f:	059d           	mov.n	a9, a5
    4841:	830b82        	l8ui	a8, a11, 131
    4844:	01a1a2        	movi	a10, 0x101
    4847:	196807        	bbci	a8, 0, 4864 <inear_ast_nr_proc+0x4d4>
    484a:	408c04        	ae_lp16f.iu	aep0, a12, 0
    484d:	409904        	ae_lp16f.iu	aep1, a9, 0
    4850:	0c8d           	mov.n	a8, a12
    4852:	0e8a76        	loop	a10, 4864 <inear_ast_nr_proc+0x4d4>
    4855:	010174        	ae_mulfp24s.ll	aeq0, aep0, aep1
    4858:	1b8e04        	ae_roundsp16q48sym	aep0, aeq0
    485b:	420804        	ae_sp16f.l.i	aep0, a8, 0
    485e:	408814        	ae_lp16f.iu	aep0, a8, 2
    4861:	409914        	ae_lp16f.iu	aep1, a9, 2

00004864 <inear_ast_nr_proc+0x4d4>:
    4864:	068d           	mov.n	a8, a6
    4866:	059d           	mov.n	a9, a5
    4868:	01a1a2        	movi	a10, 0x101
    486b:	5c8804        	ae_lp24x2f.iu	aep0, a8, 0
    486e:	409904        	ae_lp16f.iu	aep1, a9, 0
    4871:	178a76        	loop	a10, 488c <inear_ast_nr_proc+0x4fc>
    4874:	010154        	ae_mulfp24s.hl	aeq0, aep0, aep1
    4877:	010974        	ae_mulfp24s.ll	aeq1, aep0, aep1
    487a:	1b8d74        	ae_roundsp24q48asym	aep7, aeq0
    487d:	1b9d14        	ae_roundsp24q48asym	aep1, aeq1
    4880:	1af984        	ae_selp24.hh	aep0, aep7, aep1
    4883:	5e8804        	ae_sp24x2f.iu	aep0, a8, 0
    4886:	5c8814        	ae_lp24x2f.iu	aep0, a8, 8
    4889:	409914        	ae_lp16f.iu	aep1, a9, 2

0000488c <inear_ast_nr_proc+0x4fc>:
    488c:	411b82        	l16ui	a8, a11, 130

0000488f <inear_ast_nr_proc+0x4ff>:
    488f:	2e6817        	bbci	a8, 1, 48c1 <inear_ast_nr_proc+0x531>
    4892:	04d292        	addmi	a9, a2, 0x400
    4895:	4d9992        	l16si	a9, a9, 154
    4898:	1c23a2        	l32i	a10, a3, 112
    489b:	119940        	slli	a9, a9, 12
    489e:	1fa9a7        	bge	a9, a10, 48c1 <inear_ast_nr_proc+0x531>
    48a1:	0b6877        	bbci	a8, 7, 48b0 <inear_ast_nr_proc+0x520>
    48a4:	142182        	l32i	a8, a1, 80
    48a7:	102192        	l32i	a9, a1, 64
    48aa:	449882        	l16si	a8, a8, 136
    48ad:	102987        	blt	a9, a8, 48c1 <inear_ast_nr_proc+0x531>
    48b0:	ee2481        	l32r	a8, 140 (2abc <fn_low_bin_noise_est>)
    48b3:	b1b8           	l32i.n	a11, a1, 44
    48b5:	31c8           	l32i.n	a12, a1, 12
    48b7:	1321e2        	l32i	a14, a1, 76
    48ba:	02ad           	mov.n	a10, a2
    48bc:	06dd           	mov.n	a13, a6
    48be:	0008e0        	callx8	a8
    48c1:	5fa482        	movi	a8, 0x45f
    48c4:	1188d0        	slli	a8, a8, 3
    48c7:	a28a           	add.n	a10, a2, a8
    48c9:	31b8           	l32i.n	a11, a1, 12
    48cb:	b1c8           	l32i.n	a12, a1, 44
    48cd:	ee1a81        	l32r	a8, 138 (1ee4 <fn_calc_sup_gain>)
    48d0:	05dd           	mov.n	a13, a5
    48d2:	0008e0        	callx8	a8
    48d5:	5188           	l32i.n	a8, a1, 20
    48d7:	41a8           	l32i.n	a10, a1, 16
    48d9:	71b8           	l32i.n	a11, a1, 28
    48db:	021826        	beqi	a8, 1, 48e1 <inear_ast_nr_proc+0x551>
    48de:	003386        	j	49b0 <inear_ast_nr_proc+0x620>
    48e1:	411a82        	l16ui	a8, a10, 130
    48e4:	490c           	movi.n	a9, 4
    48e6:	04d2c2        	addmi	a12, a2, 0x400
    48e9:	108890        	and	a8, a8, a9
    48ec:	0c0816        	beqz	a8, 49b0 <inear_ast_nr_proc+0x620>
    48ef:	4d9c82        	l16si	a8, a12, 154
    48f2:	1c2332        	l32i	a3, a3, 112
    48f5:	190c           	movi.n	a9, 1
    48f7:	118840        	slli	a8, a8, 12
    48fa:	5199           	s32i.n	a9, a1, 20
    48fc:	022837        	blt	a8, a3, 4902 <inear_ast_nr_proc+0x572>
    48ff:	002b46        	j	49b0 <inear_ast_nr_proc+0x620>
    4902:	ee1031        	l32r	a3, 144 (2d08 <fn_low_bin_compensate_phase>)
    4905:	02ad           	mov.n	a10, a2
    4907:	06cd           	mov.n	a12, a6
    4909:	0003e0        	callx8	a3
    490c:	71b8           	l32i.n	a11, a1, 28
    490e:	41a8           	l32i.n	a10, a1, 16
    4910:	002706        	j	49b0 <inear_ast_nr_proc+0x620>

00004913 <inear_ast_nr_proc+0x583>:
    4913:	049142        	l16si	a4, a1, 8
    4916:	a28a           	add.n	a10, a2, a8
    4918:	ee0581        	l32r	a8, 12c (3528 <fn_mic_chk_status>)
    491b:	31b8           	l32i.n	a11, a1, 12
    491d:	61c8           	l32i.n	a12, a1, 24
    491f:	c1e8           	l32i.n	a14, a1, 48
    4921:	04dd           	mov.n	a13, a4
    4923:	0008e0        	callx8	a8
    4926:	64d282        	addmi	a8, a2, 0x6400
    4929:	3c58a2        	s16i	a10, a8, 120
    492c:	06ea17        	bbsi	a10, 1, 4936 <inear_ast_nr_proc+0x5a6>
    492f:	944d           	ae_zext16	a4, a4
    4931:	5149           	s32i.n	a4, a1, 20
    4933:	000206        	j	493f <inear_ast_nr_proc+0x5af>

00004936 <inear_ast_nr_proc+0x5a6>:
    4936:	180c           	movi.n	a8, 1
    4938:	140c           	movi.n	a4, 1
    493a:	5149           	s32i.n	a4, a1, 20
    493c:	045182        	s16i	a8, a1, 8
    493f:	4198           	l32i.n	a9, a1, 16
    4941:	076a07        	bbci	a10, 0, 494c <inear_ast_nr_proc+0x5bc>
    4944:	64d242        	addmi	a4, a2, 0x6400
    4947:	280c           	movi.n	a8, 2
    4949:	3b5482        	s16i	a8, a4, 118
    494c:	0eea27        	bbsi	a10, 2, 495e <inear_ast_nr_proc+0x5ce>
    494f:	02ea17        	bbsi	a10, 1, 4955 <inear_ast_nr_proc+0x5c5>
    4952:	ff6746        	j	46f3 <inear_ast_nr_proc+0x363>
    4955:	64d242        	addmi	a4, a2, 0x6400
    4958:	3b1442        	l16ui	a4, a4, 118
    495b:	d94456        	bnez	a4, 46f3 <inear_ast_nr_proc+0x363>
    495e:	411932        	l16ui	a3, a9, 130
    4961:	040c           	movi.n	a4, 0
    4963:	68a082        	movi	a8, 104
    4966:	156367        	bbci	a3, 6, 497f <inear_ast_nr_proc+0x5ef>
    4969:	50d832        	addmi	a3, a8, 0x5000
    496c:	a23a           	add.n	a10, a2, a3
    496e:	edf031        	l32r	a3, 130 (315c <fn_pitch_detection>)
    4971:	31b8           	l32i.n	a11, a1, 12
    4973:	91c8           	l32i.n	a12, a1, 36
    4975:	0003e0        	callx8	a3
    4978:	4138           	l32i.n	a3, a1, 16
    497a:	0a4d           	mov.n	a4, a10
    497c:	411332        	l16ui	a3, a3, 130
    497f:	1563a7        	bbci	a3, 10, 4998 <inear_ast_nr_proc+0x608>
    4982:	85a232        	movi	a3, 0x285
    4985:	1133b0        	slli	a3, a3, 5
    4988:	a23a           	add.n	a10, a2, a3
    498a:	edea31        	l32r	a3, 134 (372c <fn_over_subtract>)
    498d:	e1b8           	l32i.n	a11, a1, 56
    498f:	31c8           	l32i.n	a12, a1, 12
    4991:	81d8           	l32i.n	a13, a1, 32
    4993:	0e0c           	movi.n	a14, 0
    4995:	0003e0        	callx8	a3
    4998:	5fa432        	movi	a3, 0x45f
    499b:	1133d0        	slli	a3, a3, 3
    499e:	a23a           	add.n	a10, a2, a3
    49a0:	ede631        	l32r	a3, 138 (1ee4 <fn_calc_sup_gain>)
    49a3:	31b8           	l32i.n	a11, a1, 12
    49a5:	81c8           	l32i.n	a12, a1, 32
    49a7:	05dd           	mov.n	a13, a5
    49a9:	0003e0        	callx8	a3
    49ac:	41a8           	l32i.n	a10, a1, 16
    49ae:	71b8           	l32i.n	a11, a1, 28
    49b0:	e4ac           	beqz.n	a4, 49e2 <inear_ast_nr_proc+0x652>
    49b2:	5138           	l32i.n	a3, a1, 20
    49b4:	9148           	l32i.n	a4, a1, 36
    49b6:	01a182        	movi	a8, 0x101
    49b9:	251366        	bnei	a3, 1, 49e2 <inear_ast_nr_proc+0x652>
    49bc:	820a32        	l8ui	a3, a10, 130
    49bf:	1f6367        	bbci	a3, 6, 49e2 <inear_ast_nr_proc+0x652>
    49c2:	053d           	mov.n	a3, a5
    49c4:	408304        	ae_lp16f.iu	aep0, a3, 0
    49c7:	409404        	ae_lp16f.iu	aep1, a4, 0
    49ca:	148876        	loop	a8, 49e2 <inear_ast_nr_proc+0x652>
    49cd:	010174        	ae_mulfp24s.ll	aeq0, aep0, aep1
    49d0:	3600d4        	ae_sllisq56s	aeq0, aeq0, 3
    49d3:	060844        	ae_satq48s	aeq0, aeq0
    49d6:	1b8e74        	ae_roundsp16q48sym	aep7, aeq0
    49d9:	42f304        	ae_sp16f.l.iu	aep7, a3, 0
    49dc:	408314        	ae_lp16f.iu	aep0, a3, 2
    49df:	409414        	ae_lp16f.iu	aep1, a4, 2

000049e2 <inear_ast_nr_proc+0x652>:
    49e2:	0b3d           	mov.n	a3, a11
    49e4:	054d           	mov.n	a4, a5
    49e6:	01a182        	movi	a8, 0x101
    49e9:	5c8304        	ae_lp24x2f.iu	aep0, a3, 0
    49ec:	409404        	ae_lp16f.iu	aep1, a4, 0
    49ef:	178876        	loop	a8, 4a0a <inear_ast_nr_proc+0x67a>
    49f2:	010154        	ae_mulfp24s.hl	aeq0, aep0, aep1
    49f5:	010974        	ae_mulfp24s.ll	aeq1, aep0, aep1
    49f8:	1b8d74        	ae_roundsp24q48asym	aep7, aeq0
    49fb:	1b9d14        	ae_roundsp24q48asym	aep1, aeq1
    49fe:	1af984        	ae_selp24.hh	aep0, aep7, aep1
    4a01:	5e8304        	ae_sp24x2f.iu	aep0, a3, 0
    4a04:	5c8314        	ae_lp24x2f.iu	aep0, a3, 8
    4a07:	409414        	ae_lp16f.iu	aep1, a4, 2

00004a0a <inear_ast_nr_proc+0x67a>:
    4a0a:	830a32        	l8ui	a3, a10, 131
    4a0d:	01a142        	movi	a4, 0x101
    4a10:	746337        	bbci	a3, 3, 4a88 <inear_ast_nr_proc+0x6f8>
    4a13:	203bb0        	or	a3, a11, a11
    4a16:	5c8304        	ae_lp24x2f.iu	aep0, a3, 0
    4a19:	118476        	loop	a4, 4a2e <inear_ast_nr_proc+0x69e>
    4a1c:	040004        	ae_mulzaafp24s.hh.ll	aeq0, aep0, aep0
    4a1f:	360114        	ae_sllisq56s	aeq0, aeq0, 4
    4a22:	060844        	ae_satq48s	aeq0, aeq0
    4a25:	060934        	ae_roundsq32asym	aeq0, aeq0
    4a28:	624714        	ae_sq32f.iu	aeq0, a7, 4
    4a2b:	5c8314        	ae_lp24x2f.iu	aep0, a3, 8
    4a2e:	aca032        	movi	a3, 172
    4a31:	3cd332        	addmi	a3, a3, 0x3c00
    4a34:	a23a           	add.n	a10, a2, a3
    4a36:	3148           	l32i.n	a4, a1, 12
    4a38:	027d           	mov.n	a7, a2
    4a3a:	b128           	l32i.n	a2, a1, 44
    4a3c:	edb931        	l32r	a3, 120 (12ac <fn_st_noise_est>)
    4a3f:	04bd           	mov.n	a11, a4
    4a41:	02cd           	mov.n	a12, a2
    4a43:	0003e0        	callx8	a3
    4a46:	59a132        	movi	a3, 0x159
    4a49:	1133b0        	slli	a3, a3, 5
    4a4c:	a73a           	add.n	a10, a7, a3
    4a4e:	edba31        	l32r	a3, 138 (1ee4 <fn_calc_sup_gain>)
    4a51:	02cd           	mov.n	a12, a2
    4a53:	04bd           	mov.n	a11, a4
    4a55:	05dd           	mov.n	a13, a5
    4a57:	072d           	mov.n	a2, a7
    4a59:	0003e0        	callx8	a3
    4a5c:	71b8           	l32i.n	a11, a1, 28
    4a5e:	0421a2        	l32i	a10, a1, 16
    4a61:	01a142        	movi	a4, 0x101
    4a64:	203bb0        	or	a3, a11, a11
    4a67:	409504        	ae_lp16f.iu	aep1, a5, 0
    4a6a:	5c8304        	ae_lp24x2f.iu	aep0, a3, 0
    4a6d:	178476        	loop	a4, 4a88 <inear_ast_nr_proc+0x6f8>
    4a70:	010154        	ae_mulfp24s.hl	aeq0, aep0, aep1
    4a73:	010974        	ae_mulfp24s.ll	aeq1, aep0, aep1
    4a76:	1b8d74        	ae_roundsp24q48asym	aep7, aeq0
    4a79:	1b9d14        	ae_roundsp24q48asym	aep1, aeq1
    4a7c:	1af984        	ae_selp24.hh	aep0, aep7, aep1
    4a7f:	5e8304        	ae_sp24x2f.iu	aep0, a3, 0
    4a82:	5c8314        	ae_lp24x2f.iu	aep0, a3, 8
    4a85:	409514        	ae_lp16f.iu	aep1, a5, 2

00004a88 <inear_ast_nr_proc+0x6f8>:
    4a88:	64d232        	addmi	a3, a2, 0x6400
    4a8b:	3b1342        	l16ui	a4, a3, 118
    4a8e:	a158           	l32i.n	a5, a1, 40
    4a90:	9178           	l32i.n	a7, a1, 36
    4a92:	092416        	beqz	a4, 4b28 <inear_ast_nr_proc+0x798>
    4a95:	830a42        	l8ui	a4, a10, 131
    4a98:	1c0c           	movi.n	a12, 1
    4a9a:	05ad           	mov.n	a10, a5
    4a9c:	4c6407        	bbci	a4, 0, 4aec <inear_ast_nr_proc+0x75c>
    4a9f:	edaa41        	l32r	a4, 148 (dfc <mel_filter16>)
    4aa2:	07bd           	mov.n	a11, a7
    4aa4:	0004e0        	callx8	a4
    4aa7:	ed7341        	l32r	a4, 74 (e58 <inv_mel_filter>)
    4aaa:	1c0c           	movi.n	a12, 1
    4aac:	07ad           	mov.n	a10, a7
    4aae:	05bd           	mov.n	a11, a5
    4ab0:	0004e0        	callx8	a4
    4ab3:	71b8           	l32i.n	a11, a1, 28
    4ab5:	09a3f2        	movi	a15, 0x309
    4ab8:	456b           	addi.n	a4, a5, 6
    4aba:	115fd0        	slli	a5, a15, 3
    4abd:	174c           	movi.n	a7, 65
    4abf:	1177b0        	slli	a7, a7, 5
    4ac2:	805b50        	add	a5, a11, a5
    4ac5:	fea082        	movi	a8, 254
    4ac8:	408404        	ae_lp16f.iu	aep0, a4, 0
    4acb:	807b70        	add	a7, a11, a7
    4ace:	5c9504        	ae_lp24x2f.iu	aep1, a5, 0
    4ad1:	178876        	loop	a8, 4aec <inear_ast_nr_proc+0x75c>
    4ad4:	011054        	ae_mulfp24s.hl	aeq0, aep1, aep0
    4ad7:	011874        	ae_mulfp24s.ll	aeq1, aep1, aep0
    4ada:	1b8d74        	ae_roundsp24q48asym	aep7, aeq0
    4add:	1b9d14        	ae_roundsp24q48asym	aep1, aeq1
    4ae0:	1af984        	ae_selp24.hh	aep0, aep7, aep1
    4ae3:	5e8714        	ae_sp24x2f.iu	aep0, a7, 8
    4ae6:	5c9514        	ae_lp24x2f.iu	aep1, a5, 8
    4ae9:	408414        	ae_lp16f.iu	aep0, a4, 2
    4aec:	05a152        	movi	a5, 0x105
    4aef:	1155d0        	slli	a5, a5, 3
    4af2:	fca142        	movi	a4, 0x1fc
    4af5:	424a           	add.n	a4, a2, a4
    4af7:	5b5a           	add.n	a5, a11, a5
    4af9:	fea072        	movi	a7, 254
    4afc:	409404        	ae_lp16f.iu	aep1, a4, 0
    4aff:	5c8504        	ae_lp24x2f.iu	aep0, a5, 0
    4b02:	228776        	loop	a7, 4b28 <inear_ast_nr_proc+0x798>
    4b05:	010154        	ae_mulfp24s.hl	aeq0, aep0, aep1
    4b08:	010974        	ae_mulfp24s.ll	aeq1, aep0, aep1
    4b0b:	3600d4        	ae_sllisq56s	aeq0, aeq0, 3
    4b0e:	fc00fad0ff 	{ ae_sllisq56s	aeq3, aeq1, 3; ae_satq48s	aeq0, aeq0 }
    4b13:	1b8d64        	ae_roundsp24q48asym	aep6, aeq0
    4b16:	060b44        	ae_satq48s	aeq0, aeq3
    4b19:	1b8d74        	ae_roundsp24q48asym	aep7, aeq0
    4b1c:	1aef84        	ae_selp24.hh	aep0, aep6, aep7
    4b1f:	5e8504        	ae_sp24x2f.iu	aep0, a5, 0
    4b22:	5c8514        	ae_lp24x2f.iu	aep0, a5, 8
    4b25:	409414        	ae_lp16f.iu	aep1, a4, 2
    4b28:	152142        	l32i	a4, a1, 84
    4b2b:	7aa052        	movi	a5, 122
    4b2e:	64d572        	addmi	a7, a5, 0x6400
    4b31:	12e416        	beqz	a4, 4c63 <inear_ast_nr_proc+0x8d3>
    4b34:	3b1342        	l16ui	a4, a3, 118
    4b37:	7aa052        	movi	a5, 122
    4b3a:	64d552        	addmi	a5, a5, 0x6400
    4b3d:	a25a           	add.n	a10, a2, a5
    4b3f:	022426        	beqi	a4, 2, 4b45 <inear_ast_nr_proc+0x7b5>
    4b42:	004b86        	j	4c74 <inear_ast_nr_proc+0x8e4>
    4b45:	3148           	l32i.n	a4, a1, 12
    4b47:	ed8151        	l32r	a5, 14c (401c <fn_gen_noise_fd_frame>)
    4b4a:	d1b8           	l32i.n	a11, a1, 52
    4b4c:	04cd           	mov.n	a12, a4
    4b4e:	0005e0        	callx8	a5
    4b51:	112172        	l32i	a7, a1, 68
    4b54:	04d252        	addmi	a5, a2, 0x400
    4b57:	ffa0e2        	movi	a14, 255
    4b5a:	7fdee2        	addmi	a14, a14, 0x7f00
    4b5d:	4a9552        	l16si	a5, a5, 148
    4b60:	c07e70        	sub	a7, a14, a7
    4b63:	a77d           	ae_clamps16	a7, a7
    4b65:	d17750        	mul16s	a7, a7, a5
    4b68:	048d           	mov.n	a8, a4
    4b6a:	40d772        	addmi	a7, a7, 0x4000
    4b6d:	1177f0        	slli	a7, a7, 1
    4b70:	069d           	mov.n	a9, a6
    4b72:	f57070        	extui	a7, a7, 16, 16
    4b75:	37a0a2        	movi	a10, 55
    4b78:	302774        	ae_cvtp24a16x2.ll	aep2, a7, a7
    4b7b:	5c9804        	ae_lp24x2f.iu	aep1, a8, 0
    4b7e:	5c8904        	ae_lp24x2f.iu	aep0, a9, 0
    4b81:	1a8a76        	loop	a10, 4b9f <inear_ast_nr_proc+0x80f>
    4b84:	011254        	ae_mulfp24s.hl	aeq0, aep1, aep2
    4b87:	011a74        	ae_mulfp24s.ll	aeq1, aep1, aep2
    4b8a:	1b8d74        	ae_roundsp24q48asym	aep7, aeq0
    4b8d:	1b9d34        	ae_roundsp24q48asym	aep3, aeq1
    4b90:	1afb94        	ae_selp24.hh	aep1, aep7, aep3
    4b93:	078104        	ae_addsp24s	aep0, aep0, aep1
    4b96:	5e8904        	ae_sp24x2f.iu	aep0, a9, 0
    4b99:	5c9814        	ae_lp24x2f.iu	aep1, a8, 8
    4b9c:	5c8914        	ae_lp24x2f.iu	aep0, a9, 8

00004b9f <inear_ast_nr_proc+0x80f>:
    4b9f:	122142        	l32i	a4, a1, 72
    4ba2:	1175f0        	slli	a7, a5, 1
    4ba5:	1f0c           	movi.n	a15, 1
    4ba7:	0594a2        	l16si	a10, a4, 10
    4baa:	115f10        	slli	a5, a15, 15
    4bad:	71d8           	l32i.n	a13, a1, 28
    4baf:	c0aea0        	sub	a10, a14, a10
    4bb2:	aaad           	ae_clamps16	a10, a10
    4bb4:	82a7a0        	mull	a10, a7, a10
    4bb7:	db1c           	movi.n	a11, 29
    4bb9:	aa5a           	add.n	a10, a10, a5
    4bbb:	f5a0a0        	extui	a10, a10, 16, 16
    4bbe:	302aa4        	ae_cvtp24a16x2.ll	aep2, a10, a10
    4bc1:	1a8b76        	loop	a11, 4bdf <inear_ast_nr_proc+0x84f>
    4bc4:	011254        	ae_mulfp24s.hl	aeq0, aep1, aep2
    4bc7:	011a74        	ae_mulfp24s.ll	aeq1, aep1, aep2
    4bca:	1b8d74        	ae_roundsp24q48asym	aep7, aeq0
    4bcd:	1b9d34        	ae_roundsp24q48asym	aep3, aeq1
    4bd0:	1afb94        	ae_selp24.hh	aep1, aep7, aep3
    4bd3:	078104        	ae_addsp24s	aep0, aep0, aep1
    4bd6:	5e8904        	ae_sp24x2f.iu	aep0, a9, 0
    4bd9:	5c9814        	ae_lp24x2f.iu	aep1, a8, 8
    4bdc:	5c8914        	ae_lp24x2f.iu	aep0, a9, 8
    4bdf:	069482        	l16si	a8, a4, 12
    4be2:	01a1a2        	movi	a10, 0x101
    4be5:	3198           	l32i.n	a9, a1, 12
    4be7:	c08e80        	sub	a8, a14, a8
    4bea:	a88d           	ae_clamps16	a8, a8
    4bec:	828780        	mull	a8, a7, a8
    4bef:	11aad0        	slli	a10, a10, 3
    4bf2:	885a           	add.n	a8, a8, a5
    4bf4:	f5c080        	extui	a12, a8, 16, 16
    4bf7:	8daa           	add.n	a8, a13, a10
    4bf9:	08ad           	mov.n	a10, a8
    4bfb:	cb2c           	movi.n	a11, 44
    4bfd:	5c9904        	ae_lp24x2f.iu	aep1, a9, 0
    4c00:	300cc4        	ae_cvtp24a16x2.ll	aep0, a12, a12
    4c03:	5caa04        	ae_lp24x2f.iu	aep2, a10, 0
    4c06:	1a8b76        	loop	a11, 4c24 <inear_ast_nr_proc+0x894>
    4c09:	011054        	ae_mulfp24s.hl	aeq0, aep1, aep0
    4c0c:	011874        	ae_mulfp24s.ll	aeq1, aep1, aep0
    4c0f:	1b8d74        	ae_roundsp24q48asym	aep7, aeq0
    4c12:	1b9d34        	ae_roundsp24q48asym	aep3, aeq1
    4c15:	1afb94        	ae_selp24.hh	aep1, aep7, aep3
    4c18:	07a114        	ae_addsp24s	aep1, aep2, aep1
    4c1b:	5e9a04        	ae_sp24x2f.iu	aep1, a10, 0
    4c1e:	5c9914        	ae_lp24x2f.iu	aep1, a9, 8
    4c21:	5caa14        	ae_lp24x2f.iu	aep2, a10, 8
    4c24:	079492        	l16si	a9, a4, 14
    4c27:	81a0f2        	movi	a15, 129
    4c2a:	5c8804        	ae_lp24x2f.iu	aep0, a8, 0
    4c2d:	c04e90        	sub	a4, a14, a9
    4c30:	a44d           	ae_clamps16	a4, a4
    4c32:	827740        	mull	a7, a7, a4
    4c35:	3148           	l32i.n	a4, a1, 12
    4c37:	575a           	add.n	a5, a7, a5
    4c39:	f55050        	extui	a5, a5, 16, 16
    4c3c:	5ca404        	ae_lp24x2f.iu	aep2, a4, 0
    4c3f:	301554        	ae_cvtp24a16x2.ll	aep1, a5, a5
    4c42:	1a8f76        	loop	a15, 4c60 <inear_ast_nr_proc+0x8d0>
    4c45:	012154        	ae_mulfp24s.hl	aeq0, aep2, aep1
    4c48:	012974        	ae_mulfp24s.ll	aeq1, aep2, aep1
    4c4b:	1b8d74        	ae_roundsp24q48asym	aep7, aeq0
    4c4e:	1b9d34        	ae_roundsp24q48asym	aep3, aeq1
    4c51:	1afba4        	ae_selp24.hh	aep2, aep7, aep3
    4c54:	078204        	ae_addsp24s	aep0, aep0, aep2
    4c57:	5e8804        	ae_sp24x2f.iu	aep0, a8, 0
    4c5a:	5ca414        	ae_lp24x2f.iu	aep2, a4, 8
    4c5d:	5c8814        	ae_lp24x2f.iu	aep0, a8, 8
    4c60:	005686        	j	4dbe <inear_ast_nr_proc+0xa2e>

00004c63 <inear_ast_nr_proc+0x8d3>:
    4c63:	a27a           	add.n	a10, a2, a7
    4c65:	ed3941        	l32r	a4, 14c (401c <fn_gen_noise_fd_frame>)
    4c68:	81b8           	l32i.n	a11, a1, 32
    4c6a:	31c8           	l32i.n	a12, a1, 12
    4c6c:	0004e0        	callx8	a4
    4c6f:	71d8           	l32i.n	a13, a1, 28
    4c71:	005246        	j	4dbe <inear_ast_nr_proc+0xa2e>

00004c74 <inear_ast_nr_proc+0x8e4>:
    4c74:	3178           	l32i.n	a7, a1, 12
    4c76:	ed3541        	l32r	a4, 14c (401c <fn_gen_noise_fd_frame>)
    4c79:	81b8           	l32i.n	a11, a1, 32
    4c7b:	07cd           	mov.n	a12, a7
    4c7d:	0004e0        	callx8	a4
    4c80:	1121a2        	l32i	a10, a1, 68
    4c83:	ffa0c2        	movi	a12, 255
    4c86:	04d252        	addmi	a5, a2, 0x400
    4c89:	7fdcc2        	addmi	a12, a12, 0x7f00
    4c8c:	4a9582        	l16si	a8, a5, 148
    4c8f:	c0fca0        	sub	a15, a12, a10
    4c92:	302aa4        	ae_cvtp24a16x2.ll	aep2, a10, a10
    4c95:	afad           	ae_clamps16	a10, a15
    4c97:	d1aa80        	mul16s	a10, a10, a8
    4c9a:	71d8           	l32i.n	a13, a1, 28
    4c9c:	40daa2        	addmi	a10, a10, 0x4000
    4c9f:	11aaf0        	slli	a10, a10, 1
    4ca2:	0d4d           	mov.n	a4, a13
    4ca4:	075d           	mov.n	a5, a7
    4ca6:	f5a0a0        	extui	a10, a10, 16, 16
    4ca9:	37a092        	movi	a9, 55
    4cac:	5c9404        	ae_lp24x2f.iu	aep1, a4, 0
    4caf:	5c8504        	ae_lp24x2f.iu	aep0, a5, 0
    4cb2:	303aa4        	ae_cvtp24a16x2.ll	aep3, a10, a10
    4cb5:	298976        	loop	a9, 4ce2 <inear_ast_nr_proc+0x952>
    4cb8:	011254        	ae_mulfp24s.hl	aeq0, aep1, aep2
    4cbb:	010b54        	ae_mulfp24s.hl	aeq1, aep0, aep3
    4cbe:	019274        	ae_mulfp24s.ll	aeq2, aep1, aep2
    4cc1:	018b74        	ae_mulfp24s.ll	aeq3, aep0, aep3
    4cc4:	1b8d44        	ae_roundsp24q48asym	aep4, aeq0
    4cc7:	1b9d64        	ae_roundsp24q48asym	aep6, aeq1
    4cca:	1bad74        	ae_roundsp24q48asym	aep7, aeq2
    4ccd:	1bbd54        	ae_roundsp24q48asym	aep5, aeq3
    4cd0:	07c614        	ae_addsp24s	aep1, aep4, aep6
    4cd3:	07f504        	ae_addsp24s	aep0, aep7, aep5
    4cd6:	1a9884        	ae_selp24.hh	aep0, aep1, aep0
    4cd9:	5e8404        	ae_sp24x2f.iu	aep0, a4, 0
    4cdc:	5c9414        	ae_lp24x2f.iu	aep1, a4, 8
    4cdf:	5c8514        	ae_lp24x2f.iu	aep0, a5, 8

00004ce2 <inear_ast_nr_proc+0x952>:
    4ce2:	122172        	l32i	a7, a1, 72
    4ce5:	1198f0        	slli	a9, a8, 1
    4ce8:	1f0c           	movi.n	a15, 1
    4cea:	37ad           	ae_l16si.n	a10, a7, 2
    4cec:	302aa4        	ae_cvtp24a16x2.ll	aep2, a10, a10
    4cef:	118f10        	slli	a8, a15, 15
    4cf2:	c0aca0        	sub	a10, a12, a10
    4cf5:	aaad           	ae_clamps16	a10, a10
    4cf7:	82a9a0        	mull	a10, a9, a10
    4cfa:	db1c           	movi.n	a11, 29
    4cfc:	80aa80        	add	a10, a10, a8
    4cff:	f5a0a0        	extui	a10, a10, 16, 16
    4d02:	303aa4        	ae_cvtp24a16x2.ll	aep3, a10, a10
    4d05:	298b76        	loop	a11, 4d32 <inear_ast_nr_proc+0x9a2>
    4d08:	011254        	ae_mulfp24s.hl	aeq0, aep1, aep2
    4d0b:	010b54        	ae_mulfp24s.hl	aeq1, aep0, aep3
    4d0e:	019274        	ae_mulfp24s.ll	aeq2, aep1, aep2
    4d11:	018b74        	ae_mulfp24s.ll	aeq3, aep0, aep3
    4d14:	1b8d44        	ae_roundsp24q48asym	aep4, aeq0
    4d17:	1b9d64        	ae_roundsp24q48asym	aep6, aeq1
    4d1a:	1bad74        	ae_roundsp24q48asym	aep7, aeq2
    4d1d:	1bbd54        	ae_roundsp24q48asym	aep5, aeq3
    4d20:	07c614        	ae_addsp24s	aep1, aep4, aep6
    4d23:	07f504        	ae_addsp24s	aep0, aep7, aep5
    4d26:	1a9884        	ae_selp24.hh	aep0, aep1, aep0
    4d29:	5e8404        	ae_sp24x2f.iu	aep0, a4, 0
    4d2c:	5c9414        	ae_lp24x2f.iu	aep1, a4, 8
    4d2f:	5c8514        	ae_lp24x2f.iu	aep0, a5, 8
    4d32:	0297a2        	l16si	a10, a7, 4
    4d35:	302aa4        	ae_cvtp24a16x2.ll	aep2, a10, a10
    4d38:	cb2c           	movi.n	a11, 44
    4d3a:	c0aca0        	sub	a10, a12, a10
    4d3d:	aaad           	ae_clamps16	a10, a10
    4d3f:	82a9a0        	mull	a10, a9, a10
    4d42:	aa8a           	add.n	a10, a10, a8
    4d44:	f5a0a0        	extui	a10, a10, 16, 16
    4d47:	303aa4        	ae_cvtp24a16x2.ll	aep3, a10, a10
    4d4a:	298b76        	loop	a11, 4d77 <inear_ast_nr_proc+0x9e7>
    4d4d:	011254        	ae_mulfp24s.hl	aeq0, aep1, aep2
    4d50:	010b54        	ae_mulfp24s.hl	aeq1, aep0, aep3
    4d53:	019274        	ae_mulfp24s.ll	aeq2, aep1, aep2
    4d56:	018b74        	ae_mulfp24s.ll	aeq3, aep0, aep3
    4d59:	1b8d44        	ae_roundsp24q48asym	aep4, aeq0
    4d5c:	1b9d64        	ae_roundsp24q48asym	aep6, aeq1
    4d5f:	1bad74        	ae_roundsp24q48asym	aep7, aeq2
    4d62:	1bbd54        	ae_roundsp24q48asym	aep5, aeq3
    4d65:	07c614        	ae_addsp24s	aep1, aep4, aep6
    4d68:	07f504        	ae_addsp24s	aep0, aep7, aep5
    4d6b:	1a9884        	ae_selp24.hh	aep0, aep1, aep0
    4d6e:	5e8404        	ae_sp24x2f.iu	aep0, a4, 0
    4d71:	5c9414        	ae_lp24x2f.iu	aep1, a4, 8
    4d74:	5c8514        	ae_lp24x2f.iu	aep0, a5, 8
    4d77:	0397a2        	l16si	a10, a7, 6
    4d7a:	81a0f2        	movi	a15, 129
    4d7d:	302aa4        	ae_cvtp24a16x2.ll	aep2, a10, a10
    4d80:	c07ca0        	sub	a7, a12, a10
    4d83:	a77d           	ae_clamps16	a7, a7
    4d85:	827970        	mull	a7, a9, a7
    4d88:	807780        	add	a7, a7, a8
    4d8b:	f57070        	extui	a7, a7, 16, 16
    4d8e:	303774        	ae_cvtp24a16x2.ll	aep3, a7, a7
    4d91:	298f76        	loop	a15, 4dbe <inear_ast_nr_proc+0xa2e>
    4d94:	011254        	ae_mulfp24s.hl	aeq0, aep1, aep2
    4d97:	010b54        	ae_mulfp24s.hl	aeq1, aep0, aep3
    4d9a:	019274        	ae_mulfp24s.ll	aeq2, aep1, aep2
    4d9d:	018b74        	ae_mulfp24s.ll	aeq3, aep0, aep3
    4da0:	1b8d44        	ae_roundsp24q48asym	aep4, aeq0
    4da3:	1b9d64        	ae_roundsp24q48asym	aep6, aeq1
    4da6:	1bad74        	ae_roundsp24q48asym	aep7, aeq2
    4da9:	1bbd54        	ae_roundsp24q48asym	aep5, aeq3
    4dac:	07c614        	ae_addsp24s	aep1, aep4, aep6
    4daf:	07f504        	ae_addsp24s	aep0, aep7, aep5
    4db2:	1a9884        	ae_selp24.hh	aep0, aep1, aep0
    4db5:	5e8404        	ae_sp24x2f.iu	aep0, a4, 0
    4db8:	5c9414        	ae_lp24x2f.iu	aep1, a4, 8
    4dbb:	5c8514        	ae_lp24x2f.iu	aep0, a5, 8

00004dbe <inear_ast_nr_proc+0xa2e>:
    4dbe:	ecb541        	l32r	a4, 94 (90d0 <memset>)
    4dc1:	0b0c           	movi.n	a11, 0
    4dc3:	8c1c           	movi.n	a12, 24
    4dc5:	0dad           	mov.n	a10, a13
    4dc7:	0d5d           	mov.n	a5, a13
    4dc9:	0004e0        	callx8	a4
    4dcc:	0b0c           	movi.n	a11, 0
    4dce:	8c1c           	movi.n	a12, 24
    4dd0:	06ad           	mov.n	a10, a6
    4dd2:	0004e0        	callx8	a4
    4dd5:	3b1332        	l16ui	a3, a3, 118
    4dd8:	4198           	l32i.n	a9, a1, 16
    4dda:	05bd           	mov.n	a11, a5
    4ddc:	022366        	bnei	a3, 2, 4de2 <inear_ast_nr_proc+0xa52>
    4ddf:	003886        	j	4ec5 <inear_ast_nr_proc+0xb35>
    4de2:	021326        	beqi	a3, 1, 4de8 <inear_ast_nr_proc+0xa58>
    4de5:	0043c6        	j	4ef8 <inear_ast_nr_proc+0xb68>
    4de8:	04d232        	addmi	a3, a2, 0x400
    4deb:	479332        	l16si	a3, a3, 142
    4dee:	ffa042        	movi	a4, 255
    4df1:	7fd442        	addmi	a4, a4, 0x7f00
    4df4:	303334        	ae_cvtp24a16x2.ll	aep3, a3, a3
    4df7:	c03430        	sub	a3, a4, a3
    4dfa:	04d252        	addmi	a5, a2, 0x400
    4dfd:	a33d           	ae_clamps16	a3, a3
    4dff:	3f1552        	l16ui	a5, a5, 126
    4e02:	304334        	ae_cvtp24a16x2.ll	aep4, a3, a3
    4e05:	0b3d           	mov.n	a3, a11
    4e07:	0f4c           	movi.n	a15, 64
    4e09:	5ca604        	ae_lp24x2f.iu	aep2, a6, 0
    4e0c:	300554        	ae_cvtp24a16x2.ll	aep0, a5, a5
    4e0f:	5c9304        	ae_lp24x2f.iu	aep1, a3, 0
    4e12:	298f76        	loop	a15, 4e3f <inear_ast_nr_proc+0xaaf>
    4e15:	012044        	ae_mulfp24s.hh	aeq0, aep2, aep0
    4e18:	012874        	ae_mulfp24s.ll	aeq1, aep2, aep0
    4e1b:	1b8d74        	ae_roundsp24q48asym	aep7, aeq0
    4e1e:	1b9d54        	ae_roundsp24q48asym	aep5, aeq1
    4e21:	017344        	ae_mulfp24s.hh	aeq0, aep7, aep3
    4e24:	015b74        	ae_mulfp24s.ll	aeq1, aep5, aep3
    4e27:	011404        	ae_mulafp24s.hh	aeq0, aep1, aep4
    4e2a:	011c34        	ae_mulafp24s.ll	aeq1, aep1, aep4
    4e2d:	1b8d64        	ae_roundsp24q48asym	aep6, aeq0
    4e30:	1b9d74        	ae_roundsp24q48asym	aep7, aeq1
    4e33:	1aef94        	ae_selp24.hh	aep1, aep6, aep7
    4e36:	5e9304        	ae_sp24x2f.iu	aep1, a3, 0
    4e39:	5ca614        	ae_lp24x2f.iu	aep2, a6, 8
    4e3c:	5c9314        	ae_lp24x2f.iu	aep1, a3, 8

00004e3f <inear_ast_nr_proc+0xaaf>:
    4e3f:	04d252        	addmi	a5, a2, 0x400
    4e42:	489552        	l16si	a5, a5, 144
    4e45:	303554        	ae_cvtp24a16x2.ll	aep3, a5, a5
    4e48:	074c           	movi.n	a7, 64
    4e4a:	c05450        	sub	a5, a4, a5
    4e4d:	a55d           	ae_clamps16	a5, a5
    4e4f:	304554        	ae_cvtp24a16x2.ll	aep4, a5, a5
    4e52:	298776        	loop	a7, 4e7f <inear_ast_nr_proc+0xaef>
    4e55:	012044        	ae_mulfp24s.hh	aeq0, aep2, aep0
    4e58:	012874        	ae_mulfp24s.ll	aeq1, aep2, aep0
    4e5b:	1b8d74        	ae_roundsp24q48asym	aep7, aeq0
    4e5e:	1b9d54        	ae_roundsp24q48asym	aep5, aeq1
    4e61:	017344        	ae_mulfp24s.hh	aeq0, aep7, aep3
    4e64:	015b74        	ae_mulfp24s.ll	aeq1, aep5, aep3
    4e67:	011404        	ae_mulafp24s.hh	aeq0, aep1, aep4
    4e6a:	011c34        	ae_mulafp24s.ll	aeq1, aep1, aep4
    4e6d:	1b8d64        	ae_roundsp24q48asym	aep6, aeq0
    4e70:	1b9d74        	ae_roundsp24q48asym	aep7, aeq1
    4e73:	1aef94        	ae_selp24.hh	aep1, aep6, aep7
    4e76:	5e9304        	ae_sp24x2f.iu	aep1, a3, 0
    4e79:	5ca614        	ae_lp24x2f.iu	aep2, a6, 8
    4e7c:	5c9314        	ae_lp24x2f.iu	aep1, a3, 8
    4e7f:	04d252        	addmi	a5, a2, 0x400
    4e82:	499552        	l16si	a5, a5, 146
    4e85:	81a0f2        	movi	a15, 129
    4e88:	303554        	ae_cvtp24a16x2.ll	aep3, a5, a5
    4e8b:	c04450        	sub	a4, a4, a5
    4e8e:	a44d           	ae_clamps16	a4, a4
    4e90:	304444        	ae_cvtp24a16x2.ll	aep4, a4, a4
    4e93:	f03d           	nop.n
    4e95:	298f76        	loop	a15, 4ec2 <inear_ast_nr_proc+0xb32>
    4e98:	012044        	ae_mulfp24s.hh	aeq0, aep2, aep0
    4e9b:	012874        	ae_mulfp24s.ll	aeq1, aep2, aep0
    4e9e:	1b8d74        	ae_roundsp24q48asym	aep7, aeq0
    4ea1:	1b9d54        	ae_roundsp24q48asym	aep5, aeq1
    4ea4:	017344        	ae_mulfp24s.hh	aeq0, aep7, aep3
    4ea7:	015b74        	ae_mulfp24s.ll	aeq1, aep5, aep3
    4eaa:	011404        	ae_mulafp24s.hh	aeq0, aep1, aep4
    4ead:	011c34        	ae_mulafp24s.ll	aeq1, aep1, aep4
    4eb0:	1b8d64        	ae_roundsp24q48asym	aep6, aeq0
    4eb3:	1b9d74        	ae_roundsp24q48asym	aep7, aeq1
    4eb6:	1aef94        	ae_selp24.hh	aep1, aep6, aep7
    4eb9:	5e9304        	ae_sp24x2f.iu	aep1, a3, 0
    4ebc:	5ca614        	ae_lp24x2f.iu	aep2, a6, 8
    4ebf:	5c9314        	ae_lp24x2f.iu	aep1, a3, 8
    4ec2:	000c86        	j	4ef8 <inear_ast_nr_proc+0xb68>

00004ec5 <inear_ast_nr_proc+0xb35>:
    4ec5:	04d232        	addmi	a3, a2, 0x400
    4ec8:	401332        	l16ui	a3, a3, 128
    4ecb:	4198           	l32i.n	a9, a1, 16
    4ecd:	300334        	ae_cvtp24a16x2.ll	aep0, a3, a3
    4ed0:	053d           	mov.n	a3, a5
    4ed2:	01a142        	movi	a4, 0x101
    4ed5:	5c9604        	ae_lp24x2f.iu	aep1, a6, 0
    4ed8:	5ca304        	ae_lp24x2f.iu	aep2, a3, 0
    4edb:	05bd           	mov.n	a11, a5
    4edd:	178476        	loop	a4, 4ef8 <inear_ast_nr_proc+0xb68>
    4ee0:	011044        	ae_mulfp24s.hh	aeq0, aep1, aep0
    4ee3:	011874        	ae_mulfp24s.ll	aeq1, aep1, aep0
    4ee6:	1b8d64        	ae_roundsp24q48asym	aep6, aeq0
    4ee9:	1b9d24        	ae_roundsp24q48asym	aep2, aeq1
    4eec:	1aea94        	ae_selp24.hh	aep1, aep6, aep2
    4eef:	5e9304        	ae_sp24x2f.iu	aep1, a3, 0
    4ef2:	5c9614        	ae_lp24x2f.iu	aep1, a6, 8
    4ef5:	5cf314        	ae_lp24x2f.iu	aep7, a3, 8

00004ef8 <inear_ast_nr_proc+0xb68>:
    4ef8:	18cb32        	addi	a3, a11, 24
    4efb:	024d           	mov.n	a4, a2
    4efd:	fea052        	movi	a5, 254
    4f00:	5c8304        	ae_lp24x2f.iu	aep0, a3, 0
    4f03:	409404        	ae_lp16f.iu	aep1, a4, 0
    4f06:	228576        	loop	a5, 4f2c <inear_ast_nr_proc+0xb9c>
    4f09:	010154        	ae_mulfp24s.hl	aeq0, aep0, aep1
    4f0c:	010974        	ae_mulfp24s.ll	aeq1, aep0, aep1
    4f0f:	3600d4        	ae_sllisq56s	aeq0, aeq0, 3
    4f12:	fc00fad0ff 	{ ae_sllisq56s	aeq3, aeq1, 3; ae_satq48s	aeq0, aeq0 }
    4f17:	1b8d64        	ae_roundsp24q48asym	aep6, aeq0
    4f1a:	060b44        	ae_satq48s	aeq0, aeq3
    4f1d:	1b8d74        	ae_roundsp24q48asym	aep7, aeq0
    4f20:	1aef84        	ae_selp24.hh	aep0, aep6, aep7
    4f23:	5e8304        	ae_sp24x2f.iu	aep0, a3, 0
    4f26:	5c8314        	ae_lp24x2f.iu	aep0, a3, 8
    4f29:	409414        	ae_lp16f.iu	aep1, a4, 2

00004f2c <inear_ast_nr_proc+0xb9c>:
    4f2c:	6ba332        	movi	a3, 0x36b
    4f2f:	411942        	l16ui	a4, a9, 130
    4f32:	8168           	l32i.n	a6, a1, 32
    4f34:	1133d0        	slli	a3, a3, 3
    4f37:	a23a           	add.n	a10, a2, a3
    4f39:	ec8531        	l32r	a3, 150 (1bf4 <fn_syn_frame>)
    4f3c:	04d040        	extui	a13, a4, 0, 1
    4f3f:	06cd           	mov.n	a12, a6
    4f41:	095d           	mov.n	a5, a9
    4f43:	0003e0        	callx8	a3
    4f46:	e5a342        	movi	a4, 0x3e5
    4f49:	1144d0        	slli	a4, a4, 3
    4f4c:	411552        	l16ui	a5, a5, 130
    4f4f:	a24a           	add.n	a10, a2, a4
    4f51:	d148           	l32i.n	a4, a1, 52
    4f53:	31b8           	l32i.n	a11, a1, 12
    4f55:	04d050        	extui	a13, a5, 0, 1
    4f58:	04cd           	mov.n	a12, a4
    4f5a:	0003e0        	callx8	a3
    4f5d:	5128           	l32i.n	a2, a1, 20
    4f5f:	162132        	l32i	a3, a1, 88
    4f62:	1721f2        	l32i	a15, a1, 92
    4f65:	822d           	ae_sext16	a2, a2
    4f67:	0369           	s32i.n	a6, a3, 0
    4f69:	0f49           	s32i.n	a4, a15, 0
    4f6b:	f01d           	retw.n

00004f6d <inear_ast_nr_proc+0xbdd>:
    4f6d:	000000                                        ...

00004f70 <_start>:
    4f70:	004136        	entry	a1, 32
    4f73:	ec7831        	l32r	a3, 154 (ee58 <printf_ptr>)
    4f76:	0228           	l32i.n	a2, a2, 0
    4f78:	ec78a1        	l32r	a10, 158 (9f04 <export_parameter_array+0x44>)
    4f7b:	ec78b1        	l32r	a11, 15c (5fd8 <get_aec_nr_memsize>)
    4f7e:	0329           	s32i.n	a2, a3, 0
    4f80:	0002e0        	callx8	a2
    4f83:	0328           	l32i.n	a2, a3, 0
    4f85:	ec76a1        	l32r	a10, 160 (9f1d <export_parameter_array+0x5d>)
    4f88:	ec77b1        	l32r	a11, 164 (60b4 <Voice_WB_TX_Inear_Init>)
    4f8b:	0002e0        	callx8	a2
    4f8e:	0328           	l32i.n	a2, a3, 0
    4f90:	ec76a1        	l32r	a10, 168 (9f3a <export_parameter_array+0x7a>)
    4f93:	ec76b1        	l32r	a11, 16c (69d4 <Voice_WB_TX_Inear_Prcs>)
    4f96:	0002e0        	callx8	a2
    4f99:	0328           	l32i.n	a2, a3, 0
    4f9b:	ec75a1        	l32r	a10, 170 (9f57 <export_parameter_array+0x97>)
    4f9e:	ec75b1        	l32r	a11, 174 (73d4 <EC_REF_GAIN_READBACK>)
    4fa1:	0002e0        	callx8	a2
    4fa4:	0328           	l32i.n	a2, a3, 0
    4fa6:	ec74a1        	l32r	a10, 178 (9f72 <export_parameter_array+0xb2>)
    4fa9:	ec74b1        	l32r	a11, 17c (78f8 <NB_RX_NR_init>)
    4fac:	0002e0        	callx8	a2
    4faf:	0328           	l32i.n	a2, a3, 0
    4fb1:	ec73a1        	l32r	a10, 180 (9f86 <export_parameter_array+0xc6>)
    4fb4:	ec74b1        	l32r	a11, 184 (7314 <Voice_NB_RX_Prcs>)
    4fb7:	0002e0        	callx8	a2
    4fba:	0328           	l32i.n	a2, a3, 0
    4fbc:	ec73a1        	l32r	a10, 188 (9f9d <export_parameter_array+0xdd>)
    4fbf:	ec73b1        	l32r	a11, 18c (766c <WB_RX_NR_init>)
    4fc2:	0002e0        	callx8	a2
    4fc5:	0328           	l32i.n	a2, a3, 0
    4fc7:	ec72a1        	l32r	a10, 190 (9fb1 <export_parameter_array+0xf1>)
    4fca:	ec72b1        	l32r	a11, 194 (7374 <Voice_WB_RX_Prcs>)
    4fcd:	0002e0        	callx8	a2
    4fd0:	0328           	l32i.n	a2, a3, 0
    4fd2:	ec71a1        	l32r	a10, 198 (9fc8 <export_parameter_array+0x108>)
    4fd5:	ec71b1        	l32r	a11, 19c (7410 <EC_PreLim_Coef_READBACK>)
    4fd8:	0002e0        	callx8	a2
    4fdb:	0328           	l32i.n	a2, a3, 0
    4fdd:	ec70a1        	l32r	a10, 1a0 (9fe6 <export_parameter_array+0x126>)
    4fe0:	ec71b1        	l32r	a11, 1a4 (742c <AEC_NR_Write_FLASH>)
    4fe3:	0002e0        	callx8	a2
    4fe6:	0328           	l32i.n	a2, a3, 0
    4fe8:	ec70a1        	l32r	a10, 1a8 (9fff <export_parameter_array+0x13f>)
    4feb:	ec70b1        	l32r	a11, 1ac (83c <EQ_update>)
    4fee:	0002e0        	callx8	a2
    4ff1:	0328           	l32i.n	a2, a3, 0
    4ff3:	ec6fa1        	l32r	a10, 1b0 (a00f <export_parameter_array+0x14f>)
    4ff6:	ec6fb1        	l32r	a11, 1b4 (5fe0 <get_txnr_pitch_last>)
    4ff9:	0002e0        	callx8	a2
    4ffc:	0328           	l32i.n	a2, a3, 0
    4ffe:	ec6ea1        	l32r	a10, 1b8 (a029 <export_parameter_array+0x169>)
    5001:	ec6eb1        	l32r	a11, 1bc (7424 <DaulMIC_power_Coef_READBACK>)
    5004:	0002e0        	callx8	a2
    5007:	0328           	l32i.n	a2, a3, 0
    5009:	ec6da1        	l32r	a10, 1c0 (a04b <export_parameter_array+0x18b>)
    500c:	ec6eb1        	l32r	a11, 1c4 (7434 <TWO_MIC_WB_Write_FLASH>)
    500f:	0002e0        	callx8	a2
    5012:	0328           	l32i.n	a2, a3, 0
    5014:	ec6da1        	l32r	a10, 1c8 (a068 <export_parameter_array+0x1a8>)
    5017:	ec6db1        	l32r	a11, 1cc (743c <IE_EC_REF_GAIN_READBACK>)
    501a:	0002e0        	callx8	a2
    501d:	0328           	l32i.n	a2, a3, 0
    501f:	ec6ca1        	l32r	a10, 1d0 (a086 <export_parameter_array+0x1c6>)
    5022:	ec6cb1        	l32r	a11, 1d4 (6098 <Get_AirDump_Inear>)
    5025:	0002e0        	callx8	a2
    5028:	0328           	l32i.n	a2, a3, 0
    502a:	ec6ba1        	l32r	a10, 1d8 (a09e <export_parameter_array+0x1de>)
    502d:	ec6bb1        	l32r	a11, 1dc (5fd0 <get_ECNR_SVN>)
    5030:	0002e0        	callx8	a2
    5033:	ec6b21        	l32r	a2, 1e0 (9ec0 <export_parameter_array>)
    5036:	f01d           	retw.n

00005038 <real_512_fft>:
    5038:	004136        	entry	a1, 32
    503b:	ec6a61        	l32r	a6, 1e4 (a0c0 <fftorder_512>)
    503e:	fcc342        	addi	a4, a3, -4
    5041:	00a1a2        	movi	a10, 0x100
    5044:	877c           	movi.n	a7, -8
    5046:	480c           	movi.n	a8, 4
    5048:	fcc252        	addi	a5, a2, -4
    504b:	049d           	mov.n	a9, a4
    504d:	208a76        	loop	a10, 5071 <real_512_fft+0x39>
    5050:	26ad           	ae_l16si.n	a10, a6, 0
    5052:	662b           	addi.n	a6, a6, 2
    5054:	ba1b           	addi.n	a11, a10, 1
    5056:	b3baa0        	movgez	a11, a10, a10
    5059:	11abe0        	slli	a10, a11, 2
    505c:	10ba70        	and	a11, a10, a7
    505f:	41a3a0        	srli	a10, a10, 3
    5062:	6022b4        	ae_lq32f.x	aeq0, a2, a11
    5065:	b0aa80        	addx8	a10, a10, a8
    5068:	624914        	ae_sq32f.iu	aeq0, a9, 4
    506b:	6022a4        	ae_lq32f.x	aeq0, a2, a10
    506e:	624914        	ae_sq32f.iu	aeq0, a9, 4

00005071 <real_512_fft+0x39>:
    5071:	ec5d61        	l32r	a6, 1e8 (8fc0 <sw_fft_32b_2811>)
    5074:	00a1b2        	movi	a11, 0x100
    5077:	8c0c           	movi.n	a12, 8
    5079:	1d0c           	movi.n	a13, 1
    507b:	1e0c           	movi.n	a14, 1
    507d:	03ad           	mov.n	a10, a3
    507f:	0006e0        	callx8	a6
    5082:	036d           	mov.n	a6, a3
    5084:	00a272        	movi	a7, 0x200
    5087:	601604        	ae_lq32f.iu	aeq0, a6, 0
    508a:	0b8776        	loop	a7, 5099 <real_512_fft+0x61>
    508d:	3500b4        	ae_sraiq56	aeq0, aeq0, 2
    5090:	060934        	ae_roundsq32asym	aeq0, aeq0
    5093:	624514        	ae_sq32f.iu	aeq0, a5, 4
    5096:	601614        	ae_lq32f.iu	aeq0, a6, 4
    5099:	ec5451        	l32r	a5, 1ec (a4c0 <A_RI>)
    509c:	ec5561        	l32r	a6, 1f0 (a8c0 <B_RI>)
    509f:	f8a772        	movi	a7, 0x7f8
    50a2:	08d382        	addmi	a8, a3, 0x800
    50a5:	803270        	add	a3, a2, a7
    50a8:	601204        	ae_lq32f.iu	aeq0, a2, 0
    50ab:	448504        	ae_lp16x2f.iu	aep0, a5, 0
    50ae:	d5623d321f 	{ ae_lq32f.iu	aeq1, a2, 4; ae_mulfq32sp16s.h	aeq2, aeq0, aep0 }
    50b3:	d5636d960f 	{ ae_lp16x2f.iu	aep1, a6, 0; ae_mulfq32sp16s.h	aeq3, aeq1, aep0 }
    50b8:	f9818000ef 	{ movi	a14, 0; ae_mulsfq32sp16s.l	aeq2, aeq1, aep0 }
    50bd:	f582c0ffff 	{ movi	a15, 255; ae_mulafq32sp16s.l	aeq3, aeq0, aep0 }
    50c2:	f506ad861f 	{ ae_lp16x2f.iu	aep0, a6, 4; ae_mulafq32sp16s.h	aeq2, aeq0, aep1 }
    50c7:	039814        	ae_mulafq32sp16s.l	aeq3, aeq0, aep1
    50ca:	010dc4        	ae_subq56	aeq0, aeq0, aeq1
    50cd:	039054        	ae_mulafq32sp16s.l	aeq2, aeq1, aep1
    50d0:	060844        	ae_satq48s	aeq0, aeq0
    50d3:	f905f9e41f 	{ ae_sq32f.iu	aeq2, a4, 4; ae_mulsfq32sp16s.h	aeq3, aeq1, aep1 }
    50d8:	368d04        	ae_trunca32q48	a13, aeq0
    50db:	627414        	ae_sq32f.iu	aeq3, a4, 4
    50de:	0068d2        	s32i	a13, a8, 0
    50e1:	0168e2        	s32i	a14, a8, 4
    50e4:	449514        	ae_lp16x2f.iu	aep1, a5, 4
    50e7:	605214        	ae_lq32f.iu	aeq1, a2, 4
    50ea:	609304        	ae_lq32f.iu	aeq2, a3, 0
    50ed:	308f76        	loop	a15, 5121 <real_512_fft+0xe9>
    50f0:	d4673d721f 	{ ae_lq32f.iu	aeq3, a2, 4; ae_mulfq32sp16s.h	aeq0, aeq1, aep1 }
    50f5:	0314d4        	ae_mulsfq32sp16s.l	aeq0, aeq3, aep1
    50f8:	039ac4        	ae_mulfq32sp16s.h	aeq3, aeq3, aep1
    50fb:	f587ed951f 	{ ae_lp16x2f.iu	aep1, a5, 4; ae_mulafq32sp16s.l	aeq3, aeq1, aep1 }
    5100:	030084        	ae_mulafq32sp16s.h	aeq0, aeq2, aep0
    5103:	f782fd431f 	{ ae_lq32f.i	aeq2, a3, 4; ae_mulafq32sp16s.l	aeq3, aeq2, aep0 }
    5108:	030094        	ae_mulafq32sp16s.l	aeq0, aeq2, aep0
    510b:	fb00ed861f 	{ ae_lp16x2f.iu	aep0, a6, 4; ae_mulsfq32sp16s.h	aeq3, aeq2, aep0 }
    5110:	060934        	ae_roundsq32asym	aeq0, aeq0
    5113:	ff3c79c41f 	{ ae_sq32f.iu	aeq0, a4, 4; ae_roundsq32asym	aeq3, aeq3 }
    5118:	627414        	ae_sq32f.iu	aeq3, a4, 4
    511b:	605214        	ae_lq32f.iu	aeq1, a2, 4
    511e:	6093e4        	ae_lq32f.iu	aeq2, a3, -8
    5121:	2a2b           	addi.n	a2, a10, 2
    5123:	822d           	ae_sext16	a2, a2
    5125:	f01d           	retw.n

00005127 <real_512_fft+0xef>:
	...

00005128 <real_512_ifft>:
    5128:	004136        	entry	a1, 32
    512b:	ec3041        	l32r	a4, 1ec (a4c0 <A_RI>)
    512e:	ec3051        	l32r	a5, 1f0 (a8c0 <B_RI>)
    5131:	08d262        	addmi	a6, a2, 0x800
    5134:	028d           	mov.n	a8, a2
    5136:	00a192        	movi	a9, 0x100
    5139:	fcc372        	addi	a7, a3, -4
    513c:	449404        	ae_lp16x2f.iu	aep1, a4, 0
    513f:	448504        	ae_lp16x2f.iu	aep0, a5, 0
    5142:	605804        	ae_lq32f.iu	aeq1, a8, 0
    5145:	609604        	ae_lq32f.iu	aeq2, a6, 0
    5148:	308976        	loop	a9, 517c <real_512_ifft+0x54>
    514b:	d4673d781f 	{ ae_lq32f.iu	aeq3, a8, 4; ae_mulfq32sp16s.h	aeq0, aeq1, aep1 }
    5150:	0310d4        	ae_mulafq32sp16s.l	aeq0, aeq3, aep1
    5153:	039ac4        	ae_mulfq32sp16s.h	aeq3, aeq3, aep1
    5156:	f985ed941f 	{ ae_lp16x2f.iu	aep1, a4, 4; ae_mulsfq32sp16s.l	aeq3, aeq1, aep1 }
    515b:	030084        	ae_mulafq32sp16s.h	aeq0, aeq2, aep0
    515e:	fb80fd461f 	{ ae_lq32f.i	aeq2, a6, 4; ae_mulsfq32sp16s.l	aeq3, aeq2, aep0 }
    5163:	030494        	ae_mulsfq32sp16s.l	aeq0, aeq2, aep0
    5166:	fb00ed851f 	{ ae_lp16x2f.iu	aep0, a5, 4; ae_mulsfq32sp16s.h	aeq3, aeq2, aep0 }
    516b:	060934        	ae_roundsq32asym	aeq0, aeq0
    516e:	ff3c79c71f 	{ ae_sq32f.iu	aeq0, a7, 4; ae_roundsq32asym	aeq3, aeq3 }
    5173:	627714        	ae_sq32f.iu	aeq3, a7, 4
    5176:	605814        	ae_lq32f.iu	aeq1, a8, 4
    5179:	6096e4        	ae_lq32f.iu	aeq2, a6, -8

0000517c <real_512_ifft+0x54>:
    517c:	ec1a41        	l32r	a4, 1e4 (a0c0 <fftorder_512>)
    517f:	00a162        	movi	a6, 0x100
    5182:	205220        	or	a5, a2, a2
    5185:	108676        	loop	a6, 5199 <real_512_ifft+0x71>
    5188:	246d           	ae_l16si.n	a6, a4, 0
    518a:	442b           	addi.n	a4, a4, 2
    518c:	a06630        	addx4	a6, a6, a3
    518f:	1678           	l32i.n	a7, a6, 4
    5191:	0579           	s32i.n	a7, a5, 0
    5193:	0668           	l32i.n	a6, a6, 0
    5195:	1569           	s32i.n	a6, a5, 4
    5197:	558b           	addi.n	a5, a5, 8
    5199:	ec1341        	l32r	a4, 1e8 (8fc0 <sw_fft_32b_2811>)
    519c:	00a1b2        	movi	a11, 0x100
    519f:	8c0c           	movi.n	a12, 8
    51a1:	1d0c           	movi.n	a13, 1
    51a3:	1e0c           	movi.n	a14, 1
    51a5:	02ad           	mov.n	a10, a2
    51a7:	0004e0        	callx8	a4
    51aa:	00a142        	movi	a4, 0x100
    51ad:	0b8476        	loop	a4, 51bc <real_512_ifft+0x94>
    51b0:	1248           	l32i.n	a4, a2, 4
    51b2:	0349           	s32i.n	a4, a3, 0
    51b4:	0248           	l32i.n	a4, a2, 0
    51b6:	1349           	s32i.n	a4, a3, 4
    51b8:	228b           	addi.n	a2, a2, 8
    51ba:	338b           	addi.n	a3, a3, 8
    51bc:	f8ca22        	addi	a2, a10, -8
    51bf:	822d           	ae_sext16	a2, a2
    51c1:	f01d           	retw.n

000051c3 <real_512_ifft+0x9b>:
	...

000051c4 <SBAEC_INIT>:
    51c4:	00a136        	entry	a1, 80
    51c7:	eb9931        	l32r	a3, 2c (ee5c <p_ecnr_mem>)
    51ca:	a5a122        	movi	a2, 0x1a5
    51cd:	afa1d2        	movi	a13, 0x1af
    51d0:	0358           	l32i.n	a5, a3, 0
    51d2:	b9a162        	movi	a6, 0x1b9
    51d5:	c3a172        	movi	a7, 0x1c3
    51d8:	cda182        	movi	a8, 0x1cd
    51db:	d7a192        	movi	a9, 0x1d7
    51de:	e1a1e2        	movi	a14, 0x1e1
    51e1:	eba1b2        	movi	a11, 0x1eb
    51e4:	f5a1c2        	movi	a12, 0x1f5
    51e7:	1122d0        	slli	a2, a2, 3
    51ea:	1166d0        	slli	a6, a6, 3
    51ed:	1177d0        	slli	a7, a7, 3
    51f0:	1188d0        	slli	a8, a8, 3
    51f3:	1199d0        	slli	a9, a9, 3
    51f6:	a52a           	add.n	a10, a5, a2
    51f8:	11ccd0        	slli	a12, a12, 3
    51fb:	0dd542        	addmi	a4, a5, 0xd00
    51fe:	11ddd0        	slli	a13, a13, 3
    5201:	11eed0        	slli	a14, a14, 3
    5204:	11bbd0        	slli	a11, a11, 3
    5207:	eb9c21        	l32r	a2, 78 (90e4 <xt_memset>)
    520a:	f5ca           	add.n	a15, a5, a12
    520c:	b149           	s32i.n	a4, a1, 44
    520e:	45da           	add.n	a4, a5, a13
    5210:	d5ea           	add.n	a13, a5, a14
    5212:	e5ba           	add.n	a14, a5, a11
    5214:	656a           	add.n	a6, a5, a6
    5216:	757a           	add.n	a7, a5, a7
    5218:	858a           	add.n	a8, a5, a8
    521a:	959a           	add.n	a9, a5, a9
    521c:	0b0c           	movi.n	a11, 0
    521e:	88a1c2        	movi	a12, 0x188
    5221:	3149           	s32i.n	a4, a1, 12
    5223:	a169           	s32i.n	a6, a1, 40
    5225:	4179           	s32i.n	a7, a1, 16
    5227:	5189           	s32i.n	a8, a1, 20
    5229:	6199           	s32i.n	a9, a1, 24
    522b:	71d9           	s32i.n	a13, a1, 28
    522d:	81e9           	s32i.n	a14, a1, 32
    522f:	91f9           	s32i.n	a15, a1, 36
    5231:	21a9           	s32i.n	a10, a1, 8
    5233:	0002e0        	callx8	a2
    5236:	0368           	l32i.n	a6, a3, 0
    5238:	b0a2f2        	movi	a15, 0x2b0
    523b:	0b0c           	movi.n	a11, 0
    523d:	a6fa           	add.n	a10, a6, a15
    523f:	c0a4c2        	movi	a12, 0x4c0
    5242:	0002e0        	callx8	a2
    5245:	eb7a41        	l32r	a4, 30 (ee50 <aec_nr_para>)
    5248:	092c           	movi.n	a9, 32
    524a:	8a1c           	movi.n	a10, 24
    524c:	0488           	l32i.n	a8, a4, 0
    524e:	074c           	movi.n	a7, 64
    5250:	e31822        	l16ui	a2, a8, 0x1c6
    5253:	1318c2        	l16ui	a12, a8, 38
    5256:	4b0c           	movi.n	a11, 4
    5258:	12bc           	beqz.n	a2, 528d <SBAEC_INIT+0xc9>
    525a:	347020        	extui	a7, a2, 0, 4
    525d:	349420        	extui	a9, a2, 4, 4
    5260:	34a820        	extui	a10, a2, 8, 4
    5263:	1177e0        	slli	a7, a7, 2
    5266:	416c20        	srli	a6, a2, 12
    5269:	11d9d0        	slli	a13, a9, 3
    526c:	11aae0        	slli	a10, a10, 2
    526f:	a096b0        	addx4	a9, a6, a11
    5272:	bd8b           	addi.n	a11, a13, 8
    5274:	774b           	addi.n	a7, a7, 4
    5276:	aa4b           	addi.n	a10, a10, 4
    5278:	43dc70        	min	a13, a12, a7
    527b:	41e1b0        	srli	a14, a11, 1
    527e:	432de0        	min	a2, a13, a14
    5281:	43fa90        	min	a15, a10, a9
    5284:	4322f0        	min	a2, a2, a15
    5287:	135822        	s16i	a2, a8, 38
    528a:	000046        	j	528f <SBAEC_INIT+0xcb>

0000528d <SBAEC_INIT+0xc9>:
    528d:	0b3c           	movi.n	a11, 48
    528f:	10d522        	addmi	a2, a5, 0x1000
    5292:	95a6c2        	movi	a12, 0x695
    5295:	0a5272        	s16i	a7, a2, 20
    5298:	11ccf0        	slli	a12, a12, 1
    529b:	eb6331        	l32r	a3, 28 (90f8 <xt_memcpy>)
    529e:	0b52b2        	s16i	a11, a2, 22
    52a1:	0c52a2        	s16i	a10, a2, 24
    52a4:	a5ca           	add.n	a10, a5, a12
    52a6:	b8eb           	addi.n	a11, a8, 14
    52a8:	ec0c           	movi.n	a12, 14
    52aa:	0d5292        	s16i	a9, a2, 26
    52ad:	0003e0        	callx8	a3
    52b0:	0488           	l32i.n	a8, a4, 0
    52b2:	eb5e31        	l32r	a3, 2c (ee5c <p_ecnr_mem>)
    52b5:	0dd592        	addmi	a9, a5, 0xd00
    52b8:	0618a2        	l16ui	a10, a8, 12
    52bb:	c698b2        	l16si	a11, a8, 0x18c
    52be:	2359b2        	s16i	a11, a9, 70
    52c1:	11aac0        	slli	a10, a10, 4
    52c4:	1369a2        	s32i	a10, a9, 76
    52c7:	6c2882        	l32i	a8, a8, 0x1b0
    52ca:	03c8           	l32i.n	a12, a3, 0
    52cc:	ebcad1        	l32r	a13, 1f4 (cf54 <ath_b45+0x14>)
    52cf:	126982        	s32i	a8, a9, 72
    52d2:	2168           	l32i.n	a6, a1, 8
    52d4:	b0a2f2        	movi	a15, 0x2b0
    52d7:	ecda           	add.n	a14, a12, a13
    52d9:	fcfa           	add.n	a15, a12, a15
    52db:	ebc741        	l32r	a4, 1f8 (55b0 <Fill_CH_MEM_WB>)
    52de:	31a8           	l32i.n	a10, a1, 12
    52e0:	a1b8           	l32i.n	a11, a1, 40
    52e2:	41c8           	l32i.n	a12, a1, 16
    52e4:	51d8           	l32i.n	a13, a1, 20
    52e6:	0e38           	l32i.n	a3, a14, 0
    52e8:	06ed           	mov.n	a14, a6
    52ea:	0139           	s32i.n	a3, a1, 0
    52ec:	0004e0        	callx8	a4
    52ef:	eb4f41        	l32r	a4, 2c (ee5c <p_ecnr_mem>)
    52f2:	ebc0b1        	l32r	a11, 1f4 (cf54 <ath_b45+0x14>)
    52f5:	0a9232        	l16si	a3, a2, 20
    52f8:	04c8           	l32i.n	a12, a4, 0
    52fa:	0b9282        	l16si	a8, a2, 22
    52fd:	0c9292        	l16si	a9, a2, 24
    5300:	0d92a2        	l16si	a10, a2, 26
    5303:	bcba           	add.n	a11, a12, a11
    5305:	0be8           	l32i.n	a14, a11, 0
    5307:	99aa           	add.n	a9, a9, a10
    5309:	383a           	add.n	a3, a8, a3
    530b:	339a           	add.n	a3, a3, a9
    530d:	18a1d2        	movi	a13, 0x118
    5310:	a033c0        	addx4	a3, a3, a12
    5313:	b0a2f2        	movi	a15, 0x2b0
    5316:	9eda           	add.n	a9, a14, a13
    5318:	f3fa           	add.n	a15, a3, a15
    531a:	61a8           	l32i.n	a10, a1, 24
    531c:	71b8           	l32i.n	a11, a1, 28
    531e:	81c8           	l32i.n	a12, a1, 32
    5320:	91d8           	l32i.n	a13, a1, 36
    5322:	ebb531        	l32r	a3, 1f8 (55b0 <Fill_CH_MEM_WB>)
    5325:	06ed           	mov.n	a14, a6
    5327:	0199           	s32i.n	a9, a1, 0
    5329:	0003e0        	callx8	a3
    532c:	0dd562        	addmi	a6, a5, 0xd00
    532f:	0438           	l32i.n	a3, a4, 0
    5331:	302642        	l32i	a4, a6, 192
    5334:	eb3f61        	l32r	a6, 30 (ee50 <aec_nr_para>)
    5337:	0fd592        	addmi	a9, a5, 0xf00
    533a:	0949           	s32i.n	a4, a9, 0
    533c:	0ed592        	addmi	a9, a5, 0xe00
    533f:	06f8           	l32i.n	a15, a6, 0
    5341:	4948           	l32i.n	a4, a9, 16
    5343:	546942        	s32i	a4, a9, 0x150
    5346:	182942        	l32i	a4, a9, 96
    5349:	a723e2        	l32i	a14, a3, 0x29c
    534c:	a323d2        	l32i	a13, a3, 0x28c
    534f:	a52332        	l32i	a3, a3, 0x294
    5352:	686942        	s32i	a4, a9, 0x1a0
    5355:	7b6932        	s32i	a3, a9, 0x1ec
    5358:	0fd5a2        	addmi	a10, a5, 0xf00
    535b:	21a9           	s32i.n	a10, a1, 8
    535d:	3c6ae2        	s32i	a14, a10, 240
    5360:	0a92b2        	l16si	a11, a2, 20
    5363:	169fc2        	l16si	a12, a15, 44
    5366:	eba531        	l32r	a3, 1fc (5528 <Fill_sbco>)
    5369:	31a8           	l32i.n	a10, a1, 12
    536b:	2b69d2        	s32i	a13, a9, 172
    536e:	1d0c           	movi.n	a13, 1
    5370:	2c69e2        	s32i	a14, a9, 176
    5373:	0003e0        	callx8	a3
    5376:	0b9282        	l16si	a8, a2, 22
    5379:	0698           	l32i.n	a9, a6, 0
    537b:	a148           	l32i.n	a4, a1, 40
    537d:	a81b           	addi.n	a10, a8, 1
    537f:	b3a880        	movgez	a10, a8, a8
    5382:	1799c2        	l16si	a12, a9, 46
    5385:	21b1a0        	srai	a11, a10, 1
    5388:	1d0c           	movi.n	a13, 1
    538a:	04ad           	mov.n	a10, a4
    538c:	0003e0        	callx8	a3
    538f:	0688           	l32i.n	a8, a6, 0
    5391:	0c92b2        	l16si	a11, a2, 24
    5394:	41a8           	l32i.n	a10, a1, 16
    5396:	1898c2        	l16si	a12, a8, 48
    5399:	1d0c           	movi.n	a13, 1
    539b:	0003e0        	callx8	a3
    539e:	0688           	l32i.n	a8, a6, 0
    53a0:	0d92b2        	l16si	a11, a2, 26
    53a3:	10d572        	addmi	a7, a5, 0x1000
    53a6:	51a8           	l32i.n	a10, a1, 20
    53a8:	1998c2        	l16si	a12, a8, 50
    53ab:	1d0c           	movi.n	a13, 1
    53ad:	0003e0        	callx8	a3
    53b0:	0688           	l32i.n	a8, a6, 0
    53b2:	0a92b2        	l16si	a11, a2, 20
    53b5:	61a8           	l32i.n	a10, a1, 24
    53b7:	07d882        	addmi	a8, a8, 0x700
    53ba:	5098c2        	l16si	a12, a8, 160
    53bd:	4d0c           	movi.n	a13, 4
    53bf:	0003e0        	callx8	a3
    53c2:	0688           	l32i.n	a8, a6, 0
    53c4:	0b9222        	l16si	a2, a2, 22
    53c7:	71a8           	l32i.n	a10, a1, 28
    53c9:	07d882        	addmi	a8, a8, 0x700
    53cc:	921b           	addi.n	a9, a2, 1
    53ce:	b39220        	movgez	a9, a2, a2
    53d1:	5198c2        	l16si	a12, a8, 162
    53d4:	21b190        	srai	a11, a9, 1
    53d7:	4d0c           	movi.n	a13, 4
    53d9:	0003e0        	callx8	a3
    53dc:	0628           	l32i.n	a2, a6, 0
    53de:	0c97b2        	l16si	a11, a7, 24
    53e1:	81a8           	l32i.n	a10, a1, 32
    53e3:	07d222        	addmi	a2, a2, 0x700
    53e6:	5292c2        	l16si	a12, a2, 164
    53e9:	4d0c           	movi.n	a13, 4
    53eb:	0003e0        	callx8	a3
    53ee:	0628           	l32i.n	a2, a6, 0
    53f0:	0d97b2        	l16si	a11, a7, 26
    53f3:	91a8           	l32i.n	a10, a1, 36
    53f5:	07d222        	addmi	a2, a2, 0x700
    53f8:	5392c2        	l16si	a12, a2, 166
    53fb:	4d0c           	movi.n	a13, 4
    53fd:	0003e0        	callx8	a3
    5400:	0628           	l32i.n	a2, a6, 0
    5402:	31a8           	l32i.n	a10, a1, 12
    5404:	eb9232        	l16si	a3, a2, 0x1d6
    5407:	ef9272        	l16si	a7, a2, 0x1de
    540a:	f39222        	l16si	a2, a2, 0x1e6
    540d:	21b830        	srai	a11, a3, 8
    5410:	21c870        	srai	a12, a7, 8
    5413:	21d820        	srai	a13, a2, 8
    5416:	eb7a21        	l32r	a2, 200 (5570 <Fill_sbco_v2>)
    5419:	0002e0        	callx8	a2
    541c:	0638           	l32i.n	a3, a6, 0
    541e:	04ad           	mov.n	a10, a4
    5420:	eb93b2        	l16si	a11, a3, 0x1d6
    5423:	ef93c2        	l16si	a12, a3, 0x1de
    5426:	f393d2        	l16si	a13, a3, 0x1e6
    5429:	0002e0        	callx8	a2
    542c:	0638           	l32i.n	a3, a6, 0
    542e:	41a8           	l32i.n	a10, a1, 16
    5430:	ec9372        	l16si	a7, a3, 0x1d8
    5433:	f09382        	l16si	a8, a3, 0x1e0
    5436:	f49332        	l16si	a3, a3, 0x1e8
    5439:	21b870        	srai	a11, a7, 8
    543c:	21c880        	srai	a12, a8, 8
    543f:	21d830        	srai	a13, a3, 8
    5442:	0002e0        	callx8	a2
    5445:	0638           	l32i.n	a3, a6, 0
    5447:	51a8           	l32i.n	a10, a1, 20
    5449:	ec93b2        	l16si	a11, a3, 0x1d8
    544c:	f093c2        	l16si	a12, a3, 0x1e0
    544f:	f493d2        	l16si	a13, a3, 0x1e8
    5452:	0002e0        	callx8	a2
    5455:	0638           	l32i.n	a3, a6, 0
    5457:	61a8           	l32i.n	a10, a1, 24
    5459:	ed9372        	l16si	a7, a3, 0x1da
    545c:	f19382        	l16si	a8, a3, 0x1e2
    545f:	f59332        	l16si	a3, a3, 0x1ea
    5462:	21b870        	srai	a11, a7, 8
    5465:	21c880        	srai	a12, a8, 8
    5468:	21d830        	srai	a13, a3, 8
    546b:	0002e0        	callx8	a2
    546e:	0638           	l32i.n	a3, a6, 0
    5470:	71a8           	l32i.n	a10, a1, 28
    5472:	ed93b2        	l16si	a11, a3, 0x1da
    5475:	f193c2        	l16si	a12, a3, 0x1e2
    5478:	f593d2        	l16si	a13, a3, 0x1ea
    547b:	0002e0        	callx8	a2
    547e:	0638           	l32i.n	a3, a6, 0
    5480:	81a8           	l32i.n	a10, a1, 32
    5482:	ee9372        	l16si	a7, a3, 0x1dc
    5485:	f29382        	l16si	a8, a3, 0x1e4
    5488:	f69332        	l16si	a3, a3, 0x1ec
    548b:	21b870        	srai	a11, a7, 8
    548e:	21c880        	srai	a12, a8, 8
    5491:	21d830        	srai	a13, a3, 8
    5494:	0002e0        	callx8	a2
    5497:	0638           	l32i.n	a3, a6, 0
    5499:	91a8           	l32i.n	a10, a1, 36
    549b:	ee93b2        	l16si	a11, a3, 0x1dc
    549e:	f293c2        	l16si	a12, a3, 0x1e4
    54a1:	f693d2        	l16si	a13, a3, 0x1ec
    54a4:	0002e0        	callx8	a2
    54a7:	eae141        	l32r	a4, 2c (ee5c <p_ecnr_mem>)
    54aa:	ffa0d2        	movi	a13, 255
    54ad:	0628           	l32i.n	a2, a6, 0
    54af:	7fdd62        	addmi	a6, a13, 0x7f00
    54b2:	0dd572        	addmi	a7, a5, 0xd00
    54b5:	295762        	s16i	a6, a7, 82
    54b8:	0478           	l32i.n	a7, a4, 0
    54ba:	b1a8           	l32i.n	a10, a1, 44
    54bc:	21b8           	l32i.n	a11, a1, 8
    54be:	029292        	l16si	a9, a2, 4
    54c1:	145a92        	s16i	a9, a10, 40
    54c4:	a12792        	l32i	a9, a7, 0x284
    54c7:	eb12d2        	l16ui	a13, a2, 0x1d6
    54ca:	446b92        	s32i	a9, a11, 0x110
    54cd:	041292        	l16ui	a9, a2, 8
    54d0:	ffa0e2        	movi	a14, 255
    54d3:	10d532        	addmi	a3, a5, 0x1000
    54d6:	f79282        	l16si	a8, a2, 0x1ee
    54d9:	1592f2        	l16si	a15, a2, 42
    54dc:	70c742        	addi	a4, a7, 112
    54df:	ada6c2        	movi	a12, 0x6ad
    54e2:	0f5382        	s16i	a8, a3, 30
    54e5:	ff54f2        	s16i	a15, a4, 0x1fe
    54e8:	114cf0        	slli	a4, a12, 1
    54eb:	62eed0        	saltu	a14, a14, a13
    54ee:	94a7f2        	movi	a15, 0x794
    54f1:	0e53e2        	s16i	a14, a3, 28
    54f4:	a54a           	add.n	a10, a5, a4
    54f6:	b2fa           	add.n	a11, a2, a15
    54f8:	0ed542        	addmi	a4, a5, 0xe00
    54fb:	2392e2        	l16si	a14, a2, 70
    54fe:	0592d2        	l16si	a13, a2, 10
    5501:	7ac7c2        	addi	a12, a7, 122
    5504:	143190        	extui	a3, a9, 1, 2
    5507:	dc9222        	l16si	a2, a2, 0x1b8
    550a:	ff5c32        	s16i	a3, a12, 0x1fe
    550d:	ff5422        	s16i	a2, a4, 0x1fe
    5510:	eac621        	l32r	a2, 28 (90f8 <xt_memcpy>)
    5513:	04f090        	extui	a15, a9, 0, 1
    5516:	3c0c           	movi.n	a12, 3
    5518:	fd54d2        	s16i	a13, a4, 0x1fa
    551b:	fe54e2        	s16i	a14, a4, 0x1fc
    551e:	fc54f2        	s16i	a15, a4, 0x1f8
    5521:	0002e0        	callx8	a2
    5524:	f01d           	retw.n

00005526 <SBAEC_INIT+0x362>:
	...

00005528 <Fill_sbco>:
    5528:	004136        	entry	a1, 32
    552b:	ffa062        	movi	a6, 255
    552e:	11f400        	slli	a15, a4, 16
    5531:	7fd662        	addmi	a6, a6, 0x7f00
    5534:	115232        	s16i	a3, a2, 34
    5537:	105262        	s16i	a6, a2, 32
    553a:	125252        	s16i	a5, a2, 36
    553d:	52f9           	s32i.n	a15, a2, 20
    553f:	42f9           	s32i.n	a15, a2, 16
    5541:	f01d           	retw.n

00005543 <Fill_sbco+0x1b>:
	...

00005544 <dt_ratio_thrd_form>:
    5544:	004136        	entry	a1, 32
    5547:	66a032        	movi	a3, 102
    554a:	66d332        	addmi	a3, a3, 0x6600
    554d:	742020        	extui	a2, a2, 0, 8
    5550:	d12230        	mul16s	a2, a2, a3
    5553:	48a1e2        	movi	a14, 0x148
    5556:	40c222        	addi	a2, a2, 64
    5559:	412720        	srli	a2, a2, 7
    555c:	eb2af1        	l32r	a15, 204 (cd080 <_end+0xbe21c>)
    555f:	8222e0        	mull	a2, a2, a14
    5562:	22fa           	add.n	a2, a2, a15
    5564:	412820        	srli	a2, a2, 8
    5567:	a22d           	ae_clamps16	a2, a2
    5569:	822d           	ae_sext16	a2, a2
    556b:	f01d           	retw.n

0000556d <dt_ratio_thrd_form+0x29>:
    556d:	000000                                        ...

00005570 <Fill_sbco_v2>:
    5570:	004136        	entry	a1, 32
    5573:	66a062        	movi	a6, 102
    5576:	743030        	extui	a3, a3, 0, 8
    5579:	66d662        	addmi	a6, a6, 0x6600
    557c:	74c040        	extui	a12, a4, 0, 8
    557f:	1a5232        	s16i	a3, a2, 52
    5582:	d13c60        	mul16s	a3, a12, a6
    5585:	48a1e2        	movi	a14, 0x148
    5588:	40c332        	addi	a3, a3, 64
    558b:	413730        	srli	a3, a3, 7
    558e:	eb1df1        	l32r	a15, 204 (cd080 <_end+0xbe21c>)
    5591:	8233e0        	mull	a3, a3, a14
    5594:	eb1dd1        	l32r	a13, 208 (b5e0 <T_aec_min_gain>)
    5597:	33fa           	add.n	a3, a3, a15
    5599:	745050        	extui	a5, a5, 0, 8
    559c:	9045d0        	addx2	a4, a5, a13
    559f:	413830        	srli	a3, a3, 8
    55a2:	244d           	ae_l16si.n	a4, a4, 0
    55a4:	a33d           	ae_clamps16	a3, a3
    55a6:	185242        	s16i	a4, a2, 48
    55a9:	195232        	s16i	a3, a2, 50
    55ac:	f01d           	retw.n

000055ae <Fill_sbco_v2+0x3e>:
	...

000055b0 <Fill_CH_MEM_WB>:
    55b0:	004136        	entry	a1, 32
    55b3:	8188           	l32i.n	a8, a1, 32
    55b5:	8ca092        	movi	a9, 140
    55b8:	a0a0a2        	movi	a10, 160
    55bb:	50c8f2        	addi	a15, a8, 80
    55be:	c8a0b2        	movi	a11, 200
    55c1:	f0a0c2        	movi	a12, 240
    55c4:	116382        	s32i	a8, a3, 68
    55c7:	28c8d2        	addi	a13, a8, 40
    55ca:	1162f2        	s32i	a15, a2, 68
    55cd:	04a1f2        	movi	a15, 0x104
    55d0:	1363d2        	s32i	a13, a3, 76
    55d3:	64c8e2        	addi	a14, a8, 100
    55d6:	b8ba           	add.n	a11, a8, a11
    55d8:	989a           	add.n	a9, a8, a9
    55da:	a8aa           	add.n	a10, a8, a10
    55dc:	c8ca           	add.n	a12, a8, a12
    55de:	d8fa           	add.n	a13, a8, a15
    55e0:	78c882        	addi	a8, a8, 120
    55e3:	136282        	s32i	a8, a2, 76
    55e6:	136492        	s32i	a9, a4, 76
    55e9:	02d692        	addmi	a9, a6, 0x200
    55ec:	1164e2        	s32i	a14, a4, 68
    55ef:	7699e2        	l16si	a14, a9, 236
    55f2:	1365a2        	s32i	a10, a5, 76
    55f5:	779982        	l16si	a8, a9, 238
    55f8:	7899f2        	l16si	a15, a9, 240
    55fb:	1263b2        	s32i	a11, a3, 72
    55fe:	799962        	l16si	a6, a9, 242
    5601:	90be70        	addx2	a11, a14, a7
    5604:	a279           	s32i.n	a7, a2, 40
    5606:	9078b0        	addx2	a7, a8, a11
    5609:	a3b9           	s32i.n	a11, a3, 40
    560b:	a479           	s32i.n	a7, a4, 40
    560d:	907f70        	addx2	a7, a15, a7
    5610:	906670        	addx2	a6, a6, a7
    5613:	b269           	s32i.n	a6, a2, 44
    5615:	906e60        	addx2	a6, a14, a6
    5618:	a579           	s32i.n	a7, a5, 40
    561a:	b369           	s32i.n	a6, a3, 44
    561c:	906860        	addx2	a6, a8, a6
    561f:	1262c2        	s32i	a12, a2, 72
    5622:	1264d2        	s32i	a13, a4, 72
    5625:	a3c8           	l32i.n	a12, a3, 40
    5627:	a2d8           	l32i.n	a13, a2, 40
    5629:	a4e8           	l32i.n	a14, a4, 40
    562b:	90ff60        	addx2	a15, a15, a6
    562e:	1063c2        	s32i	a12, a3, 64
    5631:	1062d2        	s32i	a13, a2, 64
    5634:	1064e2        	s32i	a14, a4, 64
    5637:	b469           	s32i.n	a6, a4, 44
    5639:	106572        	s32i	a7, a5, 64
    563c:	b5f9           	s32i.n	a15, a5, 44
    563e:	f01d           	retw.n

00005640 <common_x_pow>:
    5640:	004136        	entry	a1, 32
    5643:	360334        	ae_cvtq48a32s	aeq0, a3
    5646:	fe00bec47f 	{ ae_cvtq48a32s	aeq1, a4; ae_absq56	aeq2, aeq0 }
    564b:	ff0480005f 	{ movi	a5, 0; ae_absq56	aeq3, aeq1 }
    5650:	d6d80001ff 	{ movi	a15, 1; ae_ltq56s	b0, aeq2, aeq3 }
    5655:	023d           	mov.n	a3, a2
    5657:	120c           	movi.n	a2, 1
    5659:	d35f00        	movt	a5, a15, b0
    565c:	65ac           	beqz.n	a5, 5686 <common_x_pow+0x46>
    565e:	f9bac0004f 	{ movi	a4, 0; ae_subq56	aeq1, aeq3, aeq2 }
    5663:	0122b0        	slli	a2, a2, 21
    5666:	36c234        	ae_cvtq48a32s	aeq3, a2
    5669:	d6cc0001ff 	{ movi	a15, 1; ae_ltq56s	b0, aeq3, aeq1 }
    566e:	120c           	movi.n	a2, 1
    5670:	eae751        	l32r	a5, 20c (2aaa00 <_end+0x29bb9c>)
    5673:	fd04564f0f 	{ movt	a4, a15, b0; ae_movq56	aeq1, aeq0 }
    5678:	c48c           	beqz.n	a4, 5688 <common_x_pow+0x48>
    567a:	398554        	ae_movpa24x2	aep0, a5, a5
    567d:	030a14        	ae_mulfq32sp16s.l	aeq1, aeq0, aep0
    5680:	065934        	ae_roundsq32asym	aeq1, aeq1
    5683:	000046        	j	5688 <common_x_pow+0x48>

00005686 <common_x_pow+0x46>:
    5686:	020c           	movi.n	a2, 0
    5688:	eae241        	l32r	a4, 210 (acc0 <immediate_num>)
    568b:	608324        	ae_lq32f.i	aeq2, a3, 8
    568e:	60c334        	ae_lq32f.i	aeq3, a3, 12
    5691:	440404        	ae_lp16x2f.i	aep0, a4, 0
    5694:	c10084        	ae_mulzaafq32sp16s.lh	aeq0, aeq2, aep0, aeq0, aep0
    5697:	c108d4        	ae_mulzaafq32sp16s.lh	aeq1, aeq3, aep0, aeq1, aep0
    569a:	060934        	ae_roundsq32asym	aeq0, aeq0
    569d:	fd2c79832f 	{ ae_sq32f.i	aeq0, a3, 8; ae_roundsq32asym	aeq1, aeq1 }
    56a2:	621334        	ae_sq32f.i	aeq1, a3, 12
    56a5:	f01d           	retw.n

000056a7 <common_x_pow+0x67>:
	...

000056a8 <ref_gain_adapt>:
    56a8:	004136        	entry	a1, 32
    56ab:	5378           	l32i.n	a7, a3, 20
    56ad:	ead861        	l32r	a6, 210 (acc0 <immediate_num>)
    56b0:	360734        	ae_cvtq48a32s	aeq0, a7
    56b3:	03b5d6        	bgez	a5, 56f2 <ref_gain_adapt+0x4a>
    56b6:	059252        	l16si	a5, a2, 10
    56b9:	440614        	ae_lp16x2f.i	aep0, a6, 4
    56bc:	364434        	ae_cvtq48a32s	aeq1, a4
    56bf:	11d500        	slli	a13, a5, 16
    56c2:	d5637ecdbf 	{ ae_cvtq48a32s	aeq2, a13; ae_mulfq32sp16s.h	aeq3, aeq1, aep0 }
    56c7:	0e0c           	movi.n	a14, 0
    56c9:	d6d80001ff 	{ movi	a15, 1; ae_ltq56s	b0, aeq2, aeq3 }
    56ce:	040c           	movi.n	a4, 0
    56d0:	150c           	movi.n	a5, 1
    56d2:	d3ef00        	movt	a14, a15, b0
    56d5:	0edc           	bnez.n	a14, 56e9 <ref_gain_adapt+0x41>
    56d7:	440624        	ae_lp16x2f.i	aep0, a6, 8
    56da:	d56340007f 	{ movi	a7, 0; ae_mulfq32sp16s.h	aeq3, aeq1, aep0 }
    56df:	d6d800018f 	{ movi	a8, 1; ae_ltq56s	b0, aeq2, aeq3 }
    56e4:	d34500        	movt	a4, a5, b0
    56e7:	24ac           	beqz.n	a4, 570d <ref_gain_adapt+0x65>

000056e9 <ref_gain_adapt+0x41>:
    56e9:	a10004        	ae_mulzaafq32sp16s.ll	aeq0, aeq0, aep0, aeq0, aep0
    56ec:	060934        	ae_roundsq32asym	aeq0, aeq0
    56ef:	368704        	ae_trunca32q48	a7, aeq0
    56f2:	120c           	movi.n	a2, 1
    56f4:	0122b0        	slli	a2, a2, 21
    56f7:	532720        	max	a2, a7, a2
    56fa:	5329           	s32i.n	a2, a3, 20
    56fc:	604344        	ae_lq32f.i	aeq1, a3, 16
    56ff:	440654        	ae_lp16x2f.i	aep0, a6, 20
    5702:	c10044        	ae_mulzaafq32sp16s.lh	aeq0, aeq1, aep0, aeq0, aep0
    5705:	060934        	ae_roundsq32asym	aeq0, aeq0
    5708:	620344        	ae_sq32f.i	aeq0, a3, 16
    570b:	f01d           	retw.n

0000570d <ref_gain_adapt+0x65>:
    570d:	440634        	ae_lp16x2f.i	aep0, a6, 12
    5710:	d76240004f 	{ movi	a4, 0; ae_mulfq32sp16s.h	aeq3, aeq2, aep0 }
    5715:	02d222        	addmi	a2, a2, 0x200
    5718:	d65c00015f 	{ movi	a5, 1; ae_ltq56s	b0, aeq1, aeq3 }
    571d:	038a94        	ae_mulfq32sp16s.l	aeq3, aeq2, aep0
    5720:	d60222        	l8ui	a2, a2, 214
    5723:	d6cc16780f 	{ movt	a7, a8, b0; ae_ltq56s	b0, aeq3, aeq1 }
    5728:	fc0716        	beqz	a7, 56ec <ref_gain_adapt+0x44>
    572b:	370c           	movi.n	a7, 3
    572d:	d34500        	movt	a4, a5, b0
    5730:	14cc           	bnez.n	a4, 5735 <ref_gain_adapt+0x8d>
    5732:	b60727        	bnone	a7, a2, 56ec <ref_gain_adapt+0x44>
    5735:	440644        	ae_lp16x2f.i	aep0, a6, 16
    5738:	030214        	ae_mulfq32sp16s.l	aeq0, aeq0, aep0
    573b:	ffeb46        	j	56ec <ref_gain_adapt+0x44>

0000573e <ref_gain_adapt+0x96>:
	...

00005740 <aec_post_calc>:
    5740:	006136        	entry	a1, 48
    5743:	054466        	bnei	a4, 4, 574c <aec_post_calc+0xc>
    5746:	20c242        	addi	a4, a2, 32
    5749:	000086        	j	574f <aec_post_calc+0xf>

0000574c <aec_post_calc+0xc>:
    574c:	1ec242        	addi	a4, a2, 30
    574f:	150c           	movi.n	a5, 1
    5751:	0155d0        	slli	a5, a5, 19
    5754:	400404        	ae_lp16f.i	aep0, a4, 0
    5757:	360534        	ae_cvtq48a32s	aeq0, a5
    575a:	1d0c           	movi.n	a13, 1
    575c:	115d00        	slli	a5, a13, 16
    575f:	d4e2bec5ff 	{ ae_cvtq48a32s	aeq3, a5; ae_mulfq32sp16u.l	aeq0, aeq0, aep0 }
    5764:	23c8           	l32i.n	a12, a3, 8
    5766:	d6e3b9813f 	{ ae_sq32f.i	aeq0, a1, 12; ae_mulfq32sp16u.l	aeq0, aeq3, aep0 }
    576b:	3178           	l32i.n	a7, a1, 12
    576d:	33e8           	l32i.n	a14, a3, 12
    576f:	620134        	ae_sq32f.i	aeq0, a1, 12
    5772:	3168           	l32i.n	a6, a1, 12
    5774:	53bc70        	max	a11, a12, a7
    5777:	eaa741        	l32r	a4, 214 (8614 <airoha_divide_limit_1>)
    577a:	53fe60        	max	a15, a14, a6
    577d:	43abf0        	min	a10, a11, a15
    5780:	0004e0        	callx8	a4
    5783:	600364        	ae_lq32f.i	aeq0, a3, 24
    5786:	4c0244        	ae_lp24.i	aep0, a2, 16
    5789:	379aa4        	ae_truncp24a32x2	aep1, a10, a10
    578c:	e207a1724e 	{ l16si	a4, a2, 46; ae_mulafp24s.ll	aeq0, aep1, aep0 }
    5791:	f966a0225e 	{ l16si	a5, a2, 4; ae_movp48	aep2, aep1 }
    5796:	fc2460b27e 	{ l16si	a7, a2, 22; ae_roundsq32asym	aeq0, aeq0 }
    579b:	620364        	ae_sq32f.i	aeq0, a3, 24
    579e:	18a547        	bge	a5, a4, 57ba <aec_post_calc+0x7a>
    57a1:	0a9242        	l16si	a4, a2, 20
    57a4:	169252        	l16si	a5, a2, 44
    57a7:	060c           	movi.n	a6, 0
    57a9:	742b           	addi.n	a7, a4, 2
    57ab:	725650        	salt	a5, a6, a5
    57ae:	837450        	moveqz	a7, a4, a5
    57b1:	031674        	wur.ae_sar	a7
    57b4:	0b10a4        	ae_sllssp24s	aep2, aep1
    57b7:	000506        	j	57cf <aec_post_calc+0x8f>

000057ba <aec_post_calc+0x7a>:
    57ba:	074d           	mov.n	a4, a7
    57bc:	0f27a6        	blti	a7, 2, 57cf <aec_post_calc+0x8f>
    57bf:	944d           	ae_zext16	a4, a4
    57c1:	f9668ff44e 	{ addi	a4, a4, -1; ae_movp48	aep2, aep1 }
    57c6:	058476        	loop	a4, 57cf <aec_post_calc+0x8f>
    57c9:	012174        	ae_mulfp24s.ll	aeq0, aep2, aep1
    57cc:	1b8d24        	ae_roundsp24q48asym	aep2, aeq0

000057cf <aec_post_calc+0x8f>:
    57cf:	401274        	ae_lp16f.i	aep1, a2, 14
    57d2:	d82a7d037f 	{ ae_lq32f.i	aeq0, a3, 28; ae_maxp24s	aep1, aep2, aep1 }
    57d7:	011034        	ae_mulafp24s.ll	aeq0, aep1, aep0
    57da:	060934        	ae_roundsq32asym	aeq0, aeq0
    57dd:	620374        	ae_sq32f.i	aeq0, a3, 28
    57e0:	f01d           	retw.n

000057e2 <aec_post_calc+0xa2>:
	...

000057e4 <aec_post_calc_sb>:
    57e4:	006136        	entry	a1, 48
    57e7:	150c           	movi.n	a5, 1
    57e9:	00a142        	movi	a4, 0x100
    57ec:	0155d0        	slli	a5, a5, 19
    57ef:	170c           	movi.n	a7, 1
    57f1:	300444        	ae_cvtp24a16x2.ll	aep0, a4, a4
    57f4:	360534        	ae_cvtq48a32s	aeq0, a5
    57f7:	117700        	slli	a7, a7, 16
    57fa:	d4e2bec7ff 	{ ae_cvtq48a32s	aeq3, a7; ae_mulfq32sp16u.l	aeq0, aeq0, aep0 }
    57ff:	23c8           	l32i.n	a12, a3, 8
    5801:	d6e3b9813f 	{ ae_sq32f.i	aeq0, a1, 12; ae_mulfq32sp16u.l	aeq0, aeq3, aep0 }
    5806:	31e8           	l32i.n	a14, a1, 12
    5808:	620134        	ae_sq32f.i	aeq0, a1, 12
    580b:	33d8           	l32i.n	a13, a3, 12
    580d:	3168           	l32i.n	a6, a1, 12
    580f:	53bce0        	max	a11, a12, a14
    5812:	ea8041        	l32r	a4, 214 (8614 <airoha_divide_limit_1>)
    5815:	53fd60        	max	a15, a13, a6
    5818:	43abf0        	min	a10, a11, a15
    581b:	0004e0        	callx8	a4
    581e:	600364        	ae_lq32f.i	aeq0, a3, 24
    5821:	4c0244        	ae_lp24.i	aep0, a2, 16
    5824:	379aa4        	ae_truncp24a32x2	aep1, a10, a10
    5827:	e207a1c34e 	{ l16si	a4, a3, 56; ae_mulafp24s.ll	aeq0, aep1, aep0 }
    582c:	f966a0225e 	{ l16si	a5, a2, 4; ae_movp48	aep2, aep1 }
    5831:	fc2461a37e 	{ l16si	a7, a3, 52; ae_roundsq32asym	aeq0, aeq0 }
    5836:	620364        	ae_sq32f.i	aeq0, a3, 24
    5839:	18a547        	bge	a5, a4, 5855 <aec_post_calc_sb+0x71>
    583c:	0a9222        	l16si	a2, a2, 20
    583f:	1b9342        	l16si	a4, a3, 54
    5842:	050c           	movi.n	a5, 0
    5844:	622b           	addi.n	a6, a2, 2
    5846:	724540        	salt	a4, a5, a4
    5849:	836240        	moveqz	a6, a2, a4
    584c:	031664        	wur.ae_sar	a6
    584f:	0b10a4        	ae_sllssp24s	aep2, aep1
    5852:	000506        	j	586a <aec_post_calc_sb+0x86>

00005855 <aec_post_calc_sb+0x71>:
    5855:	072d           	mov.n	a2, a7
    5857:	0f27a6        	blti	a7, 2, 586a <aec_post_calc_sb+0x86>
    585a:	922d           	ae_zext16	a2, a2
    585c:	f9668ff22e 	{ addi	a2, a2, -1; ae_movp48	aep2, aep1 }
    5861:	058276        	loop	a2, 586a <aec_post_calc_sb+0x86>
    5864:	012174        	ae_mulfp24s.ll	aeq0, aep2, aep1
    5867:	1b8d24        	ae_roundsp24q48asym	aep2, aeq0

0000586a <aec_post_calc_sb+0x86>:
    586a:	30c322        	addi	a2, a3, 48
    586d:	401204        	ae_lp16f.i	aep1, a2, 0
    5870:	d82a7d037f 	{ ae_lq32f.i	aeq0, a3, 28; ae_maxp24s	aep1, aep2, aep1 }
    5875:	011034        	ae_mulafp24s.ll	aeq0, aep1, aep0
    5878:	060934        	ae_roundsq32asym	aeq0, aeq0
    587b:	620374        	ae_sq32f.i	aeq0, a3, 28
    587e:	f01d           	retw.n

00005880 <aec_post_calc_FB>:
    5880:	004136        	entry	a1, 32
    5883:	2348           	l32i.n	a4, a3, 8
    5885:	3368           	l32i.n	a6, a3, 12
    5887:	150c           	movi.n	a5, 1
    5889:	115540        	slli	a5, a5, 12
    588c:	00a2f2        	movi	a15, 0x200
    588f:	53b450        	max	a11, a4, a5
    5892:	5346f0        	max	a4, a6, a15
    5895:	43ab40        	min	a10, a11, a4
    5898:	ea5f41        	l32r	a4, 214 (8614 <airoha_divide_limit_1>)
    589b:	0004e0        	callx8	a4
    589e:	600364        	ae_lq32f.i	aeq0, a3, 24
    58a1:	4c0244        	ae_lp24.i	aep0, a2, 16
    58a4:	379aa4        	ae_truncp24a32x2	aep1, a10, a10
    58a7:	e207a1c24e 	{ l16si	a4, a2, 56; ae_mulafp24s.ll	aeq0, aep1, aep0 }
    58ac:	f966a0225e 	{ l16si	a5, a2, 4; ae_movp48	aep2, aep1 }
    58b1:	fc2460b27e 	{ l16si	a7, a2, 22; ae_roundsq32asym	aeq0, aeq0 }
    58b6:	620364        	ae_sq32f.i	aeq0, a3, 24
    58b9:	18a547        	bge	a5, a4, 58d5 <aec_post_calc_FB+0x55>
    58bc:	0a9242        	l16si	a4, a2, 20
    58bf:	1d9252        	l16si	a5, a2, 58
    58c2:	060c           	movi.n	a6, 0
    58c4:	742b           	addi.n	a7, a4, 2
    58c6:	725650        	salt	a5, a6, a5
    58c9:	837450        	moveqz	a7, a4, a5
    58cc:	031674        	wur.ae_sar	a7
    58cf:	0b10a4        	ae_sllssp24s	aep2, aep1
    58d2:	000506        	j	58ea <aec_post_calc_FB+0x6a>

000058d5 <aec_post_calc_FB+0x55>:
    58d5:	074d           	mov.n	a4, a7
    58d7:	0f27a6        	blti	a7, 2, 58ea <aec_post_calc_FB+0x6a>
    58da:	944d           	ae_zext16	a4, a4
    58dc:	f9668ff44e 	{ addi	a4, a4, -1; ae_movp48	aep2, aep1 }
    58e1:	058476        	loop	a4, 58ea <aec_post_calc_FB+0x6a>
    58e4:	012174        	ae_mulfp24s.ll	aeq0, aep2, aep1
    58e7:	1b8d24        	ae_roundsp24q48asym	aep2, aeq0

000058ea <aec_post_calc_FB+0x6a>:
    58ea:	32c222        	addi	a2, a2, 50
    58ed:	401204        	ae_lp16f.i	aep1, a2, 0
    58f0:	d82a7d037f 	{ ae_lq32f.i	aeq0, a3, 28; ae_maxp24s	aep1, aep2, aep1 }
    58f5:	011034        	ae_mulafp24s.ll	aeq0, aep1, aep0
    58f8:	060934        	ae_roundsq32asym	aeq0, aeq0
    58fb:	620374        	ae_sq32f.i	aeq0, a3, 28
    58fe:	f01d           	retw.n

00005900 <aec_post_calc_FB_sb>:
    5900:	004136        	entry	a1, 32
    5903:	2348           	l32i.n	a4, a3, 8
    5905:	3368           	l32i.n	a6, a3, 12
    5907:	150c           	movi.n	a5, 1
    5909:	115540        	slli	a5, a5, 12
    590c:	00a2f2        	movi	a15, 0x200
    590f:	53b450        	max	a11, a4, a5
    5912:	5346f0        	max	a4, a6, a15
    5915:	43ab40        	min	a10, a11, a4
    5918:	ea3f41        	l32r	a4, 214 (8614 <airoha_divide_limit_1>)
    591b:	0004e0        	callx8	a4
    591e:	600364        	ae_lq32f.i	aeq0, a3, 24
    5921:	4c0244        	ae_lp24.i	aep0, a2, 16
    5924:	379aa4        	ae_truncp24a32x2	aep1, a10, a10
    5927:	e207a1c34e 	{ l16si	a4, a3, 56; ae_mulafp24s.ll	aeq0, aep1, aep0 }
    592c:	f966a0225e 	{ l16si	a5, a2, 4; ae_movp48	aep2, aep1 }
    5931:	fc2461a37e 	{ l16si	a7, a3, 52; ae_roundsq32asym	aeq0, aeq0 }
    5936:	620364        	ae_sq32f.i	aeq0, a3, 24
    5939:	18a547        	bge	a5, a4, 5955 <aec_post_calc_FB_sb+0x55>
    593c:	0a9222        	l16si	a2, a2, 20
    593f:	1b9342        	l16si	a4, a3, 54
    5942:	050c           	movi.n	a5, 0
    5944:	622b           	addi.n	a6, a2, 2
    5946:	724540        	salt	a4, a5, a4
    5949:	836240        	moveqz	a6, a2, a4
    594c:	031664        	wur.ae_sar	a6
    594f:	0b10a4        	ae_sllssp24s	aep2, aep1
    5952:	000506        	j	596a <aec_post_calc_FB_sb+0x6a>

00005955 <aec_post_calc_FB_sb+0x55>:
    5955:	072d           	mov.n	a2, a7
    5957:	0f27a6        	blti	a7, 2, 596a <aec_post_calc_FB_sb+0x6a>
    595a:	922d           	ae_zext16	a2, a2
    595c:	f9668ff22e 	{ addi	a2, a2, -1; ae_movp48	aep2, aep1 }
    5961:	058276        	loop	a2, 596a <aec_post_calc_FB_sb+0x6a>
    5964:	012174        	ae_mulfp24s.ll	aeq0, aep2, aep1
    5967:	1b8d24        	ae_roundsp24q48asym	aep2, aeq0

0000596a <aec_post_calc_FB_sb+0x6a>:
    596a:	30c322        	addi	a2, a3, 48
    596d:	401204        	ae_lp16f.i	aep1, a2, 0
    5970:	d82a7d037f 	{ ae_lq32f.i	aeq0, a3, 28; ae_maxp24s	aep1, aep2, aep1 }
    5975:	011034        	ae_mulafp24s.ll	aeq0, aep1, aep0
    5978:	060934        	ae_roundsq32asym	aeq0, aeq0
    597b:	620374        	ae_sq32f.i	aeq0, a3, 28
    597e:	f01d           	retw.n

00005980 <subband_aec_block>:
    5980:	006136        	entry	a1, 48
    5983:	a378           	l32i.n	a7, a3, 40
    5985:	fd24a1138e 	{ l16si	a8, a3, 34; ae_zeroq56	aeq1 }
    598a:	f41b           	addi.n	a15, a4, 1
    598c:	a3d8           	l32i.n	a13, a3, 40
    598e:	90e870        	addx2	a14, a8, a7
    5991:	b3f440        	movgez	a15, a4, a4
    5994:	21b1f0        	srai	a11, a15, 1
    5997:	2169           	s32i.n	a6, a1, 8
    5999:	f3f6d0        	wur.ae_cbegin0	a13
    599c:	f3f7e0        	wur.ae_cend0	a14
    599f:	3024a6        	blti	a4, 2, 59d3 <subband_aec_block+0x53>
    59a2:	ba2262        	l32i	a6, a2, 0x2e8
    59a5:	122382        	l32i	a8, a3, 72
    59a8:	102372        	l32i	a7, a3, 64
    59ab:	600344        	ae_lq32f.i	aeq0, a3, 16
    59ae:	490c           	movi.n	a9, 4
    59b0:	440804        	ae_lp16x2f.i	aep0, a8, 0
    59b3:	fcc6a2        	addi	a10, a6, -4
    59b6:	198b76        	loop	a11, 59d3 <subband_aec_block+0x53>
    59b9:	09001aa79f 	{ ae_lp16x2f.c	aep2, a7, a9; ae_mulzaafq32sp16s.hh	aeq2, aeq0, aep0, aeq0, aep0 }
    59be:	11006d881f 	{ ae_lp16x2f.iu	aep0, a8, 4; ae_mulzaafq32sp16s.ll	aeq3, aeq0, aep0, aeq0, aep0 }
    59c3:	1baf74        	ae_roundsp16q48asym	aep7, aeq2
    59c6:	1bbf14        	ae_roundsp16q48asym	aep1, aeq3
    59c9:	f04a7e715f 	{ ae_selp24.hl	aep1, aep7, aep1; ae_mulssfp24s.hh.ll	aeq1, aep2, aep2 }
    59ce:	e224739a1f 	{ ae_sp16x2f.iu	aep1, a10, 4; ae_mulaafp24s.hh.ll	aeq1, aep1, aep1 }

000059d3 <subband_aec_block+0x53>:
    59d3:	351234        	ae_sraiq56	aeq0, aeq1, 8
    59d6:	618304        	ae_lq56.i	aeq2, a3, 0
    59d9:	f87230926e 	{ l32i	a6, a2, 36; ae_addq56	aeq0, aeq2, aeq0 }
    59de:	fc00fec6ff 	{ ae_cvtq48a32s	aeq3, a6; ae_satq48s	aeq0, aeq0 }
    59e3:	f87b1431bf 	{ s32i.n	a11, a1, 12; ae_maxq56s	aeq0, aeq0, aeq3 }
    59e8:	1129           	s32i.n	a2, a1, 4
    59ea:	630304        	ae_sq56s.i	aeq0, a3, 0
    59ed:	00e5d6        	bgez	a5, 59ff <subband_aec_block+0x7f>
    59f0:	109362        	l16si	a6, a3, 32
    59f3:	368b04        	ae_trunca32q48	a11, aeq0
    59f6:	11a670        	slli	a10, a6, 9
    59f9:	ea0761        	l32r	a6, 218 (850c <airoha_divide>)
    59fc:	0006e0        	callx8	a6

000059ff <subband_aec_block+0x7f>:
    59ff:	102382        	l32i	a8, a3, 64
    5a02:	7814a6        	blti	a4, 1, 5a7e <subband_aec_block+0xfe>
    5a05:	1128           	l32i.n	a2, a1, 4
    5a07:	b368           	l32i.n	a6, a3, 44
    5a09:	132372        	l32i	a7, a3, 76
    5a0c:	1123c2        	l32i	a12, a3, 68
    5a0f:	ba2222        	l32i	a2, a2, 0x2e8
    5a12:	119392        	l16si	a9, a3, 34
    5a15:	360b34        	ae_cvtq48a32s	aeq0, a11
    5a18:	fec7d2        	addi	a13, a7, -2
    5a1b:	2b0c           	movi.n	a11, 2
    5a1d:	fec662        	addi	a6, a6, -2
    5a20:	fecce2        	addi	a14, a12, -2
    5a23:	04fd           	mov.n	a15, a4
    5a25:	fec272        	addi	a7, a2, -2
    5a28:	408714        	ae_lp16f.iu	aep0, a7, 2
    5a2b:	fc24e288bf 	{ ae_sp16f.l.c	aep0, a8, a11; nop }
    5a30:	408e14        	ae_lp16f.iu	aep0, a14, 2
    5a33:	fd0c13c66f 	{ or	a12, a6, a6; ae_cvtq48p24s.l	aeq1, aep0 }
    5a38:	0f19a6        	blti	a9, 1, 5a4b <subband_aec_block+0xcb>
    5a3b:	408c14        	ae_lp16f.iu	aep0, a12, 2
    5a3e:	098976        	loop	a9, 5a4b <subband_aec_block+0xcb>
    5a41:	fc24d918bf 	{ ae_lp16f.c	aep1, a8, a11; nop }
    5a46:	ee21ec8c1f 	{ ae_lp16f.iu	aep0, a12, 2; ae_mulsfp24s.ll	aeq1, aep0, aep1 }

00005a4b <subband_aec_block+0xcb>:
    5a4b:	f86b93c66f 	{ or	a12, a6, a6; ae_roundsp16q48asym	aep0, aeq1 }
    5a50:	d4e2728d1f 	{ ae_sp16f.l.iu	aep0, a13, 2; ae_mulfq32sp16s.l	aeq1, aeq0, aep0 }
    5a55:	0205d6        	bgez	a5, 5a79 <subband_aec_block+0xf9>
    5a58:	fc24fe9a4f 	{ ae_slaasq56s	aeq1, aeq1, a10; nop }
    5a5d:	1b9d04        	ae_roundsp24q48asym	aep0, aeq1
    5a60:	1519a6        	blti	a9, 1, 5a79 <subband_aec_block+0xf9>
    5a63:	409c14        	ae_lp16f.iu	aep1, a12, 2
    5a66:	0f8976        	loop	a9, 5a79 <subband_aec_block+0xf9>
    5a69:	fd2c1978bf 	{ ae_lp16f.c	aep7, a8, a11; ae_cvtq48p24s.l	aeq1, aep1 }
    5a6e:	e2e3ec9c1f 	{ ae_lp16f.iu	aep1, a12, 2; ae_mulafp24s.ll	aeq1, aep0, aep7 }
    5a73:	1b9f24        	ae_roundsp16q48asym	aep2, aeq1
    5a76:	422cf4        	ae_sp16f.l.i	aep2, a12, -2
    5a79:	ff0b           	addi.n	a15, a15, -1
    5a7b:	fa9f56        	bnez	a15, 5a28 <subband_aec_block+0xa8>

00005a7e <subband_aec_block+0xfe>:
    5a7e:	106382        	s32i	a8, a3, 64
    5a81:	fe24b1337e 	{ l32i	a7, a3, 76; ae_zeroq56	aeq2 }
    5a86:	fc24bf217f 	{ ae_movq56	aeq1, aeq2; ae_zeroq56	aeq0 }
    5a8b:	1b24a6        	blti	a4, 2, 5aaa <subband_aec_block+0x12a>
    5a8e:	112322        	l32i	a2, a3, 68
    5a91:	31f8           	l32i.n	a15, a1, 12
    5a93:	fcc772        	addi	a7, a7, -4
    5a96:	fcc262        	addi	a6, a2, -4
    5a99:	0d8f76        	loop	a15, 5aaa <subband_aec_block+0x12a>
    5a9c:	448614        	ae_lp16x2f.iu	aep0, a6, 4
    5a9f:	e2006d971f 	{ ae_lp16x2f.iu	aep1, a7, 4; ae_mulaafp24s.hh.ll	aeq1, aep0, aep0 }
    5aa4:	050104        	ae_mulaafp24s.hh.ll	aeq0, aep0, aep1
    5aa7:	059104        	ae_mulaafp24s.hh.ll	aeq2, aep1, aep1

00005aaa <subband_aec_block+0x12a>:
    5aaa:	2128           	l32i.n	a2, a1, 8
    5aac:	060c           	movi.n	a6, 0
    5aae:	35e134        	ae_sraiq56	aeq3, aeq2, 4
    5ab1:	0c42a6        	blti	a2, 4, 5ac1 <subband_aec_block+0x141>
    5ab4:	fab6c0006f 	{ movi	a6, 0; ae_subq56	aeq2, aeq2, aeq3 }
    5ab9:	d65400012f 	{ movi	a2, 1; ae_ltq56s	b0, aeq1, aeq2 }
    5abe:	d36200        	movt	a6, a2, b0

00005ac1 <subband_aec_block+0x141>:
    5ac1:	355134        	ae_sraiq56	aeq1, aeq1, 4
    5ac4:	fd2c7b010f 	{ ae_sraiq56	aeq0, aeq0, 4; ae_roundsq32asym	aeq1, aeq1 }
    5ac9:	fc247f1bef 	{ ae_trunca32q48	a11, aeq1; ae_roundsq32asym	aeq0, aeq0 }
    5ace:	368c04        	ae_trunca32q48	a12, aeq0
    5ad1:	e9d221        	l32r	a2, 21c (5640 <common_x_pow>)
    5ad4:	03ad           	mov.n	a10, a3
    5ad6:	0002e0        	callx8	a2
    5ad9:	6020a0        	neg	a2, a10
    5adc:	0d1627        	beq	a6, a2, 5aed <subband_aec_block+0x16d>
    5adf:	1323a2        	l32i	a10, a3, 76
    5ae2:	1123b2        	l32i	a11, a3, 68
    5ae5:	e95021        	l32r	a2, 28 (90f8 <xt_memcpy>)
    5ae8:	04cd           	mov.n	a12, a4
    5aea:	0002e0        	callx8	a2
    5aed:	1128           	l32i.n	a2, a1, 4
    5aef:	fc24a0d24e 	{ l16si	a4, a2, 26; ae_zeroq56	aeq0 }
    5af4:	2224a6        	blti	a4, 2, 5b1a <subband_aec_block+0x19a>
    5af7:	b328           	l32i.n	a2, a3, 44
    5af9:	119362        	l16si	a6, a3, 34
    5afc:	01c4e2        	addi	a14, a4, 1
    5aff:	b3e440        	movgez	a14, a4, a4
    5b02:	902620        	addx2	a2, a6, a2
    5b05:	11f4f0        	slli	a15, a4, 1
    5b08:	c022f0        	sub	a2, a2, a15
    5b0b:	2161e0        	srai	a6, a14, 1
    5b0e:	fcc242        	addi	a4, a2, -4
    5b11:	058676        	loop	a6, 5b1a <subband_aec_block+0x19a>
    5b14:	448414        	ae_lp16x2f.iu	aep0, a4, 4
    5b17:	050004        	ae_mulaafp24s.hh.ll	aeq0, aep0, aep0

00005b1a <subband_aec_block+0x19a>:
    5b1a:	3328           	l32i.n	a2, a3, 12
    5b1c:	060c           	movi.n	a6, 0
    5b1e:	3500b4        	ae_sraiq56	aeq0, aeq0, 2
    5b21:	53a260        	max	a10, a2, a6
    5b24:	fc247023be 	{ l32i	a11, a3, 8; ae_roundsq32asym	aeq0, aeq0 }
    5b29:	e9ba21        	l32r	a2, 214 (8614 <airoha_divide_limit_1>)
    5b2c:	368404        	ae_trunca32q48	a4, aeq0
    5b2f:	0002e0        	callx8	a2
    5b32:	1198           	l32i.n	a9, a1, 4
    5b34:	ffa022        	movi	a2, 255
    5b37:	2403f2        	l8ui	a15, a3, 36
    5b3a:	049962        	l16si	a6, a9, 8
    5b3d:	7fd222        	addmi	a2, a2, 0x7f00
    5b40:	3170a0        	srai	a7, a10, 16
    5b43:	c02270        	sub	a2, a2, a7
    5b46:	536260        	max	a6, a2, a6
    5b49:	05ef17        	bbsi	a15, 1, 5b52 <subband_aec_block+0x1d2>
    5b4c:	105362        	s16i	a6, a3, 32
    5b4f:	000786        	j	5b71 <subband_aec_block+0x1f1>

00005b52 <subband_aec_block+0x1d2>:
    5b52:	039922        	l16si	a2, a9, 6
    5b55:	09ad           	mov.n	a10, a9
    5b57:	03bd           	mov.n	a11, a3
    5b59:	822620        	mull	a2, a6, a2
    5b5c:	04cd           	mov.n	a12, a4
    5b5e:	40d222        	addmi	a2, a2, 0x4000
    5b61:	412f20        	srli	a2, a2, 15
    5b64:	105322        	s16i	a2, a3, 32
    5b67:	e9ae21        	l32r	a2, 220 (56a8 <ref_gain_adapt>)
    5b6a:	05dd           	mov.n	a13, a5
    5b6c:	0002e0        	callx8	a2
    5b6f:	1198           	l32i.n	a9, a1, 4
    5b71:	059922        	l16si	a2, a9, 10
    5b74:	069962        	l16si	a6, a9, 12
    5b77:	e9a6f1        	l32r	a15, 210 (acc0 <immediate_num>)
    5b7a:	112200        	slli	a2, a2, 16
    5b7d:	56a247        	bge	a2, a4, 5bd7 <subband_aec_block+0x257>
    5b80:	129322        	l16si	a2, a3, 36
    5b83:	250c           	movi.n	a5, 2
    5b85:	11e600        	slli	a14, a6, 16
    5b88:	202250        	or	a2, a2, a5
    5b8b:	125322        	s16i	a2, a3, 36
    5b8e:	18cf22        	addi	a2, a15, 24
    5b91:	07ae47        	bge	a14, a4, 5b9c <subband_aec_block+0x21c>
    5b94:	400204        	ae_lp16f.i	aep0, a2, 0
    5b97:	000106        	j	5b9f <subband_aec_block+0x21f>

00005b9a <subband_aec_block+0x21a>:
	...

00005b9c <subband_aec_block+0x21c>:
    5b9c:	400214        	ae_lp16f.i	aep0, a2, 2
    5b9f:	0d9942        	l16si	a4, a9, 26
    5ba2:	3124a6        	blti	a4, 2, 5bd7 <subband_aec_block+0x257>
    5ba5:	b328           	l32i.n	a2, a3, 44
    5ba7:	119352        	l16si	a5, a3, 34
    5baa:	e41b           	addi.n	a14, a4, 1
    5bac:	b3e440        	movgez	a14, a4, a4
    5baf:	902520        	addx2	a2, a5, a2
    5bb2:	11f4f0        	slli	a15, a4, 1
    5bb5:	c042f0        	sub	a4, a2, a15
    5bb8:	2161e0        	srai	a6, a14, 1
    5bbb:	441404        	ae_lp16x2f.i	aep1, a4, 0
    5bbe:	fec452        	addi	a5, a4, -2
    5bc1:	128676        	loop	a6, 5bd7 <subband_aec_block+0x257>
    5bc4:	011054        	ae_mulfp24s.hl	aeq0, aep1, aep0
    5bc7:	ea05ed941f 	{ ae_lp16x2f.iu	aep1, a4, 4; ae_mulfp24s.ll	aeq1, aep1, aep0 }
    5bcc:	1b8f24        	ae_roundsp16q48asym	aep2, aeq0
    5bcf:	fb6bf2a51f 	{ ae_sp16f.l.iu	aep2, a5, 2; ae_roundsp16q48asym	aep7, aeq1 }
    5bd4:	42f514        	ae_sp16f.l.iu	aep7, a5, 2

00005bd7 <subband_aec_block+0x257>:
    5bd7:	129342        	l16si	a4, a3, 36
    5bda:	02d922        	addmi	a2, a9, 0x200
    5bdd:	21c8           	l32i.n	a12, a1, 8
    5bdf:	13e407        	bbsi	a4, 0, 5bf6 <subband_aec_block+0x276>
    5be2:	346427        	bbci	a4, 2, 5c1a <subband_aec_block+0x29a>
    5be5:	02d922        	addmi	a2, a9, 0x200
    5be8:	7a1222        	l16ui	a2, a2, 244
    5beb:	e99041        	l32r	a4, 22c (5900 <aec_post_calc_FB_sb>)
    5bee:	1e1266        	bnei	a2, 1, 5c10 <subband_aec_block+0x290>
    5bf1:	042d           	mov.n	a2, a4
    5bf3:	0002c6        	j	5c02 <subband_aec_block+0x282>

00005bf6 <subband_aec_block+0x276>:
    5bf6:	7a1222        	l16ui	a2, a2, 244
    5bf9:	e98b41        	l32r	a4, 228 (5740 <aec_post_calc>)
    5bfc:	0b1266        	bnei	a2, 1, 5c0b <subband_aec_block+0x28b>
    5bff:	e98921        	l32r	a2, 224 (57e4 <aec_post_calc_sb>)
    5c02:	09ad           	mov.n	a10, a9
    5c04:	03bd           	mov.n	a11, a3
    5c06:	0002e0        	callx8	a2
    5c09:	f01d           	retw.n

00005c0b <subband_aec_block+0x28b>:
    5c0b:	042d           	mov.n	a2, a4
    5c0d:	000086        	j	5c13 <subband_aec_block+0x293>

00005c10 <subband_aec_block+0x290>:
    5c10:	e98821        	l32r	a2, 230 (5880 <aec_post_calc_FB>)
    5c13:	09ad           	mov.n	a10, a9
    5c15:	03bd           	mov.n	a11, a3
    5c17:	0002e0        	callx8	a2
    5c1a:	f01d           	retw.n

00005c1c <subband_aec_mid_channel>:
    5c1c:	006136        	entry	a1, 48
    5c1f:	a398           	l32i.n	a9, a3, 40
    5c21:	a3e8           	l32i.n	a14, a3, 40
    5c23:	fd24a1137e 	{ l16si	a7, a3, 34; ae_zeroq56	aeq1 }
    5c28:	f3f690        	wur.ae_cbegin0	a9
    5c2b:	122392        	l32i	a9, a3, 72
    5c2e:	ba22f2        	l32i	a15, a2, 0x2e8
    5c31:	1023a2        	l32i	a10, a3, 64
    5c34:	a077e0        	addx4	a7, a7, a14
    5c37:	a80c           	movi.n	a8, 10
    5c39:	3159           	s32i.n	a5, a1, 12
    5c3b:	f3f770        	wur.ae_cend0	a7
    5c3e:	04a062        	movi	a6, 4
    5c41:	205330        	or	a5, a3, a3
    5c44:	600344        	ae_lq32f.i	aeq0, a3, 16
    5c47:	440904        	ae_lp16x2f.i	aep0, a9, 0
    5c4a:	fccf72        	addi	a7, a15, -4
    5c4d:	198876        	loop	a8, 5c6a <subband_aec_mid_channel+0x4e>
    5c50:	09001aaa6f 	{ ae_lp16x2f.c	aep2, a10, a6; ae_mulzaafq32sp16s.hh	aeq2, aeq0, aep0, aeq0, aep0 }
    5c55:	11006d891f 	{ ae_lp16x2f.iu	aep0, a9, 4; ae_mulzaafq32sp16s.ll	aeq3, aeq0, aep0, aeq0, aep0 }
    5c5a:	1baf74        	ae_roundsp16q48asym	aep7, aeq2
    5c5d:	1bbf14        	ae_roundsp16q48asym	aep1, aeq3
    5c60:	f04a7e715f 	{ ae_selp24.hl	aep1, aep7, aep1; ae_mulssfp24s.hh.ll	aeq1, aep2, aep2 }
    5c65:	e22473971f 	{ ae_sp16x2f.iu	aep1, a7, 4; ae_mulaafp24s.hh.ll	aeq1, aep1, aep1 }

00005c6a <subband_aec_mid_channel+0x4e>:
    5c6a:	9268           	l32i.n	a6, a2, 36
    5c6c:	3511b4        	ae_sraiq56	aeq0, aeq1, 6
    5c6f:	618504        	ae_lq56.i	aeq2, a5, 0
    5c72:	f87213355f 	{ or	a3, a5, a5; ae_addq56	aeq0, aeq2, aeq0 }
    5c77:	1166e0        	slli	a6, a6, 2
    5c7a:	fc00fec6ff 	{ ae_cvtq48a32s	aeq3, a6; ae_satq48s	aeq0, aeq0 }
    5c7f:	f87b21036e 	{ l16si	a6, a3, 32; ae_maxq56s	aeq0, aeq0, aeq3 }
    5c84:	630504        	ae_sq56s.i	aeq0, a5, 0
    5c87:	00b4d6        	bgez	a4, 5c96 <subband_aec_mid_channel+0x7a>
    5c8a:	368b04        	ae_trunca32q48	a11, aeq0
    5c8d:	11a650        	slli	a10, a6, 11
    5c90:	e96261        	l32r	a6, 218 (850c <airoha_divide>)
    5c93:	0006e0        	callx8	a6

00005c96 <subband_aec_mid_channel+0x7a>:
    5c96:	1123c2        	l32i	a12, a3, 68
    5c99:	ba22e2        	l32i	a14, a2, 0x2e8
    5c9c:	132382        	l32i	a8, a3, 76
    5c9f:	102362        	l32i	a6, a3, 64
    5ca2:	119372        	l16si	a7, a3, 34
    5ca5:	b338           	l32i.n	a3, a3, 44
    5ca7:	2129           	s32i.n	a2, a1, 8
    5ca9:	360b34        	ae_cvtq48a32s	aeq0, a11
    5cac:	a90c           	movi.n	a9, 10
    5cae:	4b0c           	movi.n	a11, 4
    5cb0:	fcccc2        	addi	a12, a12, -4
    5cb3:	fec8d2        	addi	a13, a8, -2
    5cb6:	fccee2        	addi	a14, a14, -4
    5cb9:	fec322        	addi	a2, a3, -2
    5cbc:	448e14        	ae_lp16x2f.iu	aep0, a14, 4
    5cbf:	fc24e406bf 	{ ae_sp16x2f.c	aep0, a6, a11; nop }
    5cc4:	448c14        	ae_lp16x2f.iu	aep0, a12, 4
    5cc7:	fe0413833f 	{ or	a8, a3, a3; ae_cvtq48p24s.h	aeq2, aep0 }
    5ccc:	0a4084        	ae_cvtq48p24s.l	aeq1, aep0
    5ccf:	1217a6        	blti	a7, 1, 5ce5 <subband_aec_mid_channel+0xc9>
    5cd2:	440304        	ae_lp16x2f.i	aep0, a3, 0
    5cd5:	0c8776        	loop	a7, 5ce5 <subband_aec_mid_channel+0xc9>
    5cd8:	fc24da96bf 	{ ae_lp16x2f.c	aep1, a6, a11; nop }
    5cdd:	0581c4        	ae_mulssfp24s.hh.ll	aeq2, aep0, aep1
    5ce0:	ee206d881f 	{ ae_lp16x2f.iu	aep0, a8, 4; ae_mulsafp24s.hl.lh	aeq1, aep0, aep1 }

00005ce5 <subband_aec_mid_channel+0xc9>:
    5ce5:	1baf04        	ae_roundsp16q48asym	aep0, aeq2
    5ce8:	f86bf28d1f 	{ ae_sp16f.l.iu	aep0, a13, 2; ae_roundsp16q48asym	aep1, aeq1 }
    5ced:	d4e2729d1f 	{ ae_sp16f.l.iu	aep1, a13, 2; ae_mulfq32sp16s.l	aeq1, aeq0, aep0 }
    5cf2:	0364d6        	bgez	a4, 5d2c <subband_aec_mid_channel+0x110>
    5cf5:	d5e63e9a4f 	{ ae_slaasq56s	aeq1, aeq1, a10; ae_mulfq32sp16s.l	aeq2, aeq0, aep1 }
    5cfa:	038d           	mov.n	a8, a3
    5cfc:	f86fbeaa8f 	{ ae_slaasq56s	aeq2, aeq2, a10; ae_roundsp24q48asym	aep0, aeq1 }
    5d01:	f877d3f22f 	{ or	a15, a2, a2; ae_roundsp24q48asym	aep1, aeq2 }
    5d06:	2217a6        	blti	a7, 1, 5d2c <subband_aec_mid_channel+0x110>
    5d09:	dc20ad130f 	{ ae_lp16x2f.i	aep1, a3, 0; ae_selp24.hl	aep0, aep0, aep1 }
    5d0e:	1a8776        	loop	a7, 5d2c <subband_aec_mid_channel+0x110>
    5d11:	fd241aa6bf 	{ ae_lp16x2f.c	aep2, a6, a11; ae_cvtq48p24s.h	aeq1, aep1 }
    5d16:	fe2c2d981f 	{ ae_lp16x2f.iu	aep1, a8, 4; ae_cvtq48p24s.l	aeq2, aep1 }
    5d1b:	050a04        	ae_mulaafp24s.hh.ll	aeq1, aep0, aep2
    5d1e:	058254        	ae_mulasfp24s.hl.lh	aeq2, aep0, aep2
    5d21:	1b9f64        	ae_roundsp16q48asym	aep6, aeq1
    5d24:	fb73f2ef1f 	{ ae_sp16f.l.iu	aep6, a15, 2; ae_roundsp16q48asym	aep7, aeq2 }
    5d29:	42ff14        	ae_sp16f.l.iu	aep7, a15, 2
    5d2c:	990b           	addi.n	a9, a9, -1
    5d2e:	f8a956        	bnez	a9, 5cbc <subband_aec_mid_channel+0xa0>
    5d31:	106562        	s32i	a6, a5, 64
    5d34:	fd24b1156e 	{ l32i	a6, a5, 68; ae_zeroq56	aeq1 }
    5d39:	fc0c71352e 	{ l32i	a2, a5, 76; ae_movq56	aeq0, aeq1 }
    5d3e:	a30c           	movi.n	a3, 10
    5d40:	057d           	mov.n	a7, a5
    5d42:	fe0c6d060f 	{ ae_lp16x2f.i	aep0, a6, 0; ae_movq56	aeq2, aeq1 }
    5d47:	441204        	ae_lp16x2f.i	aep1, a2, 0
    5d4a:	0c8376        	loop	a3, 5d5a <subband_aec_mid_channel+0x13e>
    5d4d:	058104        	ae_mulaafp24s.hh.ll	aeq2, aep0, aep1
    5d50:	ea202d921f 	{ ae_lp16x2f.iu	aep1, a2, 4; ae_mulasfp24s.hl.lh	aeq0, aep0, aep1 }
    5d55:	e2006d861f 	{ ae_lp16x2f.iu	aep0, a6, 4; ae_mulaafp24s.hh.ll	aeq1, aep0, aep0 }

00005d5a <subband_aec_mid_channel+0x13e>:
    5d5a:	35a134        	ae_sraiq56	aeq2, aeq2, 4
    5d5d:	f877bb010f 	{ ae_sraiq56	aeq0, aeq0, 4; ae_roundsp24q48asym	aep0, aeq2 }
    5d62:	f867fb114f 	{ ae_sraiq56	aeq1, aeq1, 4; ae_roundsp24q48asym	aep1, aeq0 }
    5d67:	fd2c7e011f 	{ ae_selp24.hl	aep0, aep0, aep1; ae_roundsq32asym	aeq1, aeq1 }
    5d6c:	f1028000af 	{ movi	a10, 0; ae_mulzaafp24s.hh.ll	aeq2, aep0, aep0 }
    5d71:	e93021        	l32r	a2, 234 (85c <HIFI_sqrt>)
    5d74:	ff347f16ef 	{ ae_trunca32q48	a6, aeq1; ae_roundsq32asym	aeq3, aeq2 }
    5d79:	36bb04        	ae_trunca32q48	a11, aeq3
    5d7c:	0002e0        	callx8	a2
    5d7f:	360b34        	ae_cvtq48a32s	aeq0, a11
    5d82:	fc24fe8a0f 	{ ae_slaasq56s	aeq0, aeq0, a10; nop }
    5d87:	fc2453a77f 	{ or	a10, a7, a7; ae_roundsq32asym	aeq0, aeq0 }
    5d8c:	368c04        	ae_trunca32q48	a12, aeq0
    5d8f:	e92321        	l32r	a2, 21c (5640 <common_x_pow>)
    5d92:	06bd           	mov.n	a11, a6
    5d94:	0002e0        	callx8	a2
    5d97:	da8c           	beqz.n	a10, 5da8 <subband_aec_mid_channel+0x18c>
    5d99:	1327a2        	l32i	a10, a7, 76
    5d9c:	1127b2        	l32i	a11, a7, 68
    5d9f:	e8a221        	l32r	a2, 28 (90f8 <xt_memcpy>)
    5da2:	14a0c2        	movi	a12, 20
    5da5:	0002e0        	callx8	a2

00005da8 <subband_aec_mid_channel+0x18c>:
    5da8:	2128           	l32i.n	a2, a1, 8
    5daa:	fc24a0d22e 	{ l16si	a2, a2, 26; ae_zeroq56	aeq0 }
    5daf:	1712a6        	blti	a2, 1, 5dca <subband_aec_mid_channel+0x1ae>
    5db2:	119732        	l16si	a3, a7, 34
    5db5:	0b2762        	l32i	a6, a7, 44
    5db8:	c03320        	sub	a3, a3, a2
    5dbb:	a03360        	addx4	a3, a3, a6
    5dbe:	fcc332        	addi	a3, a3, -4
    5dc1:	058276        	loop	a2, 5dca <subband_aec_mid_channel+0x1ae>
    5dc4:	448314        	ae_lp16x2f.iu	aep0, a3, 4
    5dc7:	050004        	ae_mulaafp24s.hh.ll	aeq0, aep0, aep0

00005dca <subband_aec_mid_channel+0x1ae>:
    5dca:	3500b4        	ae_sraiq56	aeq0, aeq0, 2
    5dcd:	fc247037ae 	{ l32i	a10, a7, 12; ae_roundsq32asym	aeq0, aeq0 }
    5dd2:	27b8           	l32i.n	a11, a7, 8
    5dd4:	e91021        	l32r	a2, 214 (8614 <airoha_divide_limit_1>)
    5dd7:	368504        	ae_trunca32q48	a5, aeq0
    5dda:	0002e0        	callx8	a2
    5ddd:	2198           	l32i.n	a9, a1, 8
    5ddf:	076d           	mov.n	a6, a7
    5de1:	ffa022        	movi	a2, 255
    5de4:	049932        	l16si	a3, a9, 8
    5de7:	2407f2        	l8ui	a15, a7, 36
    5dea:	7fd222        	addmi	a2, a2, 0x7f00
    5ded:	31e0a0        	srai	a14, a10, 16
    5df0:	c022e0        	sub	a2, a2, a14
    5df3:	532230        	max	a2, a2, a3
    5df6:	05ef17        	bbsi	a15, 1, 5dff <subband_aec_mid_channel+0x1e3>
    5df9:	105622        	s16i	a2, a6, 32
    5dfc:	000786        	j	5e1e <subband_aec_mid_channel+0x202>

00005dff <subband_aec_mid_channel+0x1e3>:
    5dff:	039932        	l16si	a3, a9, 6
    5e02:	09ad           	mov.n	a10, a9
    5e04:	06bd           	mov.n	a11, a6
    5e06:	822230        	mull	a2, a2, a3
    5e09:	05cd           	mov.n	a12, a5
    5e0b:	40d222        	addmi	a2, a2, 0x4000
    5e0e:	412f20        	srli	a2, a2, 15
    5e11:	105622        	s16i	a2, a6, 32
    5e14:	e90321        	l32r	a2, 220 (56a8 <ref_gain_adapt>)
    5e17:	04dd           	mov.n	a13, a4
    5e19:	0002e0        	callx8	a2
    5e1c:	2198           	l32i.n	a9, a1, 8
    5e1e:	059922        	l16si	a2, a9, 10
    5e21:	069942        	l16si	a4, a9, 12
    5e24:	e8fbf1        	l32r	a15, 210 (acc0 <immediate_num>)
    5e27:	112200        	slli	a2, a2, 16
    5e2a:	49a257        	bge	a2, a5, 5e77 <subband_aec_mid_channel+0x25b>
    5e2d:	129622        	l16si	a2, a6, 36
    5e30:	230c           	movi.n	a3, 2
    5e32:	11e400        	slli	a14, a4, 16
    5e35:	202230        	or	a2, a2, a3
    5e38:	125622        	s16i	a2, a6, 36
    5e3b:	18cf22        	addi	a2, a15, 24
    5e3e:	05ae57        	bge	a14, a5, 5e47 <subband_aec_mid_channel+0x22b>
    5e41:	400204        	ae_lp16f.i	aep0, a2, 0
    5e44:	000086        	j	5e4a <subband_aec_mid_channel+0x22e>

00005e47 <subband_aec_mid_channel+0x22b>:
    5e47:	400214        	ae_lp16f.i	aep0, a2, 2
    5e4a:	0d9942        	l16si	a4, a9, 26
    5e4d:	2614a6        	blti	a4, 1, 5e77 <subband_aec_mid_channel+0x25b>
    5e50:	119622        	l16si	a2, a6, 34
    5e53:	b638           	l32i.n	a3, a6, 44
    5e55:	c02240        	sub	a2, a2, a4
    5e58:	a02230        	addx4	a2, a2, a3
    5e5b:	441204        	ae_lp16x2f.i	aep1, a2, 0
    5e5e:	fec232        	addi	a3, a2, -2
    5e61:	128476        	loop	a4, 5e77 <subband_aec_mid_channel+0x25b>
    5e64:	011054        	ae_mulfp24s.hl	aeq0, aep1, aep0
    5e67:	ea05ed921f 	{ ae_lp16x2f.iu	aep1, a2, 4; ae_mulfp24s.ll	aeq1, aep1, aep0 }
    5e6c:	1b8f24        	ae_roundsp16q48asym	aep2, aeq0
    5e6f:	fb6bf2a31f 	{ ae_sp16f.l.iu	aep2, a3, 2; ae_roundsp16q48asym	aep7, aeq1 }
    5e74:	42f314        	ae_sp16f.l.iu	aep7, a3, 2

00005e77 <subband_aec_mid_channel+0x25b>:
    5e77:	129622        	l16si	a2, a6, 36
    5e7a:	02d932        	addmi	a3, a9, 0x200
    5e7d:	e8ea41        	l32r	a4, 228 (5740 <aec_post_calc>)
    5e80:	13e207        	bbsi	a2, 0, 5e97 <subband_aec_mid_channel+0x27b>
    5e83:	336227        	bbci	a2, 2, 5eba <subband_aec_mid_channel+0x29e>
    5e86:	02d922        	addmi	a2, a9, 0x200
    5e89:	7a1222        	l16ui	a2, a2, 244
    5e8c:	e8e831        	l32r	a3, 22c (5900 <aec_post_calc_FB_sb>)
    5e8f:	1d1266        	bnei	a2, 1, 5eb0 <subband_aec_mid_channel+0x294>
    5e92:	032d           	mov.n	a2, a3
    5e94:	000286        	j	5ea2 <subband_aec_mid_channel+0x286>

00005e97 <subband_aec_mid_channel+0x27b>:
    5e97:	7a1322        	l16ui	a2, a3, 244
    5e9a:	31c8           	l32i.n	a12, a1, 12
    5e9c:	0b1266        	bnei	a2, 1, 5eab <subband_aec_mid_channel+0x28f>
    5e9f:	e8e121        	l32r	a2, 224 (57e4 <aec_post_calc_sb>)
    5ea2:	09ad           	mov.n	a10, a9
    5ea4:	06bd           	mov.n	a11, a6
    5ea6:	0002e0        	callx8	a2
    5ea9:	f01d           	retw.n

00005eab <subband_aec_mid_channel+0x28f>:
    5eab:	042d           	mov.n	a2, a4
    5ead:	000086        	j	5eb3 <subband_aec_mid_channel+0x297>

00005eb0 <subband_aec_mid_channel+0x294>:
    5eb0:	e8e021        	l32r	a2, 230 (5880 <aec_post_calc_FB>)
    5eb3:	09ad           	mov.n	a10, a9
    5eb5:	06bd           	mov.n	a11, a6
    5eb7:	0002e0        	callx8	a2
    5eba:	f01d           	retw.n

00005ebc <dt_detect>:
    5ebc:	004136        	entry	a1, 32
    5ebf:	0c9252        	l16si	a5, a2, 24
    5ec2:	179242        	l16si	a4, a2, 46
    5ec5:	189262        	l16si	a6, a2, 48
    5ec8:	115500        	slli	a5, a5, 16
    5ecb:	19a537        	bge	a5, a3, 5ee8 <dt_detect+0x2c>
    5ece:	154c           	movi.n	a5, 65
    5ed0:	142657        	blt	a6, a5, 5ee8 <dt_detect+0x2c>
    5ed3:	169252        	l16si	a5, a2, 44
    5ed6:	0e9232        	l16si	a3, a2, 28
    5ed9:	442b           	addi.n	a4, a4, 2
    5edb:	554b           	addi.n	a5, a5, 4
    5edd:	435530        	min	a5, a5, a3
    5ee0:	165252        	s16i	a5, a2, 44
    5ee3:	855d           	ae_sext16	a5, a5
    5ee5:	000246        	j	5ef2 <dt_detect+0x36>

00005ee8 <dt_detect+0x2c>:
    5ee8:	0e9232        	l16si	a3, a2, 28
    5eeb:	050c           	movi.n	a5, 0
    5eed:	440b           	addi.n	a4, a4, -1
    5eef:	165252        	s16i	a5, a2, 44
    5ef2:	534450        	max	a4, a4, a5
    5ef5:	433430        	min	a3, a4, a3
    5ef8:	175232        	s16i	a3, a2, 46
    5efb:	f01d           	retw.n

00005efd <dt_detect+0x41>:
    5efd:	000000                                        ...

00005f00 <dt_detect_sb>:
    5f00:	004136        	entry	a1, 32
    5f03:	199362        	l16si	a6, a3, 50
    5f06:	1c9352        	l16si	a5, a3, 56
    5f09:	174c           	movi.n	a7, 65
    5f0b:	116600        	slli	a6, a6, 16
    5f0e:	1ca647        	bge	a6, a4, 5f2e <dt_detect_sb+0x2e>
    5f11:	189242        	l16si	a4, a2, 48
    5f14:	1b9362        	l16si	a6, a3, 54
    5f17:	0e9282        	l16si	a8, a2, 28
    5f1a:	102477        	blt	a4, a7, 5f2e <dt_detect_sb+0x2e>
    5f1d:	552b           	addi.n	a5, a5, 2
    5f1f:	464b           	addi.n	a4, a6, 4
    5f21:	434480        	min	a4, a4, a8
    5f24:	1b5342        	s16i	a4, a3, 54
    5f27:	844d           	ae_sext16	a4, a4
    5f29:	082d           	mov.n	a2, a8
    5f2b:	000246        	j	5f38 <dt_detect_sb+0x38>

00005f2e <dt_detect_sb+0x2e>:
    5f2e:	0e9222        	l16si	a2, a2, 28
    5f31:	040c           	movi.n	a4, 0
    5f33:	550b           	addi.n	a5, a5, -1
    5f35:	1b5342        	s16i	a4, a3, 54
    5f38:	534540        	max	a4, a5, a4
    5f3b:	432420        	min	a2, a4, a2
    5f3e:	1c5322        	s16i	a2, a3, 56
    5f41:	f01d           	retw.n

00005f43 <dt_detect_sb+0x43>:
	...

00005f44 <dt_detect_FB>:
    5f44:	004136        	entry	a1, 32
    5f47:	1a9252        	l16si	a5, a2, 52
    5f4a:	1c9242        	l16si	a4, a2, 56
    5f4d:	189262        	l16si	a6, a2, 48
    5f50:	115500        	slli	a5, a5, 16
    5f53:	19a537        	bge	a5, a3, 5f70 <dt_detect_FB+0x2c>
    5f56:	154c           	movi.n	a5, 65
    5f58:	142657        	blt	a6, a5, 5f70 <dt_detect_FB+0x2c>
    5f5b:	1d9252        	l16si	a5, a2, 58
    5f5e:	1b9232        	l16si	a3, a2, 54
    5f61:	442b           	addi.n	a4, a4, 2
    5f63:	554b           	addi.n	a5, a5, 4
    5f65:	435530        	min	a5, a5, a3
    5f68:	1d5252        	s16i	a5, a2, 58
    5f6b:	855d           	ae_sext16	a5, a5
    5f6d:	000246        	j	5f7a <dt_detect_FB+0x36>

00005f70 <dt_detect_FB+0x2c>:
    5f70:	1b9232        	l16si	a3, a2, 54
    5f73:	050c           	movi.n	a5, 0
    5f75:	440b           	addi.n	a4, a4, -1
    5f77:	1d5252        	s16i	a5, a2, 58
    5f7a:	534450        	max	a4, a4, a5
    5f7d:	433430        	min	a3, a4, a3
    5f80:	1c5232        	s16i	a3, a2, 56
    5f83:	f01d           	retw.n

00005f85 <dt_detect_FB+0x41>:
    5f85:	000000                                        ...

00005f88 <dt_detect_FB_sb>:
    5f88:	004136        	entry	a1, 32
    5f8b:	199362        	l16si	a6, a3, 50
    5f8e:	1c9352        	l16si	a5, a3, 56
    5f91:	174c           	movi.n	a7, 65
    5f93:	116600        	slli	a6, a6, 16
    5f96:	1ca647        	bge	a6, a4, 5fb6 <dt_detect_FB_sb+0x2e>
    5f99:	189242        	l16si	a4, a2, 48
    5f9c:	1b9362        	l16si	a6, a3, 54
    5f9f:	1b9282        	l16si	a8, a2, 54
    5fa2:	102477        	blt	a4, a7, 5fb6 <dt_detect_FB_sb+0x2e>
    5fa5:	552b           	addi.n	a5, a5, 2
    5fa7:	464b           	addi.n	a4, a6, 4
    5fa9:	434480        	min	a4, a4, a8
    5fac:	1b5342        	s16i	a4, a3, 54
    5faf:	844d           	ae_sext16	a4, a4
    5fb1:	082d           	mov.n	a2, a8
    5fb3:	000246        	j	5fc0 <dt_detect_FB_sb+0x38>

00005fb6 <dt_detect_FB_sb+0x2e>:
    5fb6:	1b9222        	l16si	a2, a2, 54
    5fb9:	040c           	movi.n	a4, 0
    5fbb:	550b           	addi.n	a5, a5, -1
    5fbd:	1b5342        	s16i	a4, a3, 54
    5fc0:	534540        	max	a4, a5, a4
    5fc3:	432420        	min	a2, a4, a2
    5fc6:	1c5322        	s16i	a2, a3, 56
    5fc9:	f01d           	retw.n

00005fcb <dt_detect_FB_sb+0x43>:
    5fcb:	00000000                                 .....

00005fd0 <get_ECNR_SVN>:
    5fd0:	004136        	entry	a1, 32
    5fd3:	f8a322        	movi	a2, 0x3f8
    5fd6:	f01d           	retw.n

00005fd8 <get_aec_nr_memsize>:
    5fd8:	004136        	entry	a1, 32
    5fdb:	e89721        	l32r	a2, 238 (cf78 <ath_b45+0x38>)
    5fde:	f01d           	retw.n

00005fe0 <get_txnr_pitch_last>:
    5fe0:	004136        	entry	a1, 32
    5fe3:	e81221        	l32r	a2, 2c (ee5c <p_ecnr_mem>)
    5fe6:	e89531        	l32r	a3, 23c (cf48 <ath_b45+0x8>)
    5fe9:	0228           	l32i.n	a2, a2, 0
    5feb:	223a           	add.n	a2, a2, a3
    5fed:	222d           	ae_l16si.n	a2, a2, 0
    5fef:	f01d           	retw.n

00005ff1 <get_txnr_pitch_last+0x11>:
    5ff1:	000000                                        ...

00005ff4 <sb_ana_init>:
    5ff4:	004136        	entry	a1, 32
    5ff7:	a24b           	addi.n	a10, a2, 4
    5ff9:	02a9           	s32i.n	a10, a2, 0
    5ffb:	e81f21        	l32r	a2, 78 (90e4 <xt_memset>)
    5ffe:	0b0c           	movi.n	a11, 0
    6000:	ec1c           	movi.n	a12, 30
    6002:	0002e0        	callx8	a2
    6005:	f01d           	retw.n

00006007 <sb_ana_init+0x13>:
	...

00006008 <sb_syn_init>:
    6008:	004136        	entry	a1, 32
    600b:	a24b           	addi.n	a10, a2, 4
    600d:	02a9           	s32i.n	a10, a2, 0
    600f:	e81a21        	l32r	a2, 78 (90e4 <xt_memset>)
    6012:	0b0c           	movi.n	a11, 0
    6014:	cc3c           	movi.n	a12, 60
    6016:	0002e0        	callx8	a2
    6019:	f01d           	retw.n

0000601b <sb_syn_init+0x13>:
	...

0000601c <AVC_init>:
    601c:	004136        	entry	a1, 32
    601f:	e80431        	l32r	a3, 30 (ee50 <aec_nr_para>)
    6022:	f47c           	movi.n	a4, -1
    6024:	014410        	slli	a4, a4, 31
    6027:	0338           	l32i.n	a3, a3, 0
    6029:	050c           	movi.n	a5, 0
    602b:	2259           	s32i.n	a5, a2, 8
    602d:	1e13e2        	l16ui	a14, a3, 60
    6030:	1f9362        	l16si	a6, a3, 62
    6033:	209332        	l16si	a3, a3, 64
    6036:	11fe00        	slli	a15, a14, 16
    6039:	4e4a           	add.n	a4, a14, a4
    603b:	035232        	s16i	a3, a2, 6
    603e:	c034f0        	sub	a3, a4, a15
    6041:	025262        	s16i	a6, a2, 4
    6044:	0239           	s32i.n	a3, a2, 0
    6046:	f01d           	retw.n

00006048 <HP_coef_setup>:
    6048:	004136        	entry	a1, 32
    604b:	e7f741        	l32r	a4, 28 (90f8 <xt_memcpy>)
    604e:	4c0c           	movi.n	a12, 4
    6050:	02ad           	mov.n	a10, a2
    6052:	03bd           	mov.n	a11, a3
    6054:	0004e0        	callx8	a4
    6057:	a2cb           	addi.n	a10, a2, 12
    6059:	b38b           	addi.n	a11, a3, 8
    605b:	ac0c           	movi.n	a12, 10
    605d:	0004e0        	callx8	a4
    6060:	24c2a2        	addi	a10, a2, 36
    6063:	1cc3b2        	addi	a11, a3, 28
    6066:	8c0c           	movi.n	a12, 8
    6068:	0004e0        	callx8	a4
    606b:	1238           	l32i.n	a3, a2, 4
    606d:	72f8           	l32i.n	a15, a2, 28
    606f:	2239           	s32i.n	a3, a2, 8
    6071:	82f9           	s32i.n	a15, a2, 32
    6073:	f01d           	retw.n

00006075 <HP_coef_setup+0x2d>:
    6075:	000000                                        ...

00006078 <tx_ref_vad_init>:
    6078:	004136        	entry	a1, 32
    607b:	e7ff41        	l32r	a4, 78 (90e4 <xt_memset>)
    607e:	0b0c           	movi.n	a11, 0
    6080:	ec0c           	movi.n	a12, 14
    6082:	02ad           	mov.n	a10, a2
    6084:	0004e0        	callx8	a4
    6087:	c8a142        	movi	a4, 0x1c8
    608a:	b34a           	add.n	a11, a3, a4
    608c:	e7e731        	l32r	a3, 28 (90f8 <xt_memcpy>)
    608f:	7c0c           	movi.n	a12, 7
    6091:	02ad           	mov.n	a10, a2
    6093:	0003e0        	callx8	a3
    6096:	f01d           	retw.n

00006098 <Get_AirDump_Inear>:
    6098:	004136        	entry	a1, 32
    609b:	e7e431        	l32r	a3, 2c (ee5c <p_ecnr_mem>)
    609e:	1fa142        	movi	a4, 0x11f
    60a1:	1144c0        	slli	a4, a4, 4
    60a4:	0338           	l32i.n	a3, a3, 0
    60a6:	02bd           	mov.n	a11, a2
    60a8:	a34a           	add.n	a10, a3, a4
    60aa:	e86531        	l32r	a3, 240 (4084 <fn_get_airdump>)
    60ad:	0003e0        	callx8	a3
    60b0:	f01d           	retw.n

000060b2 <Get_AirDump_Inear+0x1a>:
	...

000060b4 <Voice_WB_TX_Inear_Init>:
    60b4:	004136        	entry	a1, 32
    60b7:	e7dd31        	l32r	a3, 2c (ee5c <p_ecnr_mem>)
    60ba:	81e8           	l32i.n	a14, a1, 32
    60bc:	02ad           	mov.n	a10, a2
    60be:	0349           	s32i.n	a4, a3, 0
    60c0:	e86141        	l32r	a4, 244 (484 <TX_ECNR_PARA_init>)
    60c3:	05bd           	mov.n	a11, a5
    60c5:	06cd           	mov.n	a12, a6
    60c7:	07dd           	mov.n	a13, a7
    60c9:	0004e0        	callx8	a4
    60cc:	e7d961        	l32r	a6, 30 (ee50 <aec_nr_para>)
    60cf:	08a152        	movi	a5, 0x108
    60d2:	03a8           	l32i.n	a10, a3, 0
    60d4:	0648           	l32i.n	a4, a6, 0
    60d6:	e85c21        	l32r	a2, 248 (6048 <HP_coef_setup>)
    60d9:	b45a           	add.n	a11, a4, a5
    60db:	0002e0        	callx8	a2
    60de:	0348           	l32i.n	a4, a3, 0
    60e0:	e7e621        	l32r	a2, 78 (90e4 <xt_memset>)
    60e3:	0b0c           	movi.n	a11, 0
    60e5:	34c4a2        	addi	a10, a4, 52
    60e8:	4c2c           	movi.n	a12, 36
    60ea:	0002e0        	callx8	a2
    60ed:	0378           	l32i.n	a7, a3, 0
    60ef:	80a082        	movi	a8, 128
    60f2:	0b0c           	movi.n	a11, 0
    60f4:	a78a           	add.n	a10, a7, a8
    60f6:	f0a0c2        	movi	a12, 240
    60f9:	f0a072        	movi	a7, 240
    60fc:	0002e0        	callx8	a2
    60ff:	0388           	l32i.n	a8, a3, 0
    6101:	07a292        	movi	a9, 0x207
    6104:	1199d0        	slli	a9, a9, 3
    6107:	10d8b2        	addmi	a11, a8, 0x1000
    610a:	889a           	add.n	a8, a8, a9
    610c:	a84b           	addi.n	a10, a8, 4
    610e:	eba9           	s32i.n	a10, a11, 56
    6110:	0b0c           	movi.n	a11, 0
    6112:	ec1c           	movi.n	a12, 30
    6114:	0002e0        	callx8	a2
    6117:	0388           	l32i.n	a8, a3, 0
    6119:	17a292        	movi	a9, 0x217
    611c:	1199d0        	slli	a9, a9, 3
    611f:	10d8b2        	addmi	a11, a8, 0x1000
    6122:	889a           	add.n	a8, a8, a9
    6124:	a84b           	addi.n	a10, a8, 4
    6126:	2e6ba2        	s32i	a10, a11, 184
    6129:	0b0c           	movi.n	a11, 0
    612b:	ec1c           	movi.n	a12, 30
    612d:	0002e0        	callx8	a2
    6130:	0388           	l32i.n	a8, a3, 0
    6132:	0fa292        	movi	a9, 0x20f
    6135:	1199d0        	slli	a9, a9, 3
    6138:	10d8b2        	addmi	a11, a8, 0x1000
    613b:	889a           	add.n	a8, a8, a9
    613d:	a84b           	addi.n	a10, a8, 4
    613f:	1e6ba2        	s32i	a10, a11, 120
    6142:	0b0c           	movi.n	a11, 0
    6144:	ec1c           	movi.n	a12, 30
    6146:	0002e0        	callx8	a2
    6149:	0388           	l32i.n	a8, a3, 0
    614b:	1fa292        	movi	a9, 0x21f
    614e:	1199d0        	slli	a9, a9, 3
    6151:	10d8b2        	addmi	a11, a8, 0x1000
    6154:	889a           	add.n	a8, a8, a9
    6156:	a84b           	addi.n	a10, a8, 4
    6158:	3e6ba2        	s32i	a10, a11, 248
    615b:	0b0c           	movi.n	a11, 0
    615d:	cc3c           	movi.n	a12, 60
    615f:	0002e0        	callx8	a2
    6162:	0388           	l32i.n	a8, a3, 0
    6164:	5da492        	movi	a9, 0x45d
    6167:	1199e0        	slli	a9, a9, 2
    616a:	11d8b2        	addmi	a11, a8, 0x1100
    616d:	889a           	add.n	a8, a8, a9
    616f:	a84b           	addi.n	a10, a8, 4
    6171:	1d6ba2        	s32i	a10, a11, 116
    6174:	0b0c           	movi.n	a11, 0
    6176:	cc3c           	movi.n	a12, 60
    6178:	0002e0        	callx8	a2
    617b:	0698           	l32i.n	a9, a6, 0
    617d:	0388           	l32i.n	a8, a3, 0
    617f:	68a1d2        	movi	a13, 0x168
    6182:	0948           	l32i.n	a4, a9, 0
    6184:	339922        	l16si	a2, a9, 102
    6187:	3e5822        	s16i	a2, a8, 124
    618a:	d4da           	add.n	a13, a4, a13
    618c:	a668d2        	s32i	a13, a8, 0x298
    618f:	e82fd1        	l32r	a13, 24c (cf50 <ath_b45+0x10>)
    6192:	c8a0a2        	movi	a10, 200
    6195:	18a1b2        	movi	a11, 0x118
    6198:	40a1c2        	movi	a12, 0x140
    619b:	90a1e2        	movi	a14, 0x190
    619e:	b8a1f2        	movi	a15, 0x1b8
    61a1:	349922        	l16si	a2, a9, 104
    61a4:	065d           	mov.n	a5, a6
    61a6:	e0a162        	movi	a6, 0x1e0
    61a9:	3f5822        	s16i	a2, a8, 126
    61ac:	246a           	add.n	a2, a4, a6
    61ae:	a4aa           	add.n	a10, a4, a10
    61b0:	747a           	add.n	a7, a4, a7
    61b2:	b4ba           	add.n	a11, a4, a11
    61b4:	c4ca           	add.n	a12, a4, a12
    61b6:	e4ea           	add.n	a14, a4, a14
    61b8:	f4fa           	add.n	a15, a4, a15
    61ba:	78c442        	addi	a4, a4, 120
    61bd:	a16842        	s32i	a4, a8, 0x284
    61c0:	48da           	add.n	a4, a8, a13
    61c2:	a8a762        	movi	a6, 0x7a8
    61c5:	a468b2        	s32i	a11, a8, 0x290
    61c8:	b96a           	add.n	a11, a9, a6
    61ca:	0448           	l32i.n	a4, a4, 0
    61cc:	07d992        	addmi	a9, a9, 0x700
    61cf:	a86822        	s32i	a2, a8, 0x2a0
    61d2:	4e1922        	l16ui	a2, a9, 156
    61d5:	a768e2        	s32i	a14, a8, 0x29c
    61d8:	a968f2        	s32i	a15, a8, 0x2a4
    61db:	e81df1        	l32r	a15, 250 (cf58 <ath_b45+0x18>)
    61de:	e0a5e2        	movi	a14, 0x5e0
    61e1:	a36872        	s32i	a7, a8, 0x28c
    61e4:	74ea           	add.n	a7, a4, a14
    61e6:	00a1d2        	movi	a13, 0x100
    61e9:	1e0c           	movi.n	a14, 1
    61eb:	a568c2        	s32i	a12, a8, 0x294
    61ee:	ab6872        	s32i	a7, a8, 0x2ac
    61f1:	4d99c2        	l16si	a12, a9, 154
    61f4:	5322d0        	max	a2, a2, a13
    61f7:	017e90        	slli	a7, a14, 23
    61fa:	f8fa           	add.n	a15, a8, a15
    61fc:	c22720        	quou	a2, a7, a2
    61ff:	04d442        	addmi	a4, a4, 0x400
    6202:	7f2d           	ae_s16i.n	a2, a15, 2
    6204:	e81121        	l32r	a2, 248 (6048 <HP_coef_setup>)
    6207:	a268a2        	s32i	a10, a8, 0x288
    620a:	aa6842        	s32i	a4, a8, 0x2a8
    620d:	534cd0        	max	a4, a12, a13
    6210:	40c8a2        	addi	a10, a8, 64
    6213:	6f4d           	ae_s16i.n	a4, a15, 0
    6215:	0002e0        	callx8	a2
    6218:	e80f21        	l32r	a2, 254 (51c4 <SBAEC_INIT>)
    621b:	0002e0        	callx8	a2
    621e:	e80e21        	l32r	a2, 258 (774c <WB_TX_NR_init>)
    6221:	0002e0        	callx8	a2
    6224:	0528           	l32i.n	a2, a5, 0
    6226:	0368           	l32i.n	a6, a3, 0
    6228:	f87c           	movi.n	a8, -1
    622a:	2092f2        	l16si	a15, a2, 64
    622d:	1f92c2        	l16si	a12, a2, 62
    6230:	1e1222        	l16ui	a2, a2, 60
    6233:	018810        	slli	a8, a8, 31
    6236:	e80941        	l32r	a4, 25c (ee60 <avc_vol>)
    6239:	170c           	movi.n	a7, 1
    623b:	0dd652        	addmi	a5, a6, 0xd00
    623e:	828a           	add.n	a8, a2, a8
    6240:	112200        	slli	a2, a2, 16
    6243:	0f55f2        	s16i	a15, a5, 30
    6246:	117730        	slli	a7, a7, 13
    6249:	0e0c           	movi.n	a14, 0
    624b:	c02820        	sub	a2, a8, a2
    624e:	190c           	movi.n	a9, 1
    6250:	7ec6a2        	addi	a10, a6, 126
    6253:	60a2d2        	movi	a13, 0x260
    6256:	7f0c           	movi.n	a15, 7
    6258:	647d           	ae_s16i.n	a7, a4, 0
    625a:	ff5a92        	s16i	a9, a10, 0x1fe
    625d:	0e55c2        	s16i	a12, a5, 28
    6260:	85e9           	s32i.n	a14, a5, 32
    6262:	0dd6b2        	addmi	a11, a6, 0xd00
    6265:	00a452        	movi	a5, 0x400
    6268:	76da           	add.n	a7, a6, a13
    626a:	066b22        	s32i	a2, a11, 24
    626d:	038f76        	loop	a15, 6274 <Voice_WB_TX_Inear_Init+0x1c0>
    6270:	675d           	ae_s16i.n	a5, a7, 0
    6272:	772b           	addi.n	a7, a7, 2

00006274 <Voice_WB_TX_Inear_Init+0x1c0>:
    6274:	c3a022        	movi	a2, 195
    6277:	1122c0        	slli	a2, a2, 4
    627a:	e77f51        	l32r	a5, 78 (90e4 <xt_memset>)
    627d:	a62a           	add.n	a10, a6, a2
    627f:	0b0c           	movi.n	a11, 0
    6281:	0c5c           	movi.n	a12, 80
    6283:	0005e0        	callx8	a5
    6286:	0328           	l32i.n	a2, a3, 0
    6288:	cda042        	movi	a4, 205
    628b:	1144c0        	slli	a4, a4, 4
    628e:	a24a           	add.n	a10, a2, a4
    6290:	0b0c           	movi.n	a11, 0
    6292:	4c2c           	movi.n	a12, 36
    6294:	0005e0        	callx8	a5
    6297:	e76641        	l32r	a4, 30 (ee50 <aec_nr_para>)
    629a:	0328           	l32i.n	a2, a3, 0
    629c:	1fa192        	movi	a9, 0x11f
    629f:	0458           	l32i.n	a5, a4, 0
    62a1:	1199c0        	slli	a9, a9, 4
    62a4:	70a662        	movi	a6, 0x670
    62a7:	6ea472        	movi	a7, 0x46e
    62aa:	eea182        	movi	a8, 0x1ee
    62ad:	a29a           	add.n	a10, a2, a9
    62af:	eea3f2        	movi	a15, 0x3ee
    62b2:	e7eb21        	l32r	a2, 260 (40b4 <fn_ini_inear_ast_nr>)
    62b5:	b56a           	add.n	a11, a5, a6
    62b7:	c57a           	add.n	a12, a5, a7
    62b9:	d58a           	add.n	a13, a5, a8
    62bb:	e5fa           	add.n	a14, a5, a15
    62bd:	0002e0        	callx8	a2
    62c0:	0328           	l32i.n	a2, a3, 0
    62c2:	e7e8f1        	l32r	a15, 264 (cf5c <ath_b45+0x1c>)
    62c5:	e76c31        	l32r	a3, 78 (90e4 <xt_memset>)
    62c8:	0448           	l32i.n	a4, a4, 0
    62ca:	22fa           	add.n	a2, a2, a15
    62cc:	0b0c           	movi.n	a11, 0
    62ce:	ec0c           	movi.n	a12, 14
    62d0:	02ad           	mov.n	a10, a2
    62d2:	0003e0        	callx8	a3
    62d5:	c8a132        	movi	a3, 0x1c8
    62d8:	b43a           	add.n	a11, a4, a3
    62da:	e75331        	l32r	a3, 28 (90f8 <xt_memcpy>)
    62dd:	7c0c           	movi.n	a12, 7
    62df:	02ad           	mov.n	a10, a2
    62e1:	0003e0        	callx8	a3
    62e4:	f01d           	retw.n

000062e6 <Voice_WB_TX_Inear_Init+0x232>:
	...

000062e8 <mic240_delay>:
    62e8:	004136        	entry	a1, 32
    62eb:	e74f61        	l32r	a6, 28 (90f8 <xt_memcpy>)
    62ee:	02ad           	mov.n	a10, a2
    62f0:	04bd           	mov.n	a11, a4
    62f2:	05cd           	mov.n	a12, a5
    62f4:	0006e0        	callx8	a6
    62f7:	f0a072        	movi	a7, 240
    62fa:	90a520        	addx2	a10, a5, a2
    62fd:	c0c750        	sub	a12, a7, a5
    6300:	03bd           	mov.n	a11, a3
    6302:	1125f0        	slli	a2, a5, 1
    6305:	0006e0        	callx8	a6
    6308:	c02320        	sub	a2, a3, a2
    630b:	e0a1f2        	movi	a15, 0x1e0
    630e:	b2fa           	add.n	a11, a2, a15
    6310:	04ad           	mov.n	a10, a4
    6312:	05cd           	mov.n	a12, a5
    6314:	0006e0        	callx8	a6
    6317:	f01d           	retw.n

00006319 <mic240_delay+0x31>:
    6319:	000000                                        ...

0000631c <tx_downsample_by2>:
    631c:	004136        	entry	a1, 32
    631f:	e7d271        	l32r	a7, 268 (aed0 <wb_r01>)
    6322:	481c           	movi.n	a8, 20
    6324:	fec222        	addi	a2, a2, -2
    6327:	fec332        	addi	a3, a3, -2
    632a:	600604        	ae_lq32f.i	aeq0, a6, 0
    632d:	440404        	ae_lp16x2f.i	aep0, a4, 0
    6330:	948876        	loop	a8, 63c8 <tx_downsample_by2+0xac>
    6333:	e2002f150f 	{ ae_lp24x2f.i	aep1, a5, 0; ae_mulaafp24s.hh.ll	aeq0, aep0, aep0 }
    6338:	fd242c340f 	{ ae_lp16f.i	aep3, a4, 0; ae_cvtq48p24s.h	aeq1, aep1 }
    633d:	de2cb1273f 	{ ae_lp24.i	aep2, a7, 12; ae_selp24.hl	aep4, aep3, aep1 }
    6342:	e88874350f 	{ ae_sp24f.l.i	aep3, a5, 0; ae_mulasfp24s.hh.ll	aeq1, aep2, aep4 }
    6347:	ff2c2f251f 	{ ae_lp24x2f.i	aep2, a5, 8; ae_cvtq48p24s.l	aeq3, aep1 }
    634c:	fa6ff1674f 	{ ae_lp24.i	aep6, a7, 16; ae_roundsp24q48asym	aep5, aeq1 }
    6351:	df55f4551f 	{ ae_sp24f.l.i	aep5, a5, 4; ae_selp24.lh	aep7, aep5, aep2 }
    6356:	e9f871375f 	{ ae_lp24.i	aep3, a7, 20; ae_mulasfp24s.hh.ll	aeq3, aep6, aep7 }
    635b:	fe442c441f 	{ ae_lp16f.i	aep4, a4, 2; ae_cvtq48p24s.h	aeq2, aep2 }
    6360:	f87fed841f 	{ ae_lp16x2f.iu	aep0, a4, 4; ae_roundsp24q48asym	aep1, aeq3 }
    6365:	dd4634152f 	{ ae_sp24f.l.i	aep1, a5, 8; ae_selp24.ll	aep2, aep1, aep2 }
    636a:	05b244        	ae_mulasfp24s.hh.ll	aeq2, aep3, aep2
    636d:	1bad14        	ae_roundsp24q48asym	aep1, aeq2
    6370:	521534        	ae_sp24f.l.i	aep1, a5, 12
    6373:	5c6524        	ae_lp24x2f.i	aep6, a5, 16
    6376:	ffc431770f 	{ ae_lp24.i	aep7, a7, 0; ae_cvtq48p24s.h	aeq3, aep6 }
    637b:	ded0f4454f 	{ ae_sp24f.l.i	aep4, a5, 16; ae_selp24.hl	aep5, aep4, aep6 }
    6380:	e9bc6f253f 	{ ae_lp24x2f.i	aep2, a5, 24; ae_mulasfp24s.hh.ll	aeq3, aep7, aep5 }
    6385:	fecc31671f 	{ ae_lp24.i	aep6, a7, 4; ae_cvtq48p24s.l	aeq2, aep6 }
    638a:	fa7fbf18df 	{ ae_movap24s.l	a8, aep1; ae_roundsp24q48asym	aep4, aeq3 }
    638f:	df51f4455f 	{ ae_sp24f.l.i	aep4, a5, 20; ae_selp24.lh	aep7, aep4, aep2 }
    6394:	e9f831472f 	{ ae_lp24.i	aep4, a7, 8; ae_mulasfp24s.hh.ll	aeq2, aep6, aep7 }
    6399:	0aca84        	ae_cvtq48p24s.h	aeq3, aep2
    639c:	1bad34        	ae_roundsp24q48asym	aep3, aeq2
    639f:	dd4e34356f 	{ ae_sp24f.l.i	aep3, a5, 24; ae_selp24.ll	aep2, aep3, aep2 }
    63a4:	05ca44        	ae_mulasfp24s.hh.ll	aeq3, aep4, aep2
    63a7:	1bbd54        	ae_roundsp24q48asym	aep5, aeq3
    63aa:	34d904        	ae_movap24s.l	a9, aep5
    63ad:	a98a           	add.n	a10, a9, a8
    63af:	c08980        	sub	a8, a9, a8
    63b2:	41f1a0        	srli	a15, a10, 1
    63b5:	418180        	srli	a8, a8, 1
    63b8:	39ef84        	ae_movpa24x2	aep6, a15, a8
    63bb:	f9fab4557f 	{ ae_sp24f.l.i	aep5, a5, 28; ae_roundsp16asym	aep2, aep6 }
    63c0:	df4972a31f 	{ ae_sp16f.l.iu	aep2, a3, 2; ae_selp24.hh	aep7, aep2, aep2 }
    63c5:	42f214        	ae_sp16f.l.iu	aep7, a2, 2

000063c8 <tx_downsample_by2+0xac>:
    63c8:	060934        	ae_roundsq32asym	aeq0, aeq0
    63cb:	620604        	ae_sq32f.i	aeq0, a6, 0
    63ce:	f01d           	retw.n

000063d0 <tx_upsample_by2>:
    63d0:	006136        	entry	a1, 48
    63d3:	e7a591        	l32r	a9, 268 (aed0 <wb_r01>)
    63d6:	4a1c           	movi.n	a10, 20
    63d8:	71eb           	addi.n	a7, a1, 14
    63da:	81cb           	addi.n	a8, a1, 12
    63dc:	fcc442        	addi	a4, a4, -4
    63df:	600604        	ae_lq32f.i	aeq0, a6, 0
    63e2:	401204        	ae_lp16f.i	aep1, a2, 0
    63e5:	402304        	ae_lp16f.i	aep2, a3, 0
    63e8:	8f8a76        	loop	a10, 647b <tx_upsample_by2+0xab>
    63eb:	dd46ef050f 	{ ae_lp24x2f.i	aep0, a5, 0; ae_subsp24s	aep3, aep1, aep2 }
    63f0:	fd0432381f 	{ ae_sp16f.l.i	aep3, a8, 2; ae_cvtq48p24s.h	aeq1, aep0 }
    63f5:	ff0c2c370f 	{ ae_lp16f.i	aep3, a7, 0; ae_cvtq48p24s.l	aeq3, aep0 }
    63fa:	de0cf1490f 	{ ae_lp24.i	aep4, a9, 0; ae_selp24.hl	aep5, aep3, aep0 }
    63ff:	e8b074350f 	{ ae_sp24f.l.i	aep3, a5, 0; ae_mulasfp24s.hh.ll	aeq1, aep4, aep5 }
    6404:	d8452f351f 	{ ae_lp24x2f.i	aep3, a5, 8; ae_addsp24s	aep0, aep1, aep2 }
    6409:	fa6fb1691f 	{ ae_lp24.i	aep6, a9, 4; ae_roundsp24q48asym	aep4, aeq1 }
    640e:	df71f4451f 	{ ae_sp24f.l.i	aep4, a5, 4; ae_selp24.lh	aep7, aep4, aep3 }
    6413:	e9f871592f 	{ ae_lp24.i	aep5, a9, 8; ae_mulasfp24s.hh.ll	aeq3, aep6, aep7 }
    6418:	fe6432080f 	{ ae_sp16f.l.i	aep0, a8, 0; ae_cvtq48p24s.h	aeq2, aep3 }
    641d:	fa7fac680f 	{ ae_lp16f.i	aep6, a8, 0; ae_roundsp24q48asym	aep4, aeq3 }
    6422:	dd7274452f 	{ ae_sp24f.l.i	aep4, a5, 8; ae_selp24.ll	aep3, aep4, aep3 }
    6427:	05d344        	ae_mulasfp24s.hh.ll	aeq2, aep5, aep3
    642a:	1bad24        	ae_roundsp24q48asym	aep2, aeq2
    642d:	e203b4253f 	{ ae_sp24f.l.i	aep2, a5, 12; ae_mulafp24s.ll	aeq0, aep0, aep0 }
    6432:	5c1524        	ae_lp24x2f.i	aep1, a5, 16
    6435:	ff2431493f 	{ ae_lp24.i	aep4, a9, 12; ae_cvtq48p24s.h	aeq3, aep1 }
    643a:	df38f4654f 	{ ae_sp24f.l.i	aep6, a5, 16; ae_selp24.hl	aep7, aep6, aep1 }
    643f:	e9f06f353f 	{ ae_lp24x2f.i	aep3, a5, 24; ae_mulasfp24s.hh.ll	aeq3, aep4, aep7 }
    6444:	fe2c31694f 	{ ae_lp24.i	aep6, a9, 16; ae_cvtq48p24s.l	aeq2, aep1 }
    6449:	fa7fbf2adf 	{ ae_movap24s.l	a10, aep2; ae_roundsp24q48asym	aep4, aeq3 }
    644e:	df71f4455f 	{ ae_sp24f.l.i	aep4, a5, 20; ae_selp24.lh	aep7, aep4, aep3 }
    6453:	e9f831795f 	{ ae_lp24.i	aep7, a9, 20; ae_mulasfp24s.hh.ll	aeq2, aep6, aep7 }
    6458:	ff642c921f 	{ ae_lp16f.iu	aep1, a2, 2; ae_cvtq48p24s.h	aeq3, aep3 }
    645d:	fb77aca31f 	{ ae_lp16f.iu	aep2, a3, 2; ae_roundsp24q48asym	aep6, aeq2 }
    6462:	dd7a74656f 	{ ae_sp24f.l.i	aep6, a5, 24; ae_selp24.ll	aep3, aep6, aep3 }
    6467:	05fb44        	ae_mulasfp24s.hh.ll	aeq3, aep7, aep3
    646a:	1bbd64        	ae_roundsp24q48asym	aep6, aeq3
    646d:	34eb04        	ae_movap24s.l	a11, aep6
    6470:	39fab4        	ae_movpa24x2	aep7, a10, a11
    6473:	f9fef4657f 	{ ae_sp24f.l.i	aep6, a5, 28; ae_roundsp16asym	aep3, aep7 }
    6478:	46b414        	ae_sp16x2f.iu	aep3, a4, 4

0000647b <tx_upsample_by2+0xab>:
    647b:	060934        	ae_roundsq32asym	aeq0, aeq0
    647e:	620604        	ae_sq32f.i	aeq0, a6, 0
    6481:	f01d           	retw.n

00006483 <tx_upsample_by2+0xb3>:
	...

00006484 <emph_filter_N>:
    6484:	004136        	entry	a1, 32
    6487:	440404        	ae_lp16x2f.i	aep0, a4, 0
    648a:	3725a6        	blti	a5, 2, 64c5 <emph_filter_N+0x41>
    648d:	651b           	addi.n	a6, a5, 1
    648f:	b36550        	movgez	a6, a5, a5
    6492:	215160        	srai	a5, a6, 1
    6495:	441304        	ae_lp16x2f.i	aep1, a3, 0
    6498:	fec232        	addi	a3, a2, -2
    649b:	fcc222        	addi	a2, a2, -4
    649e:	238576        	loop	a5, 64c5 <emph_filter_N+0x41>
    64a1:	44a214        	ae_lp16x2f.iu	aep2, a2, 4
    64a4:	fc443e20cf 	{ ae_selp24.hh	aep3, aep2, aep0; ae_cvtq48p24s.h	aeq0, aep2 }
    64a9:	0a4284        	ae_cvtq48p24s.l	aeq1, aep2
    64ac:	011004        	ae_mulafp24s.hh	aeq0, aep1, aep0
    64af:	011a04        	ae_mulafp24s.hh	aeq1, aep1, aep2
    64b2:	051004        	ae_mulaafp24s.hh.ll	aeq0, aep1, aep0
    64b5:	051b04        	ae_mulaafp24s.hh.ll	aeq1, aep1, aep3
    64b8:	1b8f04        	ae_roundsp16q48asym	aep0, aeq0
    64bb:	f96bf2831f 	{ ae_sp16f.l.iu	aep0, a3, 2; ae_roundsp16q48asym	aep3, aeq1 }
    64c0:	dc49b2b31f 	{ ae_sp16f.l.iu	aep3, a3, 2; ae_selp24.lh	aep0, aep2, aep2 }

000064c5 <emph_filter_N+0x41>:
    64c5:	460404        	ae_sp16x2f.i	aep0, a4, 0
    64c8:	f01d           	retw.n

000064ca <emph_filter_N+0x46>:
	...

000064cc <deemph_filter_N>:
    64cc:	004136        	entry	a1, 32
    64cf:	600404        	ae_lq32f.i	aeq0, a4, 0
    64d2:	604414        	ae_lq32f.i	aeq1, a4, 4
    64d5:	2e15a6        	blti	a5, 1, 6507 <deemph_filter_N+0x3b>
    64d8:	e74ef1        	l32r	a15, 210 (acc0 <immediate_num>)
    64db:	ff0c6d030f 	{ ae_lp16x2f.i	aep0, a3, 0; ae_movq56	aeq3, aeq1 }
    64e0:	99002c120f 	{ ae_lp16f.i	aep1, a2, 0; ae_mulzssfq32sp16s.hh	aeq2, aeq0, aep0, aeq0, aep0 }
    64e5:	30cf32        	addi	a3, a15, 48
    64e8:	442304        	ae_lp16x2f.i	aep2, a3, 0
    64eb:	f03d           	nop.n
    64ed:	168576        	loop	a5, 6507 <deemph_filter_N+0x3b>
    64f0:	fb81bf017f 	{ ae_movq56	aeq1, aeq0; ae_mulsfq32sp16s.l	aeq2, aeq3, aep0 }
    64f5:	f1462c921f 	{ ae_lp16f.iu	aep1, a2, 2; ae_mulssfp24s.hh.ll	aeq2, aep1, aep2 }
    64fa:	fc347f11ff 	{ ae_movq56	aeq3, aeq1; ae_roundsq32asym	aeq0, aeq2 }
    64ff:	1b8f34        	ae_roundsp16q48asym	aep3, aeq0
    6502:	99003232ff 	{ ae_sp16f.l.i	aep3, a2, -2; ae_mulzssfq32sp16s.hh	aeq2, aeq0, aep0, aeq0, aep0 }

00006507 <deemph_filter_N+0x3b>:
    6507:	620404        	ae_sq32f.i	aeq0, a4, 0
    650a:	621414        	ae_sq32f.i	aeq1, a4, 4
    650d:	f01d           	retw.n

0000650f <deemph_filter_N+0x43>:
	...

00006510 <analy_3band>:
    6510:	004136        	entry	a1, 32
    6513:	e756b1        	l32r	a11, 26c (aef0 <sb_g10>)
    6516:	e756c1        	l32r	a12, 270 (af30 <sb_h2ir>)
    6519:	a34b           	addi.n	a10, a3, 4
    651b:	f3f6a0        	wur.ae_cbegin0	a10
    651e:	03a8           	l32i.n	a10, a3, 0
    6520:	40c3f2        	addi	a15, a3, 64
    6523:	a70c           	movi.n	a7, 10
    6525:	480c           	movi.n	a8, 4
    6527:	790c           	movi.n	a9, 7
    6529:	f3f7f0        	wur.ae_cend0	a15
    652c:	fe248fc44e 	{ addi	a4, a4, -4; ae_zeroq56	aeq2 }
    6531:	fec552        	addi	a5, a5, -2
    6534:	fec662        	addi	a6, a6, -2
    6537:	fccbb2        	addi	a11, a11, -4
    653a:	fcccc2        	addi	a12, a12, -4
    653d:	fcc222        	addi	a2, a2, -4

00006540 <analy_3band+0x30>:
    6540:	448214        	ae_lp16x2f.iu	aep0, a2, 4
    6543:	fc14640a8f 	{ ae_sp16x2f.c	aep0, a10, a8; ae_movq56	aeq0, aeq2 }
    6548:	0bdd           	mov.n	a13, a11
    654a:	20ecc0        	or	a14, a12, a12
    654d:	fc24da8a8f 	{ ae_lp16x2f.c	aep0, a10, a8; nop }
    6552:	449d14        	ae_lp16x2f.iu	aep1, a13, 4
    6555:	ea05edfe1f 	{ ae_lp16x2f.iu	aep7, a14, 4; ae_mulfp24s.ll	aeq1, aep1, aep0 }
    655a:	01f874        	ae_mulfp24s.ll	aeq3, aep7, aep0
    655d:	278976        	loop	a9, 6588 <analy_3band+0x78>
    6560:	fc24da8a8f 	{ ae_lp16x2f.c	aep0, a10, a8; nop }
    6565:	449d14        	ae_lp16x2f.iu	aep1, a13, 4
    6568:	e2062dae1f 	{ ae_lp16x2f.iu	aep2, a14, 4; ae_mulafp24s.hh	aeq0, aep1, aep0 }
    656d:	e207daea8f 	{ ae_lp16x2f.c	aep6, a10, a8; ae_mulafp24s.ll	aeq1, aep1, aep0 }
    6572:	e30a2dbd1f 	{ ae_lp16x2f.iu	aep3, a13, 4; ae_mulafp24s.hh	aeq2, aep2, aep0 }
    6577:	e30bedfe1f 	{ ae_lp16x2f.iu	aep7, a14, 4; ae_mulafp24s.ll	aeq3, aep2, aep0 }
    657c:	013604        	ae_mulafp24s.hh	aeq0, aep3, aep6
    657f:	013e34        	ae_mulafp24s.ll	aeq1, aep3, aep6
    6582:	01f604        	ae_mulafp24s.hh	aeq2, aep7, aep6
    6585:	01fe34        	ae_mulafp24s.ll	aeq3, aep7, aep6

00006588 <analy_3band+0x78>:
    6588:	f87bcff77e 	{ addi	a7, a7, -1; ae_roundsp16q48asym	aep1, aeq3 }
    658d:	fb6a32961f 	{ ae_sp16f.l.iu	aep1, a6, 2; ae_addq56	aeq3, aeq1, aeq0 }
    6592:	f92afb30df 	{ ae_sraiq56	aeq3, aeq3, 1; ae_subq56	aeq1, aeq1, aeq0 }
    6597:	f873bb101f 	{ ae_sraiq56	aeq0, aeq1, 1; ae_roundsp16q48asym	aep0, aeq2 }
    659c:	fb7fb2861f 	{ ae_sp16f.l.iu	aep0, a6, 2; ae_roundsp24q48asym	aep6, aeq3 }
    65a1:	fb63f4e41f 	{ ae_sp24f.l.iu	aep6, a4, 4; ae_roundsp16q48asym	aep7, aeq0 }
    65a6:	fe24b2f51f 	{ ae_sp16f.l.iu	aep7, a5, 2; ae_zeroq56	aeq2 }
    65ab:	f91756        	bnez	a7, 6540 <analy_3band+0x30>
    65ae:	03a9           	s32i.n	a10, a3, 0
    65b0:	f01d           	retw.n

000065b2 <analy_3band+0xa2>:
	...

000065b4 <synth_3band>:
    65b4:	004136        	entry	a1, 32
    65b7:	c54b           	addi.n	a12, a5, 4
    65b9:	f3f6c0        	wur.ae_cbegin0	a12
    65bc:	e72c71        	l32r	a7, 26c (aef0 <sb_g10>)
    65bf:	e72d81        	l32r	a8, 274 (af70 <sb_h2ir_v2>)
    65c2:	0025c2        	l32i	a12, a5, 0
    65c5:	7cc5f2        	addi	a15, a5, 124
    65c8:	0aa092        	movi	a9, 10
    65cb:	fd248004af 	{ movi	a10, 4; ae_zeroq56	aeq1 }
    65d0:	0fa0b2        	movi	a11, 15
    65d3:	f3f7f0        	wur.ae_cend0	a15
    65d6:	fc0c4fe22e 	{ addi	a2, a2, -2; ae_movq56	aeq0, aeq1 }
    65db:	fec332        	addi	a3, a3, -2
    65de:	fcc442        	addi	a4, a4, -4
    65e1:	fec662        	addi	a6, a6, -2

000065e4 <synth_3band+0x30>:
    65e4:	408214        	ae_lp16f.iu	aep0, a2, 2
    65e7:	409314        	ae_lp16f.iu	aep1, a3, 2
    65ea:	d9212df41f 	{ ae_lp16x2f.iu	aep7, a4, 4; ae_addsp24s	aep2, aep0, aep1 }
    65ef:	078184        	ae_subsp24s	aep0, aep0, aep1
    65f2:	1aa004        	ae_selp24.ll	aep0, aep2, aep0
    65f5:	fc24e40caf 	{ ae_sp16x2f.c	aep0, a12, a10; nop }
    65fa:	fc24e47caf 	{ ae_sp16x2f.c	aep7, a12, a10; nop }
    65ff:	441704        	ae_lp16x2f.i	aep1, a7, 0
    6602:	440804        	ae_lp16x2f.i	aep0, a8, 0
    6605:	168b76        	loop	a11, 661f <synth_3band+0x6b>
    6608:	fc24daacaf 	{ ae_lp16x2f.c	aep2, a12, a10; nop }
    660d:	e247dabcaf 	{ ae_lp16x2f.c	aep3, a12, a10; ae_mulafp24s.ll	aeq1, aep1, aep2 }
    6612:	e2462d971f 	{ ae_lp16x2f.iu	aep1, a7, 4; ae_mulafp24s.hh	aeq0, aep1, aep2 }
    6617:	010b94        	ae_mulsfp24s.hl	aeq1, aep0, aep3
    661a:	e262ad881f 	{ ae_lp16x2f.iu	aep0, a8, 4; ae_mulafp24s.lh	aeq0, aep0, aep3 }

0000661f <synth_3band+0x6b>:
    661f:	f86b8ff99e 	{ addi	a9, a9, -1; ae_roundsp16q48asym	aep0, aeq1 }
    6624:	f863f2861f 	{ ae_sp16f.l.iu	aep0, a6, 2; ae_roundsp16q48asym	aep1, aeq0 }
    6629:	fd248c477e 	{ addi	a7, a7, -60; ae_zeroq56	aeq1 }
    662e:	fc0c4c488e 	{ addi	a8, a8, -60; ae_movq56	aeq0, aeq1 }
    6633:	429614        	ae_sp16f.l.iu	aep1, a6, 2
    6636:	faa956        	bnez	a9, 65e4 <synth_3band+0x30>
    6639:	05c9           	s32i.n	a12, a5, 0
    663b:	f01d           	retw.n

0000663d <synth_3band+0x89>:
    663d:	000000                                        ...

00006640 <biquad_2cascade_24bitTx>:
    6640:	00a136        	entry	a1, 80
    6643:	542304        	ae_lp24x2.i	aep2, a3, 0
    6646:	541314        	ae_lp24x2.i	aep1, a3, 8
    6649:	540324        	ae_lp24x2.i	aep0, a3, 16
    664c:	6616a6        	blti	a6, 1, 66b6 <biquad_2cascade_24bitTx+0x76>
    664f:	18c472        	addi	a7, a4, 24
    6652:	543414        	ae_lp24x2.i	aep3, a4, 8
    6655:	545404        	ae_lp24x2.i	aep5, a4, 0
    6658:	546444        	ae_lp24x2.i	aep6, a4, 32
    665b:	547434        	ae_lp24x2.i	aep7, a4, 24
    665e:	563154        	ae_sp24x2s.i	aep3, a1, 40
    6661:	565144        	ae_sp24x2s.i	aep5, a1, 32
    6664:	545424        	ae_lp24x2.i	aep5, a4, 16
    6667:	543454        	ae_lp24x2.i	aep3, a4, 40
    666a:	566134        	ae_sp24x2s.i	aep6, a1, 24
    666d:	567124        	ae_sp24x2s.i	aep7, a1, 16
    6670:	fec542        	addi	a4, a5, -2
    6673:	fcc222        	addi	a2, a2, -4
    6676:	4c4764        	ae_lp24.i	aep4, a7, 24
    6679:	398676        	loop	a6, 66b6 <biquad_2cascade_24bitTx+0x76>
    667c:	547154        	ae_lp24x2.i	aep7, a1, 40
    667f:	f05eaee21f 	{ ae_lp24f.iu	aep6, a2, 4; ae_mulzaafp24s.hh.ll	aeq0, aep7, aep2 }
    6684:	dd59b0714f 	{ ae_lp24x2.i	aep7, a1, 32; ae_selp24.lh	aep2, aep6, aep2 }
    6689:	e25c30713f 	{ ae_lp24x2.i	aep7, a1, 24; ae_mulaafp24s.hh.ll	aeq0, aep7, aep2 }
    668e:	015184        	ae_mulsfp24s.hh	aeq0, aep5, aep1
    6691:	0551c4        	ae_mulssfp24s.hh.ll	aeq0, aep5, aep1
    6694:	f13ef0712f 	{ ae_lp24x2.i	aep7, a1, 16; ae_mulzaafp24s.hh.ll	aeq3, aep7, aep1 }
    6699:	1b8d64        	ae_roundsp24q48asym	aep6, aeq0
    669c:	1ae194        	ae_selp24.lh	aep1, aep6, aep1
    669f:	05f904        	ae_mulaafp24s.hh.ll	aeq3, aep7, aep1
    66a2:	01b884        	ae_mulsfp24s.hh	aeq3, aep3, aep0
    66a5:	05b8c4        	ae_mulssfp24s.hh.ll	aeq3, aep3, aep0
    66a8:	1bbd64        	ae_roundsp24q48asym	aep6, aeq3
    66ab:	f0d2be602f 	{ ae_selp24.lh	aep0, aep6, aep0; ae_mulzaafp24s.hh.ll	aeq0, aep4, aep6 }
    66b0:	1b8f74        	ae_roundsp16q48asym	aep7, aeq0
    66b3:	42f414        	ae_sp16f.l.iu	aep7, a4, 2

000066b6 <biquad_2cascade_24bitTx+0x76>:
    66b6:	562304        	ae_sp24x2s.i	aep2, a3, 0
    66b9:	561314        	ae_sp24x2s.i	aep1, a3, 8
    66bc:	560324        	ae_sp24x2s.i	aep0, a3, 16
    66bf:	f01d           	retw.n

000066c1 <biquad_2cascade_24bitTx+0x81>:
    66c1:	000000                                        ...

000066c4 <conv_24_to_16>:
    66c4:	004136        	entry	a1, 32
    66c7:	540c           	movi.n	a4, 5
    66c9:	fcc332        	addi	a3, a3, -4
    66cc:	f8c222        	addi	a2, a2, -8
    66cf:	088476        	loop	a4, 66db <conv_24_to_16+0x17>
    66d2:	5c8214        	ae_lp24x2f.iu	aep0, a2, 8
    66d5:	090184        	ae_roundsp16asym	aep0, aep0
    66d8:	468314        	ae_sp16x2f.iu	aep0, a3, 4

000066db <conv_24_to_16+0x17>:
    66db:	f01d           	retw.n

000066dd <conv_24_to_16+0x19>:
    66dd:	000000                                        ...

000066e0 <gain_after_ec>:
    66e0:	008136        	entry	a1, 64
    66e3:	e65261        	l32r	a6, 2c (ee5c <p_ecnr_mem>)
    66e6:	6ea282        	movi	a8, 0x26e
    66e9:	443404        	ae_lp16x2f.i	aep3, a4, 0
    66ec:	0668           	l32i.n	a6, a6, 0
    66ee:	444504        	ae_lp16x2f.i	aep4, a5, 0
    66f1:	01a0a2        	movi	a10, 1
    66f4:	412684        	ae_lp16f.x	aep2, a6, a8
    66f7:	67ac           	beqz.n	a7, 6721 <gain_after_ec+0x41>
    66f9:	e6c761        	l32r	a6, 218 (850c <airoha_divide>)
    66fc:	11aa10        	slli	a10, a10, 15
    66ff:	20b770        	or	a11, a7, a7
    6702:	562114        	ae_sp24x2s.i	aep2, a1, 8
    6705:	563134        	ae_sp24x2s.i	aep3, a1, 24
    6708:	564124        	ae_sp24x2s.i	aep4, a1, 16
    670b:	0006e0        	callx8	a6
    670e:	360b34        	ae_cvtq48a32s	aeq0, a11
    6711:	540114        	ae_lp24x2.i	aep0, a1, 8
    6714:	d4e230412f 	{ ae_lp24x2.i	aep4, a1, 16; ae_mulfq32sp16s.l	aeq0, aeq0, aep0 }
    6719:	340a94        	ae_sllaq56	aeq0, aeq0, a10
    671c:	f967b0313f 	{ ae_lp24x2.i	aep3, a1, 24; ae_roundsp24q48asym	aep2, aeq0 }

00006721 <gain_after_ec+0x41>:
    6721:	aa0c           	movi.n	a10, 10
    6723:	fec282        	addi	a8, a2, -2
    6726:	fec392        	addi	a9, a3, -2
    6729:	fec462        	addi	a6, a4, -2
    672c:	fec572        	addi	a7, a5, -2
    672f:	fec332        	addi	a3, a3, -2
    6732:	fec222        	addi	a2, a2, -2
    6735:	598a76        	loop	a10, 6792 <gain_after_ec+0xb2>
    6738:	eb69ac821f 	{ ae_lp16f.iu	aep0, a2, 2; ae_mulfp24s.ll	aeq2, aep2, aep3 }
    673d:	e868ac931f 	{ ae_lp16f.iu	aep1, a3, 2; ae_mulfp24s.hh	aeq0, aep2, aep3 }
    6742:	ea89faa18f 	{ ae_slliq56	aeq2, aeq2, 4; ae_mulfp24s.ll	aeq1, aep2, aep4 }
    6747:	e988fa810f 	{ ae_slliq56	aeq0, aeq0, 4; ae_mulfp24s.hh	aeq3, aep2, aep4 }
    674c:	eb09ba213f 	{ ae_sq56s.i	aeq2, a1, 24; ae_mulfp24s.ll	aeq2, aep2, aep0 }
    6751:	ea29ba012f 	{ ae_sq56s.i	aeq0, a1, 16; ae_mulfp24s.ll	aeq0, aep2, aep1 }
    6756:	355114        	ae_slliq56	aeq1, aeq1, 4
    6759:	631114        	ae_sq56s.i	aeq1, a1, 8
    675c:	356114        	ae_slliq56	aeq1, aeq2, 4
    675f:	618124        	ae_lq56.i	aeq2, a1, 16
    6762:	fbf3bdc13f 	{ ae_lq56.i	aeq2, a1, 24; ae_roundsp16q48sym	aep6, aeq2 }
    6767:	fbf3edb41f 	{ ae_lp16x2f.iu	aep3, a4, 4; ae_roundsp16q48sym	aep7, aeq2 }
    676c:	fbebb2e61f 	{ ae_sp16f.l.iu	aep6, a6, 2; ae_roundsp16q48sym	aep6, aeq1 }
    6771:	35f114        	ae_slliq56	aeq3, aeq3, 4
    6774:	f8fbf2f61f 	{ ae_sp16f.l.iu	aep7, a6, 2; ae_roundsp16q48sym	aep1, aeq3 }
    6779:	350114        	ae_slliq56	aeq0, aeq0, 4
    677c:	fbe3fde11f 	{ ae_lq56.i	aeq3, a1, 8; ae_roundsp16q48sym	aep7, aeq0 }
    6781:	fafbedc51f 	{ ae_lp16x2f.iu	aep4, a5, 4; ae_roundsp16q48sym	aep5, aeq3 }
    6786:	429714        	ae_sp16f.l.iu	aep1, a7, 2
    6789:	42d714        	ae_sp16f.l.iu	aep5, a7, 2
    678c:	42e814        	ae_sp16f.l.iu	aep6, a8, 2
    678f:	42f914        	ae_sp16f.l.iu	aep7, a9, 2

00006792 <gain_after_ec+0xb2>:
    6792:	f01d           	retw.n

00006794 <adjust_phase>:
    6794:	004136        	entry	a1, 32
    6797:	300334        	ae_cvtp24a16x2.ll	aep0, a3, a3
    679a:	360234        	ae_cvtq48a32s	aeq0, a2
    679d:	a10004        	ae_mulzaafq32sp16s.ll	aeq0, aeq0, aep0, aeq0, aep0
    67a0:	1b8f04        	ae_roundsp16q48asym	aep0, aeq0
    67a3:	0002d4        	ae_cvta32p24.l	a2, aep0
    67a6:	f01d           	retw.n

000067a8 <adjust_bib_state>:
    67a8:	004136        	entry	a1, 32
    67ab:	840c           	movi.n	a4, 8
    67ad:	fcc232        	addi	a3, a2, -4
    67b0:	600204        	ae_lq32f.i	aeq0, a2, 0
    67b3:	f03d           	nop.n
    67b5:	0a8476        	loop	a4, 67c3 <adjust_bib_state+0x1b>
    67b8:	350074        	ae_sraiq56	aeq0, aeq0, 1
    67bb:	f867bd121f 	{ ae_lq32f.iu	aeq0, a2, 4; ae_roundsp24q48asym	aep0, aeq0 }
    67c0:	528314        	ae_sp24f.l.iu	aep0, a3, 4

000067c3 <adjust_bib_state+0x1b>:
    67c3:	f01d           	retw.n

000067c5 <adjust_bib_state+0x1d>:
    67c5:	000000                                        ...

000067c8 <aec_post_prcs>:
    67c8:	004136        	entry	a1, 32
    67cb:	d2a252        	movi	a5, 0x2d2
    67ce:	d4a262        	movi	a6, 0x2d4
    67d1:	28c2f2        	addi	a15, a2, 40
    67d4:	411254        	ae_lp16f.x	aep1, a2, a5
    67d7:	412264        	ae_lp16f.x	aep2, a2, a6
    67da:	1512d2        	l16ui	a13, a2, 42
    67dd:	ea458fffcf 	{ movi	a12, -1; ae_mulfp24s.ll	aeq0, aep1, aep2 }
    67e2:	1492e2        	l16si	a14, a2, 40
    67e5:	f867ec3f0f 	{ ae_lp16f.i	aep3, a15, 0; ae_roundsp24q48asym	aep1, aeq0 }
    67ea:	302dd4        	ae_cvtp24a16x2.ll	aep2, a13, a13
    67ed:	1552e2        	s16i	a14, a2, 42
    67f0:	dd4ec0102f 	{ movi	a2, 16; ae_subsp24s	aep3, aep3, aep2 }
    67f5:	4159c0        	srli	a5, a12, 9
    67f8:	cd2c62055f 	{ ae_movpa24x2	aep0, a5, a5; ae_sraip24	aep3, aep3, 4 }
    67fd:	0fa052        	movi	a5, 15
    6800:	fec442        	addi	a4, a4, -2
    6803:	404304        	ae_lp16f.i	aep4, a3, 0

00006806 <aec_post_prcs+0x3e>:
    6806:	07a324        	ae_addsp24s	aep2, aep2, aep3
    6809:	0782d4        	ae_subsp24s	aep5, aep0, aep2
    680c:	015174        	ae_mulfp24s.ll	aeq0, aep5, aep1
    680f:	350094        	ae_slliq56	aeq0, aeq0, 2
    6812:	060934        	ae_roundsq32asym	aeq0, aeq0
    6815:	128576        	loop	a5, 682b <aec_post_prcs+0x63>
    6818:	ea89ecf41f 	{ ae_lp16f.iu	aep7, a4, 2; ae_mulfp24s.ll	aeq1, aep2, aep4 }
    681d:	fd2c6cc31f 	{ ae_lp16f.iu	aep4, a3, 2; ae_roundsq32asym	aeq1, aeq1 }
    6822:	037814        	ae_mulafq32sp16s.l	aeq1, aeq0, aep7
    6825:	1b9f54        	ae_roundsp16q48asym	aep5, aeq1
    6828:	4253f4        	ae_sp16f.l.i	aep5, a3, -2

0000682b <aec_post_prcs+0x63>:
    682b:	220b           	addi.n	a2, a2, -1
    682d:	fd5256        	bnez	a2, 6806 <aec_post_prcs+0x3e>
    6830:	f01d           	retw.n

00006832 <aec_post_prcs+0x6a>:
	...

00006834 <AVC_prcs>:
    6834:	004136        	entry	a1, 32
    6837:	fc2480784f 	{ movi	a4, 120; ae_zeroq56	aeq0 }
    683c:	440304        	ae_lp16x2f.i	aep0, a3, 0
    683f:	048476        	loop	a4, 6847 <AVC_prcs+0x13>
    6842:	e2002d831f 	{ ae_lp16x2f.iu	aep0, a3, 4; ae_mulaafp24s.hh.ll	aeq0, aep0, aep0 }

00006847 <AVC_prcs+0x13>:
    6847:	3501f4        	ae_sraiq56	aeq0, aeq0, 7
    684a:	e68b31        	l32r	a3, 278 (11111 <_end+0x22ad>)
    684d:	fc2462033f 	{ ae_movpa24x2	aep0, a3, a3; ae_roundsq32asym	aeq0, aeq0 }
    6852:	f8800000af 	{ movi	a10, 0; ae_mulfq32sp24s.l	aeq0, aeq0, aep0 }
    6857:	e67731        	l32r	a3, 234 (85c <HIFI_sqrt>)
    685a:	3501d4        	ae_slliq56	aeq0, aeq0, 7
    685d:	060934        	ae_roundsq32asym	aeq0, aeq0
    6860:	368b04        	ae_trunca32q48	a11, aeq0
    6863:	0003e0        	callx8	a3
    6866:	364b34        	ae_cvtq48a32s	aeq1, a11
    6869:	440204        	ae_lp16x2f.i	aep0, a2, 0
    686c:	600224        	ae_lq32f.i	aeq0, a2, 8
    686f:	fc24fe9a4f 	{ ae_slaasq56s	aeq1, aeq1, a10; nop }
    6874:	0c0120223e 	{ l16si	a3, a2, 4; ae_mulzaafq32sp16s.lh	aeq0, aeq1, aep0, aeq0, aep0 }
    6879:	060934        	ae_roundsq32asym	aeq0, aeq0
    687c:	11b300        	slli	a11, a3, 16
    687f:	368a04        	ae_trunca32q48	a10, aeq0
    6882:	e66531        	l32r	a3, 218 (850c <airoha_divide>)
    6885:	22a9           	s32i.n	a10, a2, 8
    6887:	0003e0        	callx8	a3
    688a:	feca42        	addi	a4, a10, -2
    688d:	360b34        	ae_cvtq48a32s	aeq0, a11
    6890:	fc24fe840f 	{ ae_slaasq56s	aeq0, aeq0, a4; nop }
    6895:	f86380013f 	{ movi	a3, 1; ae_roundsp16q48asym	aep0, aeq0 }
    689a:	360f24        	ae_trunca16p24s.l	a15, aep0
    689d:	039222        	l16si	a2, a2, 6
    68a0:	113330        	slli	a3, a3, 13
    68a3:	533f30        	max	a3, a15, a3
    68a6:	432320        	min	a2, a3, a2
    68a9:	f01d           	retw.n

000068ab <AVC_prcs+0x77>:
	...

000068ac <gain_ref>:
    68ac:	004136        	entry	a1, 32
    68af:	2514a6        	blti	a4, 1, 68d8 <gain_ref+0x2c>
    68b2:	fcc222        	addi	a2, a2, -4
    68b5:	300334        	ae_cvtp24a16x2.ll	aep0, a3, a3
    68b8:	449214        	ae_lp16x2f.iu	aep1, a2, 4
    68bb:	f03d           	nop.n
    68bd:	178476        	loop	a4, 68d8 <gain_ref+0x2c>
    68c0:	011054        	ae_mulfp24s.hl	aeq0, aep1, aep0
    68c3:	ea05ed921f 	{ ae_lp16x2f.iu	aep1, a2, 4; ae_mulfp24s.ll	aeq1, aep1, aep0 }
    68c8:	350094        	ae_slliq56	aeq0, aeq0, 2
    68cb:	f963ba906f 	{ ae_slliq56	aeq1, aeq1, 2; ae_roundsp16q48asym	aep2, aeq0 }
    68d0:	f96bf222ef 	{ ae_sp16f.l.i	aep2, a2, -4; ae_roundsp16q48asym	aep3, aeq1 }
    68d5:	4232f4        	ae_sp16f.l.i	aep3, a2, -2

000068d8 <gain_ref+0x2c>:
    68d8:	f01d           	retw.n

000068da <gain_ref+0x2e>:
	...

000068dc <TxRef_VAD>:
    68dc:	006136        	entry	a1, 48
    68df:	f0a052        	movi	a5, 240
    68e2:	00a042        	movi	a4, 0
    68e5:	088576        	loop	a5, 68f1 <TxRef_VAD+0x15>
    68e8:	235d           	ae_l16si.n	a5, a3, 0
    68ea:	332b           	addi.n	a3, a3, 2
    68ec:	605150        	abs	a5, a5
    68ef:	454a           	add.n	a4, a5, a4

000068f1 <TxRef_VAD+0x15>:
    68f1:	f37c           	movi.n	a3, -1
    68f3:	013310        	slli	a3, a3, 31
    68f6:	04bc           	beqz.n	a4, 692a <TxRef_VAD+0x4e>
    68f8:	40e450        	nsa	a5, a4
    68fb:	401500        	ssl	a5
    68fe:	761c           	movi.n	a6, 23
    6900:	a1a400        	sll	a10, a4
    6903:	e65e41        	l32r	a4, 27c (8b4 <Log2_norm>)
    6906:	c0b650        	sub	a11, a6, a5
    6909:	0004e0        	callx8	a4
    690c:	d1a442        	movi	a4, 0x4d1
    690f:	1144c0        	slli	a4, a4, 4
    6912:	b26a40        	mulsh	a6, a10, a4
    6915:	824a40        	mull	a4, a10, a4
    6918:	d1a452        	movi	a5, 0x4d1
    691b:	1155f0        	slli	a5, a5, 1
    691e:	f43a           	add.n	a15, a4, a3
    6920:	565a           	add.n	a5, a6, a5
    6922:	624f40        	saltu	a4, a15, a4
    6925:	445a           	add.n	a4, a4, a5
    6927:	000046        	j	692c <TxRef_VAD+0x50>

0000692a <TxRef_VAD+0x4e>:
    692a:	040c           	movi.n	a4, 0
    692c:	039272        	l16si	a7, a2, 6
    692f:	049282        	l16si	a8, a2, 8
    6932:	029262        	l16si	a6, a2, 4
    6935:	4258           	l32i.n	a5, a2, 16
    6937:	11e700        	slli	a14, a7, 16
    693a:	11f800        	slli	a15, a8, 16
    693d:	307730        	xor	a7, a7, a3
    6940:	308830        	xor	a8, a8, a3
    6943:	534460        	max	a4, a4, a6
    6946:	c067e0        	sub	a6, a7, a14
    6949:	c078f0        	sub	a7, a8, a15
    694c:	2169           	s32i.n	a6, a1, 8
    694e:	618b           	addi.n	a6, a1, 8
    6950:	3179           	s32i.n	a7, a1, 12
    6952:	05a547        	bge	a5, a4, 695b <TxRef_VAD+0x7f>
    6955:	440604        	ae_lp16x2f.i	aep0, a6, 0
    6958:	000086        	j	695e <TxRef_VAD+0x82>

0000695b <TxRef_VAD+0x7f>:
    695b:	440614        	ae_lp16x2f.i	aep0, a6, 4
    695e:	0592e2        	l16si	a14, a2, 10
    6961:	364534        	ae_cvtq48a32s	aeq1, a5
    6964:	360434        	ae_cvtq48a32s	aeq0, a4
    6967:	0c0160626e 	{ l16si	a6, a2, 12; ae_mulzaafq32sp16s.lh	aeq1, aeq1, aep0, aeq0, aep0 }
    696c:	117e00        	slli	a7, a14, 16
    696f:	305e30        	xor	a5, a14, a3
    6972:	fd2c55757f 	{ sub	a7, a5, a7; ae_roundsq32asym	aeq1, aeq1 }
    6977:	5258           	l32i.n	a5, a2, 20
    6979:	30f630        	xor	a15, a6, a3
    697c:	116600        	slli	a6, a6, 16
    697f:	369304        	ae_trunca32q48	a3, aeq1
    6982:	c06f60        	sub	a6, a15, a6
    6985:	4239           	s32i.n	a3, a2, 16
    6987:	2179           	s32i.n	a7, a1, 8
    6989:	3169           	s32i.n	a6, a1, 12
    698b:	05a547        	bge	a5, a4, 6994 <TxRef_VAD+0xb8>
    698e:	440124        	ae_lp16x2f.i	aep0, a1, 8
    6991:	000086        	j	6997 <TxRef_VAD+0xbb>

00006994 <TxRef_VAD+0xb8>:
    6994:	440134        	ae_lp16x2f.i	aep0, a1, 12
    6997:	364534        	ae_cvtq48a32s	aeq1, a5
    699a:	0c0120024e 	{ l16si	a4, a2, 0; ae_mulzaafq32sp16s.lh	aeq0, aeq1, aep0, aeq0, aep0 }
    699f:	0c1262        	l16ui	a6, a2, 24
    69a2:	fc2460d27e 	{ l16si	a7, a2, 26; ae_roundsq32asym	aeq0, aeq0 }
    69a7:	368f04        	ae_trunca32q48	a15, aeq0
    69aa:	334a           	add.n	a3, a3, a4
    69ac:	52f9           	s32i.n	a15, a2, 20
    69ae:	04a3f7        	bge	a3, a15, 69b6 <TxRef_VAD+0xda>
    69b1:	130c           	movi.n	a3, 1
    69b3:	000346        	j	69c4 <TxRef_VAD+0xe8>

000069b6 <TxRef_VAD+0xda>:
    69b6:	063d           	mov.n	a3, a6
    69b8:	074d           	mov.n	a4, a7
    69ba:	0b1666        	bnei	a6, 1, 69c9 <TxRef_VAD+0xed>
    69bd:	325d           	ae_l16si.n	a5, a2, 2
    69bf:	06a547        	bge	a5, a4, 69c9 <TxRef_VAD+0xed>
    69c2:	030c           	movi.n	a3, 0
    69c4:	6239           	s32i.n	a3, a2, 24
    69c6:	000106        	j	69ce <TxRef_VAD+0xf2>

000069c9 <TxRef_VAD+0xed>:
    69c9:	441b           	addi.n	a4, a4, 1
    69cb:	0d5242        	s16i	a4, a2, 26
    69ce:	832d           	ae_sext16	a2, a3
    69d0:	f01d           	retw.n

000069d2 <TxRef_VAD+0xf6>:
	...

000069d4 <Voice_WB_TX_Inear_Prcs>:
    69d4:	026136        	entry	a1, 0x130
    69d7:	e59581        	l32r	a8, 2c (ee5c <p_ecnr_mem>)
    69da:	e61cf1        	l32r	a15, 24c (cf50 <ath_b45+0x10>)
    69dd:	146132        	s32i	a3, a1, 80
    69e0:	08d8           	l32i.n	a13, a8, 0
    69e2:	e61ee1        	l32r	a14, 25c (ee60 <avc_vol>)
    69e5:	e615b1        	l32r	a11, 23c (cf48 <ath_b45+0x8>)
    69e8:	16dd82        	addmi	a8, a13, 0x1600
    69eb:	391882        	l16ui	a8, a8, 114
    69ee:	3dfa           	add.n	a3, a13, a15
    69f0:	03c8           	l32i.n	a12, a3, 0
    69f2:	41ae80        	srli	a10, a8, 14
    69f5:	ab6d52        	s32i	a5, a13, 0x2ac
    69f8:	086a56        	bnez	a10, 6a82 <Voice_WB_TX_Inear_Prcs+0xae>
    69fb:	02dd82        	addmi	a8, a13, 0x200
    69fe:	401882        	l16ui	a8, a8, 128
    6a01:	aa2d32        	l32i	a3, a13, 0x2a8
    6a04:	04dcf2        	addmi	a15, a12, 0x400
    6a07:	048080        	extui	a8, a8, 0, 1
    6a0a:	074816        	beqz	a8, 6a82 <Voice_WB_TX_Inear_Prcs+0xae>
    6a0d:	e615e1        	l32r	a14, 264 (cf5c <ath_b45+0x1c>)
    6a10:	3d6162        	s32i	a6, a1, 244
    6a13:	196152        	s32i	a5, a1, 100
    6a16:	adea           	add.n	a10, a13, a14
    6a18:	4a8d           	ae_l16ui.n	a8, a10, 0
    6a1a:	1861d2        	s32i	a13, a1, 96
    6a1d:	3c6172        	s32i	a7, a1, 240
    6a20:	2e6132        	s32i	a3, a1, 184
    6a23:	1c61f2        	s32i	a15, a1, 112
    6a26:	1b6122        	s32i	a2, a1, 108
    6a29:	176142        	s32i	a4, a1, 92
    6a2c:	156192        	s32i	a9, a1, 84
    6a2f:	09d816        	beqz	a8, 6ad0 <Voice_WB_TX_Inear_Prcs+0xfc>
    6a32:	e61321        	l32r	a2, 280 (68dc <TxRef_VAD>)
    6a35:	04bd           	mov.n	a11, a4
    6a37:	0002e0        	callx8	a2
    6a3a:	e57c51        	l32r	a5, 2c (ee5c <p_ecnr_mem>)
    6a3d:	1821d2        	l32i	a13, a1, 96
    6a40:	7ca292        	movi	a9, 0x27c
    6a43:	0528           	l32i.n	a2, a5, 0
    6a45:	7ec242        	addi	a4, a2, 126
    6a48:	ff1452        	l16ui	a5, a4, 0x1fe
    6a4b:	929a           	add.n	a9, a2, a9
    6a4d:	85bd           	ae_sext16	a11, a5
    6a4f:	0c0a16        	beqz	a10, 6b13 <Voice_WB_TX_Inear_Prcs+0x13f>

00006a52 <Voice_WB_TX_Inear_Prcs+0x7e>:
    6a52:	85ad           	ae_sext16	a10, a5
    6a54:	1c6c           	movi.n	a12, -31
    6a56:	166122        	s32i	a2, a1, 88
    6a59:	082ac7        	blt	a10, a12, 6a65 <Voice_WB_TX_Inear_Prcs+0x91>
    6a5c:	4b0b           	addi.n	a4, a11, -1
    6a5e:	fa7c           	movi.n	a10, -1
    6a60:	4354a0        	min	a5, a4, a10
    6a63:	695d           	ae_s16i.n	a5, a9, 0
    6a65:	0ddd92        	addmi	a9, a13, 0xd00
    6a68:	2c99a2        	l16si	a10, a9, 88
    6a6b:	a5a132        	movi	a3, 0x1a5
    6a6e:	ffa1b2        	movi	a11, 0x1ff
    6a71:	1133d0        	slli	a3, a3, 3
    6a74:	02aba7        	bge	a11, a10, 6a7a <Voice_WB_TX_Inear_Prcs+0xa6>
    6a77:	002bc6        	j	6b2a <Voice_WB_TX_Inear_Prcs+0x156>
    6a7a:	aa1b           	addi.n	a10, a10, 1
    6a7c:	2c59a2        	s16i	a10, a9, 88
    6a7f:	0029c6        	j	6b2a <Voice_WB_TX_Inear_Prcs+0x156>

00006a82 <Voice_WB_TX_Inear_Prcs+0xae>:
    6a82:	130c           	movi.n	a3, 1
    6a84:	113330        	slli	a3, a3, 13
    6a87:	6e3d           	ae_s16i.n	a3, a14, 0
    6a89:	0b1a66        	bnei	a10, 1, 6a98 <Voice_WB_TX_Inear_Prcs+0xc4>
    6a8c:	16dd22        	addmi	a2, a13, 0x1600
    6a8f:	3e1232        	l16ui	a3, a2, 124
    6a92:	142122        	l32i	a2, a1, 80
    6a95:	000106        	j	6a9d <Voice_WB_TX_Inear_Prcs+0xc9>

00006a98 <Voice_WB_TX_Inear_Prcs+0xc4>:
    6a98:	130c           	movi.n	a3, 1
    6a9a:	113350        	slli	a3, a3, 11
    6a9d:	f0a042        	movi	a4, 240
    6aa0:	300334        	ae_cvtp24a16x2.ll	aep0, a3, a3
    6aa3:	fec532        	addi	a3, a5, -2
    6aa6:	409204        	ae_lp16f.iu	aep1, a2, 0
    6aa9:	0e8476        	loop	a4, 6abb <Voice_WB_TX_Inear_Prcs+0xe7>
    6aac:	000174        	ae_mulfs32p16s.ll	aeq0, aep0, aep1
    6aaf:	360114        	ae_sllisq56s	aeq0, aeq0, 4
    6ab2:	1b8f74        	ae_roundsp16q48asym	aep7, aeq0
    6ab5:	42f314        	ae_sp16f.l.iu	aep7, a3, 2
    6ab8:	409214        	ae_lp16f.iu	aep1, a2, 2

00006abb <Voice_WB_TX_Inear_Prcs+0xe7>:
    6abb:	0ddd32        	addmi	a3, a13, 0xd00
    6abe:	149332        	l16si	a3, a3, 40
    6ac1:	2dba           	add.n	a2, a13, a11
    6ac3:	663d           	ae_s16i.n	a3, a6, 0
    6ac5:	222d           	ae_l16si.n	a2, a2, 0
    6ac7:	2efd           	ae_l16si.n	a15, a14, 0
    6ac9:	762d           	ae_s16i.n	a2, a6, 2
    6acb:	0256f2        	s16i	a15, a6, 4
    6ace:	f01d           	retw.n

00006ad0 <Voice_WB_TX_Inear_Prcs+0xfc>:
    6ad0:	60a242        	movi	a4, 0x260
    6ad3:	680c           	movi.n	a8, 6
    6ad5:	4d4a           	add.n	a4, a13, a4
    6ad7:	058876        	loop	a8, 6ae0 <Voice_WB_TX_Inear_Prcs+0x10c>
    6ada:	348d           	ae_l16si.n	a8, a4, 2
    6adc:	648d           	ae_s16i.n	a8, a4, 0
    6ade:	442b           	addi.n	a4, a4, 2

00006ae0 <Voice_WB_TX_Inear_Prcs+0x10c>:
    6ae0:	02dd82        	addmi	a8, a13, 0x200
    6ae3:	3f9882        	l16si	a8, a8, 126
    6ae6:	e55591        	l32r	a9, 3c (cf44 <ath_b45+0x4>)
    6ae9:	7ecda2        	addi	a10, a13, 126
    6aec:	118890        	slli	a8, a8, 7
    6aef:	648d           	ae_s16i.n	a8, a4, 0
    6af1:	9d9a           	add.n	a9, a13, a9
    6af3:	494d           	ae_l16ui.n	a4, a9, 0
    6af5:	ff9ab2        	l16si	a11, a10, 0x1fe
    6af8:	7ca2f2        	movi	a15, 0x27c
    6afb:	9044d0        	addx2	a4, a4, a13
    6afe:	62c442        	addi	a4, a4, 98
    6b01:	ff94e2        	l16si	a14, a4, 0x1fe
    6b04:	ffa3c2        	movi	a12, 0x3ff
    6b07:	0d2d           	mov.n	a2, a13
    6b09:	9dfa           	add.n	a9, a13, a15
    6b0b:	0b5d           	mov.n	a5, a11
    6b0d:	02ace7        	bge	a12, a14, 6b13 <Voice_WB_TX_Inear_Prcs+0x13f>
    6b10:	ffcf86        	j	6a52 <Voice_WB_TX_Inear_Prcs+0x7e>

00006b13 <Voice_WB_TX_Inear_Prcs+0x13f>:
    6b13:	a5a132        	movi	a3, 0x1a5
    6b16:	85ad           	ae_sext16	a10, a5
    6b18:	1133d0        	slli	a3, a3, 3
    6b1b:	166122        	s32i	a2, a1, 88
    6b1e:	08cae6        	bgei	a10, 32, 6b2a <Voice_WB_TX_Inear_Prcs+0x156>
    6b21:	4b1b           	addi.n	a4, a11, 1
    6b23:	1a0c           	movi.n	a10, 1
    6b25:	5354a0        	max	a5, a4, a10
    6b28:	695d           	ae_s16i.n	a5, a9, 0
    6b2a:	0ddd62        	addmi	a6, a13, 0xd00
    6b2d:	090c           	movi.n	a9, 0
    6b2f:	3a6162        	s32i	a6, a1, 232
    6b32:	256692        	s32i	a9, a6, 148
    6b35:	162162        	l32i	a6, a1, 88
    6b38:	0ddd22        	addmi	a2, a13, 0xd00
    6b3b:	0eddc2        	addmi	a12, a13, 0xe00
    6b3e:	386292        	s32i	a9, a2, 224
    6b41:	0fdda2        	addmi	a10, a13, 0xf00
    6b44:	1d6122        	s32i	a2, a1, 116
    6b47:	246292        	s32i	a9, a2, 144
    6b4a:	3861c2        	s32i	a12, a1, 224
    6b4d:	dc99           	s32i.n	a9, a12, 52
    6b4f:	0fddc2        	addmi	a12, a13, 0xf00
    6b52:	80a022        	movi	a2, 128
    6b55:	0edd42        	addmi	a4, a13, 0xe00
    6b58:	0eddf2        	addmi	a15, a13, 0xe00
    6b5b:	3261a2        	s32i	a10, a1, 200
    6b5e:	1c6a92        	s32i	a9, a10, 112
    6b61:	3461c2        	s32i	a12, a1, 208
    6b64:	9c99           	s32i.n	a9, a12, 36
    6b66:	c62a           	add.n	a12, a6, a2
    6b68:	4c2122        	l32i	a2, a1, 0x130
    6b6b:	afa1a2        	movi	a10, 0x1af
    6b6e:	3b6122        	s32i	a2, a1, 236
    6b71:	112ad0        	slli	a2, a10, 3
    6b74:	306142        	s32i	a4, a1, 192
    6b77:	c499           	s32i.n	a9, a4, 48
    6b79:	1e61f2        	s32i	a15, a1, 120
    6b7c:	346f92        	s32i	a9, a15, 208
    6b7f:	0fddf2        	addmi	a15, a13, 0xf00
    6b82:	e52d41        	l32r	a4, 38 (cf46 <ath_b45+0x6>)
    6b85:	0edde2        	addmi	a14, a13, 0xe00
    6b88:	8f99           	s32i.n	a9, a15, 32
    6b8a:	0fddb2        	addmi	a11, a13, 0xf00
    6b8d:	2d2a           	add.n	a2, a13, a2
    6b8f:	3661f2        	s32i	a15, a1, 216
    6b92:	316f92        	s32i	a9, a15, 196
    6b95:	c3a1f2        	movi	a15, 0x1c3
    6b98:	0edd82        	addmi	a8, a13, 0xe00
    6b9b:	0ddd72        	addmi	a7, a13, 0xd00
    6b9e:	1f6122        	s32i	a2, a1, 124
    6ba1:	112fd0        	slli	a2, a15, 3
    6ba4:	3761e2        	s32i	a14, a1, 220
    6ba7:	216e92        	s32i	a9, a14, 132
    6baa:	3161b2        	s32i	a11, a1, 196
    6bad:	306b92        	s32i	a9, a11, 192
    6bb0:	0eddb2        	addmi	a11, a13, 0xe00
    6bb3:	2d2a           	add.n	a2, a13, a2
    6bb5:	2f6182        	s32i	a8, a1, 188
    6bb8:	206892        	s32i	a9, a8, 128
    6bbb:	864a           	add.n	a8, a6, a4
    6bbd:	396792        	s32i	a9, a7, 228
    6bc0:	3361b2        	s32i	a11, a1, 204
    6bc3:	356b92        	s32i	a9, a11, 212
    6bc6:	9d6792        	s32i	a9, a7, 0x274
    6bc9:	0fdde2        	addmi	a14, a13, 0xf00
    6bcc:	9d3a           	add.n	a9, a13, a3
    6bce:	b9a1b2        	movi	a11, 0x1b9
    6bd1:	d7a162        	movi	a6, 0x1d7
    6bd4:	396172        	s32i	a7, a1, 228
    6bd7:	152172        	l32i	a7, a1, 84
    6bda:	156192        	s32i	a9, a1, 84
    6bdd:	119bd0        	slli	a9, a11, 3
    6be0:	216122        	s32i	a2, a1, 132
    6be3:	1126d0        	slli	a2, a6, 3
    6be6:	cda132        	movi	a3, 0x1cd
    6be9:	3561e2        	s32i	a14, a1, 212
    6bec:	ed9a           	add.n	a14, a13, a9
    6bee:	1193d0        	slli	a9, a3, 3
    6bf1:	2d2a           	add.n	a2, a13, a2
    6bf3:	e1a172        	movi	a7, 0x1e1
    6bf6:	eba1b2        	movi	a11, 0x1eb
    6bf9:	4d9a           	add.n	a4, a13, a9
    6bfb:	2061e2        	s32i	a14, a1, 128
    6bfe:	1197d0        	slli	a9, a7, 3
    6c01:	236122        	s32i	a2, a1, 140
    6c04:	112bd0        	slli	a2, a11, 3
    6c07:	f5a1e2        	movi	a14, 0x1f5
    6c0a:	1c2162        	l32i	a6, a1, 112
    6c0d:	ad9a           	add.n	a10, a13, a9
    6c0f:	119ed0        	slli	a9, a14, 3
    6c12:	2d2a           	add.n	a2, a13, a2
    6c14:	fd9a           	add.n	a15, a13, a9
    6c16:	256122        	s32i	a2, a1, 148
    6c19:	48dd           	ae_l16ui.n	a13, a8, 0
    6c1b:	e59a21        	l32r	a2, 284 (62e8 <mic240_delay>)
    6c1e:	1721b2        	l32i	a11, a1, 92
    6c21:	2461a2        	s32i	a10, a1, 144
    6c24:	06ad           	mov.n	a10, a6
    6c26:	226142        	s32i	a4, a1, 136
    6c29:	2661f2        	s32i	a15, a1, 152
    6c2c:	0002e0        	callx8	a2
    6c2f:	e51221        	l32r	a2, 78 (90e4 <xt_memset>)
    6c32:	30c1a2        	addi	a10, a1, 48
    6c35:	0b0c           	movi.n	a11, 0
    6c37:	ac0c           	movi.n	a12, 10
    6c39:	0002e0        	callx8	a2
    6c3c:	e4fc21        	l32r	a2, 2c (ee5c <p_ecnr_mem>)
    6c3f:	e58441        	l32r	a4, 250 (cf58 <ath_b45+0x18>)
    6c42:	142172        	l32i	a7, a1, 80
    6c45:	0228           	l32i.n	a2, a2, 0
    6c47:	f0a092        	movi	a9, 240
    6c4a:	808240        	add	a8, a2, a4
    6c4d:	108976        	loop	a9, 6c61 <Voice_WB_TX_Inear_Prcs+0x28d>
    6c50:	279d           	ae_l16si.n	a9, a7, 0
    6c52:	28ad           	ae_l16si.n	a10, a8, 0
    6c54:	d19a90        	mul16s	a9, a10, a9
    6c57:	40d992        	addmi	a9, a9, 0x4000
    6c5a:	419f90        	srli	a9, a9, 15
    6c5d:	679d           	ae_s16i.n	a9, a7, 0
    6c5f:	772b           	addi.n	a7, a7, 2

00006c61 <Voice_WB_TX_Inear_Prcs+0x28d>:
    6c61:	e4ee81        	l32r	a8, 1c (cf4c <ath_b45+0xc>)
    6c64:	1421f2        	l32i	a15, a1, 80
    6c67:	854d           	ae_sext16	a4, a5
    6c69:	e28a           	add.n	a14, a2, a8
    6c6b:	0ea8           	l32i.n	a10, a14, 0
    6c6d:	78a092        	movi	a9, 120
    6c70:	166142        	s32i	a4, a1, 88
    6c73:	fccf42        	addi	a4, a15, -4
    6c76:	f8ca82        	addi	a8, a10, -8
    6c79:	058976        	loop	a9, 6c82 <Voice_WB_TX_Inear_Prcs+0x2ae>
    6c7c:	448414        	ae_lp16x2f.iu	aep0, a4, 4
    6c7f:	5e8814        	ae_sp24x2f.iu	aep0, a8, 8
    6c82:	9da142        	movi	a4, 0x19d
    6c85:	1144d0        	slli	a4, a4, 3
    6c88:	40c2c2        	addi	a12, a2, 64
    6c8b:	b24a           	add.n	a11, a2, a4
    6c8d:	e57e21        	l32r	a2, 288 (6640 <biquad_2cascade_24bitTx>)
    6c90:	1421d2        	l32i	a13, a1, 80
    6c93:	f0a0e2        	movi	a14, 240
    6c96:	0002e0        	callx8	a2
    6c99:	182142        	l32i	a4, a1, 96
    6c9c:	c3a0e2        	movi	a14, 195
    6c9f:	38c122        	addi	a2, a1, 56
    6ca2:	0ed452        	addmi	a5, a4, 0xe00
    6ca5:	2d6152        	s32i	a5, a1, 180
    6ca8:	0fd4a2        	addmi	a10, a4, 0xf00
    6cab:	e57851        	l32r	a5, 28c (6484 <emph_filter_N>)
    6cae:	0ed4f2        	addmi	a15, a4, 0xe00
    6cb1:	0ed432        	addmi	a3, a4, 0xe00
    6cb4:	2b61a2        	s32i	a10, a1, 172
    6cb7:	1b21a2        	l32i	a10, a1, 108
    6cba:	2961f2        	s32i	a15, a1, 164
    6cbd:	176132        	s32i	a3, a1, 92
    6cc0:	0dd472        	addmi	a7, a4, 0xd00
    6cc3:	34c182        	addi	a8, a1, 52
    6cc6:	0fd492        	addmi	a9, a4, 0xf00
    6cc9:	0ed4b2        	addmi	a11, a4, 0xe00
    6ccc:	0fd4c2        	addmi	a12, a4, 0xf00
    6ccf:	3cc1d2        	addi	a13, a1, 60
    6cd2:	40c132        	addi	a3, a1, 64
    6cd5:	114ec0        	slli	a4, a14, 4
    6cd8:	1921f2        	l32i	a15, a1, 100
    6cdb:	426122        	s32i	a2, a1, 0x108
    6cde:	3e6132        	s32i	a3, a1, 248
    6ce1:	416182        	s32i	a8, a1, 0x104
    6ce4:	2c6192        	s32i	a9, a1, 176
    6ce7:	2a61b2        	s32i	a11, a1, 168
    6cea:	2861c2        	s32i	a12, a1, 160
    6ced:	3f61d2        	s32i	a13, a1, 252
    6cf0:	620c           	movi.n	a2, 6
    6cf2:	053d           	mov.n	a3, a5
    6cf4:	2761f2        	s32i	a15, a1, 156
    6cf7:	1a6142        	s32i	a4, a1, 104
    6cfa:	406172        	s32i	a7, a1, 0x100

00006cfd <Voice_WB_TX_Inear_Prcs+0x329>:
    6cfd:	e4cb51        	l32r	a5, 2c (ee5c <p_ecnr_mem>)
    6d00:	8d2c           	movi.n	a13, 40
    6d02:	436122        	s32i	a2, a1, 0x10c
    6d05:	0588           	l32i.n	a8, a5, 0
    6d07:	0a2d           	mov.n	a2, a10
    6d09:	7cc8b2        	addi	a11, a8, 124
    6d0c:	34c8c2        	addi	a12, a8, 52
    6d0f:	0003e0        	callx8	a3
    6d12:	0588           	l32i.n	a8, a5, 0
    6d14:	8d2c           	movi.n	a13, 40
    6d16:	06ad           	mov.n	a10, a6
    6d18:	7cc8b2        	addi	a11, a8, 124
    6d1b:	38c8c2        	addi	a12, a8, 56
    6d1e:	0003e0        	callx8	a3
    6d21:	0588           	l32i.n	a8, a5, 0
    6d23:	1b6122        	s32i	a2, a1, 108
    6d26:	02cd           	mov.n	a12, a2
    6d28:	a228a2        	l32i	a10, a8, 0x288
    6d2b:	a328b2        	l32i	a11, a8, 0x28c
    6d2e:	e55821        	l32r	a2, 290 (631c <tx_downsample_by2>)
    6d31:	d84a           	add.n	a13, a8, a4
    6d33:	30c1e2        	addi	a14, a1, 48
    6d36:	0002e0        	callx8	a2
    6d39:	0588           	l32i.n	a8, a5, 0
    6d3b:	c5a042        	movi	a4, 197
    6d3e:	1144c0        	slli	a4, a4, 4
    6d41:	a628a2        	l32i	a10, a8, 0x298
    6d44:	a728b2        	l32i	a11, a8, 0x29c
    6d47:	4221e2        	l32i	a14, a1, 0x108
    6d4a:	d84a           	add.n	a13, a8, a4
    6d4c:	06cd           	mov.n	a12, a6
    6d4e:	1c6162        	s32i	a6, a1, 112
    6d51:	0002e0        	callx8	a2
    6d54:	0588           	l32i.n	a8, a5, 0
    6d56:	292132        	l32i	a3, a1, 164
    6d59:	172162        	l32i	a6, a1, 92
    6d5c:	07a222        	movi	a2, 0x207
    6d5f:	1122d0        	slli	a2, a2, 3
    6d62:	b82a           	add.n	a11, a8, a2
    6d64:	1723d2        	l32i	a13, a3, 92
    6d67:	36e8           	l32i.n	a14, a6, 12
    6d69:	a228a2        	l32i	a10, a8, 0x288
    6d6c:	a128c2        	l32i	a12, a8, 0x284
    6d6f:	e54921        	l32r	a2, 294 (6510 <analy_3band>)
    6d72:	0002e0        	callx8	a2
    6d75:	05c8           	l32i.n	a12, a5, 0
    6d77:	cda042        	movi	a4, 205
    6d7a:	1144c0        	slli	a4, a4, 4
    6d7d:	bc4a           	add.n	a11, a12, a4
    6d7f:	2f27d2        	l32i	a13, a7, 188
    6d82:	a12ca2        	l32i	a10, a12, 0x284
    6d85:	e54041        	l32r	a4, 288 (6640 <biquad_2cascade_24bitTx>)
    6d88:	ae0c           	movi.n	a14, 10
    6d8a:	0004e0        	callx8	a4
    6d8d:	0588           	l32i.n	a8, a5, 0
    6d8f:	0fa242        	movi	a4, 0x20f
    6d92:	1144d0        	slli	a4, a4, 3
    6d95:	1823d2        	l32i	a13, a3, 96
    6d98:	46e8           	l32i.n	a14, a6, 16
    6d9a:	a628a2        	l32i	a10, a8, 0x298
    6d9d:	a128c2        	l32i	a12, a8, 0x284
    6da0:	b84a           	add.n	a11, a8, a4
    6da2:	0002e0        	callx8	a2
    6da5:	0588           	l32i.n	a8, a5, 0
    6da7:	302792        	l32i	a9, a7, 192
    6daa:	5f0c           	movi.n	a15, 5
    6dac:	a128a2        	l32i	a10, a8, 0x284
    6daf:	fcc982        	addi	a8, a9, -4
    6db2:	034d           	mov.n	a4, a3
    6db4:	f8ca92        	addi	a9, a10, -8
    6db7:	072d           	mov.n	a2, a7
    6db9:	088f76        	loop	a15, 6dc5 <Voice_WB_TX_Inear_Prcs+0x3f1>
    6dbc:	5c8914        	ae_lp24x2f.iu	aep0, a9, 8
    6dbf:	090184        	ae_roundsp16asym	aep0, aep0
    6dc2:	468814        	ae_sp16x2f.iu	aep0, a8, 4

00006dc5 <Voice_WB_TX_Inear_Prcs+0x3f1>:
    6dc5:	152162        	l32i	a6, a1, 84
    6dc8:	162172        	l32i	a7, a1, 88
    6dcb:	1f21b2        	l32i	a11, a1, 124
    6dce:	e53231        	l32r	a3, 298 (5980 <subband_aec_block>)
    6dd1:	ac0c           	movi.n	a12, 10
    6dd3:	1e0c           	movi.n	a14, 1
    6dd5:	06ad           	mov.n	a10, a6
    6dd7:	07dd           	mov.n	a13, a7
    6dd9:	0003e0        	callx8	a3
    6ddc:	2121b2        	l32i	a11, a1, 132
    6ddf:	ac0c           	movi.n	a12, 10
    6de1:	3e0c           	movi.n	a14, 3
    6de3:	06ad           	mov.n	a10, a6
    6de5:	07dd           	mov.n	a13, a7
    6de7:	0003e0        	callx8	a3
    6dea:	2221b2        	l32i	a11, a1, 136
    6ded:	4c1c           	movi.n	a12, 20
    6def:	4e0c           	movi.n	a14, 4
    6df1:	06ad           	mov.n	a10, a6
    6df3:	07dd           	mov.n	a13, a7
    6df5:	0003e0        	callx8	a3
    6df8:	2021b2        	l32i	a11, a1, 128
    6dfb:	e52831        	l32r	a3, 29c (5c1c <subband_aec_mid_channel>)
    6dfe:	2d0c           	movi.n	a13, 2
    6e00:	06ad           	mov.n	a10, a6
    6e02:	07cd           	mov.n	a12, a7
    6e04:	0003e0        	callx8	a3
    6e07:	2d21d2        	l32i	a13, a1, 180
    6e0a:	1721f2        	l32i	a15, a1, 92
    6e0d:	3122a2        	l32i	a10, a2, 196
    6e10:	2d2dc2        	l32i	a12, a13, 180
    6e13:	5fd8           	l32i.n	a13, a15, 20
    6e15:	1924b2        	l32i	a11, a4, 100
    6e18:	e52221        	l32r	a2, 2a0 (66e0 <gain_after_ec>)
    6e1b:	0f0c           	movi.n	a15, 0
    6e1d:	0002e0        	callx8	a2
    6e20:	e48331        	l32r	a3, 2c (ee5c <p_ecnr_mem>)
    6e23:	142162        	l32i	a6, a1, 80
    6e26:	e51921        	l32r	a2, 28c (6484 <emph_filter_N>)
    6e29:	0388           	l32i.n	a8, a3, 0
    6e2b:	8d2c           	movi.n	a13, 40
    6e2d:	06ad           	mov.n	a10, a6
    6e2f:	7cc8b2        	addi	a11, a8, 124
    6e32:	3cc8c2        	addi	a12, a8, 60
    6e35:	0002e0        	callx8	a2
    6e38:	0388           	l32i.n	a8, a3, 0
    6e3a:	c7a042        	movi	a4, 199
    6e3d:	1144c0        	slli	a4, a4, 4
    6e40:	a428a2        	l32i	a10, a8, 0x290
    6e43:	a528b2        	l32i	a11, a8, 0x294
    6e46:	4121e2        	l32i	a14, a1, 0x104
    6e49:	e51121        	l32r	a2, 290 (631c <tx_downsample_by2>)
    6e4c:	d84a           	add.n	a13, a8, a4
    6e4e:	06cd           	mov.n	a12, a6
    6e50:	0002e0        	callx8	a2
    6e53:	2c2122        	l32i	a2, a1, 176
    6e56:	0388           	l32i.n	a8, a3, 0
    6e58:	2b21e2        	l32i	a14, a1, 172
    6e5b:	17a2f2        	movi	a15, 0x217
    6e5e:	2722d2        	l32i	a13, a2, 156
    6e61:	112fd0        	slli	a2, a15, 3
    6e64:	b82a           	add.n	a11, a8, a2
    6e66:	132ee2        	l32i	a14, a14, 76
    6e69:	a428a2        	l32i	a10, a8, 0x290
    6e6c:	a128c2        	l32i	a12, a8, 0x284
    6e6f:	e50921        	l32r	a2, 294 (6510 <analy_3band>)
    6e72:	0002e0        	callx8	a2
    6e75:	0388           	l32i.n	a8, a3, 0
    6e77:	2a2122        	l32i	a2, a1, 168
    6e7a:	05a0f2        	movi	a15, 5
    6e7d:	a128a2        	l32i	a10, a8, 0x284
    6e80:	3f2292        	l32i	a9, a2, 252
    6e83:	fcc982        	addi	a8, a9, -4
    6e86:	f8ca92        	addi	a9, a10, -8
    6e89:	088f76        	loop	a15, 6e95 <Voice_WB_TX_Inear_Prcs+0x4c1>
    6e8c:	5c8914        	ae_lp24x2f.iu	aep0, a9, 8
    6e8f:	090184        	ae_roundsp16asym	aep0, aep0
    6e92:	468814        	ae_sp16x2f.iu	aep0, a8, 4
    6e95:	152162        	l32i	a6, a1, 84
    6e98:	162142        	l32i	a4, a1, 88
    6e9b:	2321b2        	l32i	a11, a1, 140
    6e9e:	e4fe21        	l32r	a2, 298 (5980 <subband_aec_block>)
    6ea1:	ac0c           	movi.n	a12, 10
    6ea3:	1e0c           	movi.n	a14, 1
    6ea5:	06ad           	mov.n	a10, a6
    6ea7:	04dd           	mov.n	a13, a4
    6ea9:	0002e0        	callx8	a2
    6eac:	2521b2        	l32i	a11, a1, 148
    6eaf:	ac0c           	movi.n	a12, 10
    6eb1:	3e0c           	movi.n	a14, 3
    6eb3:	06ad           	mov.n	a10, a6
    6eb5:	04dd           	mov.n	a13, a4
    6eb7:	0002e0        	callx8	a2
    6eba:	2621b2        	l32i	a11, a1, 152
    6ebd:	4c1c           	movi.n	a12, 20
    6ebf:	4e0c           	movi.n	a14, 4
    6ec1:	06ad           	mov.n	a10, a6
    6ec3:	04dd           	mov.n	a13, a4
    6ec5:	0002e0        	callx8	a2
    6ec8:	2421b2        	l32i	a11, a1, 144
    6ecb:	e4f421        	l32r	a2, 29c (5c1c <subband_aec_mid_channel>)
    6ece:	2d0c           	movi.n	a13, 2
    6ed0:	06ad           	mov.n	a10, a6
    6ed2:	04cd           	mov.n	a12, a4
    6ed4:	0002e0        	callx8	a2
    6ed7:	e45551        	l32r	a5, 2c (ee5c <p_ecnr_mem>)
    6eda:	e4ddf1        	l32r	a15, 250 (cf58 <ath_b45+0x18>)
    6edd:	2a2132        	l32i	a3, a1, 168
    6ee0:	0588           	l32i.n	a8, a5, 0
    6ee2:	2c2122        	l32i	a2, a1, 176
    6ee5:	282142        	l32i	a4, a1, 160
    6ee8:	2b2162        	l32i	a6, a1, 172
    6eeb:	88fa           	add.n	a8, a8, a15
    6eed:	3d24c2        	l32i	a12, a4, 244
    6ef0:	4123a2        	l32i	a10, a3, 0x104
    6ef3:	2922b2        	l32i	a11, a2, 164
    6ef6:	1526d2        	l32i	a13, a6, 84
    6ef9:	28fd           	ae_l16si.n	a15, a8, 0
    6efb:	e4e941        	l32r	a4, 2a0 (66e0 <gain_after_ec>)
    6efe:	0004e0        	callx8	a4
    6f01:	292142        	l32i	a4, a1, 164
    6f04:	402172        	l32i	a7, a1, 0x100
    6f07:	1721e2        	l32i	a14, a1, 92
    6f0a:	0588           	l32i.n	a8, a5, 0
    6f0c:	1fa2f2        	movi	a15, 0x21f
    6f0f:	1924b2        	l32i	a11, a4, 100
    6f12:	114fd0        	slli	a4, a15, 3
    6f15:	5ec8           	l32i.n	a12, a14, 20
    6f17:	d84a           	add.n	a13, a8, a4
    6f19:	3127a2        	l32i	a10, a7, 196
    6f1c:	a928e2        	l32i	a14, a8, 0x2a4
    6f1f:	e4e141        	l32r	a4, 2a4 (65b4 <synth_3band>)
    6f22:	0004e0        	callx8	a4
    6f25:	0588           	l32i.n	a8, a5, 0
    6f27:	5da4f2        	movi	a15, 0x45d
    6f2a:	2922b2        	l32i	a11, a2, 164
    6f2d:	112fe0        	slli	a2, a15, 2
    6f30:	4123a2        	l32i	a10, a3, 0x104
    6f33:	1526c2        	l32i	a12, a6, 84
    6f36:	a828e2        	l32i	a14, a8, 0x2a0
    6f39:	d82a           	add.n	a13, a8, a2
    6f3b:	0004e0        	callx8	a4
    6f3e:	0588           	l32i.n	a8, a5, 0
    6f40:	2d2122        	l32i	a2, a1, 180
    6f43:	272132        	l32i	a3, a1, 156
    6f46:	c9a042        	movi	a4, 201
    6f49:	2d22b2        	l32i	a11, a2, 180
    6f4c:	1144c0        	slli	a4, a4, 4
    6f4f:	a928a2        	l32i	a10, a8, 0x2a4
    6f52:	3f21e2        	l32i	a14, a1, 252
    6f55:	e4d421        	l32r	a2, 2a8 (63d0 <tx_upsample_by2>)
    6f58:	d84a           	add.n	a13, a8, a4
    6f5a:	03cd           	mov.n	a12, a3
    6f5c:	0002e0        	callx8	a2
    6f5f:	282142        	l32i	a4, a1, 160
    6f62:	0588           	l32i.n	a8, a5, 0
    6f64:	cba0f2        	movi	a15, 203
    6f67:	3d24b2        	l32i	a11, a4, 244
    6f6a:	114fc0        	slli	a4, a15, 4
    6f6d:	d84a           	add.n	a13, a8, a4
    6f6f:	2e2142        	l32i	a4, a1, 184
    6f72:	a828a2        	l32i	a10, a8, 0x2a0
    6f75:	3e21e2        	l32i	a14, a1, 248
    6f78:	04cd           	mov.n	a12, a4
    6f7a:	0002e0        	callx8	a2
    6f7d:	142162        	l32i	a6, a1, 80
    6f80:	432122        	l32i	a2, a1, 0x10c
    6f83:	1b21a2        	l32i	a10, a1, 108
    6f86:	50c332        	addi	a3, a3, 80
    6f89:	1c21e2        	l32i	a14, a1, 112
    6f8c:	276132        	s32i	a3, a1, 156
    6f8f:	e4bf31        	l32r	a3, 28c (6484 <emph_filter_N>)
    6f92:	50c662        	addi	a6, a6, 80
    6f95:	50c442        	addi	a4, a4, 80
    6f98:	220b           	addi.n	a2, a2, -1
    6f9a:	c3a0f2        	movi	a15, 195
    6f9d:	146162        	s32i	a6, a1, 80
    6fa0:	2e6142        	s32i	a4, a1, 184
    6fa3:	50caa2        	addi	a10, a10, 80
    6fa6:	50ce62        	addi	a6, a14, 80
    6fa9:	114fc0        	slli	a4, a15, 4
    6fac:	d4d256        	bnez	a2, 6cfd <Voice_WB_TX_Inear_Prcs+0x329>
    6faf:	c138           	l32i.n	a3, a1, 48
    6fb1:	120c           	movi.n	a2, 1
    6fb3:	112220        	slli	a2, a2, 14
    6fb6:	292237        	blt	a2, a3, 6fe3 <Voice_WB_TX_Inear_Prcs+0x60f>
    6fb9:	e41c31        	l32r	a3, 2c (ee5c <p_ecnr_mem>)
    6fbc:	1a2162        	l32i	a6, a1, 104
    6fbf:	0ba3f2        	movi	a15, 0x30b
    6fc2:	0348           	l32i.n	a4, a3, 0
    6fc4:	113fe0        	slli	a3, a15, 2
    6fc7:	850c           	movi.n	a5, 8
    6fc9:	603644        	ae_lq32f.xu	aeq0, a6, a4
    6fcc:	1a6162        	s32i	a6, a1, 104
    6fcf:	803430        	add	a3, a4, a3
    6fd2:	1a2142        	l32i	a4, a1, 104
    6fd5:	0a8576        	loop	a5, 6fe3 <Voice_WB_TX_Inear_Prcs+0x60f>
    6fd8:	350074        	ae_sraiq56	aeq0, aeq0, 1
    6fdb:	f867bd141f 	{ ae_lq32f.iu	aeq0, a4, 4; ae_roundsp24q48asym	aep0, aeq0 }
    6fe0:	528314        	ae_sp24f.l.iu	aep0, a3, 4

00006fe3 <Voice_WB_TX_Inear_Prcs+0x60f>:
    6fe3:	f138           	l32i.n	a3, a1, 60
    6fe5:	c7a072        	movi	a7, 199
    6fe8:	c5a062        	movi	a6, 197
    6feb:	c9a082        	movi	a8, 201
    6fee:	1177c0        	slli	a7, a7, 4
    6ff1:	1166c0        	slli	a6, a6, 4
    6ff4:	1188c0        	slli	a8, a8, 4
    6ff7:	202237        	blt	a2, a3, 701b <Voice_WB_TX_Inear_Prcs+0x647>
    6ffa:	e40c31        	l32r	a3, 2c (ee5c <p_ecnr_mem>)
    6ffd:	23a3f2        	movi	a15, 0x323
    7000:	850c           	movi.n	a5, 8
    7002:	0348           	l32i.n	a4, a3, 0
    7004:	113fe0        	slli	a3, a15, 2
    7007:	803430        	add	a3, a4, a3
    700a:	603844        	ae_lq32f.xu	aeq0, a8, a4
    700d:	0a8576        	loop	a5, 701b <Voice_WB_TX_Inear_Prcs+0x647>
    7010:	350074        	ae_sraiq56	aeq0, aeq0, 1
    7013:	f867bd181f 	{ ae_lq32f.iu	aeq0, a8, 4; ae_roundsp24q48asym	aep0, aeq0 }
    7018:	528314        	ae_sp24f.l.iu	aep0, a3, 4
    701b:	e138           	l32i.n	a3, a1, 56
    701d:	e40341        	l32r	a4, 2c (ee5c <p_ecnr_mem>)
    7020:	13a3f2        	movi	a15, 0x313
    7023:	192237        	blt	a2, a3, 7040 <Voice_WB_TX_Inear_Prcs+0x66c>
    7026:	850c           	movi.n	a5, 8
    7028:	0448           	l32i.n	a4, a4, 0
    702a:	113fe0        	slli	a3, a15, 2
    702d:	343a           	add.n	a3, a4, a3
    702f:	603644        	ae_lq32f.xu	aeq0, a6, a4
    7032:	0a8576        	loop	a5, 7040 <Voice_WB_TX_Inear_Prcs+0x66c>
    7035:	350074        	ae_sraiq56	aeq0, aeq0, 1
    7038:	f867bd161f 	{ ae_lq32f.iu	aeq0, a6, 4; ae_roundsp24q48asym	aep0, aeq0 }
    703d:	528314        	ae_sp24f.l.iu	aep0, a3, 4
    7040:	d138           	l32i.n	a3, a1, 52
    7042:	182162        	l32i	a6, a1, 96
    7045:	e3f941        	l32r	a4, 2c (ee5c <p_ecnr_mem>)
    7048:	1c2237        	blt	a2, a3, 7068 <Voice_WB_TX_Inear_Prcs+0x694>
    704b:	1ba3f2        	movi	a15, 0x31b
    704e:	850c           	movi.n	a5, 8
    7050:	0448           	l32i.n	a4, a4, 0
    7052:	113fe0        	slli	a3, a15, 2
    7055:	343a           	add.n	a3, a4, a3
    7057:	603744        	ae_lq32f.xu	aeq0, a7, a4
    705a:	0a8576        	loop	a5, 7068 <Voice_WB_TX_Inear_Prcs+0x694>
    705d:	350074        	ae_sraiq56	aeq0, aeq0, 1
    7060:	f867bd171f 	{ ae_lq32f.iu	aeq0, a7, 4; ae_roundsp24q48asym	aep0, aeq0 }
    7065:	528314        	ae_sp24f.l.iu	aep0, a3, 4
    7068:	102132        	l32i	a3, a1, 64
    706b:	cba052        	movi	a5, 203
    706e:	1155c0        	slli	a5, a5, 4
    7071:	1f2237        	blt	a2, a3, 7094 <Voice_WB_TX_Inear_Prcs+0x6c0>
    7074:	e3ee21        	l32r	a2, 2c (ee5c <p_ecnr_mem>)
    7077:	2ba3f2        	movi	a15, 0x32b
    707a:	840c           	movi.n	a4, 8
    707c:	0238           	l32i.n	a3, a2, 0
    707e:	112fe0        	slli	a2, a15, 2
    7081:	232a           	add.n	a2, a3, a2
    7083:	603534        	ae_lq32f.xu	aeq0, a5, a3
    7086:	0a8476        	loop	a4, 7094 <Voice_WB_TX_Inear_Prcs+0x6c0>
    7089:	350074        	ae_sraiq56	aeq0, aeq0, 1
    708c:	f867bd151f 	{ ae_lq32f.iu	aeq0, a5, 4; ae_roundsp24q48asym	aep0, aeq0 }
    7091:	528214        	ae_sp24f.l.iu	aep0, a2, 4
    7094:	10d622        	addmi	a2, a6, 0x1000
    7097:	0e1232        	l16ui	a3, a2, 28
    709a:	146122        	s32i	a2, a1, 80
    709d:	1d2142        	l32i	a4, a1, 116
    70a0:	088316        	beqz	a3, 712c <Voice_WB_TX_Inear_Prcs+0x758>
    70a3:	152122        	l32i	a2, a1, 84
    70a6:	e48331        	l32r	a3, 2b4 (5f00 <dt_detect_sb>)
    70a9:	2424c2        	l32i	a12, a4, 144
    70ac:	1f21b2        	l32i	a11, a1, 124
    70af:	02ad           	mov.n	a10, a2
    70b1:	0003e0        	callx8	a3
    70b4:	2424c2        	l32i	a12, a4, 144
    70b7:	2021b2        	l32i	a11, a1, 128
    70ba:	02ad           	mov.n	a10, a2
    70bc:	0003e0        	callx8	a3
    70bf:	302162        	l32i	a6, a1, 192
    70c2:	2f2172        	l32i	a7, a1, 188
    70c5:	2121b2        	l32i	a11, a1, 132
    70c8:	c648           	l32i.n	a4, a6, 48
    70ca:	202752        	l32i	a5, a7, 128
    70cd:	02ad           	mov.n	a10, a2
    70cf:	43c450        	min	a12, a4, a5
    70d2:	0003e0        	callx8	a3
    70d5:	c648           	l32i.n	a4, a6, 48
    70d7:	202752        	l32i	a5, a7, 128
    70da:	2221b2        	l32i	a11, a1, 136
    70dd:	02ad           	mov.n	a10, a2
    70df:	43c450        	min	a12, a4, a5
    70e2:	0003e0        	callx8	a3
    70e5:	1e2142        	l32i	a4, a1, 120
    70e8:	e47431        	l32r	a3, 2b8 (5f88 <dt_detect_FB_sb>)
    70eb:	2321b2        	l32i	a11, a1, 140
    70ee:	3424c2        	l32i	a12, a4, 208
    70f1:	02ad           	mov.n	a10, a2
    70f3:	0003e0        	callx8	a3
    70f6:	3424c2        	l32i	a12, a4, 208
    70f9:	2421b2        	l32i	a11, a1, 144
    70fc:	02ad           	mov.n	a10, a2
    70fe:	0003e0        	callx8	a3
    7101:	322162        	l32i	a6, a1, 200
    7104:	312172        	l32i	a7, a1, 196
    7107:	2521b2        	l32i	a11, a1, 148
    710a:	1c2642        	l32i	a4, a6, 112
    710d:	302752        	l32i	a5, a7, 192
    7110:	02ad           	mov.n	a10, a2
    7112:	43c450        	min	a12, a4, a5
    7115:	0003e0        	callx8	a3
    7118:	1c2642        	l32i	a4, a6, 112
    711b:	302752        	l32i	a5, a7, 192
    711e:	2621b2        	l32i	a11, a1, 152
    7121:	02ad           	mov.n	a10, a2
    7123:	43c450        	min	a12, a4, a5
    7126:	0003e0        	callx8	a3
    7129:	000f06        	j	7169 <Voice_WB_TX_Inear_Prcs+0x795>

0000712c <Voice_WB_TX_Inear_Prcs+0x758>:
    712c:	a5a632        	movi	a3, 0x6a5
    712f:	d21c           	movi.n	a2, 29
    7131:	1133f0        	slli	a3, a3, 1
    7134:	112290        	slli	a2, a2, 7
    7137:	602624        	ae_lq32f.x	aeq0, a6, a2
    713a:	410634        	ae_lp16f.x	aep0, a6, a3
    713d:	d4e231d1ee 	{ l32i	a14, a1, 116; ae_mulfq32sp16s.l	aeq0, aeq0, aep0 }
    7142:	24c142        	addi	a4, a1, 36
    7145:	620404        	ae_sq32f.i	aeq0, a4, 0
    7148:	152122        	l32i	a2, a1, 84
    714b:	242ef2        	l32i	a15, a14, 144
    714e:	9148           	l32i.n	a4, a1, 36
    7150:	e45731        	l32r	a3, 2ac (5ebc <dt_detect>)
    7153:	02ad           	mov.n	a10, a2
    7155:	53bf40        	max	a11, a15, a4
    7158:	0003e0        	callx8	a3
    715b:	1e2132        	l32i	a3, a1, 120
    715e:	02ad           	mov.n	a10, a2
    7160:	3423b2        	l32i	a11, a3, 208
    7163:	e45331        	l32r	a3, 2b0 (5f44 <dt_detect_FB>)
    7166:	0003e0        	callx8	a3
    7169:	3a2122        	l32i	a2, a1, 232
    716c:	392152        	l32i	a5, a1, 228
    716f:	382162        	l32i	a6, a1, 224
    7172:	4b1232        	l16ui	a3, a2, 150
    7175:	e3ad21        	l32r	a2, 2c (ee5c <p_ecnr_mem>)
    7178:	372172        	l32i	a7, a1, 220
    717b:	332182        	l32i	a8, a1, 204
    717e:	085132        	s16i	a3, a1, 16
    7181:	0238           	l32i.n	a3, a2, 0
    7183:	342192        	l32i	a9, a1, 208
    7186:	731542        	l16ui	a4, a5, 230
    7189:	1b1652        	l16ui	a5, a6, 54
    718c:	431762        	l16ui	a6, a7, 134
    718f:	142172        	l32i	a7, a1, 80
    7192:	3521a2        	l32i	a10, a1, 212
    7195:	3621c2        	l32i	a12, a1, 216
    7198:	6b18b2        	l16ui	a11, a8, 214
    719b:	131982        	l16ui	a8, a9, 38
    719e:	7ec3f2        	addi	a15, a3, 126
    71a1:	1fa1d2        	movi	a13, 0x11f
    71a4:	3b1a92        	l16ui	a9, a10, 118
    71a7:	631ca2        	l16ui	a10, a12, 198
    71aa:	095142        	s16i	a4, a1, 18
    71ad:	114dc0        	slli	a4, a13, 4
    71b0:	0b5162        	s16i	a6, a1, 22
    71b3:	0c51b2        	s16i	a11, a1, 24
    71b6:	0d5182        	s16i	a8, a1, 26
    71b9:	0e97e2        	l16si	a14, a7, 28
    71bc:	ab23b2        	l32i	a11, a3, 0x2ac
    71bf:	aa23c2        	l32i	a12, a3, 0x2a8
    71c2:	ff9ff2        	l16si	a15, a15, 0x1fe
    71c5:	10c182        	addi	a8, a1, 16
    71c8:	e43d61        	l32r	a6, 2bc (4390 <inear_ast_nr_proc>)
    71cb:	0e5192        	s16i	a9, a1, 28
    71ce:	0f51a2        	s16i	a10, a1, 30
    71d1:	2189           	s32i.n	a8, a1, 8
    71d3:	11e9           	s32i.n	a14, a1, 4
    71d5:	190c           	movi.n	a9, 1
    71d7:	a34a           	add.n	a10, a3, a4
    71d9:	2cc1d2        	addi	a13, a1, 44
    71dc:	28c1e2        	addi	a14, a1, 40
    71df:	0a5152        	s16i	a5, a1, 20
    71e2:	0199           	s32i.n	a9, a1, 0
    71e4:	0006e0        	callx8	a6
    71e7:	0238           	l32i.n	a3, a2, 0
    71e9:	e41441        	l32r	a4, 23c (cf48 <ath_b45+0x8>)
    71ec:	3c2182        	l32i	a8, a1, 240
    71ef:	76d352        	addmi	a5, a3, 0x7600
    71f2:	434a           	add.n	a4, a3, a4
    71f4:	339562        	l16si	a6, a5, 102
    71f7:	3b21f2        	l32i	a15, a1, 236
    71fa:	64ad           	ae_s16i.n	a10, a4, 0
    71fc:	686d           	ae_s16i.n	a6, a8, 0
    71fe:	3495e2        	l16si	a14, a5, 104
    7201:	6fed           	ae_s16i.n	a14, a15, 0
    7203:	0e1742        	l16ui	a4, a7, 28
    7206:	1921c2        	l32i	a12, a1, 100
    7209:	182122        	l32i	a2, a1, 96
    720c:	061456        	bnez	a4, 7271 <Voice_WB_TX_Inear_Prcs+0x89d>
    720f:	7ec342        	addi	a4, a3, 126
    7212:	ff9442        	l16si	a4, a4, 0x1fe
    7215:	0dd252        	addmi	a5, a2, 0xd00
    7218:	159552        	l16si	a5, a5, 42
    721b:	e42a61        	l32r	a6, 2c4 (cf5a <ath_b45+0x1a>)
    721e:	a5a672        	movi	a7, 0x6a5
    7221:	08a547        	bge	a5, a4, 722d <Voice_WB_TX_Inear_Prcs+0x859>
    7224:	e42741        	l32r	a4, 2c0 (7fff0000 <_end+0x7ffe119c>)
    7227:	360434        	ae_cvtq48a32s	aeq0, a4
    722a:	000e06        	j	7266 <Voice_WB_TX_Inear_Prcs+0x892>

0000722d <Voice_WB_TX_Inear_Prcs+0x859>:
    722d:	484d           	ae_l16ui.n	a4, a8, 0
    722f:	b5a352        	movi	a5, 0x3b5
    7232:	1155e0        	slli	a5, a5, 2
    7235:	049c           	beqz.n	a4, 7249 <Voice_WB_TX_Inear_Prcs+0x875>
    7237:	602254        	ae_lq32f.x	aeq0, a2, a5
    723a:	281466        	bnei	a4, 1, 7266 <Voice_WB_TX_Inear_Prcs+0x892>
    723d:	410364        	ae_lp16f.x	aep0, a3, a6
    7240:	030234        	ae_mulfq32sp16u.l	aeq0, aeq0, aep0
    7243:	3601d4        	ae_sllisq56s	aeq0, aeq0, 7
    7246:	000706        	j	7266 <Voice_WB_TX_Inear_Prcs+0x892>

00007249 <Voice_WB_TX_Inear_Prcs+0x875>:
    7249:	a1a352        	movi	a5, 0x3a1
    724c:	1147f0        	slli	a4, a7, 1
    724f:	1155e0        	slli	a5, a5, 2
    7252:	602254        	ae_lq32f.x	aeq0, a2, a5
    7255:	410244        	ae_lp16f.x	aep0, a2, a4
    7258:	d4e20365ff 	{ movi	a15, 0x365; ae_mulfq32sp16s.l	aeq0, aeq0, aep0 }
    725d:	114fe0        	slli	a4, a15, 2
    7260:	606244        	ae_lq32f.x	aeq1, a2, a4
    7263:	0110c4        	ae_maxq56s	aeq0, aeq0, aeq1
    7266:	f86380d54f 	{ movi	a4, 213; ae_roundsp16q48asym	aep0, aeq0 }
    726b:	1144c0        	slli	a4, a4, 4
    726e:	430244        	ae_sp16f.l.x	aep0, a2, a4
    7271:	e3e041        	l32r	a4, 1f4 (cf54 <ath_b45+0x14>)
    7274:	b158           	l32i.n	a5, a1, 44
    7276:	a168           	l32i.n	a6, a1, 40
    7278:	834a           	add.n	a8, a3, a4
    727a:	08b8           	l32i.n	a11, a8, 0
    727c:	1f0c           	movi.n	a15, 1
    727e:	f0a092        	movi	a9, 240
    7281:	070c           	movi.n	a7, 0
    7283:	118f10        	slli	a8, a15, 15
    7286:	1b8976        	loop	a9, 72a5 <Voice_WB_TX_Inear_Prcs+0x8d1>
    7289:	0598           	l32i.n	a9, a5, 0
    728b:	06e8           	l32i.n	a14, a6, 0
    728d:	ac7a           	add.n	a10, a12, a7
    728f:	998a           	add.n	a9, a9, a8
    7291:	319090        	srai	a9, a9, 16
    7294:	6a9d           	ae_s16i.n	a9, a10, 0
    7296:	9e8a           	add.n	a9, a14, a8
    7298:	fb7a           	add.n	a15, a11, a7
    729a:	319090        	srai	a9, a9, 16
    729d:	554b           	addi.n	a5, a5, 4
    729f:	664b           	addi.n	a6, a6, 4
    72a1:	772b           	addi.n	a7, a7, 2
    72a3:	6f9d           	ae_s16i.n	a9, a15, 0

000072a5 <Voice_WB_TX_Inear_Prcs+0x8d1>:
    72a5:	a3a152        	movi	a5, 0x1a3
    72a8:	1155d0        	slli	a5, a5, 3
    72ab:	a35a           	add.n	a10, a3, a5
    72ad:	e40631        	l32r	a3, 2c8 (6834 <AVC_prcs>)
    72b0:	0003e0        	callx8	a3
    72b3:	142122        	l32i	a2, a1, 80
    72b6:	e3e931        	l32r	a3, 25c (ee60 <avc_vol>)
    72b9:	1921b2        	l32i	a11, a1, 100
    72bc:	0e1222        	l16ui	a2, a2, 28
    72bf:	63ad           	ae_s16i.n	a10, a3, 0
    72c1:	e35a31        	l32r	a3, 2c (ee5c <p_ecnr_mem>)
    72c4:	d2cc           	bnez.n	a2, 72d5 <Voice_WB_TX_Inear_Prcs+0x901>
    72c6:	0328           	l32i.n	a2, a3, 0
    72c8:	1521a2        	l32i	a10, a1, 84
    72cb:	224a           	add.n	a2, a2, a4
    72cd:	02c8           	l32i.n	a12, a2, 0
    72cf:	e3ff21        	l32r	a2, 2cc (67c8 <aec_post_prcs>)
    72d2:	0002e0        	callx8	a2

000072d5 <Voice_WB_TX_Inear_Prcs+0x901>:
    72d5:	0328           	l32i.n	a2, a3, 0
    72d7:	1921a2        	l32i	a10, a1, 100
    72da:	f0a0d2        	movi	a13, 240
    72dd:	7cc2b2        	addi	a11, a2, 124
    72e0:	74c2c2        	addi	a12, a2, 116
    72e3:	e3fb21        	l32r	a2, 2d0 (64cc <deemph_filter_N>)
    72e6:	0002e0        	callx8	a2
    72e9:	03d8           	l32i.n	a13, a3, 0
    72eb:	3d2162        	l32i	a6, a1, 244
    72ee:	e3dbe1        	l32r	a14, 25c (ee60 <avc_vol>)
    72f1:	e3d2b1        	l32r	a11, 23c (cf48 <ath_b45+0x8>)
    72f4:	fdf0c6        	j	6abb <Voice_WB_TX_Inear_Prcs+0xe7>

000072f7 <Voice_WB_TX_Inear_Prcs+0x923>:
	...

000072f8 <conv_16_to_24_x2>:
    72f8:	004136        	entry	a1, 32
    72fb:	1014a6        	blti	a4, 1, 730f <conv_16_to_24_x2+0x17>
    72fe:	fcc222        	addi	a2, a2, -4
    7301:	f8c332        	addi	a3, a3, -8
    7304:	f03d           	nop.n
    7306:	058476        	loop	a4, 730f <conv_16_to_24_x2+0x17>
    7309:	448214        	ae_lp16x2f.iu	aep0, a2, 4
    730c:	5e8314        	ae_sp24x2f.iu	aep0, a3, 8

0000730f <conv_16_to_24_x2+0x17>:
    730f:	f01d           	retw.n

00007311 <conv_16_to_24_x2+0x19>:
    7311:	000000                                        ...

00007314 <Voice_NB_RX_Prcs>:
    7314:	004136        	entry	a1, 32
    7317:	e34541        	l32r	a4, 2c (ee5c <p_ecnr_mem>)
    731a:	02ad           	mov.n	a10, a2
    731c:	0438           	l32i.n	a3, a4, 0
    731e:	0fd352        	addmi	a5, a3, 0xf00
    7321:	7c1552        	l16ui	a5, a5, 248
    7324:	658c           	beqz.n	a5, 732e <Voice_NB_RX_Prcs+0x1a>
    7326:	e3eb31        	l32r	a3, 2d4 (7938 <NB_RX_NR_frame_process>)
    7329:	0003e0        	callx8	a3
    732c:	0438           	l32i.n	a3, a4, 0

0000732e <Voice_NB_RX_Prcs+0x1a>:
    732e:	e3ea41        	l32r	a4, 2d8 (bcfe <mel_tab26+0x22e>)
    7331:	02d352        	addmi	a5, a3, 0x200
    7334:	e33a71        	l32r	a7, 1c (cf4c <ath_b45+0xc>)
    7337:	434a           	add.n	a4, a3, a4
    7339:	244d           	ae_l16si.n	a4, a4, 0
    733b:	3f5542        	s16i	a4, a5, 126
    733e:	810542        	l8ui	a4, a5, 129
    7341:	c63c           	movi.n	a6, 60
    7343:	837a           	add.n	a8, a3, a7
    7345:	276457        	bbci	a4, 5, 7370 <Voice_NB_RX_Prcs+0x5c>
    7348:	0028a2        	l32i	a10, a8, 0
    734b:	fcc242        	addi	a4, a2, -4
    734e:	f8ca52        	addi	a5, a10, -8
    7351:	058676        	loop	a6, 735a <Voice_NB_RX_Prcs+0x46>
    7354:	448414        	ae_lp16x2f.iu	aep0, a4, 4
    7357:	5e8514        	ae_sp24x2f.iu	aep0, a5, 8

0000735a <Voice_NB_RX_Prcs+0x46>:
    735a:	cfa042        	movi	a4, 207
    735d:	114480        	slli	a4, a4, 8
    7360:	0dd3b2        	addmi	a11, a3, 0xd00
    7363:	c34a           	add.n	a12, a3, a4
    7365:	e3c831        	l32r	a3, 288 (6640 <biquad_2cascade_24bitTx>)
    7368:	78a0e2        	movi	a14, 120
    736b:	02dd           	mov.n	a13, a2
    736d:	0003e0        	callx8	a3

00007370 <Voice_NB_RX_Prcs+0x5c>:
    7370:	f01d           	retw.n

00007372 <Voice_NB_RX_Prcs+0x5e>:
	...

00007374 <Voice_WB_RX_Prcs>:
    7374:	004136        	entry	a1, 32
    7377:	e32d41        	l32r	a4, 2c (ee5c <p_ecnr_mem>)
    737a:	02ad           	mov.n	a10, a2
    737c:	0438           	l32i.n	a3, a4, 0
    737e:	0fd352        	addmi	a5, a3, 0xf00
    7381:	7c1552        	l16ui	a5, a5, 248
    7384:	658c           	beqz.n	a5, 738e <Voice_WB_RX_Prcs+0x1a>
    7386:	e3d531        	l32r	a3, 2dc (76b0 <WB_RX_NR_frame_process>)
    7389:	0003e0        	callx8	a3
    738c:	0438           	l32i.n	a3, a4, 0

0000738e <Voice_WB_RX_Prcs+0x1a>:
    738e:	e3d241        	l32r	a4, 2d8 (bcfe <mel_tab26+0x22e>)
    7391:	02d352        	addmi	a5, a3, 0x200
    7394:	e32271        	l32r	a7, 1c (cf4c <ath_b45+0xc>)
    7397:	434a           	add.n	a4, a3, a4
    7399:	244d           	ae_l16si.n	a4, a4, 0
    739b:	3f5542        	s16i	a4, a5, 126
    739e:	810542        	l8ui	a4, a5, 129
    73a1:	78a062        	movi	a6, 120
    73a4:	837a           	add.n	a8, a3, a7
    73a6:	266457        	bbci	a4, 5, 73d0 <Voice_WB_RX_Prcs+0x5c>
    73a9:	08a8           	l32i.n	a10, a8, 0
    73ab:	fcc242        	addi	a4, a2, -4
    73ae:	f8ca52        	addi	a5, a10, -8
    73b1:	058676        	loop	a6, 73ba <Voice_WB_RX_Prcs+0x46>
    73b4:	448414        	ae_lp16x2f.iu	aep0, a4, 4
    73b7:	5e8514        	ae_sp24x2f.iu	aep0, a5, 8

000073ba <Voice_WB_RX_Prcs+0x46>:
    73ba:	cfa042        	movi	a4, 207
    73bd:	114480        	slli	a4, a4, 8
    73c0:	0dd3b2        	addmi	a11, a3, 0xd00
    73c3:	c34a           	add.n	a12, a3, a4
    73c5:	e3b031        	l32r	a3, 288 (6640 <biquad_2cascade_24bitTx>)
    73c8:	f0a0e2        	movi	a14, 240
    73cb:	02dd           	mov.n	a13, a2
    73cd:	0003e0        	callx8	a3

000073d0 <Voice_WB_RX_Prcs+0x5c>:
    73d0:	f01d           	retw.n

000073d2 <Voice_WB_RX_Prcs+0x5e>:
	...

000073d4 <EC_REF_GAIN_READBACK>:
    73d4:	004136        	entry	a1, 32
    73d7:	e31531        	l32r	a3, 2c (ee5c <p_ecnr_mem>)
    73da:	0f0c           	movi.n	a15, 0
    73dc:	0338           	l32i.n	a3, a3, 0
    73de:	0dd342        	addmi	a4, a3, 0xd00
    73e1:	451442        	l16ui	a4, a4, 138
    73e4:	0dd3d2        	addmi	a13, a3, 0xd00
    73e7:	624d           	ae_s16i.n	a4, a2, 0
    73e9:	6d1d42        	l16ui	a4, a13, 218
    73ec:	0ed3e2        	addmi	a14, a3, 0xe00
    73ef:	0ed332        	addmi	a3, a3, 0xe00
    73f2:	724d           	ae_s16i.n	a4, a2, 2
    73f4:	151e42        	l16ui	a4, a14, 42
    73f7:	3d1332        	l16ui	a3, a3, 122
    73fa:	025242        	s16i	a4, a2, 4
    73fd:	035232        	s16i	a3, a2, 6
    7400:	0452f2        	s16i	a15, a2, 8
    7403:	0752f2        	s16i	a15, a2, 14
    7406:	0652f2        	s16i	a15, a2, 12
    7409:	0552f2        	s16i	a15, a2, 10
    740c:	f01d           	retw.n

0000740e <EC_REF_GAIN_READBACK+0x3a>:
	...

00007410 <EC_PreLim_Coef_READBACK>:
    7410:	004136        	entry	a1, 32
    7413:	e32031        	l32r	a3, 94 (90d0 <memset>)
    7416:	0b0c           	movi.n	a11, 0
    7418:	2c1c           	movi.n	a12, 18
    741a:	02ad           	mov.n	a10, a2
    741c:	0003e0        	callx8	a3
    741f:	f01d           	retw.n

00007421 <EC_PreLim_Coef_READBACK+0x11>:
    7421:	000000                                        ...

00007424 <DaulMIC_power_Coef_READBACK>:
    7424:	004136        	entry	a1, 32
    7427:	020c           	movi.n	a2, 0
    7429:	f01d           	retw.n

0000742b <DaulMIC_power_Coef_READBACK+0x7>:
	...

0000742c <AEC_NR_Write_FLASH>:
    742c:	004136        	entry	a1, 32
    742f:	020c           	movi.n	a2, 0
    7431:	f01d           	retw.n

00007433 <AEC_NR_Write_FLASH+0x7>:
	...

00007434 <TWO_MIC_WB_Write_FLASH>:
    7434:	004136        	entry	a1, 32
    7437:	020c           	movi.n	a2, 0
    7439:	f01d           	retw.n

0000743b <TWO_MIC_WB_Write_FLASH+0x7>:
	...

0000743c <IE_EC_REF_GAIN_READBACK>:
    743c:	004136        	entry	a1, 32
    743f:	e2fb31        	l32r	a3, 2c (ee5c <p_ecnr_mem>)
    7442:	0338           	l32i.n	a3, a3, 0
    7444:	0ed342        	addmi	a4, a3, 0xe00
    7447:	651442        	l16ui	a4, a4, 202
    744a:	0fd3e2        	addmi	a14, a3, 0xf00
    744d:	624d           	ae_s16i.n	a4, a2, 0
    744f:	0d1e42        	l16ui	a4, a14, 26
    7452:	0fd3f2        	addmi	a15, a3, 0xf00
    7455:	0fd332        	addmi	a3, a3, 0xf00
    7458:	724d           	ae_s16i.n	a4, a2, 2
    745a:	351f42        	l16ui	a4, a15, 106
    745d:	5d1332        	l16ui	a3, a3, 186
    7460:	025242        	s16i	a4, a2, 4
    7463:	035232        	s16i	a3, a2, 6
    7466:	f01d           	retw.n

00007468 <fill_vad_thrd_Nbands>:
    7468:	004136        	entry	a1, 32
    746b:	1a14a6        	blti	a4, 1, 7489 <fill_vad_thrd_Nbands+0x21>
    746e:	944d           	ae_zext16	a4, a4
    7470:	158476        	loop	a4, 7489 <fill_vad_thrd_Nbands+0x21>
    7473:	234d           	ae_l16si.n	a4, a3, 0
    7475:	332b           	addi.n	a3, a3, 2
    7477:	745840        	extui	a5, a4, 8, 8
    747a:	744040        	extui	a4, a4, 0, 8
    747d:	115590        	slli	a5, a5, 7
    7480:	114490        	slli	a4, a4, 7
    7483:	625d           	ae_s16i.n	a5, a2, 0
    7485:	724d           	ae_s16i.n	a4, a2, 2
    7487:	224b           	addi.n	a2, a2, 4

00007489 <fill_vad_thrd_Nbands+0x21>:
    7489:	f01d           	retw.n

0000748b <fill_vad_thrd_Nbands+0x23>:
	...

0000748c <fill_EQ_gain>:
    748c:	004136        	entry	a1, 32
    748f:	0a14a6        	blti	a4, 1, 749d <fill_EQ_gain+0x11>
    7492:	078476        	loop	a4, 749d <fill_EQ_gain+0x11>
    7495:	234d           	ae_l16si.n	a4, a3, 0
    7497:	624d           	ae_s16i.n	a4, a2, 0
    7499:	332b           	addi.n	a3, a3, 2
    749b:	222b           	addi.n	a2, a2, 2

0000749d <fill_EQ_gain+0x11>:
    749d:	f01d           	retw.n

0000749f <fill_EQ_gain+0x13>:
	...

000074a0 <complement_para>:
    74a0:	004136        	entry	a1, 32
    74a3:	f47c           	movi.n	a4, -1
    74a5:	114410        	slli	a4, a4, 15
    74a8:	c0f430        	sub	a15, a4, a3
    74ab:	623d           	ae_s16i.n	a3, a2, 0
    74ad:	72fd           	ae_s16i.n	a15, a2, 2
    74af:	f01d           	retw.n

000074b1 <complement_para+0x11>:
    74b1:	000000                                        ...

000074b4 <WB_NR_init>:
    74b4:	004136        	entry	a1, 32
    74b7:	23a1c2        	movi	a12, 0x123
    74ba:	e2ef61        	l32r	a6, 78 (90e4 <xt_memset>)
    74bd:	11ccd0        	slli	a12, a12, 3
    74c0:	0b0c           	movi.n	a11, 0
    74c2:	02ad           	mov.n	a10, a2
    74c4:	0006e0        	callx8	a6
    74c7:	4d9432        	l16si	a3, a4, 154
    74ca:	429452        	l16si	a5, a4, 132
    74cd:	439472        	l16si	a7, a4, 134
    74d0:	449482        	l16si	a8, a4, 136
    74d3:	105232        	s16i	a3, a2, 32
    74d6:	025252        	s16i	a5, a2, 4
    74d9:	115272        	s16i	a7, a2, 34
    74dc:	035282        	s16i	a8, a2, 6
    74df:	252452        	l32i	a5, a4, 148
    74e2:	7259           	s32i.n	a5, a2, 28
    74e4:	4c9452        	l16si	a5, a4, 152
    74e7:	fd7c           	movi.n	a13, -1
    74e9:	09d292        	addmi	a9, a2, 0x900
    74ec:	113d10        	slli	a3, a13, 15
    74ef:	8aa0e2        	movi	a14, 138
    74f2:	125952        	s16i	a5, a9, 36
    74f5:	c05350        	sub	a5, a3, a5
    74f8:	5f0c           	movi.n	a15, 5
    74fa:	135952        	s16i	a5, a9, 38
    74fd:	528b           	addi.n	a5, a2, 8
    74ff:	74ea           	add.n	a7, a4, a14
    7501:	158f76        	loop	a15, 751a <WB_NR_init+0x66>
    7504:	278d           	ae_l16si.n	a8, a7, 0
    7506:	772b           	addi.n	a7, a7, 2
    7508:	749880        	extui	a9, a8, 8, 8
    750b:	748080        	extui	a8, a8, 0, 8
    750e:	119990        	slli	a9, a9, 7
    7511:	118890        	slli	a8, a8, 7
    7514:	659d           	ae_s16i.n	a9, a5, 0
    7516:	758d           	ae_s16i.n	a8, a5, 2
    7518:	554b           	addi.n	a5, a5, 4

0000751a <WB_NR_init+0x66>:
    751a:	dfa072        	movi	a7, 223
    751d:	1177c0        	slli	a7, a7, 4
    7520:	f0a152        	movi	a5, 0x1f0
    7523:	00a182        	movi	a8, 0x100
    7526:	545a           	add.n	a5, a4, a5
    7528:	727a           	add.n	a7, a2, a7
    752a:	078876        	loop	a8, 7535 <WB_NR_init+0x81>
    752d:	258d           	ae_l16si.n	a8, a5, 0
    752f:	678d           	ae_s16i.n	a8, a7, 0
    7531:	552b           	addi.n	a5, a5, 2
    7533:	772b           	addi.n	a7, a7, 2
    7535:	12d252        	addmi	a5, a2, 0x1200
    7538:	e36a71        	l32r	a7, 2e0 (b2b0 <win_rx_512_v3>)
    753b:	7579           	s32i.n	a7, a5, 28
    753d:	e2bb51        	l32r	a5, 2c (ee5c <p_ecnr_mem>)
    7540:	e369c1        	l32r	a12, 2e4 (cf34 <bc45+0x54>)
    7543:	320282        	l8ui	a8, a2, 50
    7546:	05d8           	l32i.n	a13, a5, 0
    7548:	e368e1        	l32r	a14, 2e8 (cf38 <bc45+0x58>)
    754b:	190c           	movi.n	a9, 1
    754d:	7dca           	add.n	a7, a13, a12
    754f:	4e94f2        	l16si	a15, a4, 156
    7552:	208890        	or	a8, a8, a9
    7555:	67fd           	ae_s16i.n	a15, a7, 0
    7557:	324282        	s8i	a8, a2, 50
    755a:	4f9482        	l16si	a8, a4, 158
    755d:	adea           	add.n	a10, a13, a14
    755f:	0b0c           	movi.n	a11, 0
    7561:	6c0c           	movi.n	a12, 6
    7563:	778d           	ae_s16i.n	a8, a7, 2
    7565:	0006e0        	callx8	a6
    7568:	7ca1b2        	movi	a11, 0x17c
    756b:	0e9282        	l16si	a8, a2, 28
    756e:	12d292        	addmi	a9, a2, 0x1200
    7571:	1192a2        	l16si	a10, a2, 34
    7574:	7e7c           	movi.n	a14, -9
    7576:	7f1c           	movi.n	a15, 23
    7578:	165982        	s16i	a8, a9, 44
    757b:	1759a2        	s16i	a10, a9, 46
    757e:	36c262        	addi	a6, a2, 54
    7581:	970c           	movi.n	a7, 9
    7583:	018e50        	slli	a8, a14, 27
    7586:	119f50        	slli	a9, a15, 11
    7589:	ca0c           	movi.n	a10, 12
    758b:	b2ba           	add.n	a11, a2, a11

0000758d <WB_NR_init+0xd9>:
    758d:	06cd           	mov.n	a12, a6
    758f:	0b89           	s32i.n	a8, a11, 0
    7591:	038a76        	loop	a10, 7598 <WB_NR_init+0xe4>
    7594:	6c9d           	ae_s16i.n	a9, a12, 0
    7596:	cc2b           	addi.n	a12, a12, 2

00007598 <WB_NR_init+0xe4>:
    7598:	770b           	addi.n	a7, a7, -1
    759a:	18c662        	addi	a6, a6, 24
    759d:	bb4b           	addi.n	a11, a11, 4
    759f:	fea756        	bnez	a7, 758d <WB_NR_init+0xd9>
    75a2:	ffa772        	movi	a7, 0x7ff
    75a5:	1177b0        	slli	a7, a7, 5
    75a8:	09d282        	addmi	a8, a2, 0x900
    75ab:	175872        	s16i	a7, a8, 46
    75ae:	2e9482        	l16si	a8, a4, 92
    75b1:	9e6c           	movi.n	a14, -23
    75b3:	f470e0        	extui	a7, a14, 0, 16
    75b6:	09d2f2        	addmi	a15, a2, 0x900
    75b9:	155f72        	s16i	a7, a15, 42
    75bc:	c07380        	sub	a7, a3, a8
    75bf:	085f82        	s16i	a8, a15, 16
    75c2:	095f72        	s16i	a7, a15, 18
    75c5:	2f9462        	l16si	a6, a4, 94
    75c8:	0a5f62        	s16i	a6, a15, 20
    75cb:	c06360        	sub	a6, a3, a6
    75ce:	0b5f62        	s16i	a6, a15, 22
    75d1:	309462        	l16si	a6, a4, 96
    75d4:	0c5f62        	s16i	a6, a15, 24
    75d7:	e345d1        	l32r	a13, 2ec (ee09 <ROOTS_512_Q16+0xb9>)
    75da:	c06360        	sub	a6, a3, a6
    75dd:	0d5f62        	s16i	a6, a15, 26
    75e0:	319462        	l16si	a6, a4, 98
    75e3:	0e5f62        	s16i	a6, a15, 28
    75e6:	c06360        	sub	a6, a3, a6
    75e9:	0f5f62        	s16i	a6, a15, 30
    75ec:	329462        	l16si	a6, a4, 100
    75ef:	1a52d2        	s16i	a13, a2, 52
    75f2:	105f62        	s16i	a6, a15, 32
    75f5:	c0e360        	sub	a14, a3, a6
    75f8:	115fe2        	s16i	a14, a15, 34
    75fb:	04b8           	l32i.n	a11, a4, 0
    75fd:	02b9           	s32i.n	a11, a2, 0
    75ff:	12d2a2        	addmi	a10, a2, 0x1200
    7602:	809482        	l16si	a8, a4, 0x100
    7605:	f7a3c2        	movi	a12, 0x3f7
    7608:	155a82        	s16i	a8, a10, 42
    760b:	118ce0        	slli	a8, a12, 2
    760e:	e30fd1        	l32r	a13, 24c (cf50 <ath_b45+0x10>)
    7611:	0558           	l32i.n	a5, a5, 0
    7613:	3b8a           	add.n	a3, a11, a8
    7615:	789482        	l16si	a8, a4, 240
    7618:	f7a192        	movi	a9, 0x1f7
    761b:	1179d0        	slli	a7, a9, 3
    761e:	55da           	add.n	a5, a5, a13
    7620:	12d262        	addmi	a6, a2, 0x1200
    7623:	e327f1        	l32r	a15, 2c0 (7fff0000 <_end+0x7ffe119c>)
    7626:	7b7a           	add.n	a7, a11, a7
    7628:	0558           	l32i.n	a5, a5, 0
    762a:	a80b           	addi.n	a10, a8, -1
    762c:	86f9           	s32i.n	a15, a6, 32
    762e:	96f9           	s32i.n	a15, a6, 36
    7630:	5679           	s32i.n	a7, a6, 20
    7632:	6639           	s32i.n	a3, a6, 24
    7634:	4659           	s32i.n	a5, a6, 16
    7636:	491c           	movi.n	a9, 20
    7638:	9a6d           	ae_zext16	a6, a10
    763a:	1e0c           	movi.n	a14, 1
    763c:	00a1f2        	movi	a15, 0x100
    763f:	625960        	saltu	a5, a9, a6
    7642:	cb0c           	movi.n	a11, 12
    7644:	1852e2        	s16i	a14, a2, 48
    7647:	1e0c           	movi.n	a14, 1
    7649:	1552f2        	s16i	a15, a2, 42
    764c:	83b850        	moveqz	a11, a8, a5
    764f:	12d2c2        	addmi	a12, a2, 0x1200
    7652:	a0a1d2        	movi	a13, 0x1a0
    7655:	eea0f2        	movi	a15, 238
    7658:	013e20        	slli	a3, a14, 30
    765b:	8022d0        	add	a2, a2, a13
    765e:	145cb2        	s16i	a11, a12, 40
    7661:	038f76        	loop	a15, 7668 <WB_NR_init+0x1b4>
    7664:	0239           	s32i.n	a3, a2, 0
    7666:	224b           	addi.n	a2, a2, 4
    7668:	f01d           	retw.n

0000766a <WB_NR_init+0x1b6>:
	...

0000766c <WB_RX_NR_init>:
    766c:	004136        	entry	a1, 32
    766f:	e26f51        	l32r	a5, 2c (ee5c <p_ecnr_mem>)
    7672:	0a0c           	movi.n	a10, 0
    7674:	03bd           	mov.n	a11, a3
    7676:	0529           	s32i.n	a2, a5, 0
    7678:	e31e21        	l32r	a2, 2f0 (7c0 <RX_ECNR_PARA_init>)
    767b:	04cd           	mov.n	a12, a4
    767d:	0002e0        	callx8	a2
    7680:	e26c21        	l32r	a2, 30 (ee50 <aec_nr_para>)
    7683:	0538           	l32i.n	a3, a5, 0
    7685:	cfa042        	movi	a4, 207
    7688:	0268           	l32i.n	a6, a2, 0
    768a:	114480        	slli	a4, a4, 8
    768d:	a34a           	add.n	a10, a3, a4
    768f:	34a1f2        	movi	a15, 0x134
    7692:	e2ed31        	l32r	a3, 248 (6048 <HP_coef_setup>)
    7695:	b6fa           	add.n	a11, a6, a15
    7697:	0003e0        	callx8	a3
    769a:	0538           	l32i.n	a3, a5, 0
    769c:	e31641        	l32r	a4, 2f4 (bcd0 <mel_tab26+0x200>)
    769f:	02c8           	l32i.n	a12, a2, 0
    76a1:	e31521        	l32r	a2, 2f8 (74b4 <WB_NR_init>)
    76a4:	a34a           	add.n	a10, a3, a4
    76a6:	0b0c           	movi.n	a11, 0
    76a8:	0002e0        	callx8	a2
    76ab:	f01d           	retw.n

000076ad <WB_RX_NR_init+0x41>:
    76ad:	000000                                        ...

000076b0 <WB_RX_NR_frame_process>:
    76b0:	004136        	entry	a1, 32
    76b3:	e25e31        	l32r	a3, 2c (ee5c <p_ecnr_mem>)
    76b6:	e30b51        	l32r	a5, 2e4 (cf34 <bc45+0x54>)
    76b9:	e30b61        	l32r	a6, 2e8 (cf38 <bc45+0x58>)
    76bc:	0348           	l32i.n	a4, a3, 0
    76be:	f0a0d2        	movi	a13, 240
    76c1:	02ad           	mov.n	a10, a2
    76c3:	b45a           	add.n	a11, a4, a5
    76c5:	c46a           	add.n	a12, a4, a6
    76c7:	e2f141        	l32r	a4, 28c (6484 <emph_filter_N>)
    76ca:	0004e0        	callx8	a4
    76cd:	0348           	l32i.n	a4, a3, 0
    76cf:	e2c961        	l32r	a6, 1f4 (cf54 <ath_b45+0x14>)
    76d2:	e30871        	l32r	a7, 2f4 (bcd0 <mel_tab26+0x200>)
    76d5:	02bd           	mov.n	a11, a2
    76d7:	646a           	add.n	a6, a4, a6
    76d9:	a47a           	add.n	a10, a4, a7
    76db:	06d8           	l32i.n	a13, a6, 0
    76dd:	e30741        	l32r	a4, 2fc (76fc <WB_NR_frame_process>)
    76e0:	02cd           	mov.n	a12, a2
    76e2:	0004e0        	callx8	a4
    76e5:	0338           	l32i.n	a3, a3, 0
    76e7:	e30641        	l32r	a4, 300 (cf3c <bc45+0x5c>)
    76ea:	f0a0d2        	movi	a13, 240
    76ed:	b35a           	add.n	a11, a3, a5
    76ef:	c34a           	add.n	a12, a3, a4
    76f1:	e2f731        	l32r	a3, 2d0 (64cc <deemph_filter_N>)
    76f4:	02ad           	mov.n	a10, a2
    76f6:	0003e0        	callx8	a3
    76f9:	f01d           	retw.n

000076fb <WB_RX_NR_frame_process+0x4b>:
	...

000076fc <WB_NR_frame_process>:
    76fc:	004136        	entry	a1, 32
    76ff:	e30161        	l32r	a6, 304 (7a68 <fft_wo>)
    7702:	02ad           	mov.n	a10, a2
    7704:	03bd           	mov.n	a11, a3
    7706:	0006e0        	callx8	a6
    7709:	e2ff31        	l32r	a3, 308 (7c00 <NR_vad1>)
    770c:	02ad           	mov.n	a10, a2
    770e:	0003e0        	callx8	a3
    7711:	e2fe31        	l32r	a3, 30c (7d38 <NR_vad2>)
    7714:	02ad           	mov.n	a10, a2
    7716:	0003e0        	callx8	a3
    7719:	e2fd31        	l32r	a3, 310 (7e88 <NR_NoiseEstimate>)
    771c:	02ad           	mov.n	a10, a2
    771e:	0003e0        	callx8	a3
    7721:	e2fc31        	l32r	a3, 314 (7fbc <NR_NoiseWithGain>)
    7724:	02ad           	mov.n	a10, a2
    7726:	0003e0        	callx8	a3
    7729:	e2fb31        	l32r	a3, 318 (8080 <NR_WienerFilter>)
    772c:	02ad           	mov.n	a10, a2
    772e:	0003e0        	callx8	a3
    7731:	e25831        	l32r	a3, 94 (90d0 <memset>)
    7734:	0b0c           	movi.n	a11, 0
    7736:	00a4c2        	movi	a12, 0x400
    7739:	05ad           	mov.n	a10, a5
    773b:	0003e0        	callx8	a3
    773e:	e2f731        	l32r	a3, 31c (8354 <ifft_wo>)
    7741:	02ad           	mov.n	a10, a2
    7743:	04bd           	mov.n	a11, a4
    7745:	05cd           	mov.n	a12, a5
    7747:	0003e0        	callx8	a3
    774a:	f01d           	retw.n

0000774c <WB_TX_NR_init>:
    774c:	004136        	entry	a1, 32
    774f:	f01d           	retw.n

00007751 <WB_TX_NR_init+0x5>:
    7751:	000000                                        ...

00007754 <WB_TX_NR_frame_process>:
    7754:	004136        	entry	a1, 32
    7757:	f01d           	retw.n

00007759 <WB_TX_NR_frame_process+0x5>:
    7759:	000000                                        ...

0000775c <NB_NR_init>:
    775c:	004136        	entry	a1, 32
    775f:	23a1c2        	movi	a12, 0x123
    7762:	e24561        	l32r	a6, 78 (90e4 <xt_memset>)
    7765:	11ccd0        	slli	a12, a12, 3
    7768:	0b0c           	movi.n	a11, 0
    776a:	02ad           	mov.n	a10, a2
    776c:	0006e0        	callx8	a6
    776f:	e23051        	l32r	a5, 30 (ee50 <aec_nr_para>)
    7772:	f37c           	movi.n	a3, -1
    7774:	113310        	slli	a3, a3, 15
    7777:	0578           	l32i.n	a7, a5, 0
    7779:	09d242        	addmi	a4, a2, 0x900
    777c:	3e97c2        	l16si	a12, a7, 124
    777f:	359792        	l16si	a9, a7, 106
    7782:	3f9782        	l16si	a8, a7, 126
    7785:	c0f3c0        	sub	a15, a3, a12
    7788:	3697a2        	l16si	a10, a7, 108
    778b:	3797b2        	l16si	a11, a7, 110
    778e:	3c97d2        	l16si	a13, a7, 120
    7791:	3d97e2        	l16si	a14, a7, 122
    7794:	1254c2        	s16i	a12, a4, 36
    7797:	1354f2        	s16i	a15, a4, 38
    779a:	025292        	s16i	a9, a2, 4
    779d:	12d2c2        	addmi	a12, a2, 0x1200
    77a0:	4f0c           	movi.n	a15, 4
    77a2:	105282        	s16i	a8, a2, 32
    77a5:	175ca2        	s16i	a10, a12, 46
    77a8:	1152a2        	s16i	a10, a2, 34
    77ab:	0352b2        	s16i	a11, a2, 6
    77ae:	165cd2        	s16i	a13, a12, 44
    77b1:	08c242        	addi	a4, a2, 8
    77b4:	70c782        	addi	a8, a7, 112
    77b7:	0e52d2        	s16i	a13, a2, 28
    77ba:	0f52e2        	s16i	a14, a2, 30
    77bd:	158f76        	loop	a15, 77d6 <NB_NR_init+0x7a>
    77c0:	289d           	ae_l16si.n	a9, a8, 0
    77c2:	882b           	addi.n	a8, a8, 2
    77c4:	74a890        	extui	a10, a9, 8, 8
    77c7:	749090        	extui	a9, a9, 0, 8
    77ca:	11aa90        	slli	a10, a10, 7
    77cd:	119990        	slli	a9, a9, 7
    77d0:	64ad           	ae_s16i.n	a10, a4, 0
    77d2:	749d           	ae_s16i.n	a9, a4, 2
    77d4:	444b           	addi.n	a4, a4, 4

000077d6 <NB_NR_init+0x7a>:
    77d6:	dfa082        	movi	a8, 223
    77d9:	1188c0        	slli	a8, a8, 4
    77dc:	f0a142        	movi	a4, 0x1f0
    77df:	80a092        	movi	a9, 128
    77e2:	474a           	add.n	a4, a7, a4
    77e4:	828a           	add.n	a8, a2, a8
    77e6:	078976        	loop	a9, 77f1 <NB_NR_init+0x95>
    77e9:	249d           	ae_l16si.n	a9, a4, 0
    77eb:	689d           	ae_s16i.n	a9, a8, 0
    77ed:	442b           	addi.n	a4, a4, 2
    77ef:	882b           	addi.n	a8, a8, 2
    77f1:	12d242        	addmi	a4, a2, 0x1200
    77f4:	e2cb81        	l32r	a8, 320 (b4d0 <win_rx_256_v3>)
    77f7:	7489           	s32i.n	a8, a4, 28
    77f9:	e20c41        	l32r	a4, 2c (ee5c <p_ecnr_mem>)
    77fc:	e2bab1        	l32r	a11, 2e4 (cf34 <bc45+0x54>)
    77ff:	320292        	l8ui	a9, a2, 50
    7802:	04c8           	l32i.n	a12, a4, 0
    7804:	e2b9d1        	l32r	a13, 2e8 (cf38 <bc45+0x58>)
    7807:	4097e2        	l16si	a14, a7, 128
    780a:	8cba           	add.n	a8, a12, a11
    780c:	1a0c           	movi.n	a10, 1
    780e:	68ed           	ae_s16i.n	a14, a8, 0
    7810:	2099a0        	or	a9, a9, a10
    7813:	4197f2        	l16si	a15, a7, 130
    7816:	acda           	add.n	a10, a12, a13
    7818:	0b0c           	movi.n	a11, 0
    781a:	6c0c           	movi.n	a12, 6
    781c:	324292        	s8i	a9, a2, 50
    781f:	78fd           	ae_s16i.n	a15, a8, 2
    7821:	0006e0        	callx8	a6
    7824:	7ca1b2        	movi	a11, 0x17c
    7827:	787c           	movi.n	a8, -9
    7829:	791c           	movi.n	a9, 23
    782b:	36c262        	addi	a6, a2, 54
    782e:	770c           	movi.n	a7, 7
    7830:	018850        	slli	a8, a8, 27
    7833:	119950        	slli	a9, a9, 11
    7836:	ca0c           	movi.n	a10, 12
    7838:	b2ba           	add.n	a11, a2, a11

0000783a <NB_NR_init+0xde>:
    783a:	06cd           	mov.n	a12, a6
    783c:	0b89           	s32i.n	a8, a11, 0
    783e:	038a76        	loop	a10, 7845 <NB_NR_init+0xe9>
    7841:	6c9d           	ae_s16i.n	a9, a12, 0
    7843:	cc2b           	addi.n	a12, a12, 2

00007845 <NB_NR_init+0xe9>:
    7845:	770b           	addi.n	a7, a7, -1
    7847:	18c662        	addi	a6, a6, 24
    784a:	bb4b           	addi.n	a11, a11, 4
    784c:	fea756        	bnez	a7, 783a <NB_NR_init+0xde>
    784f:	0558           	l32i.n	a5, a5, 0
    7851:	ffa762        	movi	a6, 0x7ff
    7854:	1166b0        	slli	a6, a6, 5
    7857:	2e95e2        	l16si	a14, a5, 92
    785a:	09d272        	addmi	a7, a2, 0x900
    785d:	9c6c           	movi.n	a12, -23
    785f:	175762        	s16i	a6, a7, 46
    7862:	f460c0        	extui	a6, a12, 0, 16
    7865:	155762        	s16i	a6, a7, 42
    7868:	c063e0        	sub	a6, a3, a14
    786b:	0857e2        	s16i	a14, a7, 16
    786e:	095762        	s16i	a6, a7, 18
    7871:	2f9562        	l16si	a6, a5, 94
    7874:	0a5762        	s16i	a6, a7, 20
    7877:	c06360        	sub	a6, a3, a6
    787a:	0b5762        	s16i	a6, a7, 22
    787d:	309562        	l16si	a6, a5, 96
    7880:	0c5762        	s16i	a6, a7, 24
    7883:	7d0c           	movi.n	a13, 7
    7885:	c06360        	sub	a6, a3, a6
    7888:	0d5762        	s16i	a6, a7, 26
    788b:	319562        	l16si	a6, a5, 98
    788e:	0e5762        	s16i	a6, a7, 28
    7891:	c06360        	sub	a6, a3, a6
    7894:	0f5762        	s16i	a6, a7, 30
    7897:	329562        	l16si	a6, a5, 100
    789a:	105762        	s16i	a6, a7, 32
    789d:	e28881        	l32r	a8, 2c0 (7fff0000 <_end+0x7ffe119c>)
    78a0:	c0c360        	sub	a12, a3, a6
    78a3:	78dd62        	addmi	a6, a13, 0x7800
    78a6:	1a5262        	s16i	a6, a2, 52
    78a9:	0558           	l32i.n	a5, a5, 0
    78ab:	0259           	s32i.n	a5, a2, 0
    78ad:	e267d1        	l32r	a13, 24c (cf50 <ath_b45+0x10>)
    78b0:	0448           	l32i.n	a4, a4, 0
    78b2:	12d292        	addmi	a9, a2, 0x1200
    78b5:	1157c2        	s16i	a12, a7, 34
    78b8:	1e0c           	movi.n	a14, 1
    78ba:	00a1f2        	movi	a15, 0x100
    78bd:	9989           	s32i.n	a8, a9, 36
    78bf:	f7a182        	movi	a8, 0x1f7
    78c2:	a0a1a2        	movi	a10, 0x1a0
    78c5:	f7a3b2        	movi	a11, 0x3f7
    78c8:	44da           	add.n	a4, a4, a13
    78ca:	1852e2        	s16i	a14, a2, 48
    78cd:	1552f2        	s16i	a15, a2, 42
    78d0:	1188d0        	slli	a8, a8, 3
    78d3:	32aa           	add.n	a3, a2, a10
    78d5:	112be0        	slli	a2, a11, 2
    78d8:	c58a           	add.n	a12, a5, a8
    78da:	552a           	add.n	a5, a5, a2
    78dc:	1e0c           	movi.n	a14, 1
    78de:	0448           	l32i.n	a4, a4, 0
    78e0:	78a0f2        	movi	a15, 120
    78e3:	012e20        	slli	a2, a14, 30
    78e6:	59c9           	s32i.n	a12, a9, 20
    78e8:	6959           	s32i.n	a5, a9, 24
    78ea:	046942        	s32i	a4, a9, 16
    78ed:	038f76        	loop	a15, 78f4 <NB_NR_init+0x198>
    78f0:	0329           	s32i.n	a2, a3, 0
    78f2:	334b           	addi.n	a3, a3, 4
    78f4:	f01d           	retw.n

000078f6 <NB_NR_init+0x19a>:
	...

000078f8 <NB_RX_NR_init>:
    78f8:	004136        	entry	a1, 32
    78fb:	e1cc51        	l32r	a5, 2c (ee5c <p_ecnr_mem>)
    78fe:	1a0c           	movi.n	a10, 1
    7900:	03bd           	mov.n	a11, a3
    7902:	0529           	s32i.n	a2, a5, 0
    7904:	e27b21        	l32r	a2, 2f0 (7c0 <RX_ECNR_PARA_init>)
    7907:	04cd           	mov.n	a12, a4
    7909:	0002e0        	callx8	a2
    790c:	e1c921        	l32r	a2, 30 (ee50 <aec_nr_para>)
    790f:	0538           	l32i.n	a3, a5, 0
    7911:	cfa042        	movi	a4, 207
    7914:	0228           	l32i.n	a2, a2, 0
    7916:	60a1f2        	movi	a15, 0x160
    7919:	114480        	slli	a4, a4, 8
    791c:	b2fa           	add.n	a11, a2, a15
    791e:	e24a21        	l32r	a2, 248 (6048 <HP_coef_setup>)
    7921:	a34a           	add.n	a10, a3, a4
    7923:	0002e0        	callx8	a2
    7926:	0528           	l32i.n	a2, a5, 0
    7928:	e27331        	l32r	a3, 2f4 (bcd0 <mel_tab26+0x200>)
    792b:	a23a           	add.n	a10, a2, a3
    792d:	e27d21        	l32r	a2, 324 (775c <NB_NR_init>)
    7930:	0002e0        	callx8	a2
    7933:	f01d           	retw.n

00007935 <NB_RX_NR_init+0x3d>:
    7935:	000000                                        ...

00007938 <NB_RX_NR_frame_process>:
    7938:	004136        	entry	a1, 32
    793b:	e1bc31        	l32r	a3, 2c (ee5c <p_ecnr_mem>)
    793e:	e26951        	l32r	a5, 2e4 (cf34 <bc45+0x54>)
    7941:	e26961        	l32r	a6, 2e8 (cf38 <bc45+0x58>)
    7944:	0348           	l32i.n	a4, a3, 0
    7946:	78a0d2        	movi	a13, 120
    7949:	02ad           	mov.n	a10, a2
    794b:	b45a           	add.n	a11, a4, a5
    794d:	c46a           	add.n	a12, a4, a6
    794f:	e24f41        	l32r	a4, 28c (6484 <emph_filter_N>)
    7952:	0004e0        	callx8	a4
    7955:	0348           	l32i.n	a4, a3, 0
    7957:	e22761        	l32r	a6, 1f4 (cf54 <ath_b45+0x14>)
    795a:	e26671        	l32r	a7, 2f4 (bcd0 <mel_tab26+0x200>)
    795d:	02bd           	mov.n	a11, a2
    795f:	646a           	add.n	a6, a4, a6
    7961:	a47a           	add.n	a10, a4, a7
    7963:	06d8           	l32i.n	a13, a6, 0
    7965:	e27041        	l32r	a4, 328 (7984 <NB_NR_frame_process>)
    7968:	02cd           	mov.n	a12, a2
    796a:	0004e0        	callx8	a4
    796d:	0338           	l32i.n	a3, a3, 0
    796f:	e26441        	l32r	a4, 300 (cf3c <bc45+0x5c>)
    7972:	78a0d2        	movi	a13, 120
    7975:	b35a           	add.n	a11, a3, a5
    7977:	c34a           	add.n	a12, a3, a4
    7979:	e25531        	l32r	a3, 2d0 (64cc <deemph_filter_N>)
    797c:	02ad           	mov.n	a10, a2
    797e:	0003e0        	callx8	a3
    7981:	f01d           	retw.n

00007983 <NB_RX_NR_frame_process+0x4b>:
	...

00007984 <NB_NR_frame_process>:
    7984:	004136        	entry	a1, 32
    7987:	e25f61        	l32r	a6, 304 (7a68 <fft_wo>)
    798a:	02ad           	mov.n	a10, a2
    798c:	03bd           	mov.n	a11, a3
    798e:	0006e0        	callx8	a6
    7991:	e25d31        	l32r	a3, 308 (7c00 <NR_vad1>)
    7994:	02ad           	mov.n	a10, a2
    7996:	0003e0        	callx8	a3
    7999:	e25c31        	l32r	a3, 30c (7d38 <NR_vad2>)
    799c:	02ad           	mov.n	a10, a2
    799e:	0003e0        	callx8	a3
    79a1:	e25b31        	l32r	a3, 310 (7e88 <NR_NoiseEstimate>)
    79a4:	02ad           	mov.n	a10, a2
    79a6:	0003e0        	callx8	a3
    79a9:	e25a31        	l32r	a3, 314 (7fbc <NR_NoiseWithGain>)
    79ac:	02ad           	mov.n	a10, a2
    79ae:	0003e0        	callx8	a3
    79b1:	e25931        	l32r	a3, 318 (8080 <NR_WienerFilter>)
    79b4:	02ad           	mov.n	a10, a2
    79b6:	0003e0        	callx8	a3
    79b9:	e1b631        	l32r	a3, 94 (90d0 <memset>)
    79bc:	0b0c           	movi.n	a11, 0
    79be:	00a4c2        	movi	a12, 0x400
    79c1:	05ad           	mov.n	a10, a5
    79c3:	0003e0        	callx8	a3
    79c6:	e25531        	l32r	a3, 31c (8354 <ifft_wo>)
    79c9:	02ad           	mov.n	a10, a2
    79cb:	04bd           	mov.n	a11, a4
    79cd:	05cd           	mov.n	a12, a5
    79cf:	0003e0        	callx8	a3
    79d2:	f01d           	retw.n

000079d4 <NB_NR_frame_process+0x50>:
    79d4:	00000000                                ....

000079d8 <take_min_four>:
    79d8:	004136        	entry	a1, 32
    79db:	224d           	ae_l16si.n	a4, a2, 0
    79dd:	5023a6        	blti	a3, 2, 7a31 <take_min_four+0x59>
    79e0:	ffa052        	movi	a5, 255
    79e3:	7fd552        	addmi	a5, a5, 0x7f00
    79e6:	630b           	addi.n	a6, a3, -1
    79e8:	222b           	addi.n	a2, a2, 2
    79ea:	048d           	mov.n	a8, a4
    79ec:	053d           	mov.n	a3, a5
    79ee:	207550        	or	a7, a5, a5
    79f1:	318676        	loop	a6, 7a26 <take_min_four+0x4e>
    79f4:	22ad           	ae_l16si.n	a10, a2, 0
    79f6:	086d           	mov.n	a6, a8
    79f8:	079d           	mov.n	a9, a7
    79fa:	0a4d           	mov.n	a4, a10
    79fc:	1c2a87        	blt	a10, a8, 7a1c <take_min_four+0x44>
    79ff:	084d           	mov.n	a4, a8
    7a01:	0a6d           	mov.n	a6, a10
    7a03:	079d           	mov.n	a9, a7
    7a05:	132a77        	blt	a10, a7, 7a1c <take_min_four+0x44>
    7a08:	084d           	mov.n	a4, a8
    7a0a:	076d           	mov.n	a6, a7
    7a0c:	0a9d           	mov.n	a9, a10
    7a0e:	0a2a37        	blt	a10, a3, 7a1c <take_min_four+0x44>
    7a11:	4355a0        	min	a5, a5, a10
    7a14:	039d           	mov.n	a9, a3
    7a16:	084d           	mov.n	a4, a8
    7a18:	076d           	mov.n	a6, a7
    7a1a:	053d           	mov.n	a3, a5

00007a1c <take_min_four+0x44>:
    7a1c:	035d           	mov.n	a5, a3
    7a1e:	222b           	addi.n	a2, a2, 2
    7a20:	093d           	mov.n	a3, a9
    7a22:	067d           	mov.n	a7, a6
    7a24:	048d           	mov.n	a8, a4

00007a26 <take_min_four+0x4e>:
    7a26:	249a           	add.n	a2, a4, a9
    7a28:	365a           	add.n	a3, a6, a5
    7a2a:	223a           	add.n	a2, a2, a3
    7a2c:	112220        	slli	a2, a2, 14
    7a2f:	f01d           	retw.n

00007a31 <take_min_four+0x59>:
    7a31:	ffa062        	movi	a6, 255
    7a34:	7fd662        	addmi	a6, a6, 0x7f00
    7a37:	069d           	mov.n	a9, a6
    7a39:	065d           	mov.n	a5, a6
    7a3b:	fff9c6        	j	7a26 <take_min_four+0x4e>

00007a3e <take_min_four+0x66>:
	...

00007a40 <equal_power>:
    7a40:	004136        	entry	a1, 32
    7a43:	c07450        	sub	a7, a4, a5
    7a46:	a34570        	movltz	a4, a5, a7
    7a49:	1416a6        	blti	a6, 1, 7a61 <equal_power+0x21>
    7a4c:	a33270        	movltz	a3, a2, a7
    7a4f:	605170        	abs	a5, a7
    7a52:	fcc322        	addi	a2, a3, -4
    7a55:	088676        	loop	a6, 7a61 <equal_power+0x21>
    7a58:	601214        	ae_lq32f.iu	aeq0, a2, 4
    7a5b:	3405a4        	ae_srlaq56	aeq0, aeq0, a5
    7a5e:	620204        	ae_sq32f.i	aeq0, a2, 0

00007a61 <equal_power+0x21>:
    7a61:	042d           	mov.n	a2, a4
    7a63:	f01d           	retw.n

00007a65 <equal_power+0x25>:
    7a65:	000000                                        ...

00007a68 <fft_wo>:
    7a68:	008136        	entry	a1, 64
    7a6b:	340282        	l8ui	a8, a2, 52
    7a6e:	f0a042        	movi	a4, 240
    7a71:	78a0c2        	movi	a12, 120
    7a74:	41a380        	srli	a10, a8, 3
    7a77:	93c4a0        	movnez	a12, a4, a10
    7a7a:	270c           	movi.n	a7, 2
    7a7c:	460c           	movi.n	a6, 4
    7a7e:	050c           	movi.n	a5, 0
    7a80:	9367a0        	movnez	a6, a7, a10
    7a83:	034d           	mov.n	a4, a3
    7a85:	098c76        	loop	a12, 7a92 <fft_wo+0x2a>
    7a88:	247d           	ae_l16si.n	a7, a4, 0
    7a8a:	442b           	addi.n	a4, a4, 2
    7a8c:	607170        	abs	a7, a7
    7a8f:	205750        	or	a5, a7, a5

00007a92 <fft_wo+0x2a>:
    7a92:	40e5b0        	nsa	a11, a5
    7a95:	e22591        	l32r	a9, 32c (e950 <fftorder_512_12b>)
    7a98:	1592d2        	l16si	a13, a2, 42
    7a9b:	1176f0        	slli	a7, a6, 1
    7a9e:	f0cb62        	addi	a6, a11, -16
    7aa1:	00a282        	movi	a8, 0x200
    7aa4:	00a142        	movi	a4, 0x100
    7aa7:	050c           	movi.n	a5, 0
    7aa9:	12d2e2        	addmi	a14, a2, 0x1200
    7aac:	9348a0        	movnez	a4, a8, a10
    7aaf:	7e88           	l32i.n	a8, a14, 28
    7ab1:	53e650        	max	a14, a6, a5
    7ab4:	02f8           	l32i.n	a15, a2, 0
    7ab6:	ffa062        	movi	a6, 255
    7ab9:	43ded0        	min	a13, a14, a13
    7abc:	b94b           	addi.n	a11, a9, 4
    7abe:	998b           	addi.n	a9, a9, 8
    7ac0:	61e9           	s32i.n	a14, a1, 24
    7ac2:	ffa0e2        	movi	a14, 255
    7ac5:	1166c0        	slli	a6, a6, 4
    7ac8:	939ba0        	movnez	a9, a11, a10
    7acb:	11aec0        	slli	a10, a14, 4
    7ace:	0316d4        	wur.ae_sar	a13
    7ad1:	450264        	ae_lp16x2f.x	aep0, a2, a6
    7ad4:	e2aa           	add.n	a14, a2, a10
    7ad6:	a0a4f0        	addx4	a10, a4, a15
    7ad9:	416240        	srli	a6, a4, 2
    7adc:	71d9           	s32i.n	a13, a1, 28
    7ade:	ba4b           	addi.n	a11, a10, 4
    7ae0:	f823ad180f 	{ ae_lp16x2f.i	aep1, a8, 0; ae_sllssp24s	aep0, aep0 }
    7ae5:	158676        	loop	a6, 7afe <fft_wo+0x96>
    7ae8:	e820adfe1f 	{ ae_lp16x2f.iu	aep7, a14, 4; ae_mulfp24s.hh	aeq0, aep0, aep1 }
    7aed:	eb21ed981f 	{ ae_lp16x2f.iu	aep1, a8, 4; ae_mulfp24s.ll	aeq3, aep0, aep1 }
    7af2:	f83fb84a5f 	{ ae_sq32f.x	aeq0, a10, a5; ae_sllssp24s	aep0, aep7 }
    7af7:	62bb54        	ae_sq32f.x	aeq3, a11, a5
    7afa:	295d           	ae_l16si.n	a5, a9, 0
    7afc:	997a           	add.n	a9, a9, a7
    7afe:	fc2483fbef 	{ movi	a14, 0x3fb; ae_zeroq56	aeq0 }
    7b03:	41f1c0        	srli	a15, a12, 1
    7b06:	11eee0        	slli	a14, a14, 2
    7b09:	f84215d6ff 	{ sub	a13, a6, a15; ae_truncp24q48x2	aep0, aeq0, aeq0 }
    7b0e:	e2ea           	add.n	a14, a2, a14
    7b10:	571da6        	blti	a13, 1, 7b6b <fft_wo+0x103>
    7b13:	4149           	s32i.n	a4, a1, 16
    7b15:	ffa042        	movi	a4, 255
    7b18:	0561f2        	s32i	a15, a1, 20
    7b1b:	90fc20        	addx2	a15, a12, a2
    7b1e:	11c4c0        	slli	a12, a4, 4
    7b21:	ffa042        	movi	a4, 255
    7b24:	1144c0        	slli	a4, a4, 4
    7b27:	80cfc0        	add	a12, a15, a12
    7b2a:	452f44        	ae_lp16x2f.x	aep2, a15, a4
    7b2d:	098d76        	loop	a13, 7b3a <fft_wo+0xd2>
    7b30:	fc4873ae1f 	{ ae_sp16x2f.iu	aep2, a14, 4; ae_abssp24s	aep1, aep2 }
    7b35:	dc202dac1f 	{ ae_lp16x2f.iu	aep2, a12, 4; ae_orp48	aep0, aep0, aep1 }
    7b3a:	51f8           	l32i.n	a15, a1, 20
    7b3c:	4498f4        	ae_lp16x2f.iu	aep1, a8, -4
    7b3f:	c066f0        	sub	a6, a6, a15
    7b42:	0020f0        	nop
    7b45:	1d8676        	loop	a6, 7b66 <fft_wo+0xfe>
    7b48:	f92bf3ae1f 	{ ae_sp16x2f.iu	aep2, a14, 4; ae_sllssp24s	aep3, aep2 }
    7b4d:	013154        	ae_mulfp24s.hl	aeq0, aep3, aep1
    7b50:	e92ded98ff 	{ ae_lp16x2f.iu	aep1, a8, -4; ae_mulfp24s.lh	aeq3, aep3, aep1 }
    7b55:	fe48384a5f 	{ ae_sq32f.x	aeq0, a10, a5; ae_abssp24s	aep4, aep2 }
    7b5a:	dc80387b5f 	{ ae_sq32f.x	aeq3, a11, a5; ae_orp48	aep0, aep0, aep4 }
    7b5f:	295d           	ae_l16si.n	a5, a9, 0
    7b61:	44ac14        	ae_lp16x2f.iu	aep2, a12, 4
    7b64:	997a           	add.n	a9, a9, a7
    7b66:	4148           	l32i.n	a4, a1, 16
    7b68:	000086        	j	7b6e <fft_wo+0x106>

00007b6b <fft_wo+0x103>:
    7b6b:	4498f4        	ae_lp16x2f.iu	aep1, a8, -4
    7b6e:	0086d4        	ae_cvta32p24.h	a6, aep0
    7b71:	000cd4        	ae_cvta32p24.l	a12, aep0
    7b74:	61d8           	l32i.n	a13, a1, 24
    7b76:	2066c0        	or	a6, a6, a12
    7b79:	40e660        	nsa	a6, a6
    7b7c:	436d60        	min	a6, a13, a6
    7b7f:	155262        	s16i	a6, a2, 42
    7b82:	440304        	ae_lp16x2f.i	aep0, a3, 0
    7b85:	188f76        	loop	a15, 7ba1 <fft_wo+0x139>
    7b88:	f923b38e1f 	{ ae_sp16x2f.iu	aep0, a14, 4; ae_sllssp24s	aep2, aep0 }
    7b8d:	ea28ad831f 	{ ae_lp16x2f.iu	aep0, a3, 4; ae_mulfp24s.hl	aeq0, aep2, aep1 }
    7b92:	e929ed98ff 	{ ae_lp16x2f.iu	aep1, a8, -4; ae_mulfp24s.lh	aeq3, aep2, aep1 }
    7b97:	628a54        	ae_sq32f.x	aeq0, a10, a5
    7b9a:	62bb54        	ae_sq32f.x	aeq3, a11, a5
    7b9d:	295d           	ae_l16si.n	a5, a9, 0
    7b9f:	997a           	add.n	a9, a9, a7

00007ba1 <fft_wo+0x139>:
    7ba1:	0258           	l32i.n	a5, a2, 0
    7ba3:	413140        	srli	a3, a4, 1
    7ba6:	8c0c           	movi.n	a12, 8
    7ba8:	a0a450        	addx4	a10, a4, a5
    7bab:	e18f41        	l32r	a4, 1e8 (8fc0 <sw_fft_32b_2811>)
    7bae:	1d0c           	movi.n	a13, 1
    7bb0:	0e0c           	movi.n	a14, 0
    7bb2:	03bd           	mov.n	a11, a3
    7bb4:	0004e0        	callx8	a4
    7bb7:	12d242        	addmi	a4, a2, 0x1200
    7bba:	7168           	l32i.n	a6, a1, 28
    7bbc:	0258           	l32i.n	a5, a2, 0
    7bbe:	042442        	l32i	a4, a4, 16
    7bc1:	c066a0        	sub	a6, a6, a10
    7bc4:	165262        	s16i	a6, a2, 44
    7bc7:	207550        	or	a7, a5, a5
    7bca:	f8c482        	addi	a8, a4, -8
    7bcd:	058376        	loop	a3, 7bd6 <fft_wo+0x16e>
    7bd0:	5c8714        	ae_lp24x2f.iu	aep0, a7, 8
    7bd3:	5e8814        	ae_sp24x2f.iu	aep0, a8, 8
    7bd6:	350272        	l8ui	a7, a2, 53
    7bd9:	1136f0        	slli	a3, a6, 1
    7bdc:	1d0c           	movi.n	a13, 1
    7bde:	09d2e2        	addmi	a14, a2, 0x900
    7be1:	c03d30        	sub	a3, a13, a3
    7be4:	f73b           	addi.n	a15, a7, 3
    7be6:	fcc522        	addi	a2, a5, -4
    7be9:	5c0404        	ae_lp24x2f.i	aep0, a4, 0
    7bec:	145e32        	s16i	a3, a14, 40
    7bef:	0a8f76        	loop	a15, 7bfd <fft_wo+0x195>
    7bf2:	f003af841f 	{ ae_lp24x2f.iu	aep0, a4, 8; ae_mulzaap24s.hh.ll	aeq0, aep0, aep0 }
    7bf7:	060834        	ae_roundsq32sym	aeq0, aeq0
    7bfa:	624214        	ae_sq32f.iu	aeq0, a2, 4
    7bfd:	f01d           	retw.n

00007bff <fft_wo+0x197>:
	...

00007c00 <NR_vad1>:
    7c00:	008136        	entry	a1, 64
    7c03:	3402a2        	l8ui	a10, a2, 52
    7c06:	85a492        	movi	a9, 0x485
    7c09:	02b8           	l32i.n	a11, a2, 0
    7c0b:	075a16        	beqz	a10, 7c84 <NR_vad1+0x84>
    7c0e:	e1c881        	l32r	a8, 330 (b050 <wb_sb_ptn>)
    7c11:	e1c861        	l32r	a6, 334 (b080 <nb_sb_ptn>)
    7c14:	1199e0        	slli	a9, a9, 2
    7c17:	4153a0        	srli	a5, a10, 3
    7c1a:	09d232        	addmi	a3, a2, 0x900
    7c1d:	f29a           	add.n	a15, a2, a9
    7c1f:	7139           	s32i.n	a3, a1, 28
    7c21:	12d242        	addmi	a4, a2, 0x1200
    7c24:	5129           	s32i.n	a2, a1, 20
    7c26:	61a9           	s32i.n	a10, a1, 24
    7c28:	113ae0        	slli	a3, a10, 2
    7c2b:	070c           	movi.n	a7, 0
    7c2d:	936850        	movnez	a6, a8, a5
    7c30:	0461f2        	s32i	a15, a1, 16
    7c33:	fd24bd0b3f 	{ ae_lq32f.i	aeq0, a11, 12; ae_zeroq56	aeq1 }
    7c38:	0ccb22        	addi	a2, a11, 12

00007c3b <NR_vad1+0x3b>:
    7c3b:	265d           	ae_l16si.n	a5, a6, 0
    7c3d:	368d           	ae_l16si.n	a8, a6, 2
    7c3f:	c05850        	sub	a5, a8, a5
    7c42:	0715a6        	blti	a5, 1, 7c4d <NR_vad1+0x4d>
    7c45:	048576        	loop	a5, 7c4d <NR_vad1+0x4d>
    7c48:	f96a3d121f 	{ ae_lq32f.iu	aeq0, a2, 4; ae_addq56	aeq1, aeq1, aeq0 }

00007c4d <NR_vad1+0x4d>:
    7c4d:	7188           	l32i.n	a8, a1, 28
    7c4f:	365504        	ae_nsaq56s	a5, aeq1
    7c52:	149882        	l16si	a8, a8, 40
    7c55:	f8c552        	addi	a5, a5, -8
    7c58:	fc24fe950f 	{ ae_slaasq56s	aeq0, aeq1, a5; nop }
    7c5d:	c0b850        	sub	a11, a8, a5
    7c60:	368a04        	ae_trunca32q48	a10, aeq0
    7c63:	e18651        	l32r	a5, 27c (8b4 <Log2_norm>)
    7c66:	0005e0        	callx8	a5
    7c69:	5458           	l32i.n	a5, a4, 20
    7c6b:	fd24bd020f 	{ ae_lq32f.i	aeq0, a2, 0; ae_zeroq56	aeq1 }
    7c70:	662b           	addi.n	a6, a6, 2
    7c72:	857a           	add.n	a8, a5, a7
    7c74:	774b           	addi.n	a7, a7, 4
    7c76:	08a9           	s32i.n	a10, a8, 0
    7c78:	bf9377        	bne	a3, a7, 7c3b <NR_vad1+0x3b>
    7c7b:	61a8           	l32i.n	a10, a1, 24
    7c7d:	5128           	l32i.n	a2, a1, 20
    7c7f:	41c8           	l32i.n	a12, a1, 16
    7c81:	000306        	j	7c91 <NR_vad1+0x91>

00007c84 <NR_vad1+0x84>:
    7c84:	12d232        	addmi	a3, a2, 0x1200
    7c87:	85a442        	movi	a4, 0x485
    7c8a:	5358           	l32i.n	a5, a3, 20
    7c8c:	1144e0        	slli	a4, a4, 2
    7c8f:	c24a           	add.n	a12, a2, a4
    7c91:	e1a961        	l32r	a6, 338 (ad30 <NR_immediate_num>)
    7c94:	072a16        	beqz	a10, 7d0a <NR_vad1+0x10a>
    7c97:	039232        	l16si	a3, a2, 6
    7c9a:	91a072        	movi	a7, 145
    7c9d:	45a282        	movi	a8, 0x245
    7ca0:	10a1b2        	movi	a11, 0x110
    7ca3:	30a142        	movi	a4, 0x130
    7ca6:	1177c0        	slli	a7, a7, 4
    7ca9:	1188e0        	slli	a8, a8, 2
    7cac:	113300        	slli	a3, a3, 16
    7caf:	360334        	ae_cvtq48a32s	aeq0, a3
    7cb2:	604504        	ae_lq32f.i	aeq1, a5, 0
    7cb5:	030c           	movi.n	a3, 0
    7cb7:	60bb24        	ae_lq32f.xu	aeq2, a11, a2
    7cba:	424a           	add.n	a4, a2, a4
    7cbc:	727a           	add.n	a7, a2, a7
    7cbe:	828a           	add.n	a8, a2, a8
    7cc0:	338a76        	loop	a10, 7cf7 <NR_vad1+0xf7>
    7cc3:	d6c813988f 	{ or	a9, a8, a8; ae_ltq56s	b0, aeq2, aeq1 }
    7cc8:	08ed           	mov.n	a14, a8
    7cca:	f36b           	addi.n	a15, a3, 6
    7ccc:	d39700        	movt	a9, a7, b0
    7ccf:	440904        	ae_lp16x2f.i	aep0, a9, 0
    7cd2:	c18064        	ae_mulzaafq32sp16s.lh	aeq2, aeq1, aep0, aeq2, aep0
    7cd5:	622b04        	ae_sq32f.i	aeq2, a11, 0
    7cd8:	60d414        	ae_lq32f.iu	aeq3, a4, 4
    7cdb:	09b104        	ae_ltq56s	b0, aeq1, aeq3
    7cde:	d3e700        	movt	a14, a7, b0
    7ce1:	447e04        	ae_lp16x2f.i	aep7, a14, 0
    7ce4:	c1ff74        	ae_mulzaafq32sp16s.lh	aeq3, aeq1, aep7, aeq3, aep7
    7ce7:	fab6f9b40f 	{ ae_sq32f.i	aeq3, a4, 0; ae_subq56	aeq2, aeq2, aeq3 }
    7cec:	d6503d351f 	{ ae_lq32f.iu	aeq1, a5, 4; ae_ltq56s	b0, aeq0, aeq2 }
    7cf1:	609b14        	ae_lq32f.iu	aeq2, a11, 4
    7cf4:	d33f00        	movt	a3, a15, b0

00007cf7 <NR_vad1+0xf7>:
    7cf7:	040c           	movi.n	a4, 0
    7cf9:	0c58           	l32i.n	a5, a12, 0
    7cfb:	f68b           	addi.n	a15, a6, 8
    7cfd:	723430        	salt	a3, a4, a3
    7d00:	66cb           	addi.n	a6, a6, 12
    7d02:	936f30        	movnez	a6, a15, a3
    7d05:	5acc           	bnez.n	a10, 7d0e <NR_vad1+0x10e>
    7d07:	000a86        	j	7d35 <NR_vad1+0x135>

00007d0a <NR_vad1+0x10a>:
    7d0a:	66cb           	addi.n	a6, a6, 12
    7d0c:	5aac           	beqz.n	a10, 7d35 <NR_vad1+0x135>
    7d0e:	109232        	l16si	a3, a2, 32
    7d11:	58a142        	movi	a4, 0x158
    7d14:	602244        	ae_lq32f.x	aeq0, a2, a4
    7d17:	113300        	slli	a3, a3, 16
    7d1a:	440604        	ae_lp16x2f.i	aep0, a6, 0
    7d1d:	608504        	ae_lq32f.i	aeq2, a5, 0
    7d20:	224a           	add.n	a2, a2, a4
    7d22:	364334        	ae_cvtq48a32s	aeq1, a3
    7d25:	0c8a76        	loop	a10, 7d35 <NR_vad1+0x135>
    7d28:	0f003d121f 	{ ae_lq32f.iu	aeq0, a2, 4; ae_mulzaafq32sp16s.lh	aeq2, aeq2, aep0, aeq0, aep0 }
    7d2d:	fb773d551f 	{ ae_lq32f.iu	aeq2, a5, 4; ae_maxq56s	aeq3, aeq1, aeq2 }
    7d32:	6232f4        	ae_sq32f.i	aeq3, a2, -4

00007d35 <NR_vad1+0x135>:
    7d35:	f01d           	retw.n

00007d37 <NR_vad1+0x137>:
	...

00007d38 <NR_vad2>:
    7d38:	008136        	entry	a1, 64
    7d3b:	181232        	l16ui	a3, a2, 48
    7d3e:	021242        	l16ui	a4, a2, 4
    7d41:	3402a2        	l8ui	a10, a2, 52
    7d44:	109252        	l16si	a5, a2, 32
    7d47:	719347        	bne	a3, a4, 7dbc <NR_vad2+0x84>
    7d4a:	040c           	movi.n	a4, 0
    7d4c:	185242        	s16i	a4, a2, 48
    7d4f:	71a9           	s32i.n	a10, a1, 28
    7d51:	053d           	mov.n	a3, a5
    7d53:	7aac           	beqz.n	a10, 7d7e <NR_vad2+0x46>
    7d55:	e17951        	l32r	a5, 33c (79d8 <take_min_four>)
    7d58:	7178           	l32i.n	a7, a1, 28
    7d5a:	08d342        	addmi	a4, a3, 0x800
    7d5d:	7ca182        	movi	a8, 0x17c
    7d60:	116400        	slli	a6, a4, 16
    7d63:	36c232        	addi	a3, a2, 54
    7d66:	428a           	add.n	a4, a2, a8

00007d68 <NR_vad2+0x30>:
    7d68:	cb0c           	movi.n	a11, 12
    7d6a:	03ad           	mov.n	a10, a3
    7d6c:	0005e0        	callx8	a5
    7d6f:	5386a0        	max	a8, a6, a10
    7d72:	770b           	addi.n	a7, a7, -1
    7d74:	0489           	s32i.n	a8, a4, 0
    7d76:	18c332        	addi	a3, a3, 24
    7d79:	444b           	addi.n	a4, a4, 4
    7d7b:	fe9756        	bnez	a7, 7d68 <NR_vad2+0x30>
    7d7e:	330232        	l8ui	a3, a2, 51
    7d81:	71a8           	l32i.n	a10, a1, 28
    7d83:	01c332        	addi	a3, a3, 1
    7d86:	744030        	extui	a4, a3, 0, 8
    7d89:	f4c442        	addi	a4, a4, -12
    7d8c:	934340        	movnez	a4, a3, a4
    7d8f:	58a132        	movi	a3, 0x158
    7d92:	603324        	ae_lq32f.xu	aeq0, a3, a2
    7d95:	334242        	s8i	a4, a2, 51
    7d98:	062a16        	beqz	a10, 7dfe <NR_vad2+0xc6>
    7d9b:	746040        	extui	a6, a4, 0, 8
    7d9e:	620154        	ae_sq32f.i	aeq0, a1, 20
    7da1:	90f620        	addx2	a15, a6, a2
    7da4:	604154        	ae_lq32f.i	aeq1, a1, 20
    7da7:	18a042        	movi	a4, 24
    7daa:	1ecf52        	addi	a5, a15, 30
    7dad:	078a76        	loop	a10, 7db8 <NR_vad2+0x80>
    7db0:	f8ebbd331f 	{ ae_lq32f.iu	aeq1, a3, 4; ae_roundsp16q48sym	aep0, aeq1 }
    7db5:	438544        	ae_sp16f.l.xu	aep0, a5, a4

00007db8 <NR_vad2+0x80>:
    7db8:	000a46        	j	7de5 <NR_vad2+0xad>

00007dbb <NR_vad2+0x83>:
	...

00007dbc <NR_vad2+0x84>:
    7dbc:	58a132        	movi	a3, 0x158
    7dbf:	603324        	ae_lq32f.xu	aeq0, a3, a2
    7dc2:	8abc           	beqz.n	a10, 7dfe <NR_vad2+0xc6>
    7dc4:	620164        	ae_sq32f.i	aeq0, a1, 24
    7dc7:	330252        	l8ui	a5, a2, 51
    7dca:	604164        	ae_lq32f.i	aeq1, a1, 24
    7dcd:	841c           	movi.n	a4, 24
    7dcf:	905520        	addx2	a5, a5, a2
    7dd2:	1ec552        	addi	a5, a5, 30
    7dd5:	0c8a76        	loop	a10, 7de5 <NR_vad2+0xad>
    7dd8:	f8ebda054f 	{ ae_lp16f.xu	aep0, a5, a4; ae_roundsp16q48sym	aep1, aeq1 }
    7ddd:	d822bd331f 	{ ae_lq32f.iu	aeq1, a3, 4; ae_minp24s	aep0, aep0, aep1 }
    7de2:	420504        	ae_sp16f.l.i	aep0, a5, 0

00007de5 <NR_vad2+0xad>:
    7de5:	189232        	l16si	a3, a2, 48
    7de8:	e15641        	l32r	a4, 340 (e38e4 <_end+0xd4a80>)
    7deb:	399444        	ae_movpa24x2	aep1, a4, a4
    7dee:	331b           	addi.n	a3, a3, 1
    7df0:	185232        	s16i	a3, a2, 48
    7df3:	0f8ab6        	bltui	a10, 8, 7e06 <NR_vad2+0xce>
    7df6:	e15331        	l32r	a3, 344 (b030 <wb_score_bands>)
    7df9:	000486        	j	7e0f <NR_vad2+0xd7>

00007dfc <NR_vad2+0xc4>:
	...

00007dfe <NR_vad2+0xc6>:
    7dfe:	189232        	l16si	a3, a2, 48
    7e01:	331b           	addi.n	a3, a3, 1
    7e03:	185232        	s16i	a3, a2, 48
    7e06:	e15031        	l32r	a3, 348 (124925 <_end+0x115ac1>)
    7e09:	399334        	ae_movpa24x2	aep1, a3, a3
    7e0c:	e15031        	l32r	a3, 34c (b070 <nb_score_bands>)
    7e0f:	fd2480625e 	{ addi	a5, a2, 6; ae_zeroq56	aeq1 }
    7e14:	fc208fe33e 	{ addi	a3, a3, -2; ae_zerop48	aep0 }
    7e19:	048a16        	beqz	a10, 7e65 <NR_vad2+0x12d>
    7e1c:	620144        	ae_sq32f.i	aeq0, a1, 16
    7e1f:	12d292        	addmi	a9, a2, 0x1200
    7e22:	69f8           	l32i.n	a15, a9, 24
    7e24:	7ca162        	movi	a6, 0x17c
    7e27:	58a182        	movi	a8, 0x158
    7e2a:	608144        	ae_lq32f.i	aeq2, a1, 16
    7e2d:	170c           	movi.n	a7, 1
    7e2f:	60f624        	ae_lq32f.xu	aeq3, a6, a2
    7e32:	828a           	add.n	a8, a2, a8
    7e34:	f8b6cfcf9e 	{ addi	a9, a15, -4; ae_subq56	aeq0, aeq2, aeq3 }
    7e39:	288a76        	loop	a10, 7e65 <NR_vad2+0x12d>
    7e3c:	40a514        	ae_lp16f.iu	aep2, a5, 2
    7e3f:	ff4c00004f 	{ movi	a4, 0; ae_cvtq48p24s.l	aeq3, aep2 }
    7e44:	d6c42ca31f 	{ ae_lp16f.iu	aep2, a3, 2; ae_ltq56s	b0, aeq3, aeq0 }
    7e49:	faa6d6470f 	{ movt	a4, a7, b0; ae_subq56	aeq2, aeq0, aeq3 }
    7e4e:	148c           	beqz.n	a4, 7e53 <NR_vad2+0x11b>
    7e50:	078204        	ae_addsp24s	aep0, aep0, aep2
    7e53:	f4c6fb20df 	{ ae_sraiq56	aeq3, aeq2, 1; ae_mulafq32sp24s.l	aeq1, aeq0, aep1 }
    7e58:	f9de3d581f 	{ ae_lq32f.iu	aeq2, a8, 4; ae_truncp24q48x2	aep2, aeq3, aeq3 }
    7e5d:	60d614        	ae_lq32f.iu	aeq3, a6, 4
    7e60:	f8b6f4a91f 	{ ae_sp24f.l.iu	aep2, a9, 4; ae_subq56	aeq0, aeq2, aeq3 }

00007e65 <NR_vad2+0x12d>:
    7e65:	409514        	ae_lp16f.iu	aep1, a5, 2
    7e68:	fc2c00004f 	{ movi	a4, 0; ae_cvtq48p24s.l	aeq0, aep1 }
    7e6d:	d64800015f 	{ movi	a5, 1; ae_ltq56s	b0, aeq0, aeq1 }
    7e72:	d34500        	movt	a4, a5, b0
    7e75:	448c           	beqz.n	a4, 7e7d <NR_vad2+0x145>
    7e77:	409314        	ae_lp16f.iu	aep1, a3, 2
    7e7a:	078104        	ae_addsp24s	aep0, aep0, aep1

00007e7d <NR_vad2+0x145>:
    7e7d:	2ec222        	addi	a2, a2, 46
    7e80:	420204        	ae_sp16f.l.i	aep0, a2, 0
    7e83:	f01d           	retw.n

00007e85 <NR_vad2+0x14d>:
    7e85:	000000                                        ...

00007e88 <NR_NoiseEstimate>:
    7e88:	004136        	entry	a1, 32
    7e8b:	0e9262        	l16si	a6, a2, 28
    7e8e:	0238           	l32i.n	a3, a2, 0
    7e90:	eea072        	movi	a7, 238
    7e93:	040c           	movi.n	a4, 0
    7e95:	08d352        	addmi	a5, a3, 0x800
    7e98:	1166c0        	slli	a6, a6, 4
    7e9b:	068776        	loop	a7, 7ea5 <NR_NoiseEstimate+0x1d>
    7e9e:	0569           	s32i.n	a6, a5, 0
    7ea0:	ee6542        	s32i	a4, a5, 0x3b8
    7ea3:	554b           	addi.n	a5, a5, 4

00007ea5 <NR_NoiseEstimate+0x1d>:
    7ea5:	171252        	l16ui	a5, a2, 46
    7ea8:	441c           	movi.n	a4, 20
    7eaa:	340262        	l8ui	a6, a2, 52
    7ead:	6a3457        	bltu	a4, a5, 7f1b <NR_NoiseEstimate+0x93>
    7eb0:	23a172        	movi	a7, 0x123
    7eb3:	064d           	mov.n	a4, a6
    7eb5:	0575f6        	bgeui	a5, 7, 7ebe <NR_NoiseEstimate+0x36>
    7eb8:	1157d0        	slli	a5, a7, 3
    7ebb:	000406        	j	7ecf <NR_NoiseEstimate+0x47>

00007ebe <NR_NoiseEstimate+0x36>:
    7ebe:	08b5f6        	bgeui	a5, 16, 7eca <NR_NoiseEstimate+0x42>
    7ec1:	47a252        	movi	a5, 0x247
    7ec4:	1155e0        	slli	a5, a5, 2
    7ec7:	000106        	j	7ecf <NR_NoiseEstimate+0x47>

00007eca <NR_NoiseEstimate+0x42>:
    7eca:	954c           	movi.n	a5, 73
    7ecc:	1155b0        	slli	a5, a5, 5
    7ecf:	525a           	add.n	a5, a2, a5
    7ed1:	046416        	beqz	a4, 7f1b <NR_NoiseEstimate+0x93>
    7ed4:	12d282        	addmi	a8, a2, 0x1200
    7ed7:	77a192        	movi	a9, 0x177
    7eda:	0558           	l32i.n	a5, a5, 0
    7edc:	e11571        	l32r	a7, 330 (b050 <wb_sb_ptn>)
    7edf:	6888           	l32i.n	a8, a8, 24
    7ee1:	1199d0        	slli	a9, a9, 3
    7ee4:	060c           	movi.n	a6, 0
    7ee6:	939a           	add.n	a9, a3, a9
    7ee8:	0007c6        	j	7f0b <NR_NoiseEstimate+0x83>

00007eeb <NR_NoiseEstimate+0x63>:
    7eeb:	661b           	addi.n	a6, a6, 1
    7eed:	90b670        	addx2	a11, a6, a7
    7ef0:	2cad           	ae_l16si.n	a10, a12, 0
    7ef2:	2bbd           	ae_l16si.n	a11, a11, 0
    7ef4:	10aab7        	bge	a10, a11, 7f08 <NR_NoiseEstimate+0x80>
    7ef7:	c0bba0        	sub	a11, a11, a10
    7efa:	a0aa90        	addx4	a10, a10, a9
    7efd:	078b76        	loop	a11, 7f08 <NR_NoiseEstimate+0x80>
    7f00:	0ab8           	l32i.n	a11, a10, 0
    7f02:	bb5a           	add.n	a11, a11, a5
    7f04:	0ab9           	s32i.n	a11, a10, 0
    7f06:	aa4b           	addi.n	a10, a10, 4

00007f08 <NR_NoiseEstimate+0x80>:
    7f08:	0f1647        	beq	a6, a4, 7f1b <NR_NoiseEstimate+0x93>

00007f0b <NR_NoiseEstimate+0x83>:
    7f0b:	a0a680        	addx4	a10, a6, a8
    7f0e:	0aa8           	l32i.n	a10, a10, 0
    7f10:	90c670        	addx2	a12, a6, a7
    7f13:	d41aa6        	blti	a10, 1, 7eeb <NR_NoiseEstimate+0x63>
    7f16:	661b           	addi.n	a6, a6, 1
    7f18:	fffb06        	j	7f08 <NR_NoiseEstimate+0x80>

00007f1b <NR_NoiseEstimate+0x93>:
    7f1b:	09d252        	addmi	a5, a2, 0x900
    7f1e:	149582        	l16si	a8, a5, 40
    7f21:	159592        	l16si	a9, a5, 42
    7f24:	350242        	l8ui	a4, a2, 53
    7f27:	987d           	ae_zext16	a7, a8
    7f29:	99ad           	ae_zext16	a10, a9
    7f2b:	63cb           	addi.n	a6, a3, 12
    7f2d:	2717a7        	beq	a7, a10, 7f58 <NR_NoiseEstimate+0xd0>
    7f30:	c09890        	sub	a9, a8, a9
    7f33:	a37a90        	movltz	a7, a10, a9
    7f36:	849c           	beqz.n	a4, 7f52 <NR_NoiseEstimate+0xca>
    7f38:	a0a1a2        	movi	a10, 0x1a0
    7f3b:	a2aa           	add.n	a10, a2, a10
    7f3d:	a3a690        	movltz	a10, a6, a9
    7f40:	608190        	abs	a8, a9
    7f43:	fcca92        	addi	a9, a10, -4
    7f46:	088476        	loop	a4, 7f52 <NR_NoiseEstimate+0xca>
    7f49:	601914        	ae_lq32f.iu	aeq0, a9, 4
    7f4c:	3408a4        	ae_srlaq56	aeq0, aeq0, a8
    7f4f:	620904        	ae_sq32f.i	aeq0, a9, 0

00007f52 <NR_NoiseEstimate+0xca>:
    7f52:	155572        	s16i	a7, a5, 42
    7f55:	145572        	s16i	a7, a5, 40

00007f58 <NR_NoiseEstimate+0xd0>:
    7f58:	fc2482ed7f 	{ movi	a7, 0x2ed; ae_zeroq56	aeq0 }
    7f5d:	e4ac           	beqz.n	a4, 7f8f <NR_NoiseEstimate+0x107>
    7f5f:	1177e0        	slli	a7, a7, 2
    7f62:	9ca1f2        	movi	a15, 0x19c
    7f65:	604334        	ae_lq32f.i	aeq1, a3, 12
    7f68:	337a           	add.n	a3, a3, a7
    7f6a:	8072f0        	add	a7, a2, a15
    7f6d:	1e8476        	loop	a4, 7f8f <NR_NoiseEstimate+0x107>
    7f70:	448314        	ae_lp16x2f.iu	aep0, a3, 4
    7f73:	438d           	ae_l16ui.n	a8, a3, 0
    7f75:	609714        	ae_lq32f.iu	aeq2, a7, 4
    7f78:	c18894        	ae_mulzaafq32sp16s.lh	aeq3, aeq2, aep0, aeq1, aep0
    7f7b:	988c           	beqz.n	a8, 7f88 <NR_NoiseEstimate+0x100>
    7f7d:	f87b3d361f 	{ ae_lq32f.iu	aeq1, a6, 4; ae_maxq56s	aeq0, aeq0, aeq3 }
    7f82:	623704        	ae_sq32f.i	aeq3, a7, 0
    7f85:	000106        	j	7f8d <NR_NoiseEstimate+0x105>

00007f88 <NR_NoiseEstimate+0x100>:
    7f88:	f8733d361f 	{ ae_lq32f.iu	aeq1, a6, 4; ae_maxq56s	aeq0, aeq0, aeq2 }
    7f8d:	f03d           	nop.n

00007f8f <NR_NoiseEstimate+0x107>:
    7f8f:	364304        	ae_nsaq56s	a3, aeq0
    7f92:	960c           	movi.n	a6, 9
    7f94:	a0a172        	movi	a7, 0x1a0
    7f97:	1e2367        	blt	a3, a6, 7fb9 <NR_NoiseEstimate+0x131>
    7f9a:	159562        	l16si	a6, a5, 42
    7f9d:	f8c332        	addi	a3, a3, -8
    7fa0:	227a           	add.n	a2, a2, a7
    7fa2:	c06630        	sub	a6, a6, a3
    7fa5:	155562        	s16i	a6, a5, 42
    7fa8:	d48c           	beqz.n	a4, 7fb9 <NR_NoiseEstimate+0x131>
    7faa:	401300        	ssl	a3
    7fad:	088476        	loop	a4, 7fb9 <NR_NoiseEstimate+0x131>
    7fb0:	0238           	l32i.n	a3, a2, 0
    7fb2:	a13300        	sll	a3, a3
    7fb5:	0239           	s32i.n	a3, a2, 0
    7fb7:	224b           	addi.n	a2, a2, 4
    7fb9:	f01d           	retw.n

00007fbb <NR_NoiseEstimate+0x133>:
	...

00007fbc <NR_NoiseWithGain>:
    7fbc:	004136        	entry	a1, 32
    7fbf:	171252        	l16ui	a5, a2, 46
    7fc2:	0238           	l32i.n	a3, a2, 0
    7fc4:	340242        	l8ui	a4, a2, 52
    7fc7:	5f75b6        	bltui	a5, 7, 802a <NR_NoiseWithGain+0x6e>
    7fca:	0f9262        	l16si	a6, a2, 30
    7fcd:	059416        	beqz	a4, 802a <NR_NoiseWithGain+0x6e>
    7fd0:	571c           	movi.n	a7, 21
    7fd2:	12d282        	addmi	a8, a2, 0x1200
    7fd5:	f61b           	addi.n	a15, a6, 1
    7fd7:	625570        	saltu	a5, a5, a7
    7fda:	4171f0        	srli	a7, a15, 1
    7fdd:	40d792        	addmi	a9, a7, 0x4000
    7fe0:	6878           	l32i.n	a7, a8, 24
    7fe2:	e0d381        	l32r	a8, 330 (b050 <wb_sb_ptn>)
    7fe5:	839650        	moveqz	a9, a6, a5
    7fe8:	08d352        	addmi	a5, a3, 0x800
    7feb:	060c           	movi.n	a6, 0
    7fed:	300994        	ae_cvtp24a16x2.ll	aep0, a9, a9

00007ff0 <NR_NoiseWithGain+0x34>:
    7ff0:	a09670        	addx4	a9, a6, a7
    7ff3:	0998           	l32i.n	a9, a9, 0
    7ff5:	90b680        	addx2	a11, a6, a8
    7ff8:	2919a6        	blti	a9, 1, 8025 <NR_NoiseWithGain+0x69>
    7ffb:	01c662        	addi	a6, a6, 1
    7ffe:	90a680        	addx2	a10, a6, a8
    8001:	2b9d           	ae_l16si.n	a9, a11, 0
    8003:	2aad           	ae_l16si.n	a10, a10, 0
    8005:	a0b950        	addx4	a11, a9, a5
    8008:	13a9a7        	bge	a9, a10, 801f <NR_NoiseWithGain+0x63>
    800b:	c0aa90        	sub	a10, a10, a9
    800e:	fccb92        	addi	a9, a11, -4
    8011:	0a8a76        	loop	a10, 801f <NR_NoiseWithGain+0x63>
    8014:	601914        	ae_lq32f.iu	aeq0, a9, 4
    8017:	030214        	ae_mulfq32sp16s.l	aeq0, aeq0, aep0
    801a:	368a04        	ae_trunca32q48	a10, aeq0
    801d:	09a9           	s32i.n	a10, a9, 0

0000801f <NR_NoiseWithGain+0x63>:
    801f:	cd9647        	bne	a6, a4, 7ff0 <NR_NoiseWithGain+0x34>
    8022:	000106        	j	802a <NR_NoiseWithGain+0x6e>

00008025 <NR_NoiseWithGain+0x69>:
    8025:	661b           	addi.n	a6, a6, 1
    8027:	fffd06        	j	801f <NR_NoiseWithGain+0x63>

0000802a <NR_NoiseWithGain+0x6e>:
    802a:	09d242        	addmi	a4, a2, 0x900
    802d:	159462        	l16si	a6, a4, 42
    8030:	350252        	l8ui	a5, a2, 53
    8033:	a0a182        	movi	a8, 0x1a0
    8036:	666b           	addi.n	a6, a6, 6
    8038:	165462        	s16i	a6, a4, 44
    803b:	c59c           	beqz.n	a5, 805b <NR_NoiseWithGain+0x9f>
    803d:	08d342        	addmi	a4, a3, 0x800
    8040:	fca772        	movi	a7, 0x7fc
    8043:	602284        	ae_lq32f.x	aeq0, a2, a8
    8046:	228a           	add.n	a2, a2, a8
    8048:	4c0404        	ae_lp24.i	aep0, a4, 0
    804b:	337a           	add.n	a3, a3, a7
    804d:	0a8576        	loop	a5, 805b <NR_NoiseWithGain+0x9f>
    8050:	f8e071841f 	{ ae_lp24.iu	aep0, a4, 4; ae_mulrfq32sp24s.l	aeq1, aeq0, aep0 }
    8055:	601214        	ae_lq32f.iu	aeq0, a2, 4
    8058:	625314        	ae_sq32f.iu	aeq1, a3, 4

0000805b <NR_NoiseWithGain+0x9f>:
    805b:	f01d           	retw.n

0000805d <NR_NoiseWithGain+0xa1>:
    805d:	000000                                        ...

00008060 <common_gain_limiter>:
    8060:	004136        	entry	a1, 32
    8063:	025d           	mov.n	a5, a2
    8065:	032d           	mov.n	a2, a3
    8067:	1015a6        	blti	a5, 1, 807b <common_gain_limiter+0x1b>
    806a:	378444        	ae_truncp24a32x2	aep0, a4, a4
    806d:	401204        	ae_lp16f.i	aep1, a2, 0
    8070:	078576        	loop	a5, 807b <common_gain_limiter+0x1b>
    8073:	d9222c922f 	{ ae_lp16f.iu	aep1, a2, 4; ae_maxp24s	aep2, aep0, aep1 }
    8078:	5222f4        	ae_sp24f.l.i	aep2, a2, -4

0000807b <common_gain_limiter+0x1b>:
    807b:	f01d           	retw.n

0000807d <common_gain_limiter+0x1d>:
    807d:	000000                                        ...

00008080 <NR_WienerFilter>:
    8080:	008136        	entry	a1, 64
    8083:	09d2c2        	addmi	a12, a2, 0x900
    8086:	141c52        	l16ui	a5, a12, 40
    8089:	0278           	l32i.n	a7, a2, 0
    808b:	179c92        	l16si	a9, a12, 46
    808e:	09d2b2        	addmi	a11, a2, 0x900
    8091:	169c42        	l16si	a4, a12, 44
    8094:	09d282        	addmi	a8, a2, 0x900
    8097:	85ad           	ae_sext16	a10, a5
    8099:	58a532        	movi	a3, 0x558
    809c:	5369a0        	max	a6, a9, a10
    809f:	f7cb           	addi.n	a15, a7, 12
    80a1:	d23a           	add.n	a13, a2, a3
    80a3:	51b9           	s32i.n	a11, a1, 20
    80a5:	71c9           	s32i.n	a12, a1, 28
    80a7:	723640        	salt	a3, a6, a4
    80aa:	53b640        	max	a11, a6, a4
    80ad:	0fcd           	mov.n	a12, a15
    80af:	72ea90        	salt	a14, a10, a9
    80b2:	350262        	l8ui	a6, a2, 53
    80b5:	41a9           	s32i.n	a10, a1, 16
    80b7:	93cde0        	movnez	a12, a13, a14
    80ba:	08d7a2        	addmi	a10, a7, 0x800
    80bd:	9bed           	ae_zext16	a14, a11
    80bf:	93ca30        	movnez	a12, a10, a3
    80c2:	6199           	s32i.n	a9, a1, 24
    80c4:	221e57        	beq	a14, a5, 80ea <NR_WienerFilter+0x6a>
    80c7:	6198           	l32i.n	a9, a1, 24
    80c9:	d69c           	beqz.n	a6, 80ea <NR_WienerFilter+0x6a>
    80cb:	4138           	l32i.n	a3, a1, 16
    80cd:	c03b30        	sub	a3, a11, a3
    80d0:	a3fc30        	movltz	a15, a12, a3
    80d3:	604130        	abs	a4, a3
    80d6:	fccff2        	addi	a15, a15, -4
    80d9:	088676        	loop	a6, 80e5 <NR_WienerFilter+0x65>
    80dc:	601f14        	ae_lq32f.iu	aeq0, a15, 4
    80df:	3404a4        	ae_srlaq56	aeq0, aeq0, a4
    80e2:	620f04        	ae_sq32f.i	aeq0, a15, 0

000080e5 <NR_WienerFilter+0x65>:
    80e5:	5138           	l32i.n	a3, a1, 20
    80e7:	171392        	l16ui	a9, a3, 46

000080ea <NR_WienerFilter+0x6a>:
    80ea:	993d           	ae_zext16	a3, a9
    80ec:	1b1e37        	beq	a14, a3, 810b <NR_WienerFilter+0x8b>
    80ef:	869c           	beqz.n	a6, 810b <NR_WienerFilter+0x8b>
    80f1:	893d           	ae_sext16	a3, a9
    80f3:	c03b30        	sub	a3, a11, a3
    80f6:	a3dc30        	movltz	a13, a12, a3
    80f9:	604130        	abs	a4, a3
    80fc:	fccdd2        	addi	a13, a13, -4
    80ff:	088676        	loop	a6, 810b <NR_WienerFilter+0x8b>
    8102:	601d14        	ae_lq32f.iu	aeq0, a13, 4
    8105:	3404a4        	ae_srlaq56	aeq0, aeq0, a4
    8108:	620d04        	ae_sq32f.i	aeq0, a13, 0

0000810b <NR_WienerFilter+0x8b>:
    810b:	161842        	l16ui	a4, a8, 44
    810e:	5158           	l32i.n	a5, a1, 20
    8110:	1d1e47        	beq	a14, a4, 8131 <NR_WienerFilter+0xb1>
    8113:	a69c           	beqz.n	a6, 8131 <NR_WienerFilter+0xb1>
    8115:	843d           	ae_sext16	a3, a4
    8117:	c03b30        	sub	a3, a11, a3
    811a:	b3ca30        	movgez	a12, a10, a3
    811d:	604130        	abs	a4, a3
    8120:	fcccc2        	addi	a12, a12, -4
    8123:	f03d           	nop.n
    8125:	088676        	loop	a6, 8131 <NR_WienerFilter+0xb1>
    8128:	601c14        	ae_lq32f.iu	aeq0, a12, 4
    812b:	3404a4        	ae_srlaq56	aeq0, aeq0, a4
    812e:	620c04        	ae_sq32f.i	aeq0, a12, 0
    8131:	7138           	l32i.n	a3, a1, 28
    8133:	58a592        	movi	a9, 0x558
    8136:	1658b2        	s16i	a11, a8, 44
    8139:	1453b2        	s16i	a11, a3, 40
    813c:	1755b2        	s16i	a11, a5, 46
    813f:	778b           	addi.n	a7, a7, 8
    8141:	829a           	add.n	a8, a2, a9
    8143:	11a616        	beqz	a6, 8261 <NR_WienerFilter+0x1e1>
    8146:	49a232        	movi	a3, 0x249
    8149:	ffa0d2        	movi	a13, 255
    814c:	1133e0        	slli	a3, a3, 2
    814f:	1f0c           	movi.n	a15, 1
    8151:	606294        	ae_lq32f.x	aeq1, a2, a9
    8154:	119f10        	slli	a9, a15, 15
    8157:	600a04        	ae_lq32f.i	aeq0, a10, 0
    815a:	7fddd2        	addmi	a13, a13, 0x7f00
    815d:	07ed           	mov.n	a14, a7
    815f:	f96a1b023f 	{ ae_lp16x2f.x	aep0, a2, a3; ae_addq56	aeq1, aeq1, aeq0 }
    8164:	08fd           	mov.n	a15, a8
    8166:	3a8676        	loop	a6, 81a4 <NR_WienerFilter+0x124>
    8169:	609e14        	ae_lq32f.iu	aeq2, a14, 4
    816c:	0e00ff03af 	{ ae_nsaq56s	a3, aeq0; ae_mulzaafq32sp16s.lh	aeq1, aeq2, aep0, aeq1, aep0 }
    8171:	09cd           	mov.n	a12, a9
    8173:	365404        	ae_nsaq56s	a4, aeq1
    8176:	434340        	min	a4, a3, a4
    8179:	e9c432        	addi	a3, a4, -23
    817c:	fc24fe934f 	{ ae_slaasq56s	aeq1, aeq1, a3; nop }
    8181:	369b04        	ae_trunca32q48	a11, aeq1
    8184:	38c432        	addi	a3, a4, 56
    8187:	340394        	ae_sllaq56	aeq0, aeq0, a3
    818a:	4b8c           	beqz.n	a11, 8192 <NR_WienerFilter+0x112>
    818c:	368304        	ae_trunca32q48	a3, aeq0
    818f:	d2c3b0        	quos	a12, a3, a11

00008192 <NR_WienerFilter+0x112>:
    8192:	0f4d           	mov.n	a4, a15
    8194:	c03dc0        	sub	a3, a13, a12
    8197:	605414        	ae_lq32f.iu	aeq1, a4, 4
    819a:	601a14        	ae_lq32f.iu	aeq0, a10, 4
    819d:	f96a140f3f 	{ s32i.n	a3, a15, 0; ae_addq56	aeq1, aeq1, aeq0 }
    81a2:	04fd           	mov.n	a15, a4

000081a4 <NR_WienerFilter+0x124>:
    81a4:	79a032        	movi	a3, 121
    81a7:	22c2a2        	addi	a10, a2, 34
    81aa:	02b637        	bgeu	a6, a3, 81b0 <NR_WienerFilter+0x130>
    81ad:	002f06        	j	826d <NR_WienerFilter+0x1ed>
    81b0:	12d2d2        	addmi	a13, a2, 0x1200
    81b3:	149de2        	l16si	a14, a13, 40
    81b6:	08cd           	mov.n	a12, a8
    81b8:	58a592        	movi	a9, 0x558
    81bb:	261ea6        	blti	a14, 1, 81e5 <NR_WienerFilter+0x165>
    81be:	89a432        	movi	a3, 0x489
    81c1:	1133e0        	slli	a3, a3, 2
    81c4:	400a04        	ae_lp16f.i	aep0, a10, 0
    81c7:	602234        	ae_lq32f.x	aeq0, a2, a3
    81ca:	d4e219929f 	{ ae_lp16f.x	aep1, a2, a9; ae_mulfq32sp16s.l	aeq0, aeq0, aep0 }
    81cf:	08cd           	mov.n	a12, a8
    81d1:	368f04        	ae_trunca32q48	a15, aeq0
    81d4:	378ff4        	ae_truncp24a32x2	aep0, a15, a15
    81d7:	078e76        	loop	a14, 81e2 <NR_WienerFilter+0x162>
    81da:	d9222c9c2f 	{ ae_lp16f.iu	aep1, a12, 4; ae_maxp24s	aep2, aep0, aep1 }
    81df:	522cf4        	ae_sp24f.l.i	aep2, a12, -4
    81e2:	149de2        	l16si	a14, a13, 40

000081e5 <NR_WienerFilter+0x165>:
    81e5:	12d2b2        	addmi	a11, a2, 0x1200
    81e8:	119232        	l16si	a3, a2, 34
    81eb:	159b42        	l16si	a4, a11, 42
    81ee:	113300        	slli	a3, a3, 16
    81f1:	c0d4e0        	sub	a13, a4, a14
    81f4:	378334        	ae_truncp24a32x2	aep0, a3, a3
    81f7:	101da6        	blti	a13, 1, 820b <NR_WienerFilter+0x18b>
    81fa:	401c04        	ae_lp16f.i	aep1, a12, 0
    81fd:	078d76        	loop	a13, 8208 <NR_WienerFilter+0x188>
    8200:	d9222c9c2f 	{ ae_lp16f.iu	aep1, a12, 4; ae_maxp24s	aep2, aep0, aep1 }
    8205:	522cf4        	ae_sp24f.l.i	aep2, a12, -4

00008208 <NR_WienerFilter+0x188>:
    8208:	159b42        	l16si	a4, a11, 42

0000820b <NR_WienerFilter+0x18b>:
    820b:	e049d1        	l32r	a13, 330 (b050 <wb_sb_ptn>)
    820e:	91a0b2        	movi	a11, 145
    8211:	11bbb0        	slli	a11, a11, 5
    8214:	603b24        	ae_lq32f.xu	aeq0, a11, a2
    8217:	d4e2208dee 	{ l16si	a14, a13, 16; ae_mulfq32sp16s.l	aeq0, aeq0, aep0 }
    821c:	368304        	ae_trunca32q48	a3, aeq0
    821f:	c04e40        	sub	a4, a14, a4
    8222:	378334        	ae_truncp24a32x2	aep0, a3, a3
    8225:	1214a6        	blti	a4, 1, 823b <NR_WienerFilter+0x1bb>
    8228:	401c04        	ae_lp16f.i	aep1, a12, 0
    822b:	f03d           	nop.n
    822d:	078476        	loop	a4, 8238 <NR_WienerFilter+0x1b8>
    8230:	d9222c9c2f 	{ ae_lp16f.iu	aep1, a12, 4; ae_maxp24s	aep2, aep0, aep1 }
    8235:	522cf4        	ae_sp24f.l.i	aep2, a12, -4

00008238 <NR_WienerFilter+0x1b8>:
    8238:	089de2        	l16si	a14, a13, 16

0000823b <NR_WienerFilter+0x1bb>:
    823b:	501b04        	ae_lp24f.i	aep1, a11, 0
    823e:	ea219546ef 	{ sub	a4, a6, a14; ae_mulfp24s.ll	aeq0, aep0, aep1 }
    8243:	368b04        	ae_trunca32q48	a11, aeq0
    8246:	3e14a6        	blti	a4, 1, 8288 <NR_WienerFilter+0x208>
    8249:	378bb4        	ae_truncp24a32x2	aep0, a11, a11
    824c:	401c04        	ae_lp16f.i	aep1, a12, 0
    824f:	078476        	loop	a4, 825a <NR_WienerFilter+0x1da>
    8252:	d9222c9c2f 	{ ae_lp16f.iu	aep1, a12, 4; ae_maxp24s	aep2, aep0, aep1 }
    8257:	522cf4        	ae_sp24f.l.i	aep2, a12, -4

0000825a <NR_WienerFilter+0x1da>:
    825a:	000a86        	j	8288 <NR_WienerFilter+0x208>

0000825d <NR_WienerFilter+0x1dd>:
    825d:	00000000                                ....

00008261 <NR_WienerFilter+0x1e1>:
    8261:	119232        	l16si	a3, a2, 34
    8264:	22c2a2        	addi	a10, a2, 34
    8267:	11b300        	slli	a11, a3, 16
    826a:	000686        	j	8288 <NR_WienerFilter+0x208>

0000826d <NR_WienerFilter+0x1ed>:
    826d:	2a3d           	ae_l16si.n	a3, a10, 0
    826f:	58a592        	movi	a9, 0x558
    8272:	410294        	ae_lp16f.x	aep0, a2, a9
    8275:	11b300        	slli	a11, a3, 16
    8278:	084d           	mov.n	a4, a8
    827a:	379bb4        	ae_truncp24a32x2	aep1, a11, a11
    827d:	078676        	loop	a6, 8288 <NR_WienerFilter+0x208>
    8280:	d9062c842f 	{ ae_lp16f.iu	aep0, a4, 4; ae_maxp24s	aep2, aep1, aep0 }
    8285:	5224f4        	ae_sp24f.l.i	aep2, a4, -4

00008288 <NR_WienerFilter+0x208>:
    8288:	12d232        	addmi	a3, a2, 0x1200
    828b:	092332        	l32i	a3, a3, 36
    828e:	400a04        	ae_lp16f.i	aep0, a10, 0
    8291:	360334        	ae_cvtq48a32s	aeq0, a3
    8294:	d4e23002fe 	{ l32i	a15, a2, 0; ae_mulfq32sp16s.l	aeq0, aeq0, aep0 }
    8299:	1b8c04        	ae_roundsp24q48sym	aep0, aeq0
    829c:	fccfa2        	addi	a10, a15, -4
    829f:	528a14        	ae_sp24f.l.iu	aep0, a10, 4
    82a2:	528a14        	ae_sp24f.l.iu	aep0, a10, 4
    82a5:	528a14        	ae_sp24f.l.iu	aep0, a10, 4
    82a8:	0a2616        	beqz	a6, 834e <NR_WienerFilter+0x2ce>
    82ab:	510294        	ae_lp24f.x	aep0, a2, a9
    82ae:	00a092        	movi	a9, 0
    82b1:	178676        	loop	a6, 82cc <NR_WienerFilter+0x24c>
    82b4:	601714        	ae_lq32f.iu	aeq0, a7, 4
    82b7:	080524        	ae_mulfq32sp24s.l	aeq0, aeq0, aep0
    82ba:	080514        	ae_mulrfq32sp24s.l	aeq0, aeq0, aep0
    82bd:	368304        	ae_trunca32q48	a3, aeq0
    82c0:	620804        	ae_sq32f.i	aeq0, a8, 0
    82c3:	528a14        	ae_sp24f.l.iu	aep0, a10, 4
    82c6:	508814        	ae_lp24f.iu	aep0, a8, 4
    82c9:	539930        	max	a9, a9, a3
    82cc:	6138           	l32i.n	a3, a1, 24
    82ce:	4148           	l32i.n	a4, a1, 16
    82d0:	58a572        	movi	a7, 0x558
    82d3:	1ea437        	bge	a4, a3, 82f5 <NR_WienerFilter+0x275>
    82d6:	179542        	l16si	a4, a5, 46
    82d9:	40e930        	nsa	a3, a9
    82dc:	c04430        	sub	a4, a4, a3
    82df:	175542        	s16i	a4, a5, 46
    82e2:	f68c           	beqz.n	a6, 82f5 <NR_WienerFilter+0x275>
    82e4:	401300        	ssl	a3
    82e7:	327a           	add.n	a3, a2, a7
    82e9:	088676        	loop	a6, 82f5 <NR_WienerFilter+0x275>
    82ec:	0348           	l32i.n	a4, a3, 0
    82ee:	a14400        	sll	a4, a4
    82f1:	0349           	s32i.n	a4, a3, 0
    82f3:	334b           	addi.n	a3, a3, 4
    82f5:	340232        	l8ui	a3, a2, 52
    82f8:	f40c           	movi.n	a4, 15
    82fa:	550c           	movi.n	a5, 5
    82fc:	413330        	srli	a3, a3, 3
    82ff:	935430        	movnez	a5, a4, a3
    8302:	378bb4        	ae_truncp24a32x2	aep0, a11, a11
    8305:	028576        	loop	a5, 830b <NR_WienerFilter+0x28b>
    8308:	528a14        	ae_sp24f.l.iu	aep0, a10, 4

0000830b <NR_WienerFilter+0x28b>:
    830b:	00a142        	movi	a4, 0x100
    830e:	80a052        	movi	a5, 128
    8311:	0268           	l32i.n	a6, a2, 0
    8313:	12d272        	addmi	a7, a2, 0x1200
    8316:	dfa082        	movi	a8, 223
    8319:	935430        	movnez	a5, a4, a3
    831c:	042732        	l32i	a3, a7, 16
    831f:	1188c0        	slli	a8, a8, 4
    8322:	804280        	add	a4, a2, a8
    8325:	412284        	ae_lp16f.x	aep2, a2, a8
    8328:	fcc622        	addi	a2, a6, -4
    832b:	5c1304        	ae_lp24x2f.i	aep1, a3, 0
    832e:	508214        	ae_lp24f.iu	aep0, a2, 4
    8331:	178576        	loop	a5, 834c <NR_WienerFilter+0x2cc>
    8334:	011254        	ae_mulfp24s.hl	aeq0, aep1, aep2
    8337:	ea45ef931f 	{ ae_lp24x2f.iu	aep1, a3, 8; ae_mulfp24s.ll	aeq1, aep1, aep2 }
    833c:	f8e02ca41f 	{ ae_lp16f.iu	aep2, a4, 2; ae_mulrfq32sp24s.l	aeq0, aeq0, aep0 }
    8341:	f8e16e821f 	{ ae_lp24f.iu	aep0, a2, 4; ae_mulrfq32sp24s.l	aeq1, aeq1, aep0 }
    8346:	6203e4        	ae_sq32f.i	aeq0, a3, -8
    8349:	6213f4        	ae_sq32f.i	aeq1, a3, -4
    834c:	f01d           	retw.n

0000834e <NR_WienerFilter+0x2ce>:
    834e:	090c           	movi.n	a9, 0
    8350:	ffde06        	j	82cc <NR_WienerFilter+0x24c>

00008353 <NR_WienerFilter+0x2d3>:
	...

00008354 <ifft_wo>:
    8354:	006136        	entry	a1, 48
    8357:	340272        	l8ui	a7, a2, 52
    835a:	12d262        	addmi	a6, a2, 0x1200
    835d:	0258           	l32i.n	a5, a2, 0
    835f:	1612a2        	l16ui	a10, a2, 44
    8362:	dff5c1        	l32r	a12, 338 (ad30 <NR_immediate_num>)
    8365:	4688           	l32i.n	a8, a6, 16
    8367:	dff191        	l32r	a9, 32c (e950 <fftorder_512_12b>)
    836a:	0d0c           	movi.n	a13, 0
    836c:	00a2e2        	movi	a14, 0x200
    836f:	00a162        	movi	a6, 0x100
    8372:	417370        	srli	a7, a7, 3
    8375:	936e70        	movnez	a6, a14, a7
    8378:	1f0c           	movi.n	a15, 1
    837a:	15d9           	s32i.n	a13, a5, 4
    837c:	05d9           	s32i.n	a13, a5, 0
    837e:	2d0c           	movi.n	a13, 2
    8380:	8aed           	ae_sext16	a14, a10
    8382:	93df70        	movnez	a13, a15, a7
    8385:	f0a0b2        	movi	a11, 240
    8388:	440c04        	ae_lp16x2f.i	aep0, a12, 0
    838b:	441c14        	ae_lp16x2f.i	aep1, a12, 4
    838e:	c92b           	addi.n	a12, a9, 2
    8390:	994b           	addi.n	a9, a9, 4
    8392:	443404        	ae_lp16x2f.i	aep3, a4, 0
    8395:	5c2804        	ae_lp24x2f.i	aep2, a8, 0
    8398:	78a0f2        	movi	a15, 120
    839b:	007e96        	bltz	a14, 83a6 <ifft_wo+0x52>
    839e:	1692e2        	l16si	a14, a2, 44
    83a1:	0a0c           	movi.n	a10, 0
    83a3:	000106        	j	83ab <ifft_wo+0x57>

000083a6 <ifft_wo+0x52>:
    83a6:	60a0a0        	neg	a10, a10
    83a9:	0e0c           	movi.n	a14, 0
    83ab:	0316a4        	wur.ae_sar	a10
    83ae:	939c70        	movnez	a9, a12, a7
    83b1:	41c160        	srli	a12, a6, 1
    83b4:	93fb70        	movnez	a15, a11, a7
    83b7:	f9afd3b44f 	{ or	a11, a4, a4; ae_srasp24	aep3, aep3 }
    83bc:	11adf0        	slli	a10, a13, 1
    83bf:	1b8c76        	loop	a12, 83de <ifft_wo+0x8a>
    83c2:	df69be2b1f 	{ ae_selp24.hl	aep4, aep2, aep3; ae_selp24.lh	aep6, aep2, aep3 }
    83c7:	f012a009de 	{ l16si	a13, a9, 0; ae_mulzaafp24s.hh.ll	aeq0, aep4, aep0 }
    83cc:	f03aedfb1f 	{ ae_lp16x2f.iu	aep7, a11, 4; ae_mulzaafp24s.hh.ll	aeq1, aep6, aep1 }
    83d1:	f9bfefa81f 	{ ae_lp24x2f.iu	aep2, a8, 8; ae_srasp24	aep3, aep7 }
    83d6:	fa461099af 	{ add	a9, a9, a10; ae_truncp24q48x2	aep4, aeq0, aeq1 }
    83db:	5f45d4        	ae_sp24x2f.x	aep4, a5, a13

000083de <ifft_wo+0x8a>:
    83de:	fc386dbbef 	{ ae_lp16x2f.iu	aep3, a11, -8; ae_negsp24s	aep1, aep1 }
    83e3:	cc0b           	addi.n	a12, a12, -1
    83e5:	f9afefa8ef 	{ ae_lp24x2f.iu	aep2, a8, -16; ae_srasp24	aep3, aep3 }
    83ea:	21f9           	s32i.n	a15, a1, 8
    83ec:	31e9           	s32i.n	a14, a1, 12
    83ee:	1b8c76        	loop	a12, 840d <ifft_wo+0xb9>
    83f1:	df69be2b1f 	{ ae_selp24.hl	aep4, aep2, aep3; ae_selp24.lh	aep6, aep2, aep3 }
    83f6:	f032a009ce 	{ l16si	a12, a9, 0; ae_mulzaafp24s.hh.ll	aeq0, aep4, aep1 }
    83fb:	f01aedfbff 	{ ae_lp16x2f.iu	aep7, a11, -4; ae_mulzaafp24s.hh.ll	aeq1, aep6, aep0 }
    8400:	f9bfefa8ff 	{ ae_lp24x2f.iu	aep2, a8, -8; ae_srasp24	aep3, aep7 }
    8405:	fa461099af 	{ add	a9, a9, a10; ae_truncp24q48x2	aep4, aeq0, aeq1 }
    840a:	5f45c4        	ae_sp24x2f.x	aep4, a5, a12
    840d:	df7681        	l32r	a8, 1e8 (8fc0 <sw_fft_32b_2811>)
    8410:	8c0c           	movi.n	a12, 8
    8412:	0d0c           	movi.n	a13, 0
    8414:	1e0c           	movi.n	a14, 1
    8416:	05ad           	mov.n	a10, a5
    8418:	06bd           	mov.n	a11, a6
    841a:	0008e0        	callx8	a8
    841d:	b97c           	movi.n	a9, -5
    841f:	cc7c           	movi.n	a12, -4
    8421:	93c970        	movnez	a12, a9, a7
    8424:	12d2d2        	addmi	a13, a2, 0x1200
    8427:	169282        	l16si	a8, a2, 44
    842a:	10a1b2        	movi	a11, 0x110
    842d:	88a092        	movi	a9, 136
    8430:	939b70        	movnez	a9, a11, a7
    8433:	4ba2b2        	movi	a11, 0x24b
    8436:	7df8           	l32i.n	a15, a13, 28
    8438:	31e8           	l32i.n	a14, a1, 12
    843a:	117be0        	slli	a7, a11, 2
    843d:	acaa           	add.n	a10, a12, a10
    843f:	80d270        	add	a13, a2, a7
    8442:	c07a80        	sub	a7, a10, a8
    8445:	8087e0        	add	a8, a7, a14
    8448:	fecfe2        	addi	a14, a15, -2
    844b:	90a9f0        	addx2	a10, a9, a15
    844e:	0221f2        	l32i	a15, a1, 8
    8451:	600504        	ae_lq32f.i	aeq0, a5, 0
    8454:	fec3b2        	addi	a11, a3, -2
    8457:	fec4c2        	addi	a12, a4, -2
    845a:	605514        	ae_lq32f.iu	aeq1, a5, 4
    845d:	2e8f76        	loop	a15, 848f <ifft_wo+0x13b>
    8460:	fc24fe870f 	{ ae_slaasq56s	aeq0, aeq0, a7; nop }
    8465:	fc447e984f 	{ ae_slaasq56s	aeq1, aeq1, a8; ae_roundsq32sym	aeq0, aeq0 }
    846a:	fd4c6d8d1f 	{ ae_lp16x2f.iu	aep0, a13, 4; ae_roundsq32sym	aeq1, aeq1 }
    846f:	409af4        	ae_lp16f.iu	aep1, a10, -2
    8472:	eb20acae1f 	{ ae_lp16f.iu	aep2, a14, 2; ae_mulfp24s.hl	aeq2, aep0, aep1 }
    8477:	018974        	ae_mulfp24s.ll	aeq3, aep0, aep1
    847a:	f58abd151f 	{ ae_lq32f.iu	aeq0, a5, 4; ae_mulafq32sp16s.l	aeq2, aeq0, aep2 }
    847f:	f989fd351f 	{ ae_lq32f.iu	aeq1, a5, 4; ae_mulsfq32sp16s.l	aeq3, aeq1, aep2 }
    8484:	1bae64        	ae_roundsp16q48sym	aep6, aeq2
    8487:	fbfbf2eb1f 	{ ae_sp16f.l.iu	aep6, a11, 2; ae_roundsp16q48sym	aep7, aeq3 }
    848c:	42fc14        	ae_sp16f.l.iu	aep7, a12, 2
    848f:	11bff0        	slli	a11, a15, 1
    8492:	c0c6b0        	sub	a12, a6, a11
    8495:	431ca6        	blti	a12, 1, 84dc <ifft_wo+0x188>
    8498:	93a062        	movi	a6, 147
    849b:	1166c0        	slli	a6, a6, 4
    849e:	626a           	add.n	a6, a2, a6
    84a0:	90bb60        	addx2	a11, a11, a6
    84a3:	a0d960        	addx4	a13, a9, a6
    84a6:	fccb62        	addi	a6, a11, -4
    84a9:	400404        	ae_lp16f.i	aep0, a4, 0
    84ac:	401304        	ae_lp16f.i	aep1, a3, 0
    84af:	fccdb2        	addi	a11, a13, -4
    84b2:	0020f0        	nop
    84b5:	238c76        	loop	a12, 84dc <ifft_wo+0x188>
    84b8:	fc2c2caaff 	{ ae_lp16f.iu	aep2, a10, -2; ae_cvtq48p24s.l	aeq0, aep1 }
    84bd:	fd0c2dbb1f 	{ ae_lp16x2f.iu	aep3, a11, 4; ae_cvtq48p24s.l	aeq1, aep0 }
    84c2:	e24f2dc61f 	{ ae_lp16x2f.iu	aep4, a6, 4; ae_mulafp24s.hl	aeq0, aep3, aep2 }
    84c7:	e24fec931f 	{ ae_lp16f.iu	aep1, a3, 2; ae_mulafp24s.ll	aeq1, aep3, aep2 }
    84cc:	fbe3ec841f 	{ ae_lp16f.iu	aep0, a4, 2; ae_roundsp16q48sym	aep7, aeq0 }
    84d1:	f9ebf34b0f 	{ ae_sp16x2f.i	aep4, a11, 0; ae_roundsp16q48sym	aep3, aeq1 }
    84d6:	4273f4        	ae_sp16f.l.i	aep7, a3, -2
    84d9:	4234f4        	ae_sp16f.l.i	aep3, a4, -2

000084dc <ifft_wo+0x188>:
    84dc:	97a432        	movi	a3, 0x497
    84df:	1133f0        	slli	a3, a3, 1
    84e2:	6005f4        	ae_lq32f.i	aeq0, a5, -4
    84e5:	604504        	ae_lq32f.i	aeq1, a5, 0
    84e8:	223a           	add.n	a2, a2, a3
    84ea:	0020f0        	nop
    84ed:	198976        	loop	a9, 850a <ifft_wo+0x1b6>
    84f0:	fc24fe878f 	{ ae_slaasq56s	aeq2, aeq0, a7; nop }
    84f5:	f8f3be984f 	{ ae_slaasq56s	aeq1, aeq1, a8; ae_roundsp16q48sym	aep0, aeq2 }
    84fa:	ff14bd151f 	{ ae_lq32f.iu	aeq0, a5, 4; ae_negq56	aeq3, aeq1 }
    84ff:	f8fbf2821f 	{ ae_sp16f.l.iu	aep0, a2, 2; ae_roundsp16q48sym	aep1, aeq3 }
    8504:	605514        	ae_lq32f.iu	aeq1, a5, 4
    8507:	429214        	ae_sp16f.l.iu	aep1, a2, 2

0000850a <ifft_wo+0x1b6>:
    850a:	f01d           	retw.n

0000850c <airoha_divide>:
    850c:	004136        	entry	a1, 32
    850f:	204320        	or	a4, a3, a2
    8512:	0d8416        	beqz	a4, 85ee <airoha_divide+0xe2>
    8515:	0de216        	beqz	a2, 85f7 <airoha_divide+0xeb>
    8518:	0e2316        	beqz	a3, 85fe <airoha_divide+0xf2>
    851b:	609120        	abs	a9, a2
    851e:	60b130        	abs	a11, a3
    8521:	055f90        	extui	a5, a9, 31, 1
    8524:	056fb0        	extui	a6, a11, 31, 1
    8527:	400500        	ssr	a5
    852a:	304320        	xor	a4, a3, a2
    852d:	912090        	srl	a2, a9
    8530:	400600        	ssr	a6
    8533:	91c0b0        	srl	a12, a11
    8536:	40e2d0        	nsa	a13, a2
    8539:	40ec30        	nsa	a3, a12
    853c:	e31b           	addi.n	a14, a3, 1
    853e:	401d00        	ssl	a13
    8541:	317fb0        	srai	a7, a11, 31
    8544:	a13200        	sll	a3, a2
    8547:	401e00        	ssl	a14
    854a:	a75a           	add.n	a10, a7, a5
    854c:	a17c00        	sll	a7, a12
    854f:	f55070        	extui	a5, a7, 16, 16
    8552:	c26350        	quou	a6, a3, a5
    8555:	829650        	mull	a9, a6, a5
    8558:	978d           	ae_zext16	a8, a7
    855a:	c09390        	sub	a9, a3, a9
    855d:	828680        	mull	a8, a6, a8
    8560:	c0fed0        	sub	a15, a14, a13
    8563:	119900        	slli	a9, a9, 16
    8566:	2afa           	add.n	a2, a10, a15
    8568:	09b987        	bgeu	a9, a8, 8575 <airoha_divide+0x69>

0000856b <airoha_divide+0x5f>:
    856b:	997a           	add.n	a9, a9, a7
    856d:	660b           	addi.n	a6, a6, -1
    856f:	02b987        	bgeu	a9, a8, 8575 <airoha_divide+0x69>
    8572:	f5b977        	bgeu	a9, a7, 856b <airoha_divide+0x5f>
    8575:	c0e980        	sub	a14, a9, a8
    8578:	c25e50        	quou	a5, a14, a5
    857b:	11a600        	slli	a10, a6, 16
    857e:	623370        	saltu	a3, a3, a7
    8581:	2b0c           	movi.n	a11, 2
    8583:	c09b30        	sub	a9, a11, a3
    8586:	5a5a           	add.n	a5, a10, a5
    8588:	f5f060        	extui	a15, a6, 16, 16
    858b:	6265a0        	saltu	a6, a5, a10
    858e:	d59a           	add.n	a13, a5, a9
    8590:	fc1c           	movi.n	a12, 31
    8592:	6f6a           	add.n	a6, a15, a6
    8594:	625d50        	saltu	a5, a13, a5
    8597:	565a           	add.n	a5, a6, a5
    8599:	400900        	ssr	a9
    859c:	3079c0        	xor	a7, a9, a12
    859f:	9180d0        	srl	a8, a13
    85a2:	401700        	ssl	a7
    85a5:	1165f0        	slli	a6, a5, 1
    85a8:	a16600        	sll	a6, a6
    85ab:	400900        	ssr	a9
    85ae:	0f0c           	movi.n	a15, 0
    85b0:	206860        	or	a6, a8, a6
    85b3:	915050        	srl	a5, a5
    85b6:	1e0c           	movi.n	a14, 1
    85b8:	7286f0        	salt	a8, a6, a15
    85bb:	629f50        	saltu	a9, a15, a5
    85be:	1a0c           	movi.n	a10, 1
    85c0:	3073e0        	xor	a7, a3, a14
    85c3:	839850        	moveqz	a9, a8, a5
    85c6:	015a20        	slli	a5, a10, 30
    85c9:	df61b1        	l32r	a11, 350 (80000001 <_end+0x7fff119d>)
    85cc:	727a           	add.n	a7, a2, a7
    85ce:	fc7c           	movi.n	a12, -1
    85d0:	835690        	moveqz	a5, a6, a9
    85d3:	4131c0        	srli	a3, a12, 1
    85d6:	60e050        	neg	a14, a5
    85d9:	d79a           	add.n	a13, a7, a9
    85db:	f23c           	movi.n	a2, 63
    85dd:	c0cdf2        	addi	a15, a13, -64
    85e0:	a33b40        	movltz	a3, a11, a4
    85e3:	b3e540        	movgez	a14, a5, a4
    85e6:	932df0        	movnez	a2, a13, a15
    85e9:	933ef0        	movnez	a3, a14, a15
    85ec:	f01d           	retw.n

000085ee <airoha_divide+0xe2>:
    85ee:	f37c           	movi.n	a3, -1
    85f0:	020c           	movi.n	a2, 0
    85f2:	413130        	srli	a3, a3, 1
    85f5:	f01d           	retw.n

000085f7 <airoha_divide+0xeb>:
    85f7:	030c           	movi.n	a3, 0
    85f9:	c1af22        	movi	a2, -63
    85fc:	f01d           	retw.n

000085fe <airoha_divide+0xf2>:
    85fe:	df5431        	l32r	a3, 350 (80000001 <_end+0x7fff119d>)
    8601:	040c           	movi.n	a4, 0
    8603:	f57c           	movi.n	a5, -1
    8605:	724420        	salt	a4, a4, a2
    8608:	415150        	srli	a5, a5, 1
    860b:	f23c           	movi.n	a2, 63
    860d:	933540        	movnez	a3, a5, a4
    8610:	f01d           	retw.n

00008612 <airoha_divide+0x106>:
	...

00008614 <airoha_divide_limit_1>:
    8614:	006136        	entry	a1, 48
    8617:	df0041        	l32r	a4, 218 (850c <airoha_divide>)
    861a:	02ad           	mov.n	a10, a2
    861c:	03bd           	mov.n	a11, a3
    861e:	0004e0        	callx8	a4
    8621:	360b34        	ae_cvtq48a32s	aeq0, a11
    8624:	fc24fe8a0f 	{ ae_slaasq56s	aeq0, aeq0, a10; nop }
    8629:	060934        	ae_roundsq32asym	aeq0, aeq0
    862c:	620134        	ae_sq32f.i	aeq0, a1, 12
    862f:	3128           	l32i.n	a2, a1, 12
    8631:	f01d           	retw.n

00008633 <airoha_divide_limit_1+0x1f>:
    8633:	00000000                                 .....

00008638 <xtensa_fft4_32b>:
    8638:	00c136        	entry	a1, 96
    863b:	600254        	ae_lq32f.i	aeq0, a2, 20
    863e:	604274        	ae_lq32f.i	aeq1, a2, 28
    8641:	fa663d626f 	{ ae_lq32f.i	aeq3, a2, 24; ae_addq56	aeq2, aeq0, aeq1 }
    8646:	f826fa217f 	{ ae_sq56s.i	aeq2, a1, 56; ae_subq56	aeq0, aeq0, aeq1 }
    864b:	630134        	ae_sq56s.i	aeq0, a1, 24
    864e:	600244        	ae_lq32f.i	aeq0, a2, 16
    8651:	fa7a3d220f 	{ ae_lq32f.i	aeq1, a2, 0; ae_addq56	aeq2, aeq3, aeq0 }
    8656:	f83afa211f 	{ ae_sq56s.i	aeq2, a1, 8; ae_subq56	aeq0, aeq3, aeq0 }
    865b:	630164        	ae_sq56s.i	aeq0, a1, 48
    865e:	600224        	ae_lq32f.i	aeq0, a2, 8
    8661:	fb6a3dc11f 	{ ae_lq56.i	aeq2, a1, 8; ae_addq56	aeq3, aeq1, aeq0 }
    8666:	01bac4        	ae_addq56	aeq2, aeq3, aeq2
    8669:	f82afa212f 	{ ae_sq56s.i	aeq2, a1, 16; ae_subq56	aeq0, aeq1, aeq0 }
    866e:	618124        	ae_lq56.i	aeq2, a1, 16
    8671:	622204        	ae_sq32f.i	aeq2, a2, 0
    8674:	618114        	ae_lq56.i	aeq2, a1, 8
    8677:	f9bafd621f 	{ ae_lq32f.i	aeq3, a2, 4; ae_subq56	aeq1, aeq3, aeq2 }
    867c:	631114        	ae_sq56s.i	aeq1, a1, 8
    867f:	614134        	ae_lq56.i	aeq1, a1, 24
    8682:	fb663a315f 	{ ae_sq56s.i	aeq3, a1, 40; ae_addq56	aeq3, aeq0, aeq1 }
    8687:	f826fd423f 	{ ae_lq32f.i	aeq2, a2, 12; ae_subq56	aeq0, aeq0, aeq1 }
    868c:	633124        	ae_sq56s.i	aeq3, a1, 16
    868f:	614114        	ae_lq56.i	aeq1, a1, 8
    8692:	61c154        	ae_lq56.i	aeq3, a1, 40
    8695:	630134        	ae_sq56s.i	aeq0, a1, 24
    8698:	f9fa39924f 	{ ae_sq32f.i	aeq1, a2, 16; ae_addq56	aeq1, aeq3, aeq2 }
    869d:	632144        	ae_sq56s.i	aeq2, a1, 32
    86a0:	618124        	ae_lq56.i	aeq2, a1, 16
    86a3:	610174        	ae_lq56.i	aeq0, a1, 56
    86a6:	fa6a39a22f 	{ ae_sq32f.i	aeq2, a2, 8; ae_addq56	aeq2, aeq1, aeq0 }
    86ab:	f82afa211f 	{ ae_sq56s.i	aeq2, a1, 8; ae_subq56	aeq0, aeq1, aeq0 }
    86b0:	618134        	ae_lq56.i	aeq2, a1, 24
    86b3:	622264        	ae_sq32f.i	aeq2, a2, 24
    86b6:	618144        	ae_lq56.i	aeq2, a1, 32
    86b9:	f9baf9825f 	{ ae_sq32f.i	aeq0, a2, 20; ae_subq56	aeq1, aeq3, aeq2 }
    86be:	610164        	ae_lq56.i	aeq0, a1, 48
    86c1:	fb6a3dc11f 	{ ae_lq56.i	aeq2, a1, 8; ae_addq56	aeq3, aeq1, aeq0 }
    86c6:	f92af9a21f 	{ ae_sq32f.i	aeq2, a2, 4; ae_subq56	aeq1, aeq1, aeq0 }
    86cb:	623234        	ae_sq32f.i	aeq3, a2, 12
    86ce:	621274        	ae_sq32f.i	aeq1, a2, 28
    86d1:	f01d           	retw.n

000086d3 <xtensa_fft4_32b+0x9b>:
	...

000086d4 <xtensa_fft8_32b>:
    86d4:	022136        	entry	a1, 0x110
    86d7:	600254        	ae_lq32f.i	aeq0, a2, 20
    86da:	604274        	ae_lq32f.i	aeq1, a2, 28
    86dd:	fb663d426f 	{ ae_lq32f.i	aeq2, a2, 24; ae_addq56	aeq3, aeq0, aeq1 }
    86e2:	f826fa315f 	{ ae_sq56s.i	aeq3, a1, 40; ae_subq56	aeq0, aeq0, aeq1 }
    86e7:	630124        	ae_sq56s.i	aeq0, a1, 16
    86ea:	600244        	ae_lq32f.i	aeq0, a2, 16
    86ed:	f9723d620f 	{ ae_lq32f.i	aeq3, a2, 0; ae_addq56	aeq1, aeq2, aeq0 }
    86f2:	f832c7816e 	{ addi	a6, a1, 120; ae_subq56	aeq0, aeq2, aeq0 }
    86f7:	630134        	ae_sq56s.i	aeq0, a1, 24
    86fa:	600224        	ae_lq32f.i	aeq0, a2, 8
    86fd:	01b8c4        	ae_addq56	aeq2, aeq3, aeq0
    8700:	fa3afa211f 	{ ae_sq56s.i	aeq2, a1, 8; ae_subq56	aeq2, aeq3, aeq0 }
    8705:	61c114        	ae_lq56.i	aeq3, a1, 8
    8708:	f83efd621f 	{ ae_lq32f.i	aeq3, a2, 4; ae_subq56	aeq0, aeq3, aeq1 }
    870d:	6306c4        	ae_sq56s.i	aeq0, a6, -32
    8710:	610124        	ae_lq56.i	aeq0, a1, 16
    8713:	fb723a314f 	{ ae_sq56s.i	aeq3, a1, 32; ae_addq56	aeq3, aeq2, aeq0 }
    8718:	fa32fd86cf 	{ ae_lq56.i	aeq0, a6, -32; ae_subq56	aeq2, aeq2, aeq0 }
    871d:	6316e4        	ae_sq56s.i	aeq1, a6, -16
    8720:	620244        	ae_sq32f.i	aeq0, a2, 16
    8723:	604234        	ae_lq32f.i	aeq1, a2, 12
    8726:	610144        	ae_lq56.i	aeq0, a1, 32
    8729:	f8663a364f 	{ ae_sq56s.i	aeq3, a6, 32; ae_addq56	aeq0, aeq0, aeq1 }
    872e:	623224        	ae_sq32f.i	aeq3, a2, 8
    8731:	61c154        	ae_lq56.i	aeq3, a1, 40
    8734:	fba6fa06df 	{ ae_sq56s.i	aeq0, a6, -24; ae_subq56	aeq3, aeq0, aeq3 }
    8739:	610144        	ae_lq56.i	aeq0, a1, 32
    873c:	f826fa36ff 	{ ae_sq56s.i	aeq3, a6, -8; ae_subq56	aeq0, aeq0, aeq1 }
    8741:	623254        	ae_sq32f.i	aeq3, a2, 20
    8744:	61c134        	ae_lq56.i	aeq3, a1, 24
    8747:	f9e602023e 	{ addi	a3, a2, 32; ae_addq56	aeq1, aeq0, aeq3 }
    874c:	f8a6fa163f 	{ ae_sq56s.i	aeq1, a6, 24; ae_subq56	aeq0, aeq0, aeq3 }
    8751:	621234        	ae_sq32f.i	aeq1, a2, 12
    8754:	604304        	ae_lq32f.i	aeq1, a3, 0
    8757:	6316b4        	ae_sq56s.i	aeq1, a6, -40
    875a:	632664        	ae_sq56s.i	aeq2, a6, 48
    875d:	622264        	ae_sq32f.i	aeq2, a2, 24
    8760:	608314        	ae_lq32f.i	aeq2, a3, 4
    8763:	630654        	ae_sq56s.i	aeq0, a6, 40
    8766:	620274        	ae_sq32f.i	aeq0, a2, 28
    8769:	600374        	ae_lq32f.i	aeq0, a3, 28
    876c:	01d142        	addmi	a4, a1, 0x100
    876f:	632134        	ae_sq56s.i	aeq2, a1, 24
    8772:	608324        	ae_lq32f.i	aeq2, a3, 8
    8775:	60c334        	ae_lq32f.i	aeq3, a3, 12
    8778:	604354        	ae_lq32f.i	aeq1, a3, 20
    877b:	630164        	ae_sq56s.i	aeq0, a1, 48
    877e:	6106b4        	ae_lq56.i	aeq0, a6, -40
    8781:	f8e23a312f 	{ ae_sq56s.i	aeq3, a1, 16; ae_addq56	aeq0, aeq0, aeq2 }
    8786:	60c344        	ae_lq32f.i	aeq3, a3, 16
    8789:	631144        	ae_sq56s.i	aeq1, a1, 32
    878c:	604364        	ae_lq32f.i	aeq1, a3, 24
    878f:	b0c442        	addi	a4, a4, -80
    8792:	01d152        	addmi	a5, a1, 0x100
    8795:	fb7e3a361f 	{ ae_sq56s.i	aeq3, a6, 8; ae_addq56	aeq3, aeq3, aeq1 }
    879a:	632604        	ae_sq56s.i	aeq2, a6, 0
    879d:	631624        	ae_sq56s.i	aeq1, a6, 16
    87a0:	620404        	ae_sq32f.i	aeq0, a4, 0
    87a3:	608404        	ae_lq32f.i	aeq2, a4, 0
    87a6:	b4c552        	addi	a5, a5, -76
    87a9:	6326a4        	ae_sq56s.i	aeq2, a6, -48
    87ac:	623504        	ae_sq32f.i	aeq3, a5, 0
    87af:	01d1a2        	addmi	a10, a1, 0x100
    87b2:	610134        	ae_lq56.i	aeq0, a1, 24
    87b5:	61c124        	ae_lq56.i	aeq3, a1, 16
    87b8:	f8e63d450f 	{ ae_lq32f.i	aeq2, a5, 0; ae_addq56	aeq0, aeq0, aeq3 }
    87bd:	b8ca42        	addi	a4, a10, -72
    87c0:	632694        	ae_sq56s.i	aeq2, a6, -56
    87c3:	620404        	ae_sq32f.i	aeq0, a4, 0
    87c6:	01d1b2        	addmi	a11, a1, 0x100
    87c9:	610144        	ae_lq56.i	aeq0, a1, 32
    87cc:	61c164        	ae_lq56.i	aeq3, a1, 48
    87cf:	f8e63d440f 	{ ae_lq32f.i	aeq2, a4, 0; ae_addq56	aeq0, aeq0, aeq3 }
    87d4:	bccb52        	addi	a5, a11, -68
    87d7:	632174        	ae_sq56s.i	aeq2, a1, 56
    87da:	620504        	ae_sq32f.i	aeq0, a5, 0
    87dd:	01d1c2        	addmi	a12, a1, 0x100
    87e0:	610114        	ae_lq56.i	aeq0, a1, 8
    87e3:	61c6e4        	ae_lq56.i	aeq3, a6, -16
    87e6:	f9e63d450f 	{ ae_lq32f.i	aeq2, a5, 0; ae_addq56	aeq1, aeq0, aeq3 }
    87eb:	c0cc42        	addi	a4, a12, -64
    87ee:	632114        	ae_sq56s.i	aeq2, a1, 8
    87f1:	621404        	ae_sq32f.i	aeq1, a4, 0
    87f4:	01d1d2        	addmi	a13, a1, 0x100
    87f7:	61c154        	ae_lq56.i	aeq3, a1, 40
    87fa:	6146d4        	ae_lq56.i	aeq1, a6, -24
    87fd:	f9ee0c4d5e 	{ addi	a5, a13, -60; ae_addq56	aeq1, aeq1, aeq3 }
    8802:	60c404        	ae_lq32f.i	aeq3, a4, 0
    8805:	621504        	ae_sq32f.i	aeq1, a5, 0
    8808:	6186a4        	ae_lq56.i	aeq2, a6, -48
    880b:	614694        	ae_lq56.i	aeq1, a6, -56
    880e:	f9763d450f 	{ ae_lq32f.i	aeq2, a5, 0; ae_addq56	aeq1, aeq2, aeq1 }
    8813:	f83ec082bf 	{ movi	a11, 130; ae_subq56	aeq0, aeq3, aeq1 }
    8818:	f97e3a015f 	{ ae_sq56s.i	aeq0, a1, 40; ae_addq56	aeq1, aeq3, aeq1 }
    881d:	610154        	ae_lq56.i	aeq0, a1, 40
    8820:	620304        	ae_sq32f.i	aeq0, a3, 0
    8823:	61c114        	ae_lq56.i	aeq3, a1, 8
    8826:	610174        	ae_lq56.i	aeq0, a1, 56
    8829:	fbe639920f 	{ ae_sq32f.i	aeq1, a2, 0; ae_addq56	aeq3, aeq0, aeq3 }
    882e:	016fc4        	ae_subq56	aeq1, aeq2, aeq3
    8831:	01d1e2        	addmi	a14, a1, 0x100
    8834:	f8f639931f 	{ ae_sq32f.i	aeq1, a3, 4; ae_addq56	aeq0, aeq2, aeq3 }
    8839:	c8ce42        	addi	a4, a14, -56
    883c:	6146c4        	ae_lq56.i	aeq1, a6, -32
    883f:	620214        	ae_sq32f.i	aeq0, a2, 4
    8842:	621404        	ae_sq32f.i	aeq1, a4, 0
    8845:	01d1f2        	addmi	a15, a1, 0x100
    8848:	cccf52        	addi	a5, a15, -52
    884b:	6186f4        	ae_lq56.i	aeq2, a6, -8
    884e:	600404        	ae_lq32f.i	aeq0, a4, 0
    8851:	622504        	ae_sq32f.i	aeq2, a5, 0
    8854:	614114        	ae_lq56.i	aeq1, a1, 8
    8857:	61c174        	ae_lq56.i	aeq3, a1, 56
    885a:	f93efd450f 	{ ae_lq32f.i	aeq2, a5, 0; ae_subq56	aeq1, aeq3, aeq1 }
    885f:	01cdc4        	ae_subq56	aeq3, aeq0, aeq1
    8862:	f86639b34f 	{ ae_sq32f.i	aeq3, a3, 16; ae_addq56	aeq0, aeq0, aeq1 }
    8867:	6146a4        	ae_lq56.i	aeq1, a6, -48
    886a:	61c694        	ae_lq56.i	aeq3, a6, -56
    886d:	f93ef9824f 	{ ae_sq32f.i	aeq0, a2, 16; ae_subq56	aeq1, aeq3, aeq1 }
    8872:	01edc4        	ae_subq56	aeq3, aeq2, aeq1
    8875:	f97639b35f 	{ ae_sq32f.i	aeq3, a3, 20; ae_addq56	aeq1, aeq2, aeq1 }
    887a:	01d172        	addmi	a7, a1, 0x100
    887d:	6186b4        	ae_lq56.i	aeq2, a6, -40
    8880:	61c604        	ae_lq56.i	aeq3, a6, 0
    8883:	f8b6cd074e 	{ addi	a4, a7, -48; ae_subq56	aeq0, aeq2, aeq3 }
    8888:	621254        	ae_sq32f.i	aeq1, a2, 20
    888b:	620404        	ae_sq32f.i	aeq0, a4, 0
    888e:	01d182        	addmi	a8, a1, 0x100
    8891:	610134        	ae_lq56.i	aeq0, a1, 24
    8894:	61c124        	ae_lq56.i	aeq3, a1, 16
    8897:	f9a6fd440f 	{ ae_lq32f.i	aeq2, a4, 0; ae_subq56	aeq1, aeq0, aeq3 }
    889c:	d4c852        	addi	a5, a8, -44
    889f:	632114        	ae_sq56s.i	aeq2, a1, 8
    88a2:	621504        	ae_sq32f.i	aeq1, a5, 0
    88a5:	01d192        	addmi	a9, a1, 0x100
    88a8:	61c624        	ae_lq56.i	aeq3, a6, 16
    88ab:	614614        	ae_lq56.i	aeq1, a6, 8
    88ae:	f9aefd650f 	{ ae_lq32f.i	aeq3, a5, 0; ae_subq56	aeq1, aeq1, aeq3 }
    88b3:	d8c942        	addi	a4, a9, -40
    88b6:	633124        	ae_sq56s.i	aeq3, a1, 16
    88b9:	621404        	ae_sq32f.i	aeq1, a4, 0
    88bc:	610144        	ae_lq56.i	aeq0, a1, 32
    88bf:	618164        	ae_lq56.i	aeq2, a1, 48
    88c2:	faa2fd040f 	{ ae_lq32f.i	aeq0, a4, 0; ae_subq56	aeq2, aeq0, aeq2 }
    88c7:	dcca52        	addi	a5, a10, -36
    88ca:	630134        	ae_sq56s.i	aeq0, a1, 24
    88cd:	622504        	ae_sq32f.i	aeq2, a5, 0
    88d0:	78c172        	addi	a7, a1, 120
    88d3:	600504        	ae_lq32f.i	aeq0, a5, 0
    88d6:	614744        	ae_lq56.i	aeq1, a7, 32
    88d9:	630164        	ae_sq56s.i	aeq0, a1, 48
    88dc:	621c84        	ae_sq32f.i	aeq1, a12, -32
    88df:	618114        	ae_lq56.i	aeq2, a1, 8
    88e2:	61c124        	ae_lq56.i	aeq3, a1, 16
    88e5:	016bc4        	ae_addq56	aeq1, aeq2, aeq3
    88e8:	fabafde13f 	{ ae_lq56.i	aeq3, a1, 24; ae_subq56	aeq2, aeq3, aeq2 }
    88ed:	f93afa115f 	{ ae_sq56s.i	aeq1, a1, 40; ae_subq56	aeq1, aeq3, aeq0 }
    88f2:	632114        	ae_sq56s.i	aeq2, a1, 8
    88f5:	610734        	ae_lq56.i	aeq0, a7, 24
    88f8:	5adb42        	addmi	a4, a11, 0x5a00
    88fb:	608c84        	ae_lq32f.i	aeq2, a12, -32
    88fe:	631144        	ae_sq56s.i	aeq1, a1, 32
    8901:	620d94        	ae_sq32f.i	aeq0, a13, -28
    8904:	300444        	ae_cvtp24a16x2.ll	aep0, a4, a4
    8907:	610154        	ae_lq56.i	aeq0, a1, 40
    890a:	0c00bda16f 	{ ae_lq56.i	aeq1, a1, 48; ae_mulzaafq32sp16s.lh	aeq0, aeq0, aep0, aeq1, aep0 }
    890f:	015bc4        	ae_addq56	aeq1, aeq1, aeq3
    8912:	fb32fa112f 	{ ae_sq56s.i	aeq1, a1, 16; ae_subq56	aeq3, aeq2, aeq0 }
    8917:	f8723d2d9f 	{ ae_lq32f.i	aeq1, a13, -28; ae_addq56	aeq0, aeq2, aeq0 }
    891c:	633134        	ae_sq56s.i	aeq3, a1, 24
    891f:	61c134        	ae_lq56.i	aeq3, a1, 24
    8922:	623324        	ae_sq32f.i	aeq3, a3, 8
    8925:	61c124        	ae_lq56.i	aeq3, a1, 16
    8928:	618114        	ae_lq56.i	aeq2, a1, 8
    892b:	0f02ba016f 	{ ae_sq56s.i	aeq0, a1, 48; ae_mulzaafq32sp16s.lh	aeq2, aeq2, aep0, aeq3, aep0 }
    8930:	610164        	ae_lq56.i	aeq0, a1, 48
    8933:	f8aaf9822f 	{ ae_sq32f.i	aeq0, a2, 8; ae_subq56	aeq0, aeq1, aeq2 }
    8938:	f9ea3dc76f 	{ ae_lq56.i	aeq2, a7, 48; ae_addq56	aeq1, aeq1, aeq2 }
    893d:	621234        	ae_sq32f.i	aeq1, a2, 12
    8940:	620334        	ae_sq32f.i	aeq0, a3, 12
    8943:	614114        	ae_lq56.i	aeq1, a1, 8
    8946:	3c03b9aeaf 	{ ae_sq32f.i	aeq2, a14, -24; ae_mulzasfq32sp16s.lh	aeq0, aeq1, aep0, aeq3, aep0 }
    894b:	614154        	ae_lq56.i	aeq1, a1, 40
    894e:	61c144        	ae_lq56.i	aeq3, a1, 32
    8951:	3e01fde75f 	{ ae_lq56.i	aeq3, a7, 40; ae_mulzasfq32sp16s.lh	aeq1, aeq3, aep0, aeq1, aep0 }
    8956:	608ea4        	ae_lq32f.i	aeq2, a14, -24
    8959:	fb32f9bfbf 	{ ae_sq32f.i	aeq3, a15, -20; ae_subq56	aeq3, aeq2, aeq0 }
    895e:	f8723d4fbf 	{ ae_lq32f.i	aeq2, a15, -20; ae_addq56	aeq0, aeq2, aeq0 }
    8963:	fb36f9b36f 	{ ae_sq32f.i	aeq3, a3, 24; ae_subq56	aeq3, aeq2, aeq1 }
    8968:	f97639826f 	{ ae_sq32f.i	aeq0, a2, 24; ae_addq56	aeq1, aeq2, aeq1 }
    896d:	623374        	ae_sq32f.i	aeq3, a3, 28
    8970:	621274        	ae_sq32f.i	aeq1, a2, 28
    8973:	f01d           	retw.n

00008975 <xtensa_fft8_32b+0x2a1>:
    8975:	000000                                        ...

00008978 <F_get_oft_32b>:
    8978:	004136        	entry	a1, 32
    897b:	0cc2e6        	bgei	a2, 32, 898b <F_get_oft_32b+0x13>
    897e:	134226        	beqi	a2, 4, 8995 <F_get_oft_32b+0x1d>
    8981:	148226        	beqi	a2, 8, 8999 <F_get_oft_32b+0x21>
    8984:	09b266        	bnei	a2, 16, 8991 <F_get_oft_32b+0x19>
    8987:	021c           	movi.n	a2, 16
    8989:	f01d           	retw.n

0000898b <F_get_oft_32b+0x13>:
    898b:	0ec226        	beqi	a2, 32, 899d <F_get_oft_32b+0x25>
    898e:	0fd226        	beqi	a2, 64, 89a1 <F_get_oft_32b+0x29>
    8991:	220c           	movi.n	a2, 2
    8993:	f01d           	retw.n

00008995 <F_get_oft_32b+0x1d>:
    8995:	024c           	movi.n	a2, 64
    8997:	f01d           	retw.n

00008999 <F_get_oft_32b+0x21>:
    8999:	022c           	movi.n	a2, 32
    899b:	f01d           	retw.n

0000899d <F_get_oft_32b+0x25>:
    899d:	820c           	movi.n	a2, 8
    899f:	f01d           	retw.n

000089a1 <F_get_oft_32b+0x29>:
    89a1:	420c           	movi.n	a2, 4
    89a3:	f01d           	retw.n

000089a5 <F_get_oft_32b+0x2d>:
    89a5:	000000                                        ...

000089a8 <xtensa_fft_pass_32b>:
    89a8:	00c136        	entry	a1, 96
    89ab:	905330        	addx2	a5, a3, a3
    89ae:	1143c0        	slli	a4, a3, 4
    89b1:	b05520        	addx8	a5, a5, a2
    89b4:	602244        	ae_lq32f.x	aeq0, a2, a4
    89b7:	604504        	ae_lq32f.i	aeq1, a5, 0
    89ba:	f8663a014f 	{ ae_sq56s.i	aeq0, a1, 32; ae_addq56	aeq0, aeq0, aeq1 }
    89bf:	608204        	ae_lq32f.i	aeq2, a2, 0
    89c2:	f832fa012f 	{ ae_sq56s.i	aeq0, a1, 16; ae_subq56	aeq0, aeq2, aeq0 }
    89c7:	fc4450724f 	{ add	a7, a2, a4; ae_roundsq32sym	aeq0, aeq0 }
    89cc:	631114        	ae_sq56s.i	aeq1, a1, 8
    89cf:	630154        	ae_sq56s.i	aeq0, a1, 40
    89d2:	600514        	ae_lq32f.i	aeq0, a5, 4
    89d5:	604714        	ae_lq32f.i	aeq1, a7, 4
    89d8:	fa6a3a216f 	{ ae_sq56s.i	aeq2, a1, 48; ae_addq56	aeq2, aeq1, aeq0 }
    89dd:	f82acfc74e 	{ addi	a4, a7, -4; ae_subq56	aeq0, aeq1, aeq0 }
    89e2:	60c214        	ae_lq32f.i	aeq3, a2, 4
    89e5:	614154        	ae_lq56.i	aeq1, a1, 40
    89e8:	f9baf9d41f 	{ ae_sq32f.iu	aeq1, a4, 4; ae_subq56	aeq1, aeq3, aeq2 }
    89ed:	fc4c7a013f 	{ ae_sq56s.i	aeq0, a1, 24; ae_roundsq32sym	aeq0, aeq1 }
    89f2:	fafa3a015f 	{ ae_sq56s.i	aeq0, a1, 40; ae_addq56	aeq2, aeq3, aeq2 }
    89f7:	ff547da12f 	{ ae_lq56.i	aeq1, a1, 16; ae_roundsq32sym	aeq3, aeq2 }
    89fc:	610164        	ae_lq56.i	aeq0, a1, 48
    89ff:	f9663d815f 	{ ae_lq56.i	aeq0, a1, 40; ae_addq56	aeq1, aeq0, aeq1 }
    8a04:	b06320        	addx8	a6, a3, a2
    8a07:	fd4c4fc22e 	{ addi	a2, a2, -4; ae_roundsq32sym	aeq1, aeq1 }
    8a0c:	624414        	ae_sq32f.iu	aeq0, a4, 4
    8a0f:	625214        	ae_sq32f.iu	aeq1, a2, 4
    8a12:	627214        	ae_sq32f.iu	aeq3, a2, 4
    8a15:	614114        	ae_lq56.i	aeq1, a1, 8
    8a18:	618144        	ae_lq56.i	aeq2, a1, 32
    8a1b:	f8aafd260f 	{ ae_lq32f.i	aeq1, a6, 0; ae_subq56	aeq0, aeq1, aeq2 }
    8a20:	61c134        	ae_lq56.i	aeq3, a1, 24
    8a23:	faaecfc55e 	{ addi	a5, a5, -4; ae_subq56	aeq2, aeq1, aeq3 }
    8a28:	f9ee3d661f 	{ ae_lq32f.i	aeq3, a6, 4; ae_addq56	aeq1, aeq1, aeq3 }
    8a2d:	f93afa111f 	{ ae_sq56s.i	aeq1, a1, 8; ae_subq56	aeq1, aeq3, aeq0 }
    8a32:	fe544fc66e 	{ addi	a6, a6, -4; ae_roundsq32sym	aeq2, aeq2 }
    8a37:	f87a39e51f 	{ ae_sq32f.iu	aeq2, a5, 4; ae_addq56	aeq0, aeq3, aeq0 }
    8a3c:	fd4c7de11f 	{ ae_lq56.i	aeq3, a1, 8; ae_roundsq32sym	aeq1, aeq1 }
    8a41:	fd5c79d51f 	{ ae_sq32f.iu	aeq1, a5, 4; ae_roundsq32sym	aeq1, aeq3 }
    8a46:	de4371        	l32r	a7, 354 (8978 <F_get_oft_32b>)
    8a49:	83ad           	ae_sext16	a10, a3
    8a4b:	fc4479d61f 	{ ae_sq32f.iu	aeq1, a6, 4; ae_roundsq32sym	aeq0, aeq0 }
    8a50:	624614        	ae_sq32f.iu	aeq0, a6, 4
    8a53:	0007e0        	callx8	a7
    8a56:	de4071        	l32r	a7, 358 (ed50 <ROOTS_512_Q16>)
    8a59:	00a082        	movi	a8, 0
    8a5c:	119af0        	slli	a9, a10, 1
    8a5f:	907a70        	addx2	a7, a10, a7
    8a62:	fcc772        	addi	a7, a7, -4
    8a65:	458784        	ae_lp16x2f.xu	aep0, a7, a8
    8a68:	218130        	srai	a8, a3, 1
    8a6b:	0223e6        	bgei	a3, 2, 8a71 <xtensa_fft_pass_32b+0xc9>
    8a6e:	002e86        	j	8b2c <xtensa_fft_pass_32b+0x184>
    8a71:	b78876        	loop	a8, 8b2c <xtensa_fft_pass_32b+0x184>
    8a74:	604414        	ae_lq32f.i	aeq1, a4, 4
    8a77:	608424        	ae_lq32f.i	aeq2, a4, 8
    8a7a:	30033d651f 	{ ae_lq32f.i	aeq3, a5, 4; ae_mulzaaq32sp16u.lh	aeq0, aeq1, aep0, aeq2, aep0 }
    8a7f:	6300bd252f 	{ ae_lq32f.i	aeq1, a5, 8; ae_mulzasq32sp16u.lh	aeq2, aeq2, aep0, aeq1, aep0 }
    8a84:	630114        	ae_sq56s.i	aeq0, a1, 8
    8a87:	6301ba214f 	{ ae_sq56s.i	aeq2, a1, 32; ae_mulzasq32sp16u.lh	aeq2, aeq3, aep0, aeq1, aep0 }
    8a8c:	3103fd811f 	{ ae_lq56.i	aeq0, a1, 8; ae_mulzaaq32sp16u.lh	aeq3, aeq1, aep0, aeq3, aep0 }
    8a91:	f8e23d221f 	{ ae_lq32f.i	aeq1, a2, 4; ae_addq56	aeq0, aeq0, aeq2 }
    8a96:	fa2afa213f 	{ ae_sq56s.i	aeq2, a1, 24; ae_subq56	aeq2, aeq1, aeq0 }
    8a9b:	f86a3a212f 	{ ae_sq56s.i	aeq2, a1, 16; ae_addq56	aeq0, aeq1, aeq0 }
    8aa0:	618144        	ae_lq56.i	aeq2, a1, 32
    8aa3:	f8f63a015f 	{ ae_sq56s.i	aeq0, a1, 40; ae_addq56	aeq0, aeq2, aeq3 }
    8aa8:	633164        	ae_sq56s.i	aeq3, a1, 48
    8aab:	61c124        	ae_lq56.i	aeq3, a1, 16
    8aae:	ff5c7d222f 	{ ae_lq32f.i	aeq1, a2, 8; ae_roundsq32sym	aeq3, aeq3 }
    8ab3:	fb2afa312f 	{ ae_sq56s.i	aeq3, a1, 16; ae_subq56	aeq3, aeq1, aeq0 }
    8ab8:	f86a3a317f 	{ ae_sq56s.i	aeq3, a1, 56; ae_addq56	aeq0, aeq1, aeq0 }
    8abd:	fc447de12f 	{ ae_lq56.i	aeq3, a1, 16; ae_roundsq32sym	aeq0, aeq0 }
    8ac2:	627414        	ae_sq32f.iu	aeq3, a4, 4
    8ac5:	61c174        	ae_lq56.i	aeq3, a1, 56
    8ac8:	ff5c5b879f 	{ ae_lp16x2f.xu	aep0, a7, a9; ae_roundsq32sym	aeq3, aeq3 }
    8acd:	627414        	ae_sq32f.iu	aeq3, a4, 4
    8ad0:	61c154        	ae_lq56.i	aeq3, a1, 40
    8ad3:	fd5c7de11f 	{ ae_lq56.i	aeq3, a1, 8; ae_roundsq32sym	aeq1, aeq3 }
    8ad8:	625214        	ae_sq32f.iu	aeq1, a2, 4
    8adb:	624214        	ae_sq32f.iu	aeq0, a2, 4
    8ade:	614164        	ae_lq56.i	aeq1, a1, 48
    8ae1:	f836fd261f 	{ ae_lq32f.i	aeq1, a6, 4; ae_subq56	aeq0, aeq2, aeq1 }
    8ae6:	0198c4        	ae_addq56	aeq2, aeq1, aeq0
    8ae9:	f82afa212f 	{ ae_sq56s.i	aeq2, a1, 16; ae_subq56	aeq0, aeq1, aeq0 }
    8aee:	fc447dc13f 	{ ae_lq56.i	aeq2, a1, 24; ae_roundsq32sym	aeq0, aeq0 }
    8af3:	fbb6fdc12f 	{ ae_lq56.i	aeq2, a1, 16; ae_subq56	aeq3, aeq2, aeq3 }
    8af8:	fe547a314f 	{ ae_sq56s.i	aeq3, a1, 32; ae_roundsq32sym	aeq2, aeq2 }
    8afd:	632114        	ae_sq56s.i	aeq2, a1, 8
    8b00:	608624        	ae_lq32f.i	aeq2, a6, 8
    8b03:	01ebc4        	ae_addq56	aeq3, aeq2, aeq3
    8b06:	633134        	ae_sq56s.i	aeq3, a1, 24
    8b09:	61c114        	ae_lq56.i	aeq3, a1, 8
    8b0c:	627614        	ae_sq32f.iu	aeq3, a6, 4
    8b0f:	61c134        	ae_lq56.i	aeq3, a1, 24
    8b12:	06f834        	ae_roundsq32sym	aeq3, aeq3
    8b15:	633114        	ae_sq56s.i	aeq3, a1, 8
    8b18:	61c114        	ae_lq56.i	aeq3, a1, 8
    8b1b:	627614        	ae_sq32f.iu	aeq3, a6, 4
    8b1e:	61c144        	ae_lq56.i	aeq3, a1, 32
    8b21:	f9b6f9c51f 	{ ae_sq32f.iu	aeq0, a5, 4; ae_subq56	aeq1, aeq2, aeq3 }
    8b26:	06d834        	ae_roundsq32sym	aeq3, aeq1
    8b29:	627514        	ae_sq32f.iu	aeq3, a5, 4

00008b2c <xtensa_fft_pass_32b+0x184>:
    8b2c:	0243e6        	bgei	a3, 4, 8b32 <xtensa_fft_pass_32b+0x18a>
    8b2f:	003146        	j	8bf8 <xtensa_fft_pass_32b+0x250>
    8b32:	603090        	neg	a3, a9
    8b35:	1193f0        	slli	a9, a3, 1
    8b38:	880b           	addi.n	a8, a8, -1
    8b3a:	458794        	ae_lp16x2f.xu	aep0, a7, a9
    8b3d:	b78876        	loop	a8, 8bf8 <xtensa_fft_pass_32b+0x250>
    8b40:	604424        	ae_lq32f.i	aeq1, a4, 8
    8b43:	608414        	ae_lq32f.i	aeq2, a4, 4
    8b46:	30033d652f 	{ ae_lq32f.i	aeq3, a5, 8; ae_mulzaaq32sp16u.lh	aeq0, aeq1, aep0, aeq2, aep0 }
    8b4b:	9300bd251f 	{ ae_lq32f.i	aeq1, a5, 4; ae_mulzsaq32sp16u.lh	aeq2, aeq2, aep0, aeq1, aep0 }
    8b50:	630114        	ae_sq56s.i	aeq0, a1, 8
    8b53:	9301ba214f 	{ ae_sq56s.i	aeq2, a1, 32; ae_mulzsaq32sp16u.lh	aeq2, aeq3, aep0, aeq1, aep0 }
    8b58:	3103fd811f 	{ ae_lq56.i	aeq0, a1, 8; ae_mulzaaq32sp16u.lh	aeq3, aeq1, aep0, aeq3, aep0 }
    8b5d:	f8e23d221f 	{ ae_lq32f.i	aeq1, a2, 4; ae_addq56	aeq0, aeq0, aeq2 }
    8b62:	fa2afa213f 	{ ae_sq56s.i	aeq2, a1, 24; ae_subq56	aeq2, aeq1, aeq0 }
    8b67:	f86a3a212f 	{ ae_sq56s.i	aeq2, a1, 16; ae_addq56	aeq0, aeq1, aeq0 }
    8b6c:	618144        	ae_lq56.i	aeq2, a1, 32
    8b6f:	f8f63a015f 	{ ae_sq56s.i	aeq0, a1, 40; ae_addq56	aeq0, aeq2, aeq3 }
    8b74:	633164        	ae_sq56s.i	aeq3, a1, 48
    8b77:	61c124        	ae_lq56.i	aeq3, a1, 16
    8b7a:	ff5c7d222f 	{ ae_lq32f.i	aeq1, a2, 8; ae_roundsq32sym	aeq3, aeq3 }
    8b7f:	fb2afa312f 	{ ae_sq56s.i	aeq3, a1, 16; ae_subq56	aeq3, aeq1, aeq0 }
    8b84:	f86a3a317f 	{ ae_sq56s.i	aeq3, a1, 56; ae_addq56	aeq0, aeq1, aeq0 }
    8b89:	fc447de12f 	{ ae_lq56.i	aeq3, a1, 16; ae_roundsq32sym	aeq0, aeq0 }
    8b8e:	627414        	ae_sq32f.iu	aeq3, a4, 4
    8b91:	61c174        	ae_lq56.i	aeq3, a1, 56
    8b94:	ff5c5b873f 	{ ae_lp16x2f.xu	aep0, a7, a3; ae_roundsq32sym	aeq3, aeq3 }
    8b99:	627414        	ae_sq32f.iu	aeq3, a4, 4
    8b9c:	61c154        	ae_lq56.i	aeq3, a1, 40
    8b9f:	fd5c7de11f 	{ ae_lq56.i	aeq3, a1, 8; ae_roundsq32sym	aeq1, aeq3 }
    8ba4:	625214        	ae_sq32f.iu	aeq1, a2, 4
    8ba7:	624214        	ae_sq32f.iu	aeq0, a2, 4
    8baa:	614164        	ae_lq56.i	aeq1, a1, 48
    8bad:	f836fd261f 	{ ae_lq32f.i	aeq1, a6, 4; ae_subq56	aeq0, aeq2, aeq1 }
    8bb2:	0198c4        	ae_addq56	aeq2, aeq1, aeq0
    8bb5:	f82afa212f 	{ ae_sq56s.i	aeq2, a1, 16; ae_subq56	aeq0, aeq1, aeq0 }
    8bba:	fc447dc13f 	{ ae_lq56.i	aeq2, a1, 24; ae_roundsq32sym	aeq0, aeq0 }
    8bbf:	fbb6fdc12f 	{ ae_lq56.i	aeq2, a1, 16; ae_subq56	aeq3, aeq2, aeq3 }
    8bc4:	fe547a314f 	{ ae_sq56s.i	aeq3, a1, 32; ae_roundsq32sym	aeq2, aeq2 }
    8bc9:	632114        	ae_sq56s.i	aeq2, a1, 8
    8bcc:	608624        	ae_lq32f.i	aeq2, a6, 8
    8bcf:	01ebc4        	ae_addq56	aeq3, aeq2, aeq3
    8bd2:	633134        	ae_sq56s.i	aeq3, a1, 24
    8bd5:	61c114        	ae_lq56.i	aeq3, a1, 8
    8bd8:	627614        	ae_sq32f.iu	aeq3, a6, 4
    8bdb:	61c134        	ae_lq56.i	aeq3, a1, 24
    8bde:	06f834        	ae_roundsq32sym	aeq3, aeq3
    8be1:	633114        	ae_sq56s.i	aeq3, a1, 8
    8be4:	61c114        	ae_lq56.i	aeq3, a1, 8
    8be7:	627614        	ae_sq32f.iu	aeq3, a6, 4
    8bea:	61c144        	ae_lq56.i	aeq3, a1, 32
    8bed:	f9b6f9c51f 	{ ae_sq32f.iu	aeq0, a5, 4; ae_subq56	aeq1, aeq2, aeq3 }
    8bf2:	06d834        	ae_roundsq32sym	aeq3, aeq1
    8bf5:	627514        	ae_sq32f.iu	aeq3, a5, 4
    8bf8:	f01d           	retw.n

00008bfa <xtensa_fft_pass_32b+0x252>:
	...

00008bfc <xtensa_fft16_32b>:
    8bfc:	004136        	entry	a1, 32
    8bff:	ddd731        	l32r	a3, 35c (86d4 <xtensa_fft8_32b>)
    8c02:	02ad           	mov.n	a10, a2
    8c04:	0003e0        	callx8	a3
    8c07:	ddd631        	l32r	a3, 360 (8638 <xtensa_fft4_32b>)
    8c0a:	40c2a2        	addi	a10, a2, 64
    8c0d:	0003e0        	callx8	a3
    8c10:	60c2a2        	addi	a10, a2, 96
    8c13:	0003e0        	callx8	a3
    8c16:	ddd331        	l32r	a3, 364 (89a8 <xtensa_fft_pass_32b>)
    8c19:	4b0c           	movi.n	a11, 4
    8c1b:	02ad           	mov.n	a10, a2
    8c1d:	0003e0        	callx8	a3
    8c20:	f01d           	retw.n

00008c22 <xtensa_fft16_32b+0x26>:
	...

00008c24 <xtensa_fft32_32b>:
    8c24:	004136        	entry	a1, 32
    8c27:	ddd031        	l32r	a3, 368 (8bfc <xtensa_fft16_32b>)
    8c2a:	02ad           	mov.n	a10, a2
    8c2c:	0003e0        	callx8	a3
    8c2f:	80a032        	movi	a3, 128
    8c32:	a23a           	add.n	a10, a2, a3
    8c34:	ddca31        	l32r	a3, 35c (86d4 <xtensa_fft8_32b>)
    8c37:	0003e0        	callx8	a3
    8c3a:	c0a042        	movi	a4, 192
    8c3d:	a24a           	add.n	a10, a2, a4
    8c3f:	0003e0        	callx8	a3
    8c42:	ddc831        	l32r	a3, 364 (89a8 <xtensa_fft_pass_32b>)
    8c45:	8b0c           	movi.n	a11, 8
    8c47:	02ad           	mov.n	a10, a2
    8c49:	0003e0        	callx8	a3
    8c4c:	f01d           	retw.n

00008c4e <xtensa_fft32_32b+0x2a>:
	...

00008c50 <xtensa_fft64_32b>:
    8c50:	004136        	entry	a1, 32
    8c53:	ddc631        	l32r	a3, 36c (8c24 <xtensa_fft32_32b>)
    8c56:	02ad           	mov.n	a10, a2
    8c58:	0003e0        	callx8	a3
    8c5b:	ddc331        	l32r	a3, 368 (8bfc <xtensa_fft16_32b>)
    8c5e:	01d2a2        	addmi	a10, a2, 0x100
    8c61:	0003e0        	callx8	a3
    8c64:	80a142        	movi	a4, 0x180
    8c67:	a24a           	add.n	a10, a2, a4
    8c69:	0003e0        	callx8	a3
    8c6c:	ddbe31        	l32r	a3, 364 (89a8 <xtensa_fft_pass_32b>)
    8c6f:	0b1c           	movi.n	a11, 16
    8c71:	02ad           	mov.n	a10, a2
    8c73:	0003e0        	callx8	a3
    8c76:	f01d           	retw.n

00008c78 <xtensa_fft128_32b>:
    8c78:	004136        	entry	a1, 32
    8c7b:	ddbd31        	l32r	a3, 370 (8c50 <xtensa_fft64_32b>)
    8c7e:	02ad           	mov.n	a10, a2
    8c80:	0003e0        	callx8	a3
    8c83:	ddba31        	l32r	a3, 36c (8c24 <xtensa_fft32_32b>)
    8c86:	02d2a2        	addmi	a10, a2, 0x200
    8c89:	0003e0        	callx8	a3
    8c8c:	03d2a2        	addmi	a10, a2, 0x300
    8c8f:	0003e0        	callx8	a3
    8c92:	ddb431        	l32r	a3, 364 (89a8 <xtensa_fft_pass_32b>)
    8c95:	0b2c           	movi.n	a11, 32
    8c97:	02ad           	mov.n	a10, a2
    8c99:	0003e0        	callx8	a3
    8c9c:	f01d           	retw.n

00008c9e <xtensa_fft128_32b+0x26>:
	...

00008ca0 <xtensa_fft256_32b>:
    8ca0:	004136        	entry	a1, 32
    8ca3:	ddb331        	l32r	a3, 370 (8c50 <xtensa_fft64_32b>)
    8ca6:	02ad           	mov.n	a10, a2
    8ca8:	0003e0        	callx8	a3
    8cab:	ddb041        	l32r	a4, 36c (8c24 <xtensa_fft32_32b>)
    8cae:	02d2a2        	addmi	a10, a2, 0x200
    8cb1:	0004e0        	callx8	a4
    8cb4:	03d2a2        	addmi	a10, a2, 0x300
    8cb7:	0004e0        	callx8	a4
    8cba:	ddaa41        	l32r	a4, 364 (89a8 <xtensa_fft_pass_32b>)
    8cbd:	0b2c           	movi.n	a11, 32
    8cbf:	02ad           	mov.n	a10, a2
    8cc1:	0004e0        	callx8	a4
    8cc4:	04d2a2        	addmi	a10, a2, 0x400
    8cc7:	0003e0        	callx8	a3
    8cca:	06d2a2        	addmi	a10, a2, 0x600
    8ccd:	0003e0        	callx8	a3
    8cd0:	0b4c           	movi.n	a11, 64
    8cd2:	02ad           	mov.n	a10, a2
    8cd4:	0004e0        	callx8	a4
    8cd7:	f01d           	retw.n

00008cd9 <xtensa_fft256_32b+0x39>:
    8cd9:	000000                                        ...

00008cdc <xtensa_fft512_32b>:
    8cdc:	004136        	entry	a1, 32
    8cdf:	dda531        	l32r	a3, 374 (8ca0 <xtensa_fft256_32b>)
    8ce2:	02ad           	mov.n	a10, a2
    8ce4:	0003e0        	callx8	a3
    8ce7:	dda431        	l32r	a3, 378 (8c78 <xtensa_fft128_32b>)
    8cea:	08d2a2        	addmi	a10, a2, 0x800
    8ced:	0003e0        	callx8	a3
    8cf0:	0cd2a2        	addmi	a10, a2, 0xc00
    8cf3:	0003e0        	callx8	a3
    8cf6:	dd9b31        	l32r	a3, 364 (89a8 <xtensa_fft_pass_32b>)
    8cf9:	80a0b2        	movi	a11, 128
    8cfc:	02ad           	mov.n	a10, a2
    8cfe:	0003e0        	callx8	a3
    8d01:	f01d           	retw.n

00008d03 <xtensa_fft512_32b+0x27>:
	...

00008d04 <real_split>:
    8d04:	00a136        	entry	a1, 80
    8d07:	216120        	srai	a6, a2, 1
    8d0a:	050c           	movi.n	a5, 0
    8d0c:	1388           	l32i.n	a8, a3, 4
    8d0e:	0378           	l32i.n	a7, a3, 0
    8d10:	c0c260        	sub	a12, a2, a6
    8d13:	1459           	s32i.n	a5, a4, 4
    8d15:	b05c30        	addx8	a5, a12, a3
    8d18:	15e8           	l32i.n	a14, a5, 4
    8d1a:	787a           	add.n	a7, a8, a7
    8d1c:	0479           	s32i.n	a7, a4, 0
    8d1e:	b0d640        	addx8	a13, a6, a4
    8d21:	0558           	l32i.n	a5, a5, 0
    8d23:	11fef0        	slli	a15, a14, 1
    8d26:	0d59           	s32i.n	a5, a13, 0
    8d28:	6050f0        	neg	a5, a15
    8d2b:	215150        	srai	a5, a5, 1
    8d2e:	1d59           	s32i.n	a5, a13, 4
    8d30:	dd8951        	l32r	a5, 354 (8978 <F_get_oft_32b>)
    8d33:	82ad           	ae_sext16	a10, a2
    8d35:	b169           	s32i.n	a6, a1, 44
    8d37:	0005e0        	callx8	a5
    8d3a:	81a072        	movi	a7, 129
    8d3d:	727270        	salt	a7, a2, a7
    8d40:	401700        	ssl	a7
    8d43:	a17a00        	sll	a7, a10
    8d46:	fec782        	addi	a8, a7, -2
    8d49:	dd8351        	l32r	a5, 358 (ed50 <ROOTS_512_Q16>)
    8d4c:	11b8f0        	slli	a11, a8, 1
    8d4f:	41b2b0        	srli	a11, a11, 2
    8d52:	7fa092        	movi	a9, 127
    8d55:	a0bb50        	addx4	a11, a11, a5
    8d58:	729970        	salt	a9, a9, a7
    8d5b:	60a070        	neg	a10, a7
    8d5e:	441b04        	ae_lp16x2f.i	aep1, a11, 0
    8d61:	02e7e6        	bgei	a7, 128, 8d67 <real_split+0x63>
    8d64:	1a9194        	ae_selp24.lh	aep1, aep1, aep1

00008d67 <real_split+0x63>:
    8d67:	160c           	movi.n	a6, 1
    8d69:	116610        	slli	a6, a6, 15
    8d6c:	300664        	ae_cvtp24a16x2.ll	aep0, a6, a6
    8d6f:	937a90        	movnez	a7, a10, a9
    8d72:	0242e6        	bgei	a2, 4, 8d78 <real_split+0x74>
    8d75:	002446        	j	8e0a <real_split+0x106>
    8d78:	b168           	l32i.n	a6, a1, 44
    8d7a:	b0b230        	addx8	a11, a2, a3
    8d7d:	14c3e2        	addi	a14, a3, 20
    8d80:	f60b           	addi.n	a15, a6, -1
    8d82:	fccbd2        	addi	a13, a11, -4
    8d85:	c48b           	addi.n	a12, a4, 8
    8d87:	60c334        	ae_lq32f.i	aeq3, a3, 12
    8d8a:	604324        	ae_lq32f.i	aeq1, a3, 8
    8d8d:	9027807daf 	{ movi	a10, 125; ae_mulzsaq32sp16u.lh	aeq0, aeq1, aep1, aeq3, aep1 }
    8d92:	f8ceb2        	addi	a11, a14, -8
    8d95:	718f76        	loop	a15, 8e0a <real_split+0x106>
    8d98:	608df4        	ae_lq32f.i	aeq2, a13, -4
    8d9b:	887a           	add.n	a8, a8, a7
    8d9d:	c225ba014f 	{ ae_sq56s.i	aeq0, a1, 32; ae_mulzssq32sp16u.lh	aeq0, aeq3, aep1, aeq1, aep1 }
    8da2:	c30864        	ae_mulzaafq32sp16u.lh	aeq1, aeq1, aep0, aeq2, aep0
    8da5:	630114        	ae_sq56s.i	aeq0, a1, 8
    8da8:	600d04        	ae_lq32f.i	aeq0, a13, 0
    8dab:	32247a113f 	{ ae_sq56s.i	aeq1, a1, 24; ae_mulzaaq32sp16u.lh	aeq1, aeq2, aep1, aeq0, aep1 }
    8db0:	4b014fcdde 	{ addi	a13, a13, -4; ae_mulzasfq32sp16u.lh	aeq3, aeq3, aep0, aeq0, aep0 }
    8db5:	90263dc11f 	{ ae_lq56.i	aeq2, a1, 8; ae_mulzsaq32sp16u.lh	aeq0, aeq0, aep1, aeq2, aep1 }
    8dba:	fafa3a112f 	{ ae_sq56s.i	aeq1, a1, 16; ae_addq56	aeq2, aeq3, aeq2 }
    8dbf:	f8723de14f 	{ ae_lq56.i	aeq3, a1, 32; ae_addq56	aeq0, aeq2, aeq0 }
    8dc4:	614134        	ae_lq56.i	aeq1, a1, 24
    8dc7:	fbee3da12f 	{ ae_lq56.i	aeq1, a1, 16; ae_addq56	aeq3, aeq1, aeq3 }
    8dcc:	f97e3b001f 	{ ae_sraiq56	aeq0, aeq0, 1; ae_addq56	aeq1, aeq3, aeq1 }
    8dd1:	1168f0        	slli	a6, a8, 1
    8dd4:	fc447b105f 	{ ae_sraiq56	aeq1, aeq1, 1; ae_roundsq32sym	aeq0, aeq0 }
    8dd9:	416260        	srli	a6, a6, 2
    8ddc:	72fa80        	salt	a15, a10, a8
    8ddf:	fd4c798c1f 	{ ae_sq32f.i	aeq0, a12, 4; ae_roundsq32sym	aeq1, aeq1 }
    8de4:	a06650        	addx4	a6, a6, a5
    8de7:	3099f0        	xor	a9, a9, a15
    8dea:	621c04        	ae_sq32f.i	aeq1, a12, 0
    8ded:	cc4b           	addi.n	a12, a12, 4
    8def:	60e070        	neg	a14, a7
    8df2:	441604        	ae_lp16x2f.i	aep1, a6, 0
    8df5:	19cc           	bnez.n	a9, 8dfa <real_split+0xf6>
    8df7:	1a9194        	ae_selp24.lh	aep1, aep1, aep1
    8dfa:	604b14        	ae_lq32f.i	aeq1, a11, 4
    8dfd:	937ef0        	movnez	a7, a14, a15
    8e00:	60db24        	ae_lq32f.iu	aeq3, a11, 8
    8e03:	90278fcdde 	{ addi	a13, a13, -4; ae_mulzsaq32sp16u.lh	aeq0, aeq1, aep1, aeq3, aep1 }
    8e08:	cc4b           	addi.n	a12, a12, 4

00008e0a <real_split+0x106>:
    8e0a:	b168           	l32i.n	a6, a1, 44
    8e0c:	ef7c           	movi.n	a15, -2
    8e0e:	c08f70        	sub	a8, a15, a7
    8e11:	b61b           	addi.n	a11, a6, 1
    8e13:	1168f0        	slli	a6, a8, 1
    8e16:	7da0a2        	movi	a10, 125
    8e19:	416260        	srli	a6, a6, 2
    8e1c:	72ca80        	salt	a12, a10, a8
    8e1f:	a06650        	addx4	a6, a6, a5
    8e22:	3099c0        	xor	a9, a9, a12
    8e25:	441604        	ae_lp16x2f.i	aep1, a6, 0
    8e28:	498c           	beqz.n	a9, 8e30 <real_split+0x12c>
    8e2a:	0b2b27        	blt	a11, a2, 8e39 <real_split+0x135>
    8e2d:	002b86        	j	8edf <real_split+0x1db>

00008e30 <real_split+0x12c>:
    8e30:	1a9194        	ae_selp24.lh	aep1, aep1, aep1
    8e33:	022b27        	blt	a11, a2, 8e39 <real_split+0x135>
    8e36:	002946        	j	8edf <real_split+0x1db>
    8e39:	b1f8           	l32i.n	a15, a1, 44
    8e3b:	60a070        	neg	a10, a7
    8e3e:	93a7c0        	movnez	a10, a7, a12
    8e41:	f77c           	movi.n	a7, -1
    8e43:	b0ef30        	addx8	a14, a15, a3
    8e46:	307f70        	xor	a7, a15, a7
    8e49:	c062b0        	sub	a6, a2, a11
    8e4c:	b0db30        	addx8	a13, a11, a3
    8e4f:	b0c630        	addx8	a12, a6, a3
    8e52:	14cee2        	addi	a14, a14, 20
    8e55:	772a           	add.n	a7, a7, a2
    8e57:	b0bb40        	addx8	a11, a11, a4
    8e5a:	7da042        	movi	a4, 125
    8e5d:	60cd14        	ae_lq32f.i	aeq3, a13, 4
    8e60:	604d04        	ae_lq32f.i	aeq1, a13, 0
    8e63:	3c4b           	addi.n	a3, a12, 4
    8e65:	c0278f8e2e 	{ addi	a2, a14, -8; ae_mulzssq32sp16u.lh	aeq0, aeq1, aep1, aeq3, aep1 }
    8e6a:	718776        	loop	a7, 8edf <real_split+0x1db>
    8e6d:	6083f4        	ae_lq32f.i	aeq2, a3, -4
    8e70:	88aa           	add.n	a8, a8, a10
    8e72:	9225ba014f 	{ ae_sq56s.i	aeq0, a1, 32; ae_mulzsaq32sp16u.lh	aeq0, aeq3, aep1, aeq1, aep1 }
    8e77:	1803404b6e 	{ addi	a6, a11, 4; ae_mulzaafq32sp16u.lh	aeq1, aeq1, aep0, aeq2, aep0 }
    8e7c:	630114        	ae_sq56s.i	aeq0, a1, 8
    8e7f:	600304        	ae_lq32f.i	aeq0, a3, 0
    8e82:	62247a113f 	{ ae_sq56s.i	aeq1, a1, 24; ae_mulzasq32sp16u.lh	aeq1, aeq2, aep1, aeq0, aep1 }
    8e87:	4b014fc33e 	{ addi	a3, a3, -4; ae_mulzasfq32sp16u.lh	aeq3, aeq3, aep0, aeq0, aep0 }
    8e8c:	c0263dc11f 	{ ae_lq56.i	aeq2, a1, 8; ae_mulzssq32sp16u.lh	aeq0, aeq0, aep1, aeq2, aep1 }
    8e91:	fafa3a112f 	{ ae_sq56s.i	aeq1, a1, 16; ae_addq56	aeq2, aeq3, aeq2 }
    8e96:	f8723de14f 	{ ae_lq56.i	aeq3, a1, 32; ae_addq56	aeq0, aeq2, aeq0 }
    8e9b:	614134        	ae_lq56.i	aeq1, a1, 24
    8e9e:	fbee3da12f 	{ ae_lq56.i	aeq1, a1, 16; ae_addq56	aeq3, aeq1, aeq3 }
    8ea3:	f97e3b001f 	{ ae_sraiq56	aeq0, aeq0, 1; ae_addq56	aeq1, aeq3, aeq1 }
    8ea8:	fc447b105f 	{ ae_sraiq56	aeq1, aeq1, 1; ae_roundsq32sym	aeq0, aeq0 }
    8ead:	11c8f0        	slli	a12, a8, 1
    8eb0:	fd4c798b1f 	{ ae_sq32f.i	aeq0, a11, 4; ae_roundsq32sym	aeq1, aeq1 }
    8eb5:	41c2c0        	srli	a12, a12, 2
    8eb8:	621b04        	ae_sq32f.i	aeq1, a11, 0
    8ebb:	72b480        	salt	a11, a4, a8
    8ebe:	a0cc50        	addx4	a12, a12, a5
    8ec1:	3099b0        	xor	a9, a9, a11
    8ec4:	6070a0        	neg	a7, a10
    8ec7:	441c04        	ae_lp16x2f.i	aep1, a12, 0
    8eca:	19cc           	bnez.n	a9, 8ecf <real_split+0x1cb>
    8ecc:	1a9194        	ae_selp24.lh	aep1, aep1, aep1
    8ecf:	93a7b0        	movnez	a10, a7, a11
    8ed2:	604214        	ae_lq32f.i	aeq1, a2, 4
    8ed5:	60d224        	ae_lq32f.iu	aeq3, a2, 8
    8ed8:	c0278fc33e 	{ addi	a3, a3, -4; ae_mulzssq32sp16u.lh	aeq0, aeq1, aep1, aeq3, aep1 }
    8edd:	b64b           	addi.n	a11, a6, 4

00008edf <real_split+0x1db>:
    8edf:	f01d           	retw.n

00008ee1 <real_split+0x1dd>:
    8ee1:	000000                                        ...

00008ee4 <xtensa_real_fft_32b>:
    8ee4:	004136        	entry	a1, 32
    8ee7:	1142d0        	slli	a4, a2, 3
    8eea:	c04340        	sub	a4, a3, a4
    8eed:	0ed2a6        	blti	a2, 64, 8eff <xtensa_real_fft_32b+0x1b>
    8ef0:	1af2e6        	bgei	a2, 0x100, 8f0e <xtensa_real_fft_32b+0x2a>
    8ef3:	26d226        	beqi	a2, 64, 8f1d <xtensa_real_fft_32b+0x39>
    8ef6:	3de266        	bnei	a2, 128, 8f37 <xtensa_real_fft_32b+0x53>
    8ef9:	dd1f51        	l32r	a5, 378 (8c78 <xtensa_fft128_32b>)
    8efc:	000c86        	j	8f32 <xtensa_real_fft_32b+0x4e>

00008eff <xtensa_real_fft_32b+0x1b>:
    8eff:	208226        	beqi	a2, 8, 8f23 <xtensa_real_fft_32b+0x3f>
    8f02:	29b226        	beqi	a2, 16, 8f2f <xtensa_real_fft_32b+0x4b>
    8f05:	2ec266        	bnei	a2, 32, 8f37 <xtensa_real_fft_32b+0x53>
    8f08:	dd1951        	l32r	a5, 36c (8c24 <xtensa_fft32_32b>)
    8f0b:	0008c6        	j	8f32 <xtensa_real_fft_32b+0x4e>

00008f0e <xtensa_real_fft_32b+0x2a>:
    8f0e:	17f226        	beqi	a2, 0x100, 8f29 <xtensa_real_fft_32b+0x45>
    8f11:	00a252        	movi	a5, 0x200
    8f14:	1f9257        	bne	a2, a5, 8f37 <xtensa_real_fft_32b+0x53>
    8f17:	dd1951        	l32r	a5, 37c (8cdc <xtensa_fft512_32b>)
    8f1a:	000506        	j	8f32 <xtensa_real_fft_32b+0x4e>

00008f1d <xtensa_real_fft_32b+0x39>:
    8f1d:	dd1451        	l32r	a5, 370 (8c50 <xtensa_fft64_32b>)
    8f20:	000386        	j	8f32 <xtensa_real_fft_32b+0x4e>

00008f23 <xtensa_real_fft_32b+0x3f>:
    8f23:	dd0e51        	l32r	a5, 35c (86d4 <xtensa_fft8_32b>)
    8f26:	000206        	j	8f32 <xtensa_real_fft_32b+0x4e>

00008f29 <xtensa_real_fft_32b+0x45>:
    8f29:	dd1251        	l32r	a5, 374 (8ca0 <xtensa_fft256_32b>)
    8f2c:	000086        	j	8f32 <xtensa_real_fft_32b+0x4e>

00008f2f <xtensa_real_fft_32b+0x4b>:
    8f2f:	dd0e51        	l32r	a5, 368 (8bfc <xtensa_fft16_32b>)
    8f32:	03ad           	mov.n	a10, a3
    8f34:	0005e0        	callx8	a5
    8f37:	dd1251        	l32r	a5, 380 (8d04 <real_split>)
    8f3a:	02ad           	mov.n	a10, a2
    8f3c:	03bd           	mov.n	a11, a3
    8f3e:	04cd           	mov.n	a12, a4
    8f40:	0005e0        	callx8	a5
    8f43:	0358           	l32i.n	a5, a3, 0
    8f45:	1368           	l32i.n	a6, a3, 4
    8f47:	070c           	movi.n	a7, 0
    8f49:	1379           	s32i.n	a7, a3, 4
    8f4b:	c05560        	sub	a5, a5, a6
    8f4e:	0359           	s32i.n	a5, a3, 0
    8f50:	1922a6        	blti	a2, 2, 8f6d <xtensa_real_fft_32b+0x89>
    8f53:	520b           	addi.n	a5, a2, -1
    8f55:	448b           	addi.n	a4, a4, 8
    8f57:	b02530        	addx8	a2, a5, a3
    8f5a:	0f8576        	loop	a5, 8f6d <xtensa_real_fft_32b+0x89>
    8f5d:	1438           	l32i.n	a3, a4, 4
    8f5f:	0458           	l32i.n	a5, a4, 0
    8f61:	448b           	addi.n	a4, a4, 8
    8f63:	603030        	neg	a3, a3
    8f66:	0259           	s32i.n	a5, a2, 0
    8f68:	1239           	s32i.n	a3, a2, 4
    8f6a:	f8c222        	addi	a2, a2, -8

00008f6d <xtensa_real_fft_32b+0x89>:
    8f6d:	f01d           	retw.n

00008f6f <xtensa_real_fft_32b+0x8b>:
	...

00008f70 <xtensa_comp_fft_32b>:
    8f70:	004136        	entry	a1, 32
    8f73:	0ed2a6        	blti	a2, 64, 8f85 <xtensa_comp_fft_32b+0x15>
    8f76:	1af2e6        	bgei	a2, 0x100, 8f94 <xtensa_comp_fft_32b+0x24>
    8f79:	26d226        	beqi	a2, 64, 8fa3 <xtensa_comp_fft_32b+0x33>
    8f7c:	3de266        	bnei	a2, 128, 8fbd <xtensa_comp_fft_32b+0x4d>
    8f7f:	dcfe21        	l32r	a2, 378 (8c78 <xtensa_fft128_32b>)
    8f82:	000c86        	j	8fb8 <xtensa_comp_fft_32b+0x48>

00008f85 <xtensa_comp_fft_32b+0x15>:
    8f85:	208226        	beqi	a2, 8, 8fa9 <xtensa_comp_fft_32b+0x39>
    8f88:	29b226        	beqi	a2, 16, 8fb5 <xtensa_comp_fft_32b+0x45>
    8f8b:	2ec266        	bnei	a2, 32, 8fbd <xtensa_comp_fft_32b+0x4d>
    8f8e:	dcf721        	l32r	a2, 36c (8c24 <xtensa_fft32_32b>)
    8f91:	0008c6        	j	8fb8 <xtensa_comp_fft_32b+0x48>

00008f94 <xtensa_comp_fft_32b+0x24>:
    8f94:	17f226        	beqi	a2, 0x100, 8faf <xtensa_comp_fft_32b+0x3f>
    8f97:	00a242        	movi	a4, 0x200
    8f9a:	1f9247        	bne	a2, a4, 8fbd <xtensa_comp_fft_32b+0x4d>
    8f9d:	dcf721        	l32r	a2, 37c (8cdc <xtensa_fft512_32b>)
    8fa0:	000506        	j	8fb8 <xtensa_comp_fft_32b+0x48>

00008fa3 <xtensa_comp_fft_32b+0x33>:
    8fa3:	dcf321        	l32r	a2, 370 (8c50 <xtensa_fft64_32b>)
    8fa6:	000386        	j	8fb8 <xtensa_comp_fft_32b+0x48>

00008fa9 <xtensa_comp_fft_32b+0x39>:
    8fa9:	dcec21        	l32r	a2, 35c (86d4 <xtensa_fft8_32b>)
    8fac:	000206        	j	8fb8 <xtensa_comp_fft_32b+0x48>

00008faf <xtensa_comp_fft_32b+0x3f>:
    8faf:	dcf121        	l32r	a2, 374 (8ca0 <xtensa_fft256_32b>)
    8fb2:	000086        	j	8fb8 <xtensa_comp_fft_32b+0x48>

00008fb5 <xtensa_comp_fft_32b+0x45>:
    8fb5:	dcec21        	l32r	a2, 368 (8bfc <xtensa_fft16_32b>)
    8fb8:	03ad           	mov.n	a10, a3
    8fba:	0002e0        	callx8	a2
    8fbd:	f01d           	retw.n

00008fbf <xtensa_comp_fft_32b+0x4f>:
	...

00008fc0 <sw_fft_32b_2811>:
    8fc0:	006136        	entry	a1, 48
    8fc3:	069d           	mov.n	a9, a6
    8fc5:	161666        	bnei	a6, 1, 8fdf <sw_fft_32b_2811+0x1f>
    8fc8:	176c           	movi.n	a7, -31
    8fca:	f47070        	extui	a7, a7, 0, 16
    8fcd:	32d3a6        	blti	a3, 64, 9003 <sw_fft_32b_2811+0x43>
    8fd0:	26f3a6        	blti	a3, 0x100, 8ffa <sw_fft_32b_2811+0x3a>
    8fd3:	3df326        	beqi	a3, 0x100, 9014 <sw_fft_32b_2811+0x54>
    8fd6:	00a262        	movi	a6, 0x200
    8fd9:	371367        	beq	a3, a6, 9014 <sw_fft_32b_2811+0x54>
    8fdc:	002cc6        	j	9093 <sw_fft_32b_2811+0xd3>

00008fdf <sw_fft_32b_2811+0x1f>:
    8fdf:	998c           	beqz.n	a9, 8fec <sw_fft_32b_2811+0x2c>
    8fe1:	1173f0        	slli	a7, a3, 1
    8fe4:	036d           	mov.n	a6, a3
    8fe6:	2f13e6        	bgei	a3, 1, 9019 <sw_fft_32b_2811+0x59>
    8fe9:	0014c6        	j	9040 <sw_fft_32b_2811+0x80>

00008fec <sw_fft_32b_2811+0x2c>:
    8fec:	176c           	movi.n	a7, -31
    8fee:	f47070        	extui	a7, a7, 0, 16
    8ff1:	0ed3a6        	blti	a3, 64, 9003 <sw_fft_32b_2811+0x43>
    8ff4:	02f3a6        	blti	a3, 0x100, 8ffa <sw_fft_32b_2811+0x3a>
    8ff7:	002706        	j	9097 <sw_fft_32b_2811+0xd7>
    8ffa:	16d326        	beqi	a3, 64, 9014 <sw_fft_32b_2811+0x54>
    8ffd:	13e326        	beqi	a3, 128, 9014 <sw_fft_32b_2811+0x54>
    9000:	0023c6        	j	9093 <sw_fft_32b_2811+0xd3>

00009003 <sw_fft_32b_2811+0x43>:
    9003:	f8c362        	addi	a6, a3, -8
    9006:	881c           	movi.n	a8, 24
    9008:	02b867        	bgeu	a8, a6, 900e <sw_fft_32b_2811+0x4e>
    900b:	002106        	j	9093 <sw_fft_32b_2811+0xd3>
    900e:	dcdd81        	l32r	a8, 384 (1000101 <_end+0xff129d>)
    9011:	7e5867        	bbc	a8, a6, 9093 <sw_fft_32b_2811+0xd3>
    9014:	936d           	ae_zext16	a6, a3
    9016:	1176f0        	slli	a7, a6, 1
    9019:	600204        	ae_lq32f.i	aeq0, a2, 0
    901c:	028d           	mov.n	a8, a2
    901e:	088776        	loop	a7, 902a <sw_fft_32b_2811+0x6a>
    9021:	3404b4        	ae_sraaq56	aeq0, aeq0, a4
    9024:	620804        	ae_sq32f.i	aeq0, a8, 0
    9027:	601814        	ae_lq32f.iu	aeq0, a8, 4

0000902a <sw_fft_32b_2811+0x6a>:
    902a:	121966        	bnei	a9, 1, 9040 <sw_fft_32b_2811+0x80>
    902d:	dcd661        	l32r	a6, 388 (8f70 <xtensa_comp_fft_32b>)
    9030:	03ad           	mov.n	a10, a3
    9032:	02bd           	mov.n	a11, a2
    9034:	0006e0        	callx8	a6
    9037:	030c           	movi.n	a3, 0
    9039:	181526        	beqi	a5, 1, 9055 <sw_fft_32b_2811+0x95>
    903c:	001446        	j	9091 <sw_fft_32b_2811+0xd1>

0000903f <sw_fft_32b_2811+0x7f>:
	...

00009040 <sw_fft_32b_2811+0x80>:
    9040:	dcd381        	l32r	a8, 38c (8ee4 <xtensa_real_fft_32b>)
    9043:	03ad           	mov.n	a10, a3
    9045:	02bd           	mov.n	a11, a2
    9047:	0008e0        	callx8	a8
    904a:	11f6e0        	slli	a15, a6, 2
    904d:	603070        	neg	a3, a7
    9050:	0f7d           	mov.n	a7, a15
    9052:	3b1566        	bnei	a5, 1, 9091 <sw_fft_32b_2811+0xd1>
    9055:	a02320        	addx4	a2, a3, a2
    9058:	fd24bd020f 	{ ae_lq32f.i	aeq0, a2, 0; ae_zeroq56	aeq1 }
    905d:	0f17a6        	blti	a7, 1, 9070 <sw_fft_32b_2811+0xb0>
    9060:	fe0453322f 	{ or	a3, a2, a2; ae_movq56	aeq2, aeq0 }
    9065:	078776        	loop	a7, 9070 <sw_fft_32b_2811+0xb0>
    9068:	ff80bd531f 	{ ae_lq32f.iu	aeq2, a3, 4; ae_absq56	aeq3, aeq2 }
    906d:	0179e4        	ae_orq56	aeq1, aeq1, aeq3

00009070 <sw_fft_32b_2811+0xb0>:
    9070:	621134        	ae_sq32f.i	aeq1, a1, 12
    9073:	3158           	l32i.n	a5, a1, 12
    9075:	030c           	movi.n	a3, 0
    9077:	40e560        	nsa	a6, a5
    907a:	b33650        	movgez	a3, a6, a5
    907d:	0d17a6        	blti	a7, 1, 908e <sw_fft_32b_2811+0xce>
    9080:	0a8776        	loop	a7, 908e <sw_fft_32b_2811+0xce>
    9083:	fc24fe830f 	{ ae_slaasq56s	aeq0, aeq0, a3; nop }
    9088:	620204        	ae_sq32f.i	aeq0, a2, 0
    908b:	601214        	ae_lq32f.iu	aeq0, a2, 4
    908e:	c04430        	sub	a4, a4, a3

00009091 <sw_fft_32b_2811+0xd1>:
    9091:	047d           	mov.n	a7, a4
    9093:	872d           	ae_sext16	a2, a7
    9095:	f01d           	retw.n

00009097 <sw_fft_32b_2811+0xd7>:
    9097:	00a262        	movi	a6, 0x200
    909a:	029367        	bne	a3, a6, 90a0 <sw_fft_32b_2811+0xe0>
    909d:	ffdcc6        	j	9014 <sw_fft_32b_2811+0x54>
    90a0:	02f366        	bnei	a3, 0x100, 90a6 <sw_fft_32b_2811+0xe6>
    90a3:	ffdb46        	j	9014 <sw_fft_32b_2811+0x54>
    90a6:	fffa46        	j	9093 <sw_fft_32b_2811+0xd3>

000090a9 <sw_fft_32b_2811+0xe9>:
    90a9:	000000                                        ...

000090ac <__do_global_ctors_aux>:
    90ac:	004136        	entry	a1, 32
    90af:	dcb831        	l32r	a3, 390 (9dc0 <__CTOR_END__>)
    90b2:	fcc322        	addi	a2, a3, -4
    90b5:	0228           	l32i.n	a2, a2, 0
    90b7:	f8c332        	addi	a3, a3, -8
    90ba:	0a0226        	beqi	a2, -1, 90c8 <__do_global_ctors_aux+0x1c>

000090bd <__do_global_ctors_aux+0x11>:
    90bd:	0002e0        	callx8	a2
    90c0:	0328           	l32i.n	a2, a3, 0
    90c2:	fcc332        	addi	a3, a3, -4
    90c5:	f40266        	bnei	a2, -1, 90bd <__do_global_ctors_aux+0x11>
    90c8:	f01d           	retw.n

000090ca <__do_global_ctors_aux+0x1e>:
    90ca:	00000000                                 ......

000090d0 <memset>:
    90d0:	004136        	entry	a1, 32
    90d3:	a28c           	beqz.n	a2, 90e1 <memset+0x11>
    90d5:	848c           	beqz.n	a4, 90e1 <memset+0x11>
    90d7:	025d           	mov.n	a5, a2
    90d9:	048476        	loop	a4, 90e1 <memset+0x11>
    90dc:	004532        	s8i	a3, a5, 0
    90df:	551b           	addi.n	a5, a5, 1

000090e1 <memset+0x11>:
    90e1:	f01d           	retw.n

000090e3 <memset+0x13>:
	...

000090e4 <xt_memset>:
    90e4:	004136        	entry	a1, 32
    90e7:	928c           	beqz.n	a2, 90f4 <xt_memset+0x10>
    90e9:	748c           	beqz.n	a4, 90f4 <xt_memset+0x10>
    90eb:	025d           	mov.n	a5, a2
    90ed:	038476        	loop	a4, 90f4 <xt_memset+0x10>
    90f0:	653d           	ae_s16i.n	a3, a5, 0
    90f2:	552b           	addi.n	a5, a5, 2

000090f4 <xt_memset+0x10>:
    90f4:	f01d           	retw.n

000090f6 <xt_memset+0x12>:
	...

000090f8 <xt_memcpy>:
    90f8:	004136        	entry	a1, 32
    90fb:	025d           	mov.n	a5, a2
    90fd:	020c           	movi.n	a2, 0
    90ff:	b5bc           	beqz.n	a5, 913e <xt_memcpy+0x46>
    9101:	93bc           	beqz.n	a3, 913e <xt_memcpy+0x46>
    9103:	24b357        	bgeu	a3, a5, 912b <xt_memcpy+0x33>
    9106:	902430        	addx2	a2, a4, a3
    9109:	1eb527        	bgeu	a5, a2, 912b <xt_memcpy+0x33>
    910c:	052d           	mov.n	a2, a5
    910e:	c4ac           	beqz.n	a4, 913e <xt_memcpy+0x46>
    9110:	240b           	addi.n	a2, a4, -1
    9112:	1122f0        	slli	a2, a2, 1
    9115:	332a           	add.n	a3, a3, a2
    9117:	652a           	add.n	a6, a5, a2
    9119:	0b8476        	loop	a4, 9128 <xt_memcpy+0x30>
    911c:	232d           	ae_l16si.n	a2, a3, 0
    911e:	662d           	ae_s16i.n	a2, a6, 0
    9120:	fec332        	addi	a3, a3, -2
    9123:	052d           	mov.n	a2, a5
    9125:	fec662        	addi	a6, a6, -2

00009128 <xt_memcpy+0x30>:
    9128:	000486        	j	913e <xt_memcpy+0x46>

0000912b <xt_memcpy+0x33>:
    912b:	052d           	mov.n	a2, a5
    912d:	d48c           	beqz.n	a4, 913e <xt_memcpy+0x46>
    912f:	056d           	mov.n	a6, a5
    9131:	098476        	loop	a4, 913e <xt_memcpy+0x46>
    9134:	232d           	ae_l16si.n	a2, a3, 0
    9136:	662d           	ae_s16i.n	a2, a6, 0
    9138:	332b           	addi.n	a3, a3, 2
    913a:	052d           	mov.n	a2, a5
    913c:	662b           	addi.n	a6, a6, 2

0000913e <xt_memcpy+0x46>:
    913e:	f01d           	retw.n

00009140 <__ashldi3>:
    9140:	002136        	entry	a1, 16
    9143:	401400        	ssl	a4
    9146:	07c4e6        	bgei	a4, 32, 9151 <__ashldi3+0x11>
    9149:	813320        	src	a3, a3, a2
    914c:	a12200        	sll	a2, a2
    914f:	f01d           	retw.n

00009151 <__ashldi3+0x11>:
    9151:	a13200        	sll	a3, a2
    9154:	020c           	movi.n	a2, 0
    9156:	f01d           	retw.n

00009158 <__ashrdi3>:
    9158:	002136        	entry	a1, 16
    915b:	400400        	ssr	a4
    915e:	07c4e6        	bgei	a4, 32, 9169 <__ashrdi3+0x11>
    9161:	812320        	src	a2, a3, a2
    9164:	b13030        	sra	a3, a3
    9167:	f01d           	retw.n

00009169 <__ashrdi3+0x11>:
    9169:	b12030        	sra	a2, a3
    916c:	313f30        	srai	a3, a3, 31
    916f:	f01d           	retw.n

00009171 <__ashrdi3+0x19>:
    9171:	000000                                        ...

00009174 <_fini>:
    9174:	008136        	entry	a1, 64
    9177:	dc8781        	l32r	a8, 394 (3b0 <__do_global_dtors_aux>)
    917a:	f03d           	nop.n
    917c:	0008e0        	callx8	a8

0000917f <_fini+0xb>:
    917f:	f01d           	retw.n
