
Build/lib/pisplit_ecnr_inear_v2_position_independent.splitload.lib:     file format elf32-xtensa-le


Disassembly of section .text:

00000000 <_init-0x624>:
       0:	00000670 0000e4c8 0000f48c 00000000     p...............
      10:	0000f458 00000000 0000f474 00011250     X.......t...P...
      20:	0000f4e8 00003668 0000f501 00003784     ....h6.......7..
      30:	0000f518 0000411c 0000f52f 00004f44     .....A../...DO..
      40:	0000f54a 00009044 0000f55e 00004e8c     J...D...^....N..
      50:	0000f575 00008c94 0000f589 00004ee8     u............N..
      60:	0000f5a0 00004fa0 0000f5be 0000842c     .....O......,...
      70:	0000f5d7 0000d3f4 0000f5e7 00003670     ............p6..
      80:	0000f601 00004ff4 0000f623 0000825c     .....O..#...\...
      90:	0000f640 00006804 0000f65e 00005004     @....h..^....P..
      a0:	0000f67e 00005188 0000f69e 00003660     ~....Q......`6..
      b0:	0000f4a0 000008f0 00011254 00010cc0     ........T.......
      c0:	000109c0 00010a30 0000e53c 0001125c     ....0...<...\...
      d0:	0000e550 00010ca0 dacccccd 0dfffffe     P...............
      e0:	00b33333 fb4ccccd fcb33333 7fff0000     33....L.33......
      f0:	0000e4e8 00000a94 33334ccd 7fe70019     .........L33....
     100:	7e1401ec 00006dd0 0000e528 00147ae1     ...~.m..(....z..
     110:	00001590 00533333 005851ec 005ae148     ....33S..QX.H.Z.
     120:	005ccccd 002ccccd 00466666 0000c148     ..\...,.ffF.H...
     130:	7ffffffe 005a8200 c28f0000 cccd0000     ......Z.........
     140:	e6660000 f3330000 0ccd0000 199a0000     ..f...3.........
     150:	33330000 3d710000 004ccccd 006ccccd     ..33..q=..L...l.
     160:	0059999a 00733333 0070a3d7 007e147b     ..Y.33s...p.{.~.
     170:	007fbe77 00001098 0039999a 005d70a4     w.........9..p].
     180:	00666666 00014001 000ccccd 0000169c     fff..@..........
     190:	0000e598 000aaaab 00000948 00cccccd     ........H.......
     1a0:	0099999a 00435e51 0159999a 13ffffff     ....Q^C...Y.....
     1b0:	f570a3d7 2428f5c4 00002285 00300040     ..p...($."..@.0.
     1c0:	00200018 00c00100 00600040 00002a28     .. .....@.`.(*..
     1d0:	000029a0 000029e8 000cd080 0000f6c0     .)...)..........
     1e0:	002aaa00 00010930 0000c254 0000c14c     ..*.0...T...L...
     1f0:	00002ab8 00002b20 00002c5c 00002bb8     .*.. +..\,...+..
     200:	00002d78 00002cf8 000034f0 00009958     x-...,...4..X...
     210:	0000d308 000036f4 00002580 00008e5c     .....6...%..\...
     220:	00011258 00006988 00008328 00010b40     X....i..(...@...
     230:	00010b60 00010ba0 00010be0 00011111     `...............
     240:	00004044 0000399c 00003b3c 000039d0     D@...9..<;...9..
     250:	00003bc8 00003cf8 00002df8 00003094     .;...<...-...0..
     260:	00003d98 00003c6c 00003a88 00006ebc     .=..l<...:...n..
     270:	0000713c 00007438 00007284 00007828     <q..8t...r..(x..
     280:	00007998 00003724 00007d10 00007e60     .y..$7...}..`~..
     290:	000076cc 00003334 00003378 00009fbc     .v..43..x3......
     2a0:	00008d2c 00003f9c 00003f30 00003b84     ,....?..0?...;..
     2b0:	00009084 00008cd8 0000d414 00002828     ............((..
     2c0:	00009948 0000993c 000098a8 00009938     H...<.......8...
     2d0:	0000992c 00009928 0000994a 00009930     ,...(...J...0...
     2e0:	00009790 00009794 00009798 00009788     ................
     2f0:	7fbe0042 0000978c 00009792 0000f780     B...............
     300:	7f800080 78000800 0000994c 00017fff     .......xL.......
     310:	7c000400 00009954 00009932 000097a4     ...|T...2.......
     320:	000097a8 0006ffff 000033bc 00003400     .........3...4..
     330:	00009796 0d330000 0e390000 000091d0     ......3...9.....
     340:	000ccccc 00393e4b 00155555 00175e97     ....K>9.UU...^..
     350:	000068a8 00006e58 00006df0 c0010000     .h..Xn...m......
     360:	3fff0000 00008198 0000fdf0 0000fce0     ...?............
     370:	0000f7c0 00010000 0000fd70 0000f940     ........p...@...
     380:	00010210 0000fdc0 0000fb00 007fff00     ................
     390:	00010d00 0000856c 00009694 00009468     ....l.......h...
     3a0:	000087c4 00008908 000087c1 000087be     ................
     3b0:	0000969c 00009454 000087b8 00009458     ....T.......X...
     3c0:	0000945c 00009464 0000879a 00009472     \...d.......r...
     3d0:	000096a4 0000946e 0000892c 00008728     ....n...,...(...
     3e0:	0000872a 00008730 0000873c 0000874a     *...0...<...J...
     3f0:	00008770 00008790 0000878c 00008774     p...........t...
     400:	00008764 00010f20 0000ee09 000009a4     d... ...........
     410:	0000d394 00008700 0000ba64 0000d828     ........d...(...
     420:	0000d9d8 00001cd8 0000a2c0 00001d28     ............(...
     430:	0000a458 0000a590 0000a8d4 0000aa28     X...........(...
     440:	0000bde8 0000aca0 00000760 000035c0     ........`....5..
     450:	0000b1c4 00011140 00008ea4 000090d8     ....@...........
     460:	00038e39 00035e51 ffe9ffe9 00010420     9...Q^...... ...
     470:	0000cbc4 7f5c00a4 7ff00010 0000ced0     ......\.........
     480:	034ccccd 00d9999b fe266666 01eb851f     ..L.....ff&.....
     490:	04cccccd ffa66666 02bfffff 0000e667     ....ff......g...
     4a0:	0000e001 0000a298 46666666 2666599a     ........fffF.Yf&
     4b0:	1b333333 1e666666 7ccd0333 23333333     333.fff.3..|333#
     4c0:	1ccccccd 00333333 7eb80148 40004000     ....333.H..~.@.@
     4d0:	6666199a 00266666 599a2666 007ccccd     ..ffff&.f&.Y..|.
     4e0:	7f1b00e5 00009130 6ccd1333 799a0666     ....0...3..lf..y
     4f0:	5999999a 000109a0 10000001 0000936c     ...Y........l...
     500:	0000a6e0 75c30a3d 00009180 00010cf0     ....=..u........
     510:	000e38e4 00124925 00010ce0 00000ae8     .8..%I..........
     520:	00001088 0000ab00 0000abd0 00003444     ............D4..
     530:	0000b038 fed9999a 0000b394 0000b4d8     8...............
     540:	0000bbb8 0000b644 0000b78c 0000b840     ....D.......@...
     550:	0000d448 0000d6a4 80000001 0000c5b8     H...............
     560:	00010820 0000c314 0000c278 0000c5e8      .......x.......
     570:	0000c83c 0000c864 0000c890 0000c8e0     <...d...........
     580:	0000c8b8 0000c944 0000c91c 0000cb90     ....D...........
     590:	0000cb24 003eb852 00333334 00266667     $...R.>.433.gf&.
     5a0:	0019999a ffc147ae ffcccccc ffd99999     .....G..........
     5b0:	ffe66666 fff33333 ffe00001 00028f5e     ff..33......^...
     5c0:	fe924dd3 04d24dd3 0effffff 077fffff     .M...M..........
     5d0:	0021eb86 00666667 cb333334 0000cc98     ..!.gff.433.....
     5e0:	fb333334 0000cd78 0000ce0c 0399999a     433.x...........
     5f0:	0299999a 0000d2c0 7fffff00 0000b374     ............t...
     600:	7ffffb00 00010920 0000d49a 0000dad0     .... ...........
     610:	00003f00 00004014 00003f14 0000f460     .?...@...?..`...
     620:	0000063c                                <...

00000624 <_init>:
     624:	008136        	entry	a1, 64
     627:	fe7681        	l32r	a8, 0 (670 <frame_dummy>)
     62a:	f03d           	nop.n
     62c:	0008e0        	callx8	a8
     62f:	fe7581        	l32r	a8, 4 (e4c8 <__do_global_ctors_aux>)
     632:	f03d           	nop.n
     634:	0008e0        	callx8	a8
     637:	f01d           	retw.n

00000639 <_init+0x15>:
     639:	000000                                        ...

0000063c <__do_global_dtors_aux>:
     63c:	004136        	entry	a1, 32
     63f:	fe7221        	l32r	a2, 8 (f48c <__do_global_dtors_aux.completed>)
     642:	000232        	l8ui	a3, a2, 0
     645:	23ec           	bnez.n	a3, 66b <__do_global_dtors_aux+0x2f>

00000647 <__do_global_dtors_aux+0xb>:
     647:	1248           	l32i.n	a4, a2, 4
     649:	0438           	l32i.n	a3, a4, 0
     64b:	444b           	addi.n	a4, a4, 4
     64d:	738c           	beqz.n	a3, 658 <__do_global_dtors_aux+0x1c>
     64f:	1249           	s32i.n	a4, a2, 4
     651:	0003e0        	callx8	a3
     654:	fffbc6        	j	647 <__do_global_dtors_aux+0xb>

00000657 <__do_global_dtors_aux+0x1b>:
	...

00000658 <__do_global_dtors_aux+0x1c>:
     658:	fe6d31        	l32r	a3, c (0 <_text_start>)
     65b:	fe6da1        	l32r	a10, 10 (f458 <__FRAME_END__>)
     65e:	438c           	beqz.n	a3, 666 <__do_global_dtors_aux+0x2a>
     660:	fe6b81        	l32r	a8, c (0 <_text_start>)
     663:	0008e0        	callx8	a8
     666:	130c           	movi.n	a3, 1
     668:	004232        	s8i	a3, a2, 0
     66b:	f01d           	retw.n

0000066d <__do_global_dtors_aux+0x31>:
     66d:	000000                                        ...

00000670 <frame_dummy>:
     670:	004136        	entry	a1, 32
     673:	fe6821        	l32r	a2, 14 (0 <_text_start>)
     676:	fe66a1        	l32r	a10, 10 (f458 <__FRAME_END__>)
     679:	fe67b1        	l32r	a11, 18 (f474 <frame_dummy.object>)
     67c:	428c           	beqz.n	a2, 684 <frame_dummy+0x14>
     67e:	fe6581        	l32r	a8, 14 (0 <_text_start>)
     681:	0008e0        	callx8	a8

00000684 <frame_dummy+0x14>:
     684:	f01d           	retw.n

00000686 <frame_dummy+0x16>:
	...

00000688 <_start>:
     688:	004136        	entry	a1, 32
     68b:	fe6431        	l32r	a3, 1c (11250 <printf_ptr>)
     68e:	0228           	l32i.n	a2, a2, 0
     690:	fe64a1        	l32r	a10, 20 (f4e8 <export_parameter_array+0x48>)
     693:	fe64b1        	l32r	a11, 24 (3668 <get_aec_nr_memsize>)
     696:	0329           	s32i.n	a2, a3, 0
     698:	0002e0        	callx8	a2
     69b:	0328           	l32i.n	a2, a3, 0
     69d:	fe62a1        	l32r	a10, 28 (f501 <export_parameter_array+0x61>)
     6a0:	fe63b1        	l32r	a11, 2c (3784 <Voice_WB_TX_Init>)
     6a3:	0002e0        	callx8	a2
     6a6:	0328           	l32i.n	a2, a3, 0
     6a8:	fe62a1        	l32r	a10, 30 (f518 <export_parameter_array+0x78>)
     6ab:	fe62b1        	l32r	a11, 34 (411c <Voice_WB_TX_Prcs>)
     6ae:	0002e0        	callx8	a2
     6b1:	0328           	l32i.n	a2, a3, 0
     6b3:	fe61a1        	l32r	a10, 38 (f52f <export_parameter_array+0x8f>)
     6b6:	fe61b1        	l32r	a11, 3c (4f44 <EC_REF_GAIN_READBACK>)
     6b9:	0002e0        	callx8	a2
     6bc:	0328           	l32i.n	a2, a3, 0
     6be:	fe60a1        	l32r	a10, 40 (f54a <export_parameter_array+0xaa>)
     6c1:	fe60b1        	l32r	a11, 44 (9044 <NB_RX_NR_init>)
     6c4:	0002e0        	callx8	a2
     6c7:	0328           	l32i.n	a2, a3, 0
     6c9:	fe5fa1        	l32r	a10, 48 (f55e <export_parameter_array+0xbe>)
     6cc:	fe60b1        	l32r	a11, 4c (4e8c <Voice_NB_RX_Prcs>)
     6cf:	0002e0        	callx8	a2
     6d2:	0328           	l32i.n	a2, a3, 0
     6d4:	fe5fa1        	l32r	a10, 50 (f575 <export_parameter_array+0xd5>)
     6d7:	fe5fb1        	l32r	a11, 54 (8c94 <WB_RX_NR_init>)
     6da:	0002e0        	callx8	a2
     6dd:	0328           	l32i.n	a2, a3, 0
     6df:	fe5ea1        	l32r	a10, 58 (f589 <export_parameter_array+0xe9>)
     6e2:	fe5eb1        	l32r	a11, 5c (4ee8 <Voice_WB_RX_Prcs>)
     6e5:	0002e0        	callx8	a2
     6e8:	0328           	l32i.n	a2, a3, 0
     6ea:	fe5da1        	l32r	a10, 60 (f5a0 <export_parameter_array+0x100>)
     6ed:	fe5db1        	l32r	a11, 64 (4fa0 <EC_PreLim_Coef_READBACK>)
     6f0:	0002e0        	callx8	a2
     6f3:	0328           	l32i.n	a2, a3, 0
     6f5:	fe5ca1        	l32r	a10, 68 (f5be <export_parameter_array+0x11e>)
     6f8:	fe5db1        	l32r	a11, 6c (842c <AEC_NR_Write_FLASH>)
     6fb:	0002e0        	callx8	a2
     6fe:	0328           	l32i.n	a2, a3, 0
     700:	fe5ca1        	l32r	a10, 70 (f5d7 <export_parameter_array+0x137>)
     703:	fe5cb1        	l32r	a11, 74 (d3f4 <EQ_update>)
     706:	0002e0        	callx8	a2
     709:	0328           	l32i.n	a2, a3, 0
     70b:	fe5ba1        	l32r	a10, 78 (f5e7 <export_parameter_array+0x147>)
     70e:	fe5bb1        	l32r	a11, 7c (3670 <get_txnr_pitch_last>)
     711:	0002e0        	callx8	a2
     714:	0328           	l32i.n	a2, a3, 0
     716:	fe5aa1        	l32r	a10, 80 (f601 <export_parameter_array+0x161>)
     719:	fe5ab1        	l32r	a11, 84 (4ff4 <DaulMIC_power_Coef_READBACK>)
     71c:	0002e0        	callx8	a2
     71f:	0328           	l32i.n	a2, a3, 0
     721:	fe59a1        	l32r	a10, 88 (f623 <export_parameter_array+0x183>)
     724:	fe5ab1        	l32r	a11, 8c (825c <TWO_MIC_WB_Write_FLASH>)
     727:	0002e0        	callx8	a2
     72a:	0328           	l32i.n	a2, a3, 0
     72c:	fe59a1        	l32r	a10, 90 (f640 <export_parameter_array+0x1a0>)
     72f:	fe59b1        	l32r	a11, 94 (6804 <IE_EC_REF_GAIN_READBACK>)
     732:	0002e0        	callx8	a2
     735:	0328           	l32i.n	a2, a3, 0
     737:	fe58a1        	l32r	a10, 98 (f65e <export_parameter_array+0x1be>)
     73a:	fe58b1        	l32r	a11, 9c (5004 <Voice_WB_TX_Inear_Init_V2>)
     73d:	0002e0        	callx8	a2
     740:	0328           	l32i.n	a2, a3, 0
     742:	fe57a1        	l32r	a10, a0 (f67e <export_parameter_array+0x1de>)
     745:	fe57b1        	l32r	a11, a4 (5188 <Voice_WB_TX_Inear_Prcs_V2>)
     748:	0002e0        	callx8	a2
     74b:	0328           	l32i.n	a2, a3, 0
     74d:	fe56a1        	l32r	a10, a8 (f69e <export_parameter_array+0x1fe>)
     750:	fe57b1        	l32r	a11, ac (3660 <get_ECNR_SVN>)
     753:	0002e0        	callx8	a2
     756:	fe5621        	l32r	a2, b0 (f4a0 <export_parameter_array>)
     759:	f01d           	retw.n

0000075b <_start+0xd3>:
     75b:	00000000                                 .....

00000760 <comfort_noise_gen_wb>:
     760:	00c136        	entry	a1, 96
     763:	02bd           	mov.n	a11, a2
     765:	3202f2        	l8ui	a15, a2, 50
     768:	0bd272        	addmi	a7, a2, 0xb00
     76b:	0c0c           	movi.n	a12, 0
     76d:	0d0c           	movi.n	a13, 0
     76f:	0e0c           	movi.n	a14, 0
     771:	7d9772        	l16si	a7, a7, 250
     774:	049d           	mov.n	a9, a4
     776:	038d           	mov.n	a8, a3
     778:	b179           	s32i.n	a7, a1, 44
     77a:	70a432        	movi	a3, 0x470
     77d:	060c           	movi.n	a6, 0
     77f:	020c           	movi.n	a2, 0
     781:	91c9           	s32i.n	a12, a1, 36
     783:	040c           	movi.n	a4, 0
     785:	fcc572        	addi	a7, a5, -4
     788:	81d9           	s32i.n	a13, a1, 32
     78a:	c1e9           	s32i.n	a14, a1, 48
     78c:	4e6f27        	bbci	a15, 2, 7de <comfort_noise_gen_wb+0x7e>
     78f:	15db22        	addmi	a2, a11, 0x1500
     792:	4248           	l32i.n	a4, a2, 16
     794:	0f0c           	movi.n	a15, 0
     796:	020c           	movi.n	a2, 0
     798:	02d452        	addmi	a5, a4, 0x200
     79b:	651552        	l16ui	a5, a5, 202
     79e:	0fd4a2        	addmi	a10, a4, 0xf00
     7a1:	639aa2        	l16si	a10, a10, 198
     7a4:	91a9           	s32i.n	a10, a1, 36
     7a6:	81f9           	s32i.n	a15, a1, 32
     7a8:	0c2566        	bnei	a5, 2, 7b8 <comfort_noise_gen_wb+0x58>
     7ab:	02d852        	addmi	a5, a8, 0x200
     7ae:	701552        	l16ui	a5, a5, 224
     7b1:	1a0c           	movi.n	a10, 1
     7b3:	6255a0        	saltu	a5, a5, a10
     7b6:	8159           	s32i.n	a5, a1, 32

000007b8 <comfort_noise_gen_wb+0x58>:
     7b8:	06d952        	addmi	a5, a9, 0x600
     7bb:	2715a2        	l16ui	a10, a5, 78
     7be:	0fa2f2        	movi	a15, 0x20f
     7c1:	115fe0        	slli	a5, a15, 2
     7c4:	0c1a66        	bnei	a10, 1, 7d4 <comfort_noise_gen_wb+0x74>
     7c7:	06d922        	addmi	a2, a9, 0x600
     7ca:	261222        	l16ui	a2, a2, 76
     7cd:	1a0c           	movi.n	a10, 1
     7cf:	220b           	addi.n	a2, a2, -1
     7d1:	6222a0        	saltu	a2, a2, a10
     7d4:	02d882        	addmi	a8, a8, 0x200
     7d7:	519882        	l16si	a8, a8, 162
     7da:	445a           	add.n	a4, a4, a5
     7dc:	c189           	s32i.n	a8, a1, 48
     7de:	15db52        	addmi	a5, a11, 0x1500
     7e1:	fc20bd050f 	{ ae_lq32f.i	aeq0, a5, 0; ae_zerop48	aep0 }
     7e6:	f842503b3f 	{ add	a3, a11, a3; ae_truncp24q48x2	aep1, aeq0, aeq0 }
     7eb:	06d9e2        	addmi	a14, a9, 0x600
     7ee:	f88414a13f 	{ s32i.n	a3, a1, 40; ae_mulfq32sp24s.l	aeq0, aeq0, aep1 }
     7f3:	219e32        	l16si	a3, a14, 66
     7f6:	fb4273871f 	{ ae_sp16x2f.iu	aep0, a7, 4; ae_truncp24q48x2	aep7, aeq0, aeq0 }
     7fb:	468714        	ae_sp16x2f.iu	aep0, a7, 4
     7fe:	31a482        	movi	a8, 0x431
     801:	1f0c           	movi.n	a15, 1
     803:	468714        	ae_sp16x2f.iu	aep0, a7, 4
     806:	1188e0        	slli	a8, a8, 2
     809:	15dba2        	addmi	a10, a11, 0x1500
     80c:	3022f0        	xor	a2, a2, a15
     80f:	e139           	s32i.n	a3, a1, 56
     811:	d129           	s32i.n	a2, a1, 52
     813:	f1a9           	s32i.n	a10, a1, 60
     815:	030c           	movi.n	a3, 0
     817:	561134        	ae_sp24x2s.i	aep1, a1, 24
     81a:	0b2d           	mov.n	a2, a11
     81c:	5b8a           	add.n	a5, a11, a8
     81e:	772b           	addi.n	a7, a7, 2
     820:	567124        	ae_sp24x2s.i	aep7, a1, 16
     823:	000bc6        	j	856 <comfort_noise_gen_wb+0xf6>

00000826 <comfort_noise_gen_wb+0xc6>:
     826:	081524        	ae_mulfq32sp24s.l	aeq0, aeq0, aep1
     829:	301894        	ae_cvtp24a16x2.ll	aep1, a8, a9
     82c:	d4e640133e 	{ addi	a3, a3, 1; ae_mulfq32sp16s.l	aeq1, aeq0, aep1 }
     831:	d56640eeff 	{ movi	a15, 238; ae_mulfq32sp16s.h	aeq3, aeq0, aep1 }
     836:	d4e340466e 	{ addi	a6, a6, 4; ae_mulfq32sp16s.l	aeq1, aeq1, aep0 }
     83b:	0302d4        	ae_mulfq32sp16s.l	aeq0, aeq3, aep0
     83e:	fc20be9a4f 	{ ae_slaasq56s	aeq1, aeq1, a10; ae_zerop48	aep0 }
     843:	fbebbe8a0f 	{ ae_slaasq56s	aeq0, aeq0, a10; ae_roundsp16q48sym	aep6, aeq1 }
     848:	fbe3f2e71f 	{ ae_sp16f.l.iu	aep6, a7, 2; ae_roundsp16q48sym	aep7, aeq0 }
     84d:	42f714        	ae_sp16f.l.iu	aep7, a7, 2
     850:	0293f7        	bne	a3, a15, 856 <comfort_noise_gen_wb+0xf6>
     853:	002246        	j	8e0 <comfort_noise_gen_wb+0x180>
     856:	c188           	l32i.n	a8, a1, 48
     858:	8198           	l32i.n	a9, a1, 32
     85a:	728380        	salt	a8, a3, a8
     85d:	10b980        	and	a11, a9, a8
     860:	048d           	mov.n	a8, a4
     862:	0bcc           	bnez.n	a11, 866 <comfort_noise_gen_wb+0x106>
     864:	a188           	l32i.n	a8, a1, 40
     866:	d198           	l32i.n	a9, a1, 52
     868:	91a8           	l32i.n	a10, a1, 36
     86a:	209b90        	or	a9, a11, a9
     86d:	0bcc           	bnez.n	a11, 871 <comfort_noise_gen_wb+0x111>
     86f:	b1a8           	l32i.n	a10, a1, 44
     871:	e1b8           	l32i.n	a11, a1, 56
     873:	72b3b0        	salt	a11, a3, a11
     876:	39cc           	bnez.n	a9, 87d <comfort_noise_gen_wb+0x11d>
     878:	a188           	l32i.n	a8, a1, 40
     87a:	9384b0        	movnez	a8, a4, a11
     87d:	59cc           	bnez.n	a9, 886 <comfort_noise_gen_wb+0x126>
     87f:	b1a8           	l32i.n	a10, a1, 44
     881:	9198           	l32i.n	a9, a1, 36
     883:	93a9b0        	movnez	a10, a9, a11
     886:	886a           	add.n	a8, a8, a6
     888:	08b8           	l32i.n	a11, a8, 0
     88a:	fe0a81        	l32r	a8, b4 (8f0 <HIFI_sqrt>)
     88d:	0008e0        	callx8	a8
     890:	fe0a81        	l32r	a8, b8 (11254 <p_ecnr_mem>)
     893:	f1d8           	l32i.n	a13, a1, 60
     895:	75a0e2        	movi	a14, 117
     898:	0888           	l32i.n	a8, a8, 0
     89a:	f1a3f2        	movi	a15, 0x3f1
     89d:	360b34        	ae_cvtq48a32s	aeq0, a11
     8a0:	1ad8c2        	addmi	a12, a8, 0x1a00
     8a3:	339c92        	l16si	a9, a12, 102
     8a6:	bbde82        	addmi	a8, a14, 0xffffbb00
     8a9:	059dd2        	l16si	a13, a13, 10
     8ac:	b0bff0        	addx8	a11, a15, a15
     8af:	828980        	mull	a8, a9, a8
     8b2:	8299b0        	mull	a9, a9, a11
     8b5:	335c92        	s16i	a9, a12, 102
     8b8:	408514        	ae_lp16f.iu	aep0, a5, 2
     8bb:	02a3d7        	bge	a3, a13, 8c1 <comfort_noise_gen_wb+0x161>
     8be:	ffd9c6        	j	829 <comfort_noise_gen_wb+0xc9>
     8c1:	3502b2        	l8ui	a11, a2, 53
     8c4:	fdfec1        	l32r	a12, bc (10cc0 <wb_sb_ptn>)
     8c7:	541124        	ae_lp24x2.i	aep1, a1, 16
     8ca:	0233b7        	bltu	a3, a11, 8d0 <comfort_noise_gen_wb+0x170>
     8cd:	ffd606        	j	829 <comfort_noise_gen_wb+0xc9>
     8d0:	089cb2        	l16si	a11, a12, 16
     8d3:	0223b7        	blt	a3, a11, 8d9 <comfort_noise_gen_wb+0x179>
     8d6:	ffd306        	j	826 <comfort_noise_gen_wb+0xc6>
     8d9:	541134        	ae_lp24x2.i	aep1, a1, 24
     8dc:	ffd186        	j	826 <comfort_noise_gen_wb+0xc6>

000008df <comfort_noise_gen_wb+0x17f>:
	...

000008e0 <comfort_noise_gen_wb+0x180>:
     8e0:	f30c           	movi.n	a3, 15
     8e2:	fec722        	addi	a2, a7, -2
     8e5:	028376        	loop	a3, 8eb <comfort_noise_gen_wb+0x18b>
     8e8:	468214        	ae_sp16x2f.iu	aep0, a2, 4

000008eb <comfort_noise_gen_wb+0x18b>:
     8eb:	f01d           	retw.n

000008ed <comfort_noise_gen_wb+0x18d>:
     8ed:	000000                                        ...

000008f0 <HIFI_sqrt>:
     8f0:	004136        	entry	a1, 32
     8f3:	4b13a6        	blti	a3, 1, 942 <HIFI_sqrt+0x52>
     8f6:	40e340        	nsa	a4, a3
     8f9:	c02240        	sub	a2, a2, a4
     8fc:	401400        	ssl	a4
     8ff:	044020        	extui	a4, a2, 0, 1
     902:	a1c300        	sll	a12, a3
     905:	400400        	ssr	a4
     908:	b130c0        	sra	a3, a12
     90b:	656930        	extui	a6, a3, 25, 7
     90e:	fdecd1        	l32r	a13, c0 (109c0 <TABLE_SQRT>)
     911:	050c           	movi.n	a5, 0
     913:	f0c662        	addi	a6, a6, -16
     916:	535650        	max	a5, a6, a5
     919:	9055d0        	addx2	a5, a5, a13
     91c:	456d           	ae_l16ui.n	a6, a5, 0
     91e:	355d           	ae_l16si.n	a5, a5, 2
     920:	413930        	srli	a3, a3, 9
     923:	11f600        	slli	a15, a6, 16
     926:	c0e560        	sub	a14, a5, a6
     929:	300334        	ae_cvtp24a16x2.ll	aep0, a3, a3
     92c:	113e00        	slli	a3, a14, 16
     92f:	360f34        	ae_cvtq48a32s	aeq0, a15
     932:	364334        	ae_cvtq48a32s	aeq1, a3
     935:	d4e110242f 	{ add	a2, a4, a2; ae_mulaq32sp16u.l	aeq0, aeq1, aep0 }
     93a:	212120        	srai	a2, a2, 1
     93d:	368304        	ae_trunca32q48	a3, aeq0
     940:	f01d           	retw.n

00000942 <HIFI_sqrt+0x52>:
     942:	020c           	movi.n	a2, 0
     944:	030c           	movi.n	a3, 0
     946:	f01d           	retw.n

00000948 <Log2_norm>:
     948:	004136        	entry	a1, 32
     94b:	024d           	mov.n	a4, a2
     94d:	ff7c           	movi.n	a15, -1
     94f:	012f10        	slli	a2, a15, 31
     952:	3214a6        	blti	a4, 1, 988 <Log2_norm+0x40>
     955:	156c           	movi.n	a5, -31
     957:	2d2357        	blt	a3, a5, 988 <Log2_norm+0x40>
     95a:	022c           	movi.n	a2, 32
     95c:	06a237        	bge	a2, a3, 966 <Log2_norm+0x1e>
     95f:	f27c           	movi.n	a2, -1
     961:	412120        	srli	a2, a2, 1
     964:	f01d           	retw.n

00000966 <Log2_norm+0x1e>:
     966:	fdd751        	l32r	a5, c4 (10a30 <TABLE_LOG2_1530>)
     969:	552840        	extui	a2, a4, 24, 6
     96c:	1122e0        	slli	a2, a2, 2
     96f:	603524        	ae_lq32f.xu	aeq0, a5, a2
     972:	604514        	ae_lq32f.i	aeq1, a5, 4
     975:	f92ae2044f 	{ ae_movpa24x2	aep0, a4, a4; ae_subq56	aeq1, aeq1, aeq0 }
     97a:	030174        	ae_mulaq32sp16u.l	aeq0, aeq1, aep0
     97d:	013360        	slli	a3, a3, 26
     980:	368f04        	ae_trunca32q48	a15, aeq0
     983:	2125f0        	srai	a2, a15, 5
     986:	223a           	add.n	a2, a2, a3
     988:	f01d           	retw.n

0000098a <Log2_norm+0x42>:
     98a:	00000000                                 ......

00000990 <COMPL_S16x2_fun>:
     990:	004136        	entry	a1, 32
     993:	f37c           	movi.n	a3, -1
     995:	013310        	slli	a3, a3, 31
     998:	114200        	slli	a4, a2, 16
     99b:	30f230        	xor	a15, a2, a3
     99e:	c02f40        	sub	a2, a15, a4
     9a1:	f01d           	retw.n

000009a3 <COMPL_S16x2_fun+0x13>:
	...

000009a4 <PD_INIT>:
     9a4:	004136        	entry	a1, 32
     9a7:	fdc451        	l32r	a5, b8 (11254 <p_ecnr_mem>)
     9aa:	835c           	movi.n	a3, 88
     9ac:	58d332        	addmi	a3, a3, 0x5800
     9af:	0548           	l32i.n	a4, a5, 0
     9b1:	fdc561        	l32r	a6, c8 (e53c <xt_memset>)
     9b4:	0b0c           	movi.n	a11, 0
     9b6:	343a           	add.n	a3, a4, a3
     9b8:	f0a2c2        	movi	a12, 0x2f0
     9bb:	03ad           	mov.n	a10, a3
     9bd:	0006e0        	callx8	a6
     9c0:	fdc371        	l32r	a7, cc (1125c <aec_nr_para>)
     9c3:	a4a082        	movi	a8, 164
     9c6:	7c0c           	movi.n	a12, 7
     9c8:	0768           	l32i.n	a6, a7, 0
     9ca:	03ad           	mov.n	a10, a3
     9cc:	b68a           	add.n	a11, a6, a8
     9ce:	fdc061        	l32r	a6, d0 (e550 <xt_memcpy>)
     9d1:	0006e0        	callx8	a6
     9d4:	aba582        	movi	a8, 0x5ab
     9d7:	5dd492        	addmi	a9, a4, 0x5d00
     9da:	1a0c           	movi.n	a10, 1
     9dc:	5c0c           	movi.n	a12, 5
     9de:	1188c0        	slli	a8, a8, 4
     9e1:	3859a2        	s16i	a10, a9, 112
     9e4:	019cf0        	slli	a9, a12, 17
     9e7:	59d4d2        	addmi	a13, a4, 0x5900
     9ea:	8c5c           	movi.n	a12, 88
     9ec:	5bdca2        	addmi	a10, a12, 0x5b00
     9ef:	2b6d92        	s32i	a9, a13, 172
     9f2:	5ad4e2        	addmi	a14, a4, 0x5a00
     9f5:	848a           	add.n	a8, a4, a8
     9f7:	a8a0d2        	movi	a13, 168
     9fa:	0738           	l32i.n	a3, a7, 0
     9fc:	2b6e92        	s32i	a9, a14, 172
     9ff:	5cd4b2        	addmi	a11, a4, 0x5c00
     a02:	d86e82        	s32i	a8, a14, 0x360
     a05:	5cdd82        	addmi	a8, a13, 0x5c00
     a08:	a4aa           	add.n	a10, a4, a10
     a0a:	eba2e2        	movi	a14, 0x2eb
     a0d:	5a6bb2        	s32i	a11, a11, 0x168
     a10:	596ba2        	s32i	a10, a11, 0x164
     a13:	5dd4f2        	addmi	a15, a4, 0x5d00
     a16:	11aeb0        	slli	a10, a14, 5
     a19:	848a           	add.n	a8, a4, a8
     a1b:	9ba5b2        	movi	a11, 0x59b
     a1e:	1b6f82        	s32i	a8, a15, 108
     a21:	119bc0        	slli	a9, a11, 4
     a24:	a4aa           	add.n	a10, a4, a10
     a26:	849a           	add.n	a8, a4, a9
     a28:	166fa2        	s32i	a10, a15, 88
     a2b:	58d472        	addmi	a7, a4, 0x5800
     a2e:	c793d2        	l16si	a13, a3, 0x18e
     a31:	c893e2        	l16si	a14, a3, 0x190
     a34:	8c2c           	movi.n	a12, 40
     a36:	ff7c           	movi.n	a15, -1
     a38:	3357d2        	s16i	a13, a7, 102
     a3b:	3457e2        	s16i	a14, a7, 104
     a3e:	4171f0        	srli	a7, a15, 1
     a41:	089d           	mov.n	a9, a8
     a43:	038c76        	loop	a12, a4a <PD_INIT+0xa6>
     a46:	0979           	s32i.n	a7, a9, 0
     a48:	994b           	addi.n	a9, a9, 4

00000a4a <PD_INIT+0xa6>:
     a4a:	0558           	l32i.n	a5, a5, 0
     a4c:	5dd472        	addmi	a7, a4, 0x5d00
     a4f:	0e0c           	movi.n	a14, 0
     a51:	1ad5f2        	addmi	a15, a5, 0x1a00
     a54:	1ad5c2        	addmi	a12, a5, 0x1a00
     a57:	29d552        	addmi	a5, a5, 0x2900
     a5a:	8d2c           	movi.n	a13, 40
     a5c:	365fe2        	s16i	a14, a15, 108
     a5f:	286c52        	s32i	a5, a12, 160
     a62:	5edd52        	addmi	a5, a13, 0x5e00
     a65:	276c22        	s32i	a2, a12, 156
     a68:	176782        	s32i	a8, a7, 92
     a6b:	f2a0e2        	movi	a14, 242
     a6e:	5ed492        	addmi	a9, a4, 0x5e00
     a71:	3b23f2        	l32i	a15, a3, 236
     a74:	b3ea           	add.n	a11, a3, a14
     a76:	a45a           	add.n	a10, a4, a5
     a78:	3c0c           	movi.n	a12, 3
     a7a:	89f9           	s32i.n	a15, a9, 32
     a7c:	0006e0        	callx8	a6
     a7f:	08d232        	addmi	a3, a2, 0x800
     a82:	5ed452        	addmi	a5, a4, 0x5e00
     a85:	77a1d2        	movi	a13, 0x177
     a88:	6539           	s32i.n	a3, a5, 24
     a8a:	113dd0        	slli	a3, a13, 3
     a8d:	f23a           	add.n	a15, a2, a3
     a8f:	55f9           	s32i.n	a15, a5, 20
     a91:	f01d           	retw.n

00000a93 <PD_INIT+0xef>:
	...

00000a94 <wind_noise_alpha>:
     a94:	004136        	entry	a1, 32
     a97:	f77c           	movi.n	a7, -1
     a99:	017710        	slli	a7, a7, 31
     a9c:	2213a6        	blti	a3, 1, ac2 <wind_noise_alpha+0x2e>
     a9f:	944d           	ae_zext16	a4, a4
     aa1:	824460        	mull	a4, a4, a6
     aa4:	414e40        	srli	a4, a4, 14
     aa7:	948d           	ae_zext16	a8, a4
     aa9:	114400        	slli	a4, a4, 16
     aac:	c08840        	sub	a8, a8, a4
     aaf:	024d           	mov.n	a4, a2
     ab1:	887a           	add.n	a8, a8, a7
     ab3:	038376        	loop	a3, aba <wind_noise_alpha+0x26>
     ab6:	0489           	s32i.n	a8, a4, 0
     ab8:	444b           	addi.n	a4, a4, 4

00000aba <wind_noise_alpha+0x26>:
     aba:	942c           	movi.n	a4, 41
     abc:	04b437        	bgeu	a4, a3, ac4 <wind_noise_alpha+0x30>
     abf:	0008c6        	j	ae6 <wind_noise_alpha+0x52>

00000ac2 <wind_noise_alpha+0x2e>:
     ac2:	030c           	movi.n	a3, 0
     ac4:	954d           	ae_zext16	a4, a5
     ac6:	824460        	mull	a4, a4, a6
     ac9:	d6c3d2        	addi	a13, a3, -42
     acc:	41fe40        	srli	a15, a4, 14
     acf:	a02320        	addx4	a2, a3, a2
     ad2:	9f4d           	ae_zext16	a4, a15
     ad4:	113f00        	slli	a3, a15, 16
     ad7:	c03430        	sub	a3, a4, a3
     ada:	60e0d0        	neg	a14, a13
     add:	337a           	add.n	a3, a3, a7
     adf:	038e76        	loop	a14, ae6 <wind_noise_alpha+0x52>
     ae2:	0239           	s32i.n	a3, a2, 0
     ae4:	224b           	addi.n	a2, a2, 4

00000ae6 <wind_noise_alpha+0x52>:
     ae6:	f01d           	retw.n

00000ae8 <PD_Noise_Est>:
     ae8:	00e136        	entry	a1, 112
     aeb:	fd73e1        	l32r	a14, b8 (11254 <p_ecnr_mem>)
     aee:	027d           	mov.n	a7, a2
     af0:	14d2f2        	addmi	a15, a2, 0x1400
     af3:	0e88           	l32i.n	a8, a14, 0
     af5:	3a2fe2        	l32i	a14, a15, 232
     af8:	e3a542        	movi	a4, 0x5e3
     afb:	1144c0        	slli	a4, a4, 4
     afe:	10ce22        	addi	a2, a14, 16
     b01:	605214        	ae_lq32f.iu	aeq1, a2, 4
     b04:	609214        	ae_lq32f.iu	aeq2, a2, 4
     b07:	f9ea3d721f 	{ ae_lq32f.iu	aeq3, a2, 4; ae_addq56	aeq1, aeq1, aeq2 }
     b0c:	f9ee3d721f 	{ ae_lq32f.iu	aeq3, a2, 4; ae_addq56	aeq1, aeq1, aeq3 }
     b11:	4a3c           	movi.n	a10, 52
     b13:	58d862        	addmi	a6, a8, 0x5800
     b16:	f9ee3c048f 	{ ae_lq32f.xu	aeq0, a4, a8; ae_addq56	aeq1, aeq1, aeq3 }
     b1b:	5ed852        	addmi	a5, a8, 0x5e00
     b1e:	3550b4        	ae_sraiq56	aeq1, aeq1, 2
     b21:	f8663206ce 	{ l32i	a12, a6, 128; ae_addq56	aeq0, aeq0, aeq1 }
     b26:	5edaa2        	addmi	a10, a10, 0x5e00
     b29:	139522        	l16si	a2, a5, 38
     b2c:	75b8           	l32i.n	a11, a5, 28
     b2e:	5ed892        	addmi	a9, a8, 0x5e00
     b31:	62da84        	ae_sq32f.xu	aeq1, a10, a8
     b34:	030c           	movi.n	a3, 0
     b36:	350074        	ae_sraiq56	aeq0, aeq0, 1
     b39:	125532        	s16i	a3, a5, 36
     b3c:	5ed8d2        	addmi	a13, a8, 0x5e00
     b3f:	9199           	s32i.n	a9, a1, 36
     b41:	f149           	s32i.n	a4, a1, 60
     b43:	620404        	ae_sq32f.i	aeq0, a4, 0
     b46:	c1a9           	s32i.n	a10, a1, 48
     b48:	141ca6        	blti	a12, 1, b60 <PD_Noise_Est+0x78>
     b4b:	142ba6        	blti	a11, 2, b63 <PD_Noise_Est+0x7b>
     b4e:	5ed832        	addmi	a3, a8, 0x5e00
     b51:	119332        	l16si	a3, a3, 34
     b54:	f0c222        	addi	a2, a2, -16
     b57:	1133f0        	slli	a3, a3, 1
     b5a:	432230        	min	a2, a2, a3
     b5d:	000c86        	j	b93 <PD_Noise_Est+0xab>

00000b60 <PD_Noise_Est+0x78>:
     b60:	101ba6        	blti	a11, 1, b74 <PD_Noise_Est+0x8c>
     b63:	0a38           	l32i.n	a3, a10, 0
     b65:	0513a6        	blti	a3, 1, b6e <PD_Noise_Est+0x86>
     b68:	f8c222        	addi	a2, a2, -8
     b6b:	000906        	j	b93 <PD_Noise_Est+0xab>

00000b6e <PD_Noise_Est+0x86>:
     b6e:	fec222        	addi	a2, a2, -2
     b71:	000786        	j	b93 <PD_Noise_Est+0xab>

00000b74 <PD_Noise_Est+0x8c>:
     b74:	0e48           	l32i.n	a4, a14, 0
     b76:	1e38           	l32i.n	a3, a14, 4
     b78:	059d           	mov.n	a9, a5
     b7a:	f34a           	add.n	a15, a3, a4
     b7c:	041fa6        	blti	a15, 1, b84 <PD_Noise_Est+0x9c>
     b7f:	222b           	addi.n	a2, a2, 2
     b81:	000306        	j	b91 <PD_Noise_Est+0xa9>

00000b84 <PD_Noise_Est+0x9c>:
     b84:	0714e6        	bgei	a4, 1, b8f <PD_Noise_Est+0xa7>
     b87:	0413e6        	bgei	a3, 1, b8f <PD_Noise_Est+0xa7>
     b8a:	220b           	addi.n	a2, a2, -1
     b8c:	000046        	j	b91 <PD_Noise_Est+0xa9>

00000b8f <PD_Noise_Est+0xa7>:
     b8f:	221b           	addi.n	a2, a2, 1
     b91:	095d           	mov.n	a5, a9
     b93:	030c           	movi.n	a3, 0
     b95:	1ad8f2        	addmi	a15, a8, 0x1a00
     b98:	532230        	max	a2, a2, a3
     b9b:	349f32        	l16si	a3, a15, 104
     b9e:	f43c           	movi.n	a4, 63
     ba0:	432240        	min	a2, a2, a4
     ba3:	1ad8a2        	addmi	a10, a8, 0x1a00
     ba6:	d159           	s32i.n	a5, a1, 52
     ba8:	135522        	s16i	a2, a5, 38
     bab:	6189           	s32i.n	a8, a1, 24
     bad:	8169           	s32i.n	a6, a1, 32
     baf:	a179           	s32i.n	a7, a1, 40
     bb1:	1061e2        	s32i	a14, a1, 64
     bb4:	e129           	s32i.n	a2, a1, 56
     bb6:	017396        	bltz	a3, bd1 <PD_Noise_Est+0xe9>
     bb9:	369a52        	l16si	a5, a10, 108
     bbc:	251ca6        	blti	a12, 1, be5 <PD_Noise_Est+0xfd>
     bbf:	149722        	l16si	a2, a7, 40
     bc2:	139732        	l16si	a3, a7, 38
     bc5:	fec542        	addi	a4, a5, -2
     bc8:	46a327        	bge	a3, a2, c12 <PD_Noise_Est+0x12a>
     bcb:	d8c542        	addi	a4, a5, -40
     bce:	001446        	j	c23 <PD_Noise_Est+0x13b>

00000bd1 <PD_Noise_Est+0xe9>:
     bd1:	020c           	movi.n	a2, 0
     bd3:	365a22        	s16i	a2, a10, 108
     bd6:	021ce6        	bgei	a12, 1, bdc <PD_Noise_Est+0xf4>
     bd9:	0078c6        	j	dc0 <PD_Noise_Est+0x2d8>
     bdc:	141722        	l16ui	a2, a7, 40
     bdf:	131732        	l16ui	a3, a7, 38
     be2:	0012c6        	j	c31 <PD_Noise_Est+0x149>

00000be5 <PD_Noise_Est+0xfd>:
     be5:	022ba6        	blti	a11, 2, beb <PD_Noise_Est+0x103>
     be8:	007186        	j	db2 <PD_Noise_Est+0x2ca>
     beb:	fd3a41        	l32r	a4, d4 (10ca0 <wb_score_bands>)
     bee:	171722        	l16ui	a2, a7, 46
     bf1:	099432        	l16si	a3, a4, 18
     bf4:	346d           	ae_l16si.n	a6, a4, 2
     bf6:	029442        	l16si	a4, a4, 4
     bf9:	663a           	add.n	a6, a6, a3
     bfb:	464a           	add.n	a4, a6, a4
     bfd:	022247        	blt	a2, a4, c03 <PD_Noise_Est+0x11b>
     c00:	006846        	j	da5 <PD_Noise_Est+0x2bd>
     c03:	022237        	blt	a2, a3, c09 <PD_Noise_Est+0x121>
     c06:	006806        	j	daa <PD_Noise_Est+0x2c2>
     c09:	1a2216        	beqz	a2, daf <PD_Noise_Est+0x2c7>
     c0c:	fec552        	addi	a5, a5, -2
     c0f:	0067c6        	j	db2 <PD_Noise_Est+0x2ca>

00000c12 <PD_Noise_Est+0x12a>:
     c12:	059237        	bne	a2, a3, c1b <PD_Noise_Est+0x133>
     c15:	fac542        	addi	a4, a5, -6
     c18:	0001c6        	j	c23 <PD_Noise_Est+0x13b>

00000c1b <PD_Noise_Est+0x133>:
     c1b:	630b           	addi.n	a6, a3, -1
     c1d:	c06620        	sub	a6, a6, a2
     c20:	934560        	movnez	a4, a5, a6
     c23:	050c           	movi.n	a5, 0
     c25:	534450        	max	a4, a4, a5
     c28:	ffa0f2        	movi	a15, 255
     c2b:	4344f0        	min	a4, a4, a15
     c2e:	365a42        	s16i	a4, a10, 108
     c31:	822d           	ae_sext16	a2, a2
     c33:	833d           	ae_sext16	a3, a3
     c35:	0b0c           	movi.n	a11, 0
     c37:	022327        	blt	a3, a2, c3d <PD_Noise_Est+0x155>
     c3a:	007e06        	j	e36 <PD_Noise_Est+0x34e>
     c3d:	a148           	l32i.n	a4, a1, 40
     c3f:	48a422        	movi	a2, 0x448
     c42:	530c           	movi.n	a3, 5
     c44:	125d32        	s16i	a3, a13, 36
     c47:	242a           	add.n	a2, a4, a2
     c49:	601214        	ae_lq32f.iu	aeq0, a2, 4
     c4c:	605214        	ae_lq32f.iu	aeq1, a2, 4
     c4f:	f8663d721f 	{ ae_lq32f.iu	aeq3, a2, 4; ae_addq56	aeq0, aeq0, aeq1 }
     c54:	f8e63d521f 	{ ae_lq32f.iu	aeq2, a2, 4; ae_addq56	aeq0, aeq0, aeq3 }
     c59:	020c           	movi.n	a2, 0
     c5b:	fd1fd1        	l32r	a13, d8 (dacccccd <_end+0xdacbba6d>)
     c5e:	f8e23ecdff 	{ ae_cvtq48a32s	aeq3, a13; ae_addq56	aeq0, aeq0, aeq2 }
     c63:	3500b4        	ae_sraiq56	aeq0, aeq0, 2
     c66:	d5580001ef 	{ movi	a14, 1; ae_leq56s	b0, aeq0, aeq3 }
     c6b:	6198           	l32i.n	a9, a1, 24
     c6d:	0f0c           	movi.n	a15, 0
     c6f:	d32e00        	movt	a2, a14, b0
     c72:	0d0c           	movi.n	a13, 0
     c74:	71f9           	s32i.n	a15, a1, 28
     c76:	22ec           	bnez.n	a2, c9c <PD_Noise_Est+0x1b4>
     c78:	5ed922        	addmi	a2, a9, 0x5e00
     c7b:	109222        	l16si	a2, a2, 32
     c7e:	f37c           	movi.n	a3, -1
     c80:	013310        	slli	a3, a3, 31
     c83:	114200        	slli	a4, a2, 16
     c86:	305230        	xor	a5, a2, a3
     c89:	222b           	addi.n	a2, a2, 2
     c8b:	212220        	srai	a2, a2, 2
     c8e:	11f200        	slli	a15, a2, 16
     c91:	302230        	xor	a2, a2, a3
     c94:	c022f0        	sub	a2, a2, a15
     c97:	c0d540        	sub	a13, a5, a4
     c9a:	7129           	s32i.n	a2, a1, 28
     c9c:	fd1041        	l32r	a4, dc (dfffffe <_end+0xdfeed9e>)
     c9f:	3c2b           	addi.n	a3, a12, 2
     ca1:	5ed952        	addmi	a5, a9, 0x5e00
     ca4:	55a8           	l32i.n	a10, a5, 20
     ca6:	21f230        	srai	a15, a3, 2
     ca9:	725c40        	salt	a5, a12, a4
     cac:	f27c           	movi.n	a2, -1
     cae:	935f50        	movnez	a5, a15, a5
     cb1:	fd0b81        	l32r	a8, e0 (b33333 <_end+0xb220d3>)
     cb4:	012260        	slli	a2, a2, 26
     cb7:	7f5a           	add.n	a7, a15, a5
     cb9:	fd0a31        	l32r	a3, e4 (fb4ccccd <_end+0xfb4bba6d>)
     cbc:	472a           	add.n	a4, a7, a2
     cbe:	0a6d           	mov.n	a6, a10
     cc0:	222487        	blt	a4, a8, ce6 <PD_Noise_Est+0x1fe>
     cc3:	180c           	movi.n	a8, 1
     cc5:	673a           	add.n	a6, a7, a3
     cc7:	5ed9e2        	addmi	a14, a9, 0x5e00
     cca:	018880        	slli	a8, a8, 24
     ccd:	668a           	add.n	a6, a6, a8
     ccf:	6e78           	l32i.n	a7, a14, 24
     cd1:	758860        	extui	a8, a6, 24, 8
     cd4:	0a6d           	mov.n	a6, a10
     cd6:	0c8876        	loop	a8, ce6 <PD_Noise_Est+0x1fe>
     cd9:	06d9           	s32i.n	a13, a6, 0
     cdb:	0788           	l32i.n	a8, a7, 0
     cdd:	664b           	addi.n	a6, a6, 4
     cdf:	1188f0        	slli	a8, a8, 1
     ce2:	0789           	s32i.n	a8, a7, 0
     ce4:	774b           	addi.n	a7, a7, 4

00000ce6 <PD_Noise_Est+0x1fe>:
     ce6:	fcf571        	l32r	a7, bc (10cc0 <wb_sb_ptn>)
     ce9:	7188           	l32i.n	a8, a1, 28
     ceb:	0689           	s32i.n	a8, a6, 0
     ced:	059772        	l16si	a7, a7, 10
     cf0:	5b0c           	movi.n	a11, 5
     cf2:	9c7c           	movi.n	a12, -7
     cf4:	e72b           	addi.n	a14, a7, 2
     cf6:	016e80        	slli	a6, a14, 24
     cf9:	136162        	s32i	a6, a1, 76
     cfc:	02a647        	bge	a6, a4, d02 <PD_Noise_Est+0x21a>
     cff:	004cc6        	j	e36 <PD_Noise_Est+0x34e>
     d02:	6148           	l32i.n	a4, a1, 24
     d04:	fcf991        	l32r	a9, e8 (fcb33333 <_end+0xfcb220d3>)
     d07:	01cc90        	slli	a12, a12, 23
     d0a:	58d462        	addmi	a6, a4, 0x5800
     d0d:	319662        	l16si	a6, a6, 98
     d10:	5ed472        	addmi	a7, a4, 0x5e00
     d13:	1e0c           	movi.n	a14, 1
     d15:	904f50        	addx2	a4, a15, a5
     d18:	852a           	add.n	a8, a5, a2
     d1a:	6778           	l32i.n	a7, a7, 24
     d1c:	25ca           	add.n	a2, a5, a12
     d1e:	01ce80        	slli	a12, a14, 24
     d21:	11e6e0        	slli	a14, a6, 2
     d24:	443a           	add.n	a4, a4, a3
     d26:	359a           	add.n	a3, a5, a9
     d28:	b179           	s32i.n	a7, a1, 44
     d2a:	1161c2        	s32i	a12, a1, 68
     d2d:	1261e2        	s32i	a14, a1, 72

00000d30 <PD_Noise_Est+0x248>:
     d30:	9f2a           	add.n	a9, a15, a2
     d32:	b168           	l32i.n	a6, a1, 44
     d34:	319890        	srai	a9, a9, 24
     d37:	a0c9a0        	addx4	a12, a9, a10
     d3a:	0a7d           	mov.n	a7, a10
     d3c:	0a0c           	movi.n	a10, 0
     d3e:	e91b           	addi.n	a14, a9, 1
     d40:	0ca9           	s32i.n	a10, a12, 0
     d42:	07ad           	mov.n	a10, a7
     d44:	01ce80        	slli	a12, a14, 24
     d47:	5f3a           	add.n	a5, a15, a3
     d49:	a06960        	addx4	a6, a9, a6
     d4c:	122172        	l32i	a7, a1, 72
     d4f:	0679           	s32i.n	a7, a6, 0
     d51:	0bac57        	bge	a12, a5, d60 <PD_Noise_Est+0x278>
     d54:	a05ea0        	addx4	a5, a14, a10
     d57:	e92b           	addi.n	a14, a9, 2
     d59:	7168           	l32i.n	a6, a1, 28
     d5b:	01ce80        	slli	a12, a14, 24
     d5e:	0569           	s32i.n	a6, a5, 0
     d60:	a09ea0        	addx4	a9, a14, a10
     d63:	2724c7        	blt	a4, a12, d8e <PD_Noise_Est+0x2a6>
     d66:	112162        	l32i	a6, a1, 68
     d69:	015e80        	slli	a5, a14, 24
     d6c:	c05450        	sub	a5, a4, a5
     d6f:	556a           	add.n	a5, a5, a6
     d71:	b1c8           	l32i.n	a12, a1, 44
     d73:	755850        	extui	a5, a5, 24, 8
     d76:	170c           	movi.n	a7, 1
     d78:	535570        	max	a5, a5, a7
     d7b:	a0eec0        	addx4	a14, a14, a12
     d7e:	0c8576        	loop	a5, d8e <PD_Noise_Est+0x2a6>
     d81:	09d9           	s32i.n	a13, a9, 0
     d83:	0e58           	l32i.n	a5, a14, 0
     d85:	994b           	addi.n	a9, a9, 4
     d87:	1155f0        	slli	a5, a5, 1
     d8a:	0e59           	s32i.n	a5, a14, 0
     d8c:	ee4b           	addi.n	a14, a14, 4

00000d8e <PD_Noise_Est+0x2a6>:
     d8e:	132162        	l32i	a6, a1, 76
     d91:	88fa           	add.n	a8, a8, a15
     d93:	7158           	l32i.n	a5, a1, 28
     d95:	ef8a           	add.n	a14, a15, a8
     d97:	0959           	s32i.n	a5, a9, 0
     d99:	33fa           	add.n	a3, a3, a15
     d9b:	22fa           	add.n	a2, a2, a15
     d9d:	44fa           	add.n	a4, a4, a15
     d9f:	8da6e7        	bge	a6, a14, d30 <PD_Noise_Est+0x248>
     da2:	002406        	j	e36 <PD_Noise_Est+0x34e>

00000da5 <PD_Noise_Est+0x2bd>:
     da5:	552b           	addi.n	a5, a5, 2
     da7:	0001c6        	j	db2 <PD_Noise_Est+0x2ca>

00000daa <PD_Noise_Est+0x2c2>:
     daa:	551b           	addi.n	a5, a5, 1
     dac:	000086        	j	db2 <PD_Noise_Est+0x2ca>

00000daf <PD_Noise_Est+0x2c7>:
     daf:	e8c552        	addi	a5, a5, -24
     db2:	020c           	movi.n	a2, 0
     db4:	532520        	max	a2, a5, a2
     db7:	ffa032        	movi	a3, 255
     dba:	432230        	min	a2, a2, a3
     dbd:	365a22        	s16i	a2, a10, 108
     dc0:	58d832        	addmi	a3, a8, 0x5800
     dc3:	329332        	l16si	a3, a3, 100
     dc6:	0b0c           	movi.n	a11, 0
     dc8:	6168           	l32i.n	a6, a1, 24
     dca:	682237        	blt	a2, a3, e36 <PD_Noise_Est+0x34e>
     dcd:	c3a242        	movi	a4, 0x2c3
     dd0:	1144b0        	slli	a4, a4, 5
     dd3:	5ed632        	addmi	a3, a6, 0x5e00
     dd6:	6338           	l32i.n	a3, a3, 24
     dd8:	410644        	ae_lp16f.x	aep0, a6, a4
     ddb:	4c1304        	ae_lp24.i	aep1, a3, 0
     dde:	ea2380ee5f 	{ movi	a5, 238; ae_mulp24s.ll	aeq0, aep0, aep1 }
     de3:	368f04        	ae_trunca32q48	a15, aeq0
     de6:	4f2b           	addi.n	a4, a15, 2
     de8:	214240        	srai	a4, a4, 2
     deb:	038576        	loop	a5, df2 <PD_Noise_Est+0x30a>
     dee:	0349           	s32i.n	a4, a3, 0
     df0:	334b           	addi.n	a3, a3, 4

00000df2 <PD_Noise_Est+0x30a>:
     df2:	58d632        	addmi	a3, a6, 0x5800
     df5:	2f9332        	l16si	a3, a3, 94
     df8:	9148           	l32i.n	a4, a1, 36
     dfa:	6178           	l32i.n	a7, a1, 24
     dfc:	362237        	blt	a2, a3, e36 <PD_Noise_Est+0x34e>
     dff:	a32c           	movi.n	a3, 42
     e01:	7428           	l32i.n	a2, a4, 28
     e03:	c42c           	movi.n	a4, 44
     e05:	5ed332        	addmi	a3, a3, 0x5e00
     e08:	5ed442        	addmi	a4, a4, 0x5e00
     e0b:	250c           	movi.n	a5, 2
     e0d:	722250        	salt	a2, a2, a5
     e10:	373a           	add.n	a3, a7, a3
     e12:	474a           	add.n	a4, a7, a4
     e14:	834320        	moveqz	a4, a3, a2
     e17:	243d           	ae_l16si.n	a3, a4, 0
     e19:	f67c           	movi.n	a6, -1
     e1b:	5ed7d2        	addmi	a13, a7, 0x5e00
     e1e:	016610        	slli	a6, a6, 31
     e21:	5d28           	l32i.n	a2, a13, 20
     e23:	30f360        	xor	a15, a3, a6
     e26:	113300        	slli	a3, a3, 16
     e29:	eea0e2        	movi	a14, 238
     e2c:	c03f30        	sub	a3, a15, a3
     e2f:	038e76        	loop	a14, e36 <PD_Noise_Est+0x34e>
     e32:	0239           	s32i.n	a3, a2, 0
     e34:	224b           	addi.n	a2, a2, 4

00000e36 <PD_Noise_Est+0x34e>:
     e36:	a1c8           	l32i.n	a12, a1, 40
     e38:	61d8           	l32i.n	a13, a1, 24
     e3a:	1021e2        	l32i	a14, a1, 64
     e3d:	171c22        	l16ui	a2, a12, 46
     e40:	431c           	movi.n	a3, 20
     e42:	58dda2        	addmi	a10, a13, 0x5800
     e45:	6c3327        	bltu	a3, a2, eb5 <PD_Noise_Est+0x3cd>
     e48:	0872f6        	bgeui	a2, 7, e54 <PD_Noise_Est+0x36c>
     e4b:	7da122        	movi	a2, 0x17d
     e4e:	1122d0        	slli	a2, a2, 3
     e51:	000446        	j	e66 <PD_Noise_Est+0x37e>

00000e54 <PD_Noise_Est+0x36c>:
     e54:	08b2f6        	bgeui	a2, 16, e60 <PD_Noise_Est+0x378>
     e57:	fba222        	movi	a2, 0x2fb
     e5a:	1122e0        	slli	a2, a2, 2
     e5d:	000146        	j	e66 <PD_Noise_Est+0x37e>

00000e60 <PD_Noise_Est+0x378>:
     e60:	bfa022        	movi	a2, 191
     e63:	1122c0        	slli	a2, a2, 4
     e66:	2c2a           	add.n	a2, a12, a2
     e68:	222d           	ae_l16si.n	a2, a2, 0
     e6a:	fc9441        	l32r	a4, bc (10cc0 <wb_sb_ptn>)
     e6d:	f57c           	movi.n	a5, -1
     e6f:	5edd32        	addmi	a3, a13, 0x5e00
     e72:	015510        	slli	a5, a5, 31
     e75:	960c           	movi.n	a6, 9
     e77:	000a86        	j	ea5 <PD_Noise_Est+0x3bd>

00000e7a <PD_Noise_Est+0x392>:
     e7a:	bb1b           	addi.n	a11, a11, 1
     e7c:	908b40        	addx2	a8, a11, a4
     e7f:	297d           	ae_l16si.n	a7, a9, 0
     e81:	288d           	ae_l16si.n	a8, a8, 0
     e83:	1ba787        	bge	a7, a8, ea2 <PD_Noise_Est+0x3ba>
     e86:	5398           	l32i.n	a9, a3, 20
     e88:	c08870        	sub	a8, a8, a7
     e8b:	a07790        	addx4	a7, a7, a9
     e8e:	108876        	loop	a8, ea2 <PD_Noise_Est+0x3ba>
     e91:	478d           	ae_l16ui.n	a8, a7, 0
     e93:	882a           	add.n	a8, a8, a2
     e95:	119800        	slli	a9, a8, 16
     e98:	308850        	xor	a8, a8, a5
     e9b:	c08890        	sub	a8, a8, a9
     e9e:	0789           	s32i.n	a8, a7, 0
     ea0:	774b           	addi.n	a7, a7, 4

00000ea2 <PD_Noise_Est+0x3ba>:
     ea2:	0f1b67        	beq	a11, a6, eb5 <PD_Noise_Est+0x3cd>

00000ea5 <PD_Noise_Est+0x3bd>:
     ea5:	a07be0        	addx4	a7, a11, a14
     ea8:	0778           	l32i.n	a7, a7, 0
     eaa:	909b40        	addx2	a9, a11, a4
     ead:	c917a6        	blti	a7, 1, e7a <PD_Noise_Est+0x392>
     eb0:	bb1b           	addi.n	a11, a11, 1
     eb2:	fffb06        	j	ea2 <PD_Noise_Est+0x3ba>

00000eb5 <PD_Noise_Est+0x3cd>:
     eb5:	451a22        	l16ui	a2, a10, 138
     eb8:	f47c           	movi.n	a4, -1
     eba:	823d           	ae_sext16	a3, a2
     ebc:	015396        	bltz	a3, ed5 <PD_Noise_Est+0x3ed>
     ebf:	021c42        	l16ui	a4, a12, 4
     ec2:	531b           	addi.n	a5, a3, 1
     ec4:	90f440        	addx2	a15, a4, a4
     ec7:	113fe0        	slli	a3, a15, 2
     eca:	622230        	saltu	a2, a2, a3
     ecd:	f37c           	movi.n	a3, -1
     ecf:	933520        	movnez	a3, a5, a2
     ed2:	000086        	j	ed8 <PD_Noise_Est+0x3f0>

00000ed5 <PD_Noise_Est+0x3ed>:
     ed5:	f43040        	extui	a3, a4, 0, 16
     ed8:	8168           	l32i.n	a6, a1, 32
     eda:	fc84b1        	l32r	a11, ec (7fff0000 <_end+0x7ffdeda0>)
     edd:	455a32        	s16i	a3, a10, 138
     ee0:	202622        	l32i	a2, a6, 128
     ee3:	f148           	l32i.n	a4, a1, 60
     ee5:	58dd52        	addmi	a5, a13, 0x5800
     ee8:	928c           	beqz.n	a2, ef5 <PD_Noise_Est+0x40d>
     eea:	0448           	l32i.n	a4, a4, 0
     eec:	1594d6        	bgez	a4, 1049 <PD_Noise_Est+0x561>
     eef:	461542        	l16ui	a4, a5, 140
     ef2:	153456        	bnez	a4, 1049 <PD_Noise_Est+0x561>
     ef5:	9148           	l32i.n	a4, a1, 36
     ef7:	5edd72        	addmi	a7, a13, 0x5e00
     efa:	e158           	l32i.n	a5, a1, 56
     efc:	7448           	l32i.n	a4, a4, 28
     efe:	833d           	ae_sext16	a3, a3
     f00:	855d           	ae_sext16	a5, a5
     f02:	0224a6        	blti	a4, 2, f08 <PD_Noise_Est+0x420>
     f05:	005006        	j	1049 <PD_Noise_Est+0x561>
     f08:	119742        	l16si	a4, a7, 34
     f0b:	1e0c           	movi.n	a14, 1
     f0d:	11ee20        	slli	a14, a14, 14
     f10:	022457        	blt	a4, a5, f16 <PD_Noise_Est+0x42e>
     f13:	004c86        	j	1049 <PD_Noise_Est+0x561>
     f16:	004396        	bltz	a3, f1e <PD_Noise_Est+0x436>
     f19:	0c5d           	mov.n	a5, a12
     f1b:	000a06        	j	f47 <PD_Noise_Est+0x45f>

00000f1e <PD_Noise_Est+0x436>:
     f1e:	0a9c22        	l16si	a2, a12, 20
     f21:	0b9c32        	l16si	a3, a12, 22
     f24:	0c9c42        	l16si	a4, a12, 24
     f27:	c188           	l32i.n	a8, a1, 48
     f29:	232a           	add.n	a2, a3, a2
     f2b:	224a           	add.n	a2, a2, a4
     f2d:	58ddf2        	addmi	a15, a13, 0x5800
     f30:	0c5d           	mov.n	a5, a12
     f32:	08a8           	l32i.n	a10, a8, 0
     f34:	339fc2        	l16si	a12, a15, 102
     f37:	045122        	s16i	a2, a1, 8
     f3a:	82bd           	ae_sext16	a11, a2
     f3c:	fc6d21        	l32r	a2, f0 (e4e8 <cal_wind_score>)
     f3f:	0002e0        	callx8	a2
     f42:	202622        	l32i	a2, a6, 128
     f45:	0aed           	mov.n	a14, a10
     f47:	ffa032        	movi	a3, 255
     f4a:	3fd332        	addmi	a3, a3, 0x3f00
     f4d:	3e3a           	add.n	a3, a14, a3
     f4f:	058d           	mov.n	a8, a5
     f51:	045132        	s16i	a3, a1, 8
     f54:	097216        	beqz	a2, fef <PD_Noise_Est+0x507>
     f57:	1cc522        	addi	a2, a5, 28
     f5a:	400204        	ae_lp16f.i	aep0, a2, 0
     f5d:	401144        	ae_lp16f.i	aep1, a1, 8
     f60:	e820b061de 	{ l32i	a13, a1, 24; ae_mulfp24s.hh	aeq0, aep0, aep1 }
     f65:	af2c           	movi.n	a15, 42
     f67:	3502f4        	ae_sraiq56	aeq0, aeq0, 11
     f6a:	5edd22        	addmi	a2, a13, 0x5e00
     f6d:	620134        	ae_sq32f.i	aeq0, a1, 12
     f70:	6228           	l32i.n	a2, a2, 24
     f72:	032132        	l32i	a3, a1, 12
     f75:	038f76        	loop	a15, f7c <PD_Noise_Est+0x494>
     f78:	0239           	s32i.n	a3, a2, 0
     f7a:	224b           	addi.n	a2, a2, 4

00000f7c <PD_Noise_Est+0x494>:
     f7c:	d128           	l32i.n	a2, a1, 52
     f7e:	343c           	movi.n	a4, 51
     f80:	5bd442        	addmi	a4, a4, 0x5b00
     f83:	139232        	l16si	a3, a2, 38
     f86:	119722        	l16si	a2, a7, 34
     f89:	6168           	l32i.n	a6, a1, 24
     f8b:	113330        	slli	a3, a3, 13
     f8e:	d14240        	mul16s	a4, a2, a4
     f91:	112220        	slli	a2, a2, 14
     f94:	2ba437        	bge	a4, a3, fc3 <PD_Noise_Est+0x4db>
     f97:	6168           	l32i.n	a6, a1, 24
     f99:	0bd822        	addmi	a2, a8, 0xb00
     f9c:	15d842        	addmi	a4, a8, 0x1500
     f9f:	5ed632        	addmi	a3, a6, 0x5e00
     fa2:	3a22d2        	l32i	a13, a2, 232
     fa5:	53a8           	l32i.n	a10, a3, 20
     fa7:	0494b2        	l16si	a11, a4, 8
     faa:	fc5221        	l32r	a2, f4 (a94 <wind_noise_alpha>)
     fad:	fc52c1        	l32r	a12, f8 (33334ccd <_end+0x33323a6d>)
     fb0:	085d           	mov.n	a5, a8
     fb2:	0002e0        	callx8	a2
     fb5:	149322        	l16si	a2, a3, 40
     fb8:	06dd           	mov.n	a13, a6
     fba:	d12220        	mul16s	a2, a2, a2
     fbd:	11b2f0        	slli	a11, a2, 1
     fc0:	002046        	j	1045 <PD_Noise_Est+0x55d>

00000fc3 <PD_Noise_Est+0x4db>:
     fc3:	5da237        	bge	a2, a3, 1024 <PD_Noise_Est+0x53c>
     fc6:	6168           	l32i.n	a6, a1, 24
     fc8:	0bd822        	addmi	a2, a8, 0xb00
     fcb:	15d842        	addmi	a4, a8, 0x1500
     fce:	5ed632        	addmi	a3, a6, 0x5e00
     fd1:	53a8           	l32i.n	a10, a3, 20
     fd3:	0494b2        	l16si	a11, a4, 8
     fd6:	3a22c2        	l32i	a12, a2, 232
     fd9:	3b22d2        	l32i	a13, a2, 236
     fdc:	fc4621        	l32r	a2, f4 (a94 <wind_noise_alpha>)
     fdf:	085d           	mov.n	a5, a8
     fe1:	0002e0        	callx8	a2
     fe4:	149322        	l16si	a2, a3, 40
     fe7:	06dd           	mov.n	a13, a6
     fe9:	11b200        	slli	a11, a2, 16
     fec:	001546        	j	1045 <PD_Noise_Est+0x55d>

00000fef <PD_Noise_Est+0x507>:
     fef:	15d522        	addmi	a2, a5, 0x1500
     ff2:	049232        	l16si	a3, a2, 8
     ff5:	6168           	l32i.n	a6, a1, 24
     ff7:	040c           	movi.n	a4, 0
     ff9:	0213e6        	bgei	a3, 1, fff <PD_Noise_Est+0x517>
     ffc:	ffdf06        	j	f7c <PD_Noise_Est+0x494>
     fff:	5ed632        	addmi	a3, a6, 0x5e00
    1002:	6338           	l32i.n	a3, a3, 24
    1004:	400144        	ae_lp16f.i	aep0, a1, 8
    1007:	600304        	ae_lq32f.i	aeq0, a3, 0
    100a:	fcc352        	addi	a5, a3, -4
    100d:	d4e200144e 	{ addi	a4, a4, 1; ae_mulfq32sp16s.l	aeq0, aeq0, aep0 }
    1012:	354054        	ae_slliq56	aeq1, aeq0, 1
    1015:	601314        	ae_lq32f.iu	aeq0, a3, 4
    1018:	625514        	ae_sq32f.iu	aeq1, a5, 4
    101b:	049262        	l16si	a6, a2, 8
    101e:	eb2467        	blt	a4, a6, 100d <PD_Noise_Est+0x525>
    1021:	ffd5c6        	j	f7c <PD_Noise_Est+0x494>

00001024 <PD_Noise_Est+0x53c>:
    1024:	0bd822        	addmi	a2, a8, 0xb00
    1027:	15d842        	addmi	a4, a8, 0x1500
    102a:	5ed632        	addmi	a3, a6, 0x5e00
    102d:	53a8           	l32i.n	a10, a3, 20
    102f:	0494b2        	l16si	a11, a4, 8
    1032:	3b22c2        	l32i	a12, a2, 236
    1035:	3c22d2        	l32i	a13, a2, 240
    1038:	fc2f21        	l32r	a2, f4 (a94 <wind_noise_alpha>)
    103b:	085d           	mov.n	a5, a8
    103d:	0002e0        	callx8	a2
    1040:	fc2bb1        	l32r	a11, ec (7fff0000 <_end+0x7ffdeda0>)
    1043:	06dd           	mov.n	a13, a6
    1045:	8168           	l32i.n	a6, a1, 32
    1047:	05cd           	mov.n	a12, a5
    1049:	15dc42        	addmi	a4, a12, 0x1500
    104c:	fc2c21        	l32r	a2, fc (7fe70019 <_end+0x7fe5edb9>)
    104f:	4129           	s32i.n	a2, a1, 16
    1051:	14a8           	l32i.n	a10, a4, 4
    1053:	fc2c21        	l32r	a2, 104 (6dd0 <siir_safr>)
    1056:	fc2a31        	l32r	a3, 100 (7e1401ec <_end+0x7e12ef8c>)
    1059:	10c1c2        	addi	a12, a1, 16
    105c:	5139           	s32i.n	a3, a1, 20
    105e:	0d5d           	mov.n	a5, a13
    1060:	0002e0        	callx8	a2
    1063:	58d552        	addmi	a5, a5, 0x5800
    1066:	469522        	l16si	a2, a5, 140
    1069:	202632        	l32i	a3, a6, 128
    106c:	3d0c           	movi.n	a13, 3
    106e:	e21b           	addi.n	a14, a2, 1
    1070:	0f0c           	movi.n	a15, 0
    1072:	220b           	addi.n	a2, a2, -1
    1074:	14a9           	s32i.n	a10, a4, 4
    1076:	5362f0        	max	a6, a2, a15
    1079:	434ed0        	min	a4, a14, a13
    107c:	936430        	movnez	a6, a4, a3
    107f:	020c           	movi.n	a2, 0
    1081:	465562        	s16i	a6, a5, 140
    1084:	f01d           	retw.n

00001086 <PD_Noise_Est+0x59e>:
	...

00001088 <PD_Noise_Gain>:
    1088:	004136        	entry	a1, 32
    108b:	fc0b21        	l32r	a2, b8 (11254 <p_ecnr_mem>)
    108e:	0228           	l32i.n	a2, a2, 0
    1090:	5ed222        	addmi	a2, a2, 0x5e00
    1093:	129222        	l16si	a2, a2, 36
    1096:	f01d           	retw.n

00001098 <voiced_decision>:
    1098:	012136        	entry	a1, 144
    109b:	fc0741        	l32r	a4, b8 (11254 <p_ecnr_mem>)
    109e:	eca052        	movi	a5, 236
    10a1:	14a182        	movi	a8, 0x114
    10a4:	0468           	l32i.n	a6, a4, 0
    10a6:	9ca0d2        	movi	a13, 156
    10a9:	0b0c           	movi.n	a11, 0
    10ab:	1ad662        	addmi	a6, a6, 0x1a00
    10ae:	272662        	l32i	a6, a6, 156
    10b1:	ec4c           	movi.n	a12, 78
    10b3:	156132        	s32i	a3, a1, 84
    10b6:	e65a           	add.n	a14, a6, a5
    10b8:	fc1451        	l32r	a5, 108 (e528 <memset>)
    10bb:	f68a           	add.n	a15, a6, a8
    10bd:	06ad           	mov.n	a10, a6
    10bf:	76da           	add.n	a7, a6, a13
    10c1:	1961e2        	s32i	a14, a1, 100
    10c4:	81f9           	s32i.n	a15, a1, 32
    10c6:	040c           	movi.n	a4, 0
    10c8:	0005e0        	callx8	a5
    10cb:	aca032        	movi	a3, 172
    10ce:	0b0c           	movi.n	a11, 0
    10d0:	a0a0c2        	movi	a12, 160
    10d3:	07ad           	mov.n	a10, a7
    10d5:	323a           	add.n	a3, a2, a3
    10d7:	186172        	s32i	a7, a1, 96
    10da:	0005e0        	callx8	a5
    10dd:	54c152        	addi	a5, a1, 84
    10e0:	fc0b71        	l32r	a7, 10c (147ae1 <_end+0x136881>)
    10e3:	9522f2        	l32i	a15, a2, 0x254
    10e6:	60c504        	ae_lq32f.i	aeq3, a5, 0
    10e9:	398774        	ae_movpa24x2	aep0, a7, a7
    10ec:	180c           	movi.n	a8, 1
    10ee:	fb017ecf7f 	{ ae_cvtq48a32s	aeq1, a15; ae_mulfq32sp24s.h	aeq3, aeq3, aep0 }
    10f3:	3498b4        	ae_sraaq56	aeq2, aeq1, a8
    10f6:	f9ea53c22f 	{ or	a12, a2, a2; ae_addsq56s	aeq1, aeq1, aeq2 }
    10fb:	f9ef06819e 	{ addi	a9, a1, 104; ae_maxq56s	aeq1, aeq3, aeq1 }
    1100:	360434        	ae_cvtq48a32s	aeq0, a4
    1103:	2a6242        	s32i	a4, a2, 168
    1106:	630134        	ae_sq56s.i	aeq0, a1, 24
    1109:	722c           	movi.n	a2, 39
    110b:	150c           	movi.n	a5, 1
    110d:	580c           	movi.n	a8, 5
    110f:	070c           	movi.n	a7, 0
    1111:	106192        	s32i	a9, a1, 64
    1114:	621904        	ae_sq32f.i	aeq1, a9, 0

00001117 <voiced_decision+0x7f>:
    1117:	609314        	ae_lq32f.iu	aeq2, a3, 4
    111a:	d65400009f 	{ movi	a9, 0; ae_ltq56s	b0, aeq1, aeq2 }
    111f:	01c442        	addi	a4, a4, 1
    1122:	61c134        	ae_lq56.i	aeq3, a1, 24
    1125:	d39500        	movt	a9, a5, b0
    1128:	d99c           	beqz.n	a9, 1149 <voiced_decision+0xb1>
    112a:	f4c392        	addi	a9, a3, -12
    112d:	058876        	loop	a8, 1136 <voiced_decision+0x9e>
    1130:	601914        	ae_lq32f.iu	aeq0, a9, 4
    1133:	01f0c4        	ae_maxq56s	aeq3, aeq0, aeq3

00001136 <voiced_decision+0x9e>:
    1136:	d4d800009f 	{ movi	a9, 0; ae_eqq56	b0, aeq2, aeq3 }
    113b:	87ad           	ae_sext16	a10, a7
    113d:	90ba60        	addx2	a11, a10, a6
    1140:	d39500        	movt	a9, a5, b0
    1143:	298c           	beqz.n	a9, 1149 <voiced_decision+0xb1>
    1145:	771b           	addi.n	a7, a7, 1
    1147:	6b4d           	ae_s16i.n	a4, a11, 0

00001149 <voiced_decision+0xb1>:
    1149:	ca9427        	bne	a4, a2, 1117 <voiced_decision+0x7f>
    114c:	270b           	addi.n	a2, a7, -1
    114e:	827d           	ae_sext16	a7, a2
    1150:	0a5122        	s16i	a2, a1, 20
    1153:	4cc132        	addi	a3, a1, 76
    1156:	10c122        	addi	a2, a1, 16
    1159:	1761c2        	s32i	a12, a1, 92
    115c:	0217e6        	bgei	a7, 1, 1162 <voiced_decision+0xca>
    115f:	003086        	j	1225 <voiced_decision+0x18d>
    1162:	140c           	movi.n	a4, 1
    1164:	950c           	movi.n	a5, 9
    1166:	114410        	slli	a4, a4, 15
    1169:	115580        	slli	a5, a5, 8
    116c:	398554        	ae_movpa24x2	aep0, a5, a5
    116f:	864b           	addi.n	a8, a6, 4
    1171:	368434        	ae_cvtq48a32s	aeq2, a4
    1174:	166182        	s32i	a8, a1, 88
    1177:	090c           	movi.n	a9, 0
    1179:	050c           	movi.n	a5, 0
    117b:	560154        	ae_sp24x2s.i	aep0, a1, 40
    117e:	632134        	ae_sq56s.i	aeq2, a1, 24
    1181:	000f06        	j	11c1 <voiced_decision+0x129>

00001184 <voiced_decision+0xec>:
    1184:	adea           	add.n	a10, a13, a14
    1186:	fbe281        	l32r	a8, 110 (1590 <Xfrac_num_pd_td32>)
    1189:	9c0c           	movi.n	a12, 9
    118b:	0008e0        	callx8	a8
    118e:	1721c2        	l32i	a12, a1, 92
    1191:	618134        	ae_lq56.i	aeq2, a1, 24
    1194:	1361a2        	s32i	a10, a1, 76
    1197:	600304        	ae_lq32f.i	aeq0, a3, 0
    119a:	f8e3b1819e 	{ l32i	a9, a1, 96; ae_roundsp16q48sym	aep0, aeq0 }
    119f:	420204        	ae_sp16f.l.i	aep0, a2, 0
    11a2:	0891d2        	l16si	a13, a1, 16
    11a5:	858d           	ae_sext16	a8, a5
    11a7:	1921e2        	l32i	a14, a1, 100
    11aa:	a09890        	addx4	a9, a8, a9
    11ad:	09a9           	s32i.n	a10, a9, 0
    11af:	a09dc0        	addx4	a9, a13, a12
    11b2:	4519f2        	l16ui	a15, a9, 138
    11b5:	9088e0        	addx2	a8, a8, a14
    11b8:	551b           	addi.n	a5, a5, 1
    11ba:	049d           	mov.n	a9, a4
    11bc:	68fd           	ae_s16i.n	a15, a8, 0
    11be:	67a477        	bge	a4, a7, 1229 <voiced_decision+0x191>
    11c1:	491b           	addi.n	a4, a9, 1
    11c3:	fc1451896f 	{ addx2	a8, a9, a6; ae_movq56	aeq0, aeq2 }
    11c8:	90a460        	addx2	a10, a4, a6
    11cb:	28bd           	ae_l16si.n	a11, a8, 0
    11cd:	2a8d           	ae_l16si.n	a8, a10, 0
    11cf:	aca0e2        	movi	a14, 172
    11d2:	a0dbc0        	addx4	a13, a11, a12
    11d5:	c0a8b0        	sub	a10, a8, a11
    11d8:	a81a66        	bnei	a10, 1, 1184 <voiced_decision+0xec>
    11db:	28a477        	bge	a4, a7, 1207 <voiced_decision+0x16f>
    11de:	fc147161ae 	{ l32i	a10, a1, 88; ae_movq56	aeq0, aeq2 }
    11e3:	c0b740        	sub	a11, a7, a4
    11e6:	08dd           	mov.n	a13, a8
    11e8:	9099a0        	addx2	a9, a9, a10
    11eb:	04ad           	mov.n	a10, a4
    11ed:	168b76        	loop	a11, 1207 <voiced_decision+0x16f>
    11f0:	298d           	ae_l16si.n	a8, a9, 0
    11f2:	8d4d           	ae_sext16	a4, a13
    11f4:	992b           	addi.n	a9, a9, 2
    11f6:	c0b840        	sub	a11, a8, a4
    11f9:	0a4d           	mov.n	a4, a10
    11fb:	081b66        	bnei	a11, 1, 1207 <voiced_decision+0x16f>
    11fe:	f8e2401aae 	{ addi	a10, a10, 1; ae_addsq56s	aeq0, aeq0, aeq2 }
    1203:	074d           	mov.n	a4, a7
    1205:	08dd           	mov.n	a13, a8

00001207 <voiced_decision+0x16f>:
    1207:	908460        	addx2	a8, a4, a6
    120a:	400804        	ae_lp16f.i	aep0, a8, 0
    120d:	541154        	ae_lp24x2.i	aep1, a1, 40
    1210:	d82100144e 	{ addi	a4, a4, 1; ae_addsp24s	aep0, aep0, aep1 }
    1215:	0a4884        	ae_cvtq48p24s.h	aeq1, aep0
    1218:	061814        	ae_subsq56s	aeq0, aeq1, aeq0
    121b:	620304        	ae_sq32f.i	aeq0, a3, 0
    121e:	1321a2        	l32i	a10, a1, 76
    1221:	ffdc86        	j	1197 <voiced_decision+0xff>

00001224 <voiced_decision+0x18c>:
	...

00001225 <voiced_decision+0x18d>:
    1225:	050c           	movi.n	a5, 0
    1227:	040c           	movi.n	a4, 0
    1229:	419477        	bne	a4, a7, 126e <voiced_decision+0x1d6>
    122c:	904760        	addx2	a4, a7, a6
    122f:	24bd           	ae_l16si.n	a11, a4, 0
    1231:	aca0f2        	movi	a15, 172
    1234:	4cfa           	add.n	a4, a12, a15
    1236:	fbb661        	l32r	a6, 110 (1590 <Xfrac_num_pd_td32>)
    1239:	a0ab40        	addx4	a10, a11, a4
    123c:	9c0c           	movi.n	a12, 9
    123e:	0006e0        	callx8	a6
    1241:	1361a2        	s32i	a10, a1, 76
    1244:	600304        	ae_lq32f.i	aeq0, a3, 0
    1247:	f8e3b1817e 	{ l32i	a7, a1, 96; ae_roundsp16q48sym	aep0, aeq0 }
    124c:	420204        	ae_sp16f.l.i	aep0, a2, 0
    124f:	089122        	l16si	a2, a1, 16
    1252:	856d           	ae_sext16	a6, a5
    1254:	1921f2        	l32i	a15, a1, 100
    1257:	a02240        	addx4	a2, a2, a4
    125a:	a07670        	addx4	a7, a6, a7
    125d:	1721c2        	l32i	a12, a1, 92
    1260:	07a9           	s32i.n	a10, a7, 0
    1262:	dec222        	addi	a2, a2, -34
    1265:	9036f0        	addx2	a3, a6, a15
    1268:	422d           	ae_l16ui.n	a2, a2, 0
    126a:	551b           	addi.n	a5, a5, 1
    126c:	632d           	ae_s16i.n	a2, a3, 0
    126e:	858d           	ae_sext16	a8, a5
    1270:	0218e6        	bgei	a8, 1, 1276 <voiced_decision+0x1de>
    1273:	007146        	j	143c <voiced_decision+0x3a4>
    1276:	8138           	l32i.n	a3, a1, 32
    1278:	120c           	movi.n	a2, 1
    127a:	166182        	s32i	a8, a1, 88
    127d:	038876        	loop	a8, 1284 <voiced_decision+0x1ec>
    1280:	632d           	ae_s16i.n	a2, a3, 0
    1282:	332b           	addi.n	a3, a3, 2

00001284 <voiced_decision+0x1ec>:
    1284:	05dc62        	addmi	a6, a12, 0x500
    1287:	0c9622        	l16si	a2, a6, 24
    128a:	130c           	movi.n	a3, 1
    128c:	113300        	slli	a3, a3, 16
    128f:	0212e6        	bgei	a2, 1, 1295 <voiced_decision+0x1fd>
    1292:	006dc6        	j	144d <voiced_decision+0x3b5>
    1295:	360334        	ae_cvtq48a32s	aeq0, a3
    1298:	3a0c           	movi.n	a10, 3
    129a:	162182        	l32i	a8, a1, 88
    129d:	172132        	l32i	a3, a1, 92
    12a0:	fb9dc1        	l32r	a12, 114 (533333 <_end+0x5220d3>)
    12a3:	fb9ff1        	l32r	a15, 120 (5ccccd <_end+0x5bba6d>)
    12a6:	f90c           	movi.n	a9, 15
    12a8:	39eff4        	ae_movpa24x2	aep6, a15, a15
    12ab:	01aab0        	slli	a10, a10, 21
    12ae:	fb9db1        	l32r	a11, 124 (2ccccd <_end+0x2bba6d>)
    12b1:	39bcc4        	ae_movpa24x2	aep3, a12, a12
    12b4:	1821f2        	l32i	a15, a1, 96
    12b7:	81c8           	l32i.n	a12, a1, 32
    12b9:	119910        	slli	a9, a9, 15
    12bc:	fb97d1        	l32r	a13, 118 (5851ec <_end+0x573f8c>)
    12bf:	fb97e1        	l32r	a14, 11c (5ae148 <_end+0x59cee8>)
    12c2:	399bb4        	ae_movpa24x2	aep1, a11, a11
    12c5:	fb98b1        	l32r	a11, 128 (466666 <_end+0x455406>)
    12c8:	39faa4        	ae_movpa24x2	aep7, a10, a10
    12cb:	6ca542        	movi	a4, 0x56c
    12ce:	398994        	ae_movpa24x2	aep0, a9, a9
    12d1:	39abb4        	ae_movpa24x2	aep2, a11, a11
    12d4:	39cdd4        	ae_movpa24x2	aep4, a13, a13
    12d7:	39dee4        	ae_movpa24x2	aep5, a14, a14
    12da:	922d           	ae_zext16	a2, a2
    12dc:	630134        	ae_sq56s.i	aeq0, a1, 24
    12df:	10c372        	addi	a7, a3, 16
    12e2:	880b           	addi.n	a8, a8, -1
    12e4:	090c           	movi.n	a9, 0
    12e6:	42a5b2        	movi	a11, 0x542
    12e9:	50c1d2        	addi	a13, a1, 80
    12ec:	1e0c           	movi.n	a14, 1
    12ee:	a34a           	add.n	a10, a3, a4
    12f0:	566174        	ae_sp24x2s.i	aep6, a1, 56
    12f3:	567164        	ae_sp24x2s.i	aep7, a1, 48

000012f6 <voiced_decision+0x25e>:
    12f6:	604f04        	ae_lq32f.i	aeq1, a15, 0
    12f9:	d4634ff23e 	{ addi	a3, a2, -1; ae_mulfq32sp16s.h	aeq1, aeq1, aep0 }
    12fe:	0f28           	l32i.n	a2, a15, 0
    1300:	610134        	ae_lq56.i	aeq0, a1, 24
    1303:	f86715439f 	{ sub	a4, a3, a9; ae_maxq56s	aeq0, aeq1, aeq0 }
    1308:	21a937        	bge	a9, a3, 132d <voiced_decision+0x295>
    130b:	068824        	ae_negq56	aeq2, aeq0
    130e:	a039a0        	addx4	a3, a9, a10
    1311:	188476        	loop	a4, 132d <voiced_decision+0x295>
    1314:	0348           	l32i.n	a4, a3, 0
    1316:	334b           	addi.n	a3, a3, 4
    1318:	c04420        	sub	a4, a4, a2
    131b:	146142        	s32i	a4, a1, 80
    131e:	60cd04        	ae_lq32f.i	aeq3, a13, 0
    1321:	d6d800004f 	{ movi	a4, 0; ae_ltq56s	b0, aeq2, aeq3 }
    1326:	d34e00        	movt	a4, a14, b0
    1329:	04cc           	bnez.n	a4, 132d <voiced_decision+0x295>
    132b:	991b           	addi.n	a9, a9, 1

0000132d <voiced_decision+0x295>:
    132d:	172142        	l32i	a4, a1, 92
    1330:	a03940        	addx4	a3, a9, a4
    1333:	05d332        	addmi	a3, a3, 0x500
    1336:	1b2332        	l32i	a3, a3, 108
    1339:	c02320        	sub	a2, a3, a2
    133c:	602120        	abs	a2, a2
    133f:	146122        	s32i	a2, a1, 80
    1342:	608d04        	ae_lq32f.i	aeq2, a13, 0
    1345:	d5c000003f 	{ movi	a3, 0; ae_leq56s	b0, aeq2, aeq0 }
    134a:	902940        	addx2	a2, a9, a4
    134d:	d33e00        	movt	a3, a14, b0
    1350:	04a316        	beqz	a3, 139e <voiced_decision+0x306>
    1353:	407704        	ae_lp16f.i	aep7, a7, 0
    1356:	4162b4        	ae_lp16f.x	aep6, a2, a11
    1359:	e9dccd8c3e 	{ addi	a3, a12, -40; ae_mulfp24s.hh	aeq3, aep7, aep6 }
    135e:	407304        	ae_lp16f.i	aep7, a3, 0
    1361:	fce43a015f 	{ ae_sq56s.i	aeq0, a1, 40; ae_cvtq48p24s.h	aeq0, aep7 }
    1366:	fbfffb00df 	{ ae_sraiq56	aeq3, aeq0, 1; ae_roundsp24q48sym	aep7, aeq3 }
    136b:	e8e4c0004f 	{ movi	a4, 0; ae_mulfp24s.hh	aeq1, aep1, aep7 }
    1370:	e8e880013f 	{ movi	a3, 1; ae_mulfp24s.hh	aeq0, aep2, aep7 }
    1375:	099304        	ae_ltq56s	b0, aeq3, aeq1
    1378:	098314        	ae_ltq56s	b1, aeq3, aeq0
    137b:	013f44        	ae_mulfp24s.hh	aeq1, aep3, aep7
    137e:	e8f0964e0f 	{ movt	a4, a14, b0; ae_mulfp24s.hh	aeq0, aep4, aep7 }
    1383:	05f456        	bnez	a4, 13e6 <voiced_decision+0x34e>
    1386:	d6cc00003f 	{ movi	a3, 0; ae_ltq56s	b0, aeq3, aeq1 }
    138b:	d6c4563e1f 	{ movt	a3, a14, b1; ae_ltq56s	b1, aeq3, aeq0 }
    1390:	439c           	beqz.n	a3, 13a8 <voiced_decision+0x310>
    1392:	05d222        	addmi	a2, a2, 0x500
    1395:	0d9222        	l16si	a2, a2, 26
    1398:	fbc222        	addi	a2, a2, -5
    139b:	001086        	j	13e1 <voiced_decision+0x349>

0000139e <voiced_decision+0x306>:
    139e:	120c           	movi.n	a2, 1
    13a0:	6c2d           	ae_s16i.n	a2, a12, 0
    13a2:	04f856        	bnez	a8, 13f5 <voiced_decision+0x35d>
    13a5:	002906        	j	144d <voiced_decision+0x3b5>

000013a8 <voiced_decision+0x310>:
    13a8:	030c           	movi.n	a3, 0
    13aa:	e8f4963e0f 	{ movt	a3, a14, b0; ae_mulfp24s.hh	aeq0, aep5, aep7 }
    13af:	a38c           	beqz.n	a3, 13bd <voiced_decision+0x325>
    13b1:	05d222        	addmi	a2, a2, 0x500
    13b4:	0d9222        	l16si	a2, a2, 26
    13b7:	fcc222        	addi	a2, a2, -4
    13ba:	0008c6        	j	13e1 <voiced_decision+0x349>

000013bd <voiced_decision+0x325>:
    13bd:	030c           	movi.n	a3, 0
    13bf:	d6c4163e1f 	{ movt	a3, a14, b1; ae_ltq56s	b0, aeq3, aeq0 }
    13c4:	a38c           	beqz.n	a3, 13d2 <voiced_decision+0x33a>
    13c6:	05d222        	addmi	a2, a2, 0x500
    13c9:	0d9222        	l16si	a2, a2, 26
    13cc:	fec222        	addi	a2, a2, -2
    13cf:	000386        	j	13e1 <voiced_decision+0x349>

000013d2 <voiced_decision+0x33a>:
    13d2:	030c           	movi.n	a3, 0
    13d4:	d33e00        	movt	a3, a14, b0
    13d7:	63ac           	beqz.n	a3, 1401 <voiced_decision+0x369>
    13d9:	05d222        	addmi	a2, a2, 0x500
    13dc:	0d9222        	l16si	a2, a2, 26
    13df:	220b           	addi.n	a2, a2, -1
    13e1:	130c           	movi.n	a3, 1
    13e3:	533230        	max	a3, a2, a3
    13e6:	6c3d           	ae_s16i.n	a3, a12, 0
    13e8:	0c9622        	l16si	a2, a6, 24
    13eb:	220b           	addi.n	a2, a2, -1
    13ed:	722920        	salt	a2, a9, a2
    13f0:	992a           	add.n	a9, a9, a2
    13f2:	057816        	beqz	a8, 144d <voiced_decision+0x3b5>
    13f5:	0c9622        	l16si	a2, a6, 24
    13f8:	cc2b           	addi.n	a12, a12, 2
    13fa:	880b           	addi.n	a8, a8, -1
    13fc:	ff4b           	addi.n	a15, a15, 4
    13fe:	ffbd06        	j	12f6 <voiced_decision+0x25e>

00001401 <voiced_decision+0x369>:
    1401:	546174        	ae_lp24x2.i	aep6, a1, 56
    1404:	e8f880003f 	{ movi	a3, 0; ae_mulfp24s.hh	aeq0, aep6, aep7 }
    1409:	05d242        	addmi	a4, a2, 0x500
    140c:	d6c430616f 	{ ae_lp24x2.i	aep6, a1, 48; ae_ltq56s	b0, aeq3, aeq0 }
    1411:	610154        	ae_lq56.i	aeq0, a1, 40
    1414:	f818563e0f 	{ movt	a3, a14, b0; ae_mulfq32sp24s.h	aeq1, aeq0, aep6 }
    1419:	438c           	beqz.n	a3, 1421 <voiced_decision+0x389>
    141b:	0d1432        	l16ui	a3, a4, 26
    141e:	fff106        	j	13e6 <voiced_decision+0x34e>

00001421 <voiced_decision+0x389>:
    1421:	d5c800003f 	{ movi	a3, 0; ae_leq56s	b0, aeq2, aeq1 }
    1426:	05d222        	addmi	a2, a2, 0x500
    1429:	0d9222        	l16si	a2, a2, 26
    142c:	d33e00        	movt	a3, a14, b0
    142f:	fac316        	beqz	a3, 13df <voiced_decision+0x347>
    1432:	221b           	addi.n	a2, a2, 1
    1434:	031c           	movi.n	a3, 16
    1436:	433230        	min	a3, a2, a3
    1439:	ffea46        	j	13e6 <voiced_decision+0x34e>

0000143c <voiced_decision+0x3a4>:
    143c:	f37c           	movi.n	a3, -1
    143e:	05dc22        	addmi	a2, a12, 0x500
    1441:	0133f0        	slli	a3, a3, 17
    1444:	364334        	ae_cvtq48a32s	aeq1, a3
    1447:	0c5252        	s16i	a5, a2, 24
    144a:	003b46        	j	153b <voiced_decision+0x4a3>

0000144d <voiced_decision+0x3b5>:
    144d:	172132        	l32i	a3, a1, 92
    1450:	1aa522        	movi	a2, 0x51a
    1453:	81b8           	l32i.n	a11, a1, 32
    1455:	732a           	add.n	a7, a3, a2
    1457:	1621c2        	l32i	a12, a1, 88
    145a:	fb1d21        	l32r	a2, d0 (e550 <xt_memcpy>)
    145d:	07ad           	mov.n	a10, a7
    145f:	0002e0        	callx8	a2
    1462:	102192        	l32i	a9, a1, 64
    1465:	8fa382        	movi	a8, 0x38f
    1468:	7fd882        	addmi	a8, a8, 0x7f00
    146b:	600904        	ae_lq32f.i	aeq0, a9, 0
    146e:	390c           	movi.n	a9, 3
    1470:	1a0c           	movi.n	a10, 1
    1472:	36c834        	ae_cvtq48a32s	aeq3, a8
    1475:	0c5652        	s16i	a5, a6, 24
    1478:	115a20        	slli	a5, a10, 14
    147b:	1a0c           	movi.n	a10, 1
    147d:	119900        	slli	a9, a9, 16
    1480:	633134        	ae_sq56s.i	aeq3, a1, 24
    1483:	36c934        	ae_cvtq48a32s	aeq3, a9
    1486:	01aaf0        	slli	a10, a10, 17
    1489:	1d0c           	movi.n	a13, 1
    148b:	1921e2        	l32i	a14, a1, 100
    148e:	162182        	l32i	a8, a1, 88
    1491:	f27c           	movi.n	a2, -1
    1493:	03cd           	mov.n	a12, a3
    1495:	fb25b1        	l32r	a11, 12c (c148 <WB_NR_IE_frame_process+0x360>)
    1498:	113d00        	slli	a3, a13, 16
    149b:	633174        	ae_sq56s.i	aeq3, a1, 56
    149e:	36ca34        	ae_cvtq48a32s	aeq3, a10
    14a1:	364334        	ae_cvtq48a32s	aeq1, a3
    14a4:	633164        	ae_sq56s.i	aeq3, a1, 48
    14a7:	35c074        	ae_sraiq56	aeq3, aeq0, 1
    14aa:	0122f0        	slli	a2, a2, 17
    14ad:	368b34        	ae_cvtq48a32s	aeq2, a11
    14b0:	78c1f2        	addi	a15, a1, 120
    14b3:	631144        	ae_sq56s.i	aeq1, a1, 32
    14b6:	364234        	ae_cvtq48a32s	aeq1, a2
    14b9:	300554        	ae_cvtp24a16x2.ll	aep0, a5, a5
    14bc:	930c           	movi.n	a3, 9
    14be:	6cc142        	addi	a4, a1, 108
    14c1:	fece22        	addi	a2, a14, -2
    14c4:	01a052        	movi	a5, 1
    14c7:	632f94        	ae_sq56s.i	aeq2, a15, -56
    14ca:	633154        	ae_sq56s.i	aeq3, a1, 40
    14cd:	6a8876        	loop	a8, 153b <voiced_decision+0x4a3>
    14d0:	276d           	ae_l16si.n	a6, a7, 0
    14d2:	409214        	ae_lp16f.iu	aep1, a2, 2
    14d5:	fe2400009f 	{ movi	a9, 0; ae_cvtq48p24s.h	aeq2, aep1 }
    14da:	1836a6        	blti	a6, 3, 14f6 <voiced_decision+0x45e>
    14dd:	372637        	blt	a6, a3, 1518 <voiced_decision+0x480>
    14e0:	36c094        	ae_sllisq56s	aeq3, aeq0, 2
    14e3:	fb5a80006f 	{ movi	a6, 0; ae_subsq56s	aeq3, aeq3, aeq0 }
    14e8:	09a304        	ae_ltq56s	b0, aeq3, aeq2
    14eb:	d36500        	movt	a6, a5, b0
    14ee:	96ac           	beqz.n	a6, 151b <voiced_decision+0x483>
    14f0:	618174        	ae_lq56.i	aeq2, a1, 56
    14f3:	000f06        	j	1533 <voiced_decision+0x49b>

000014f6 <voiced_decision+0x45e>:
    14f6:	151666        	bnei	a6, 1, 150f <voiced_decision+0x477>
    14f9:	36c054        	ae_sllisq56s	aeq3, aeq0, 1
    14fc:	f502c7816e 	{ addi	a6, a1, 120; ae_mulafq32sp16s.h	aeq3, aeq0, aep0 }
    1501:	09b204        	ae_ltq56s	b0, aeq2, aeq3
    1504:	d39500        	movt	a9, a5, b0
    1507:	498c           	beqz.n	a9, 150f <voiced_decision+0x477>
    1509:	618694        	ae_lq56.i	aeq2, a6, -56
    150c:	000086        	j	1512 <voiced_decision+0x47a>

0000150f <voiced_decision+0x477>:
    150f:	618134        	ae_lq56.i	aeq2, a1, 24
    1512:	065a14        	ae_subsq56s	aeq1, aeq1, aeq2
    1515:	000746        	j	1536 <voiced_decision+0x49e>

00001518 <voiced_decision+0x480>:
    1518:	1466a6        	blti	a6, 6, 1530 <voiced_decision+0x498>
    151b:	61c154        	ae_lq56.i	aeq3, a1, 40
    151e:	fb7a40006f 	{ movi	a6, 0; ae_addsq56s	aeq3, aeq3, aeq0 }
    1523:	d6d43dc16f 	{ ae_lq56.i	aeq2, a1, 48; ae_ltq56s	b0, aeq3, aeq2 }
    1528:	d36500        	movt	a6, a5, b0
    152b:	168c           	beqz.n	a6, 1530 <voiced_decision+0x498>
    152d:	000086        	j	1533 <voiced_decision+0x49b>

00001530 <voiced_decision+0x498>:
    1530:	618144        	ae_lq56.i	aeq2, a1, 32
    1533:	065a04        	ae_addsq56s	aeq1, aeq1, aeq2
    1536:	772b           	addi.n	a7, a7, 2
    1538:	621404        	ae_sq32f.i	aeq1, a4, 0

0000153b <voiced_decision+0x4a3>:
    153b:	f8eb81412e 	{ addi	a2, a1, 20; ae_roundsp16q48sym	aep0, aeq1 }
    1540:	420204        	ae_sp16f.l.i	aep0, a2, 0
    1543:	0a9122        	l16si	a2, a1, 20
    1546:	05dc52        	addmi	a5, a12, 0x500
    1549:	830c           	movi.n	a3, 8
    154b:	312592        	l32i	a9, a5, 196
    154e:	432230        	min	a2, a2, a3
    1551:	847c           	movi.n	a4, -8
    1553:	532240        	max	a2, a2, a4
    1556:	292a           	add.n	a2, a9, a2
    1558:	0a1c           	movi.n	a10, 16
    155a:	faf5f1        	l32r	a15, 130 (7ffffffe <_end+0x7ffeed9e>)
    155d:	4322a0        	min	a2, a2, a10
    1560:	0b0c           	movi.n	a11, 0
    1562:	5322b0        	max	a2, a2, a11
    1565:	6ca5d2        	movi	a13, 0x56c
    1568:	11e8f0        	slli	a14, a8, 1
    156b:	1821b2        	l32i	a11, a1, 96
    156e:	fad841        	l32r	a4, d0 (e550 <xt_memcpy>)
    1571:	acda           	add.n	a10, a12, a13
    1573:	0c3d           	mov.n	a3, a12
    1575:	10cef0        	and	a12, a14, a15
    1578:	316522        	s32i	a2, a5, 196
    157b:	085d           	mov.n	a5, a8
    157d:	0004e0        	callx8	a4
    1580:	42a522        	movi	a2, 0x542
    1583:	1921b2        	l32i	a11, a1, 100
    1586:	a32a           	add.n	a10, a3, a2
    1588:	05cd           	mov.n	a12, a5
    158a:	0004e0        	callx8	a4
    158d:	f01d           	retw.n

0000158f <voiced_decision+0x4f7>:
	...

00001590 <Xfrac_num_pd_td32>:
    1590:	008136        	entry	a1, 64
    1593:	fae861        	l32r	a6, 134 (5a8200 <_end+0x596fa0>)
    1596:	600204        	ae_lq32f.i	aeq0, a2, 0
    1599:	604214        	ae_lq32f.i	aeq1, a2, 4
    159c:	f946a2066f 	{ ae_movpa24x2	aep0, a6, a6; ae_subsq56s	aeq1, aeq0, aeq1 }
    15a1:	f9017d42ff 	{ ae_lq32f.i	aeq2, a2, -4; ae_mulfq32sp24s.h	aeq3, aeq1, aep0 }
    15a6:	f8c28000ff 	{ movi	a15, 0; ae_subsq56s	aeq0, aeq0, aeq2 }
    15ab:	d65800017f 	{ movi	a7, 1; ae_ltq56s	b0, aeq0, aeq3 }
    15b0:	5139           	s32i.n	a3, a1, 20
    15b2:	f98039916f 	{ ae_sq32f.i	aeq1, a1, 24; ae_mulfq32sp24s.l	aeq2, aeq0, aep0 }
    15b7:	d3f700        	movt	a15, a7, b0
    15ba:	18c152        	addi	a5, a1, 24
    15bd:	620174        	ae_sq32f.i	aeq0, a1, 28
    15c0:	2fac           	beqz.n	a15, 15e6 <Xfrac_num_pd_td32+0x56>
    15c2:	120c           	movi.n	a2, 1
    15c4:	0122c0        	slli	a2, a2, 20
    15c7:	604504        	ae_lq32f.i	aeq1, a5, 0
    15ca:	398224        	ae_movpa24x2	aep0, a2, a2
    15cd:	f8814000ef 	{ movi	a14, 0; ae_mulfq32sp24s.l	aeq1, aeq1, aep0 }
    15d2:	1f0c           	movi.n	a15, 1
    15d4:	d64800006f 	{ movi	a6, 0; ae_ltq56s	b0, aeq0, aeq1 }
    15d9:	fad721        	l32r	a2, 138 (c28f0000 <_end+0xc28deda0>)
    15dc:	150c           	movi.n	a5, 1
    15de:	d3ef00        	movt	a14, a15, b0
    15e1:	7e9c           	beqz.n	a14, 15fc <Xfrac_num_pd_td32+0x6c>
    15e3:	002546        	j	167c <Xfrac_num_pd_td32+0xec>

000015e6 <Xfrac_num_pd_td32+0x56>:
    15e6:	604504        	ae_lq32f.i	aeq1, a5, 0
    15e9:	d6c800002f 	{ movi	a2, 0; ae_ltq56s	b0, aeq2, aeq1 }
    15ee:	1f0c           	movi.n	a15, 1
    15f0:	160c           	movi.n	a6, 1
    15f2:	d32f00        	movt	a2, a15, b0
    15f5:	b29c           	beqz.n	a2, 1614 <Xfrac_num_pd_td32+0x84>
    15f7:	020c           	movi.n	a2, 0
    15f9:	001fc6        	j	167c <Xfrac_num_pd_td32+0xec>

000015fc <Xfrac_num_pd_td32+0x6c>:
    15fc:	369054        	ae_sllisq56s	aeq2, aeq1, 1
    15ff:	fe80c0007f 	{ movi	a7, 0; ae_satq48s	aeq2, aeq2 }
    1604:	d65000018f 	{ movi	a8, 1; ae_ltq56s	b0, aeq0, aeq2 }
    1609:	facc21        	l32r	a2, 13c (cccd0000 <_end+0xcccbeda0>)
    160c:	d36500        	movt	a6, a5, b0
    160f:	06ac           	beqz.n	a6, 1633 <Xfrac_num_pd_td32+0xa3>
    1611:	0019c6        	j	167c <Xfrac_num_pd_td32+0xec>

00001614 <Xfrac_num_pd_td32+0x84>:
    1614:	0126a0        	slli	a2, a6, 22
    1617:	398224        	ae_movpa24x2	aep0, a2, a2
    161a:	f8800000ff 	{ movi	a15, 0; ae_mulfq32sp24s.l	aeq0, aeq0, aep0 }
    161f:	150c           	movi.n	a5, 1
    1621:	d6483b009f 	{ ae_sraiq56	aeq2, aeq0, 1; ae_ltq56s	b0, aeq0, aeq1 }
    1626:	fac821        	l32r	a2, 148 (ccd0000 <_end+0xccbeda0>)
    1629:	070c           	movi.n	a7, 0
    162b:	d3f500        	movt	a15, a5, b0
    162e:	8f9c           	beqz.n	a15, 164a <Xfrac_num_pd_td32+0xba>
    1630:	001206        	j	167c <Xfrac_num_pd_td32+0xec>

00001633 <Xfrac_num_pd_td32+0xa3>:
    1633:	365094        	ae_sllisq56s	aeq1, aeq1, 2
    1636:	064944        	ae_satq48s	aeq1, aeq1
    1639:	099004        	ae_ltq56s	b0, aeq0, aeq1
    163c:	fac121        	l32r	a2, 140 (e6660000 <_end+0xe664eda0>)
    163f:	fac151        	l32r	a5, 144 (f3330000 <_end+0xf331eda0>)
    1642:	d37800        	movt	a7, a8, b0
    1645:	879c           	beqz.n	a7, 1661 <Xfrac_num_pd_td32+0xd1>
    1647:	000c46        	j	167c <Xfrac_num_pd_td32+0xec>

0000164a <Xfrac_num_pd_td32+0xba>:
    164a:	fe80c0015f 	{ movi	a5, 1; ae_satq48s	aeq2, aeq2 }
    164f:	d6c83b002f 	{ ae_sraiq56	aeq0, aeq0, 2; ae_ltq56s	b0, aeq2, aeq1 }
    1654:	fabe21        	l32r	a2, 14c (199a0000 <_end+0x1998eda0>)
    1657:	060c           	movi.n	a6, 0
    1659:	d37500        	movt	a7, a5, b0
    165c:	678c           	beqz.n	a7, 1666 <Xfrac_num_pd_td32+0xd6>
    165e:	000686        	j	167c <Xfrac_num_pd_td32+0xec>

00001661 <Xfrac_num_pd_td32+0xd1>:
    1661:	052d           	mov.n	a2, a5
    1663:	000546        	j	167c <Xfrac_num_pd_td32+0xec>

00001666 <Xfrac_num_pd_td32+0xd6>:
    1666:	fc00c0015f 	{ movi	a5, 1; ae_satq48s	aeq0, aeq0 }
    166b:	099004        	ae_ltq56s	b0, aeq0, aeq1
    166e:	fab821        	l32r	a2, 150 (33330000 <_end+0x3331eda0>)
    1671:	d36500        	movt	a6, a5, b0
    1674:	168c           	beqz.n	a6, 1679 <Xfrac_num_pd_td32+0xe9>
    1676:	000086        	j	167c <Xfrac_num_pd_td32+0xec>

00001679 <Xfrac_num_pd_td32+0xe9>:
    1679:	fab621        	l32r	a2, 154 (3d710000 <_end+0x3d6feda0>)
    167c:	d43a           	add.n	a13, a4, a3
    167e:	4129           	s32i.n	a2, a1, 16
    1680:	112d00        	slli	a2, a13, 16
    1683:	600144        	ae_lq32f.i	aeq0, a1, 16
    1686:	5129           	s32i.n	a2, a1, 20
    1688:	604154        	ae_lq32f.i	aeq1, a1, 20
    168b:	3503f4        	ae_sraiq56	aeq0, aeq0, 15
    168e:	0118c4        	ae_addq56	aeq0, aeq1, aeq0
    1691:	060834        	ae_roundsq32sym	aeq0, aeq0
    1694:	620144        	ae_sq32f.i	aeq0, a1, 16
    1697:	4128           	l32i.n	a2, a1, 16
    1699:	f01d           	retw.n

0000169b <Xfrac_num_pd_td32+0x10b>:
	...

0000169c <Pitch_by_Corel>:
    169c:	010136        	entry	a1, 128
    169f:	08a552        	movi	a5, 0x508
    16a2:	18a542        	movi	a4, 0x518
    16a5:	535a           	add.n	a5, a3, a5
    16a7:	434a           	add.n	a4, a3, a4
    16a9:	05d3d2        	addmi	a13, a3, 0x500
    16ac:	f3f740        	wur.ae_cend0	a4
    16af:	f3f650        	wur.ae_cbegin0	a5
    16b2:	0d68           	l32i.n	a6, a13, 0
    16b4:	4b0c           	movi.n	a11, 4
    16b6:	aca0f2        	movi	a15, 172
    16b9:	0678           	l32i.n	a7, a6, 0
    16bb:	fc24fb86bf 	{ ae_lq32f.c	aeq0, a6, a11; nop }
    16c0:	0688           	l32i.n	a8, a6, 0
    16c2:	fc24fb86bf 	{ ae_lq32f.c	aeq0, a6, a11; nop }
    16c7:	0698           	l32i.n	a9, a6, 0
    16c9:	fc24fb86bf 	{ ae_lq32f.c	aeq0, a6, a11; nop }
    16ce:	06a8           	l32i.n	a10, a6, 0
    16d0:	fc24fb86bf 	{ ae_lq32f.c	aeq0, a6, a11; nop }
    16d5:	fc24fb86bf 	{ ae_lq32f.c	aeq0, a6, a11; nop }
    16da:	f3fa           	add.n	a15, a3, a15
    16dc:	fa9fe1        	l32r	a14, 158 (4ccccd <_end+0x4bba6d>)
    16df:	116132        	s32i	a3, a1, 68
    16e2:	030c           	movi.n	a3, 0
    16e4:	0d69           	s32i.n	a6, a13, 0
    16e6:	ec1c           	movi.n	a12, 30
    16e8:	0b0c           	movi.n	a11, 0
    16ea:	0d0c           	movi.n	a13, 0
    16ec:	fc24a20eef 	{ ae_movpa24x2	aep0, a14, a14; ae_zeroq56	aeq0 }
    16f1:	62c242        	addi	a4, a2, 98
    16f4:	50c262        	addi	a6, a2, 80
    16f7:	fccff2        	addi	a15, a15, -4
    16fa:	0e6132        	s32i	a3, a1, 56

000016fd <Pitch_by_Corel+0x61>:
    16fd:	04ed           	mov.n	a14, a4
    16ff:	202660        	or	a2, a6, a6
    1702:	409e14        	ae_lp16f.iu	aep1, a14, 2
    1705:	078c76        	loop	a12, 1710 <Pitch_by_Corel+0x74>
    1708:	40a214        	ae_lp16f.iu	aep2, a2, 2
    170b:	e444ac9e1f 	{ ae_lp16f.iu	aep1, a14, 2; ae_mulafs56p24s.hh	aeq0, aep1, aep2 }

00001710 <Pitch_by_Corel+0x74>:
    1710:	350174        	ae_sraiq56	aeq0, aeq0, 5
    1713:	fc247d270f 	{ ae_lq32f.i	aeq1, a7, 0; ae_roundsq32asym	aeq0, aeq0 }
    1718:	f9667d480f 	{ ae_lq32f.i	aeq2, a8, 0; ae_addsq56s	aeq1, aeq0, aeq1 }
    171d:	f9ea7d690f 	{ ae_lq32f.i	aeq3, a9, 0; ae_addsq56s	aeq1, aeq1, aeq2 }
    1722:	f9ee7d6a0f 	{ ae_lq32f.i	aeq3, a10, 0; ae_addsq56s	aeq1, aeq1, aeq3 }
    1727:	f9ee4fed2e 	{ addi	a2, a13, -2; ae_addsq56s	aeq1, aeq1, aeq3 }
    172c:	f8603ad16f 	{ ae_sllisq56s	aeq1, aeq1, 6; ae_mulrfq32sp24s.h	aeq0, aeq0, aep0 }
    1731:	fd2c40265f 	{ movi	a5, 38; ae_roundsq32asym	aeq1, aeq1 }
    1736:	625f14        	ae_sq32f.iu	aeq1, a15, 4
    1739:	0fe8           	l32i.n	a14, a15, 0
    173b:	922d           	ae_zext16	a2, a2
    173d:	622250        	saltu	a2, a2, a5
    1740:	53ee30        	max	a14, a14, a3
    1743:	0fe9           	s32i.n	a14, a15, 0
    1745:	620704        	ae_sq32f.i	aeq0, a7, 0
    1748:	600804        	ae_lq32f.i	aeq0, a8, 0
    174b:	f860001dde 	{ addi	a13, a13, 1; ae_mulrfq32sp24s.h	aeq0, aeq0, aep0 }
    1750:	725be0        	salt	a5, a11, a14
    1753:	620804        	ae_sq32f.i	aeq0, a8, 0
    1756:	600904        	ae_lq32f.i	aeq0, a9, 0
    1759:	f8600fe66e 	{ addi	a6, a6, -2; ae_mulrfq32sp24s.h	aeq0, aeq0, aep0 }
    175e:	83eb50        	moveqz	a14, a11, a5
    1761:	620904        	ae_sq32f.i	aeq0, a9, 0
    1764:	600a04        	ae_lq32f.i	aeq0, a10, 0
    1767:	f86000477e 	{ addi	a7, a7, 4; ae_mulrfq32sp24s.h	aeq0, aeq0, aep0 }
    176c:	93be20        	movnez	a11, a14, a2
    176f:	ae2c           	movi.n	a14, 42
    1771:	fc24b98a0f 	{ ae_sq32f.i	aeq0, a10, 0; ae_zeroq56	aeq0 }
    1776:	884b           	addi.n	a8, a8, 4
    1778:	994b           	addi.n	a9, a9, 4
    177a:	aa4b           	addi.n	a10, a10, 4
    177c:	021de7        	beq	a13, a14, 1782 <Pitch_by_Corel+0xe6>
    177f:	ffde86        	j	16fd <Pitch_by_Corel+0x61>
    1782:	112192        	l32i	a9, a1, 68
    1785:	54a132        	movi	a3, 0x154
    1788:	e1b9           	s32i.n	a11, a1, 56
    178a:	38c122        	addi	a2, a1, 56
    178d:	603394        	ae_lq32f.xu	aeq0, a3, a9
    1790:	604204        	ae_lq32f.i	aeq1, a2, 0
    1793:	065814        	ae_subsq56s	aeq1, aeq1, aeq0
    1796:	fa6351        	l32r	a5, 124 (2ccccd <_end+0x2bba6d>)
    1799:	fd04e2055f 	{ ae_movpa24x2	aep0, a5, a5; ae_satq48s	aeq1, aeq1 }
    179e:	080254        	ae_mularfq32sp24s.h	aeq0, aeq1, aep0
    17a1:	04d942        	addmi	a4, a9, 0x400
    17a4:	fc00f3e4fe 	{ l32i	a15, a4, 248; ae_satq48s	aeq0, aeq0 }
    17a9:	620304        	ae_sq32f.i	aeq0, a3, 0
    17ac:	552932        	l32i	a3, a9, 0x154
    17af:	58a182        	movi	a8, 0x158
    17b2:	872c           	movi.n	a7, 40
    17b4:	436f30        	min	a6, a15, a3
    17b7:	0a1932        	l16ui	a3, a9, 20
    17ba:	3e6462        	s32i	a6, a4, 248
    17bd:	f8a452        	movi	a5, 0x4f8
    17c0:	5b73b6        	bltui	a3, 7, 181f <Pitch_by_Corel+0x183>
    17c3:	398a           	add.n	a3, a9, a8
    17c5:	d169           	s32i.n	a6, a1, 52
    17c7:	068776        	loop	a7, 17d1 <Pitch_by_Corel+0x135>
    17ca:	0378           	l32i.n	a7, a3, 0
    17cc:	334b           	addi.n	a3, a3, 4
    17ce:	436760        	min	a6, a7, a6
    17d1:	d169           	s32i.n	a6, a1, 52
    17d3:	50a262        	movi	a6, 0x250
    17d6:	34c132        	addi	a3, a1, 52
    17d9:	58a1f2        	movi	a15, 0x158
    17dc:	604304        	ae_lq32f.i	aeq1, a3, 0
    17df:	60b694        	ae_lq32f.xu	aeq2, a6, a9
    17e2:	fa5681f8cf 	{ movi	a12, 0x1f8; ae_subsq56s	aeq2, aeq2, aeq1 }
    17e7:	a9fa           	add.n	a10, a9, a15
    17e9:	fa5c71        	l32r	a7, 15c (6ccccd <_end+0x6bba6d>)
    17ec:	39ca           	add.n	a3, a9, a12
    17ee:	05d982        	addmi	a8, a9, 0x500
    17f1:	fe80e2077f 	{ ae_movpa24x2	aep0, a7, a7; ae_satq48s	aeq2, aeq2 }
    17f6:	f3f6a0        	wur.ae_cbegin0	a10
    17f9:	f3f730        	wur.ae_cend0	a3
    17fc:	d660f018ee 	{ l32i	a14, a8, 4; ae_mularfq32sp24s.h	aeq1, aeq2, aep0 }
    1801:	ff7c           	movi.n	a15, -1
    1803:	fd04fb995f 	{ ae_lq32f.x	aeq0, a9, a5; ae_satq48s	aeq1, aeq1 }
    1808:	4d0c           	movi.n	a13, 4
    180a:	621604        	ae_sq32f.i	aeq1, a6, 0
    180d:	fc24f80edf 	{ ae_sq32f.c	aeq0, a14, a13; nop }
    1812:	4131f0        	srli	a3, a15, 1
    1815:	3e6432        	s32i	a3, a4, 248
    1818:	030c           	movi.n	a3, 0
    181a:	18e9           	s32i.n	a14, a8, 4
    181c:	000046        	j	1821 <Pitch_by_Corel+0x185>

0000181f <Pitch_by_Corel+0x183>:
    181f:	331b           	addi.n	a3, a3, 1
    1821:	50a272        	movi	a7, 0x250
    1824:	fa4fe1        	l32r	a14, 160 (59999a <_end+0x58873a>)
    1827:	398ee4        	ae_movpa24x2	aep0, a14, a14
    182a:	607794        	ae_lq32f.xu	aeq1, a7, a9
    182d:	f90102546f 	{ movi	a6, 0x254; ae_mulfq32sp24s.h	aeq2, aeq1, aep0 }
    1832:	603694        	ae_lq32f.xu	aeq0, a6, a9
    1835:	d6500000ff 	{ movi	a15, 0; ae_ltq56s	b0, aeq0, aeq2 }
    183a:	150c           	movi.n	a5, 1
    183c:	fa4a41        	l32r	a4, 164 (733333 <_end+0x7220d3>)
    183f:	d3f500        	movt	a15, a5, b0
    1842:	fa4951        	l32r	a5, 168 (70a3d7 <_end+0x6f9177>)
    1845:	0a5932        	s16i	a3, a9, 20
    1848:	b1b9           	s32i.n	a11, a1, 44
    184a:	560134        	ae_sp24x2s.i	aep0, a1, 24
    184d:	6f8c           	beqz.n	a15, 1857 <Pitch_by_Corel+0x1bb>
    184f:	0778           	l32i.n	a7, a7, 0
    1851:	398444        	ae_movpa24x2	aep0, a4, a4
    1854:	001086        	j	189a <Pitch_by_Corel+0x1fe>

00001857 <Pitch_by_Corel+0x1bb>:
    1857:	398554        	ae_movpa24x2	aep0, a5, a5
    185a:	f90100003f 	{ movi	a3, 0; ae_mulfq32sp24s.h	aeq2, aeq1, aep0 }
    185f:	180c           	movi.n	a8, 1
    1861:	d6500001af 	{ movi	a10, 1; ae_ltq56s	b0, aeq0, aeq2 }
    1866:	fa4191        	l32r	a9, 16c (7e147b <_end+0x7d021b>)
    1869:	01cac0        	slli	a12, a10, 20
    186c:	d33800        	movt	a3, a8, b0
    186f:	538c           	beqz.n	a3, 1878 <Pitch_by_Corel+0x1dc>
    1871:	0778           	l32i.n	a7, a7, 0
    1873:	093d           	mov.n	a3, a9
    1875:	000786        	j	1897 <Pitch_by_Corel+0x1fb>

00001878 <Pitch_by_Corel+0x1dc>:
    1878:	398cc4        	ae_movpa24x2	aep0, a12, a12
    187b:	d461c401fe 	{ addi	a15, a1, 64; ae_mularfq32sp24s.h	aeq1, aeq1, aep0 }
    1880:	fa3b31        	l32r	a3, 16c (7e147b <_end+0x7d021b>)
    1883:	fd04e2033f 	{ ae_movpa24x2	aep0, a3, a3; ae_satq48s	aeq1, aeq1 }
    1888:	621f04        	ae_sq32f.i	aeq1, a15, 0
    188b:	102172        	l32i	a7, a1, 64
    188e:	0227b7        	blt	a7, a11, 1894 <Pitch_by_Corel+0x1f8>
    1891:	00dbc6        	j	1c04 <Pitch_by_Corel+0x568>
    1894:	fa3731        	l32r	a3, 170 (7fbe77 <_end+0x7eac17>)
    1897:	398334        	ae_movpa24x2	aep0, a3, a3
    189a:	b179           	s32i.n	a7, a1, 44
    189c:	2cc132        	addi	a3, a1, 44
    189f:	604304        	ae_lq32f.i	aeq1, a3, 0
    18a2:	f84680ff8f 	{ movi	a8, 255; ae_subsq56s	aeq0, aeq0, aeq1 }
    18a7:	fc00c001ef 	{ movi	a14, 1; ae_satq48s	aeq0, aeq0 }
    18ac:	080a24        	ae_mulafq32sp24s.h	aeq1, aeq0, aep0
    18af:	136172        	s32i	a7, a1, 76
    18b2:	060944        	ae_satq48s	aeq0, aeq1
    18b5:	064834        	ae_roundsq32sym	aeq1, aeq0
    18b8:	621604        	ae_sq32f.i	aeq1, a6, 0
    18bb:	06f8           	l32i.n	a15, a6, 0
    18bd:	117e20        	slli	a7, a14, 14
    18c0:	3fd882        	addmi	a8, a8, 0x3f00
    18c3:	364734        	ae_cvtq48a32s	aeq1, a7
    18c6:	0128f7        	blt	a8, a15, 18cb <Pitch_by_Corel+0x22f>
    18c9:	0679           	s32i.n	a7, a6, 0
    18cb:	f9fb31        	l32r	a3, b8 (11254 <p_ecnr_mem>)
    18ce:	f86700587f 	{ movi	a7, 88; ae_maxq56s	aeq0, aeq1, aeq0 }
    18d3:	58d772        	addmi	a7, a7, 0x5800
    18d6:	0368           	l32i.n	a6, a3, 0
    18d8:	630114        	ae_sq56s.i	aeq0, a1, 8
    18db:	a67a           	add.n	a10, a6, a7
    18dd:	fa2561        	l32r	a6, 174 (1098 <voiced_decision>)
    18e0:	0006e0        	callx8	a6
    18e3:	0338           	l32i.n	a3, a3, 0
    18e5:	fa0861        	l32r	a6, 108 (e528 <memset>)
    18e8:	0b0c           	movi.n	a11, 0
    18ea:	1ad332        	addmi	a3, a3, 0x1a00
    18ed:	2723a2        	l32i	a10, a3, 156
    18f0:	8c2c           	movi.n	a12, 40
    18f2:	0006e0        	callx8	a6
    18f5:	272372        	l32i	a7, a3, 156
    18f8:	1121b2        	l32i	a11, a1, 68
    18fb:	f8a1f2        	movi	a15, 0x1f8
    18fe:	a92c           	movi.n	a9, 42
    1900:	6bfa           	add.n	a6, a11, a15
    1902:	28c782        	addi	a8, a7, 40
    1905:	078976        	loop	a9, 1910 <Pitch_by_Corel+0x274>
    1908:	263d           	ae_l16si.n	a3, a6, 0
    190a:	683d           	ae_s16i.n	a3, a8, 0
    190c:	662b           	addi.n	a6, a6, 2
    190e:	882b           	addi.n	a8, a8, 2

00001910 <Pitch_by_Corel+0x274>:
    1910:	102b82        	l32i	a8, a11, 64
    1913:	aca032        	movi	a3, 172
    1916:	fa18f1        	l32r	a15, 178 (39999a <_end+0x38873a>)
    1919:	fca162        	movi	a6, 0x1fc
    191c:	398554        	ae_movpa24x2	aep0, a5, a5
    191f:	399444        	ae_movpa24x2	aep1, a4, a4
    1922:	39aff4        	ae_movpa24x2	aep2, a15, a15
    1925:	2ac752        	addi	a5, a7, 42
    1928:	290c           	movi.n	a9, 2
    192a:	8a2c           	movi.n	a10, 40
    192c:	5c0c           	movi.n	a12, 5
    192e:	1d0c           	movi.n	a13, 1
    1930:	040c           	movi.n	a4, 0
    1932:	166182        	s32i	a8, a1, 88
    1935:	6b89           	s32i.n	a8, a11, 24
    1937:	eb3a           	add.n	a14, a11, a3
    1939:	fb6a           	add.n	a15, a11, a6
    193b:	61c114        	ae_lq56.i	aeq3, a1, 8
    193e:	000a46        	j	196b <Pitch_by_Corel+0x2cf>

00001941 <Pitch_by_Corel+0x2a5>:
    1941:	030c           	movi.n	a3, 0
    1943:	d33d10        	movt	a3, a13, b1
    1946:	838c           	beqz.n	a3, 1952 <Pitch_by_Corel+0x2b6>
    1948:	8b3d           	ae_sext16	a3, a11
    194a:	fec332        	addi	a3, a3, -2
    194d:	060c           	movi.n	a6, 0
    194f:	53b630        	max	a11, a6, a3
    1952:	8b3d           	ae_sext16	a3, a11
    1954:	461c           	movi.n	a6, 20
    1956:	441b           	addi.n	a4, a4, 1
    1958:	438360        	min	a8, a3, a6
    195b:	991b           	addi.n	a9, a9, 1
    195d:	6f8d           	ae_s16i.n	a8, a15, 0
    195f:	ee4b           	addi.n	a14, a14, 4
    1961:	ff2b           	addi.n	a15, a15, 2
    1963:	552b           	addi.n	a5, a5, 2
    1965:	0299a7        	bne	a9, a10, 196b <Pitch_by_Corel+0x2cf>
    1968:	002cc6        	j	1a1f <Pitch_by_Corel+0x383>
    196b:	4f6d           	ae_l16ui.n	a6, a15, 0
    196d:	0e8d           	mov.n	a8, a14
    196f:	0b0c           	movi.n	a11, 0
    1971:	068c76        	loop	a12, 197b <Pitch_by_Corel+0x2df>
    1974:	0838           	l32i.n	a3, a8, 0
    1976:	884b           	addi.n	a8, a8, 4
    1978:	53b3b0        	max	a11, a3, a11

0000197b <Pitch_by_Corel+0x2df>:
    197b:	112132        	l32i	a3, a1, 68
    197e:	600e24        	ae_lq32f.i	aeq0, a14, 8
    1981:	3580f4        	ae_sraiq56	aeq2, aeq0, 3
    1984:	403304        	ae_lp16f.i	aep3, a3, 0
    1987:	d66fc0003f 	{ movi	a3, 0; ae_mulfq32sp16u.h	aeq1, aeq3, aep3 }
    198c:	080c           	movi.n	a8, 0
    198e:	09a104        	ae_ltq56s	b0, aeq1, aeq2
    1991:	d33d00        	movt	a3, a13, b0
    1994:	fc3316        	beqz	a3, 195b <Pitch_by_Corel+0x2bf>
    1997:	2e38           	l32i.n	a3, a14, 8
    1999:	be93b7        	bne	a3, a11, 195b <Pitch_by_Corel+0x2bf>
    199c:	553d           	ae_l16ui.n	a3, a5, 2
    199e:	06bd           	mov.n	a11, a6
    19a0:	03dc           	bnez.n	a3, 19b4 <Pitch_by_Corel+0x318>
    19a2:	25bd           	ae_l16si.n	a11, a5, 0
    19a4:	0c1be6        	bgei	a11, 1, 19b4 <Pitch_by_Corel+0x318>
    19a7:	029532        	l16si	a3, a5, 4
    19aa:	0b0c           	movi.n	a11, 0
    19ac:	72bb30        	salt	a11, a11, a3
    19af:	9363b0        	movnez	a6, a3, a11
    19b2:	06bd           	mov.n	a11, a6

000019b4 <Pitch_by_Corel+0x318>:
    19b4:	112132        	l32i	a3, a1, 68
    19b7:	60c204        	ae_lq32f.i	aeq3, a2, 0
    19ba:	060c           	movi.n	a6, 0
    19bc:	403324        	ae_lp16f.i	aep3, a3, 4
    19bf:	03b2e4        	ae_mulfq32sp16u.h	aeq2, aeq3, aep3
    19c2:	943d           	ae_zext16	a3, a4
    19c4:	d66ed1337f 	{ addx2	a3, a3, a7; ae_mulfq32sp16u.h	aeq1, aeq2, aep3 }
    19c9:	098214        	ae_ltq56s	b1, aeq2, aeq0
    19cc:	f8017a112f 	{ ae_sq56s.i	aeq1, a1, 16; ae_mulfq32sp24s.h	aeq1, aeq1, aep0 }
    19d1:	d6443da12f 	{ ae_lq56.i	aeq1, a1, 16; ae_ltq56s	b0, aeq1, aeq0 }
    19d6:	d644166d0f 	{ movt	a6, a13, b0; ae_ltq56s	b0, aeq1, aeq0 }
    19db:	169c           	beqz.n	a6, 19f0 <Pitch_by_Corel+0x354>
    19dd:	060c           	movi.n	a6, 0
    19df:	f805566d1f 	{ movt	a6, a13, b1; ae_mulfq32sp24s.h	aeq1, aeq1, aep1 }
    19e4:	639d           	ae_s16i.n	a9, a3, 0
    19e6:	36ac           	beqz.n	a6, 1a0d <Pitch_by_Corel+0x371>
    19e8:	bb2b           	addi.n	a11, a11, 2
    19ea:	61c114        	ae_lq56.i	aeq3, a1, 8
    19ed:	ffd846        	j	1952 <Pitch_by_Corel+0x2b6>

000019f0 <Pitch_by_Corel+0x354>:
    19f0:	fa0940003f 	{ movi	a3, 0; ae_mulfq32sp24s.h	aeq1, aeq3, aep2 }
    19f5:	d6443de11f 	{ ae_lq56.i	aeq3, a1, 8; ae_ltq56s	b0, aeq1, aeq0 }
    19fa:	8b6d           	ae_sext16	a6, a11
    19fc:	d33d00        	movt	a3, a13, b0
    19ff:	f58316        	beqz	a3, 195b <Pitch_by_Corel+0x2bf>
    1a02:	fbc632        	addi	a3, a6, -5
    1a05:	060c           	movi.n	a6, 0
    1a07:	538630        	max	a8, a6, a3
    1a0a:	ffd346        	j	195b <Pitch_by_Corel+0x2bf>

00001a0d <Pitch_by_Corel+0x371>:
    1a0d:	030c           	movi.n	a3, 0
    1a0f:	d6487de11f 	{ ae_lq56.i	aeq3, a1, 8; ae_ltq56s	b1, aeq0, aeq1 }
    1a14:	d33d00        	movt	a3, a13, b0
    1a17:	f26316        	beqz	a3, 1941 <Pitch_by_Corel+0x2a5>
    1a1a:	bb1b           	addi.n	a11, a11, 1
    1a1c:	ffcc86        	j	1952 <Pitch_by_Corel+0x2b6>

00001a1f <Pitch_by_Corel+0x383>:
    1a1f:	1121c2        	l32i	a12, a1, 68
    1a22:	f9d631        	l32r	a3, 17c (5d70a4 <_end+0x5c5e44>)
    1a25:	39f334        	ae_movpa24x2	aep7, a3, a3
    1a28:	400c04        	ae_lp16f.i	aep0, a12, 0
    1a2b:	d663ac1c1f 	{ ae_lp16f.i	aep1, a12, 2; ae_mulfq32sp16u.h	aeq0, aeq3, aep0 }
    1a30:	f87c           	movi.n	a8, -1
    1a32:	d56683c1be 	{ addi	a11, a1, 60; ae_mulfq32sp16u.h	aeq2, aeq0, aep1 }
    1a37:	5cc152        	addi	a5, a1, 92
    1a3a:	fa7c79ab0f 	{ ae_sq32f.i	aeq2, a11, 0; ae_mulrfq32sp24s.h	aeq1, aeq2, aep7 }
    1a3f:	f48080        	extui	a8, a8, 0, 16
    1a42:	621504        	ae_sq32f.i	aeq1, a5, 0
    1a45:	028847        	bany	a8, a4, 1a4b <Pitch_by_Corel+0x3af>
    1a48:	004e86        	j	1b86 <Pitch_by_Corel+0x4ea>
    1a4b:	600204        	ae_lq32f.i	aeq0, a2, 0
    1a4e:	35c134        	ae_sraiq56	aeq3, aeq0, 4
    1a51:	d5d80000ff 	{ movi	a15, 0; ae_leq56s	b0, aeq2, aeq3 }
    1a56:	130c           	movi.n	a3, 1
    1a58:	060c           	movi.n	a6, 0
    1a5a:	d55c56f30f 	{ movt	a15, a3, b0; ae_leq56s	b1, aeq1, aeq3 }
    1a5f:	ffcc           	bnez.n	a15, 1a72 <Pitch_by_Corel+0x3d6>
    1a61:	150c           	movi.n	a5, 1
    1a63:	091c22        	l16ui	a2, a12, 18
    1a66:	d36510        	movt	a6, a5, b1
    1a69:	11c616        	beqz	a6, 1b89 <Pitch_by_Corel+0x4ed>
    1a6c:	0222f6        	bgeui	a2, 2, 1a72 <Pitch_by_Corel+0x3d6>
    1a6f:	004586        	j	1b89 <Pitch_by_Corel+0x4ed>
    1a72:	f9c3d1        	l32r	a13, 180 (666666 <_end+0x655406>)
    1a75:	547134        	ae_lp24x2.i	aep7, a1, 24
    1a78:	f81c220ddf 	{ ae_movpa24x2	aep0, a13, a13; ae_mulfq32sp24s.h	aeq0, aeq0, aep7 }
    1a7d:	c1a8           	l32i.n	a10, a1, 48
    1a7f:	1321d2        	l32i	a13, a1, 76
    1a82:	1461b2        	s32i	a11, a1, 80
    1a85:	04dc22        	addmi	a2, a12, 0x400
    1a88:	f1b8           	l32i.n	a11, a1, 60
    1a8a:	94ed           	ae_zext16	a14, a4
    1a8c:	156122        	s32i	a2, a1, 84
    1a8f:	21b9           	s32i.n	a11, a1, 8
    1a91:	050c           	movi.n	a5, 0
    1a93:	aca0f2        	movi	a15, 172
    1a96:	560144        	ae_sp24x2s.i	aep0, a1, 32
    1a99:	630124        	ae_sq56s.i	aeq0, a1, 16
    1a9c:	272d           	ae_l16si.n	a2, a7, 0
    1a9e:	9032c0        	addx2	a3, a2, a12
    1aa1:	fc1332        	l16ui	a3, a3, 0x1f8
    1aa4:	136132        	s32i	a3, a1, 76
    1aa7:	a042c0        	addx4	a4, a2, a12
    1aaa:	0263f6        	bgeui	a3, 6, 1ab0 <Pitch_by_Corel+0x414>
    1aad:	002bc6        	j	1b60 <Pitch_by_Corel+0x4c4>
    1ab0:	6034f4        	ae_lq32f.xu	aeq0, a4, a15
    1ab3:	614124        	ae_lq56.i	aeq1, a1, 16
    1ab6:	d64400003f 	{ movi	a3, 0; ae_ltq56s	b0, aeq1, aeq0 }
    1abb:	160c           	movi.n	a6, 1
    1abd:	928d           	ae_zext16	a8, a2
    1abf:	d33600        	movt	a3, a6, b0
    1ac2:	09a316        	beqz	a3, 1b60 <Pitch_by_Corel+0x4c4>
    1ac5:	126182        	s32i	a8, a1, 72
    1ac8:	f99231        	l32r	a3, 110 (1590 <Xfrac_num_pd_td32>)
    1acb:	9c0c           	movi.n	a12, 9
    1acd:	04ad           	mov.n	a10, a4
    1acf:	02bd           	mov.n	a11, a2
    1ad1:	0e6d           	mov.n	a6, a14
    1ad3:	0003e0        	callx8	a3
    1ad6:	1621b2        	l32i	a11, a1, 88
    1ad9:	f9aa81        	l32r	a8, 184 (14001 <_end+0x2da1>)
    1adc:	152192        	l32i	a9, a1, 84
    1adf:	0b4b16        	beqz	a11, 1b97 <Pitch_by_Corel+0x4fb>
    1ae2:	c03ba0        	sub	a3, a11, a10
    1ae5:	02a387        	bge	a3, a8, 1aeb <Pitch_by_Corel+0x44f>
    1ae8:	002ac6        	j	1b97 <Pitch_by_Corel+0x4fb>
    1aeb:	1121c2        	l32i	a12, a1, 68
    1aee:	bd0c           	movi.n	a13, 11
    1af0:	7e1982        	l16ui	a8, a9, 252
    1af3:	980b           	addi.n	a9, a8, -1
    1af5:	90f9c0        	addx2	a15, a9, a12
    1af8:	fc1f32        	l16ui	a3, a15, 0x1f8
    1afb:	f81b           	addi.n	a15, a8, 1
    1afd:	90efc0        	addx2	a14, a15, a12
    1b00:	0cb3d7        	bgeu	a3, a13, 1b10 <Pitch_by_Corel+0x474>
    1b03:	fc1e92        	l16ui	a9, a14, 0x1f8
    1b06:	ae0c           	movi.n	a14, 10
    1b08:	629e90        	saltu	a9, a14, a9
    1b0b:	938f90        	movnez	a8, a15, a9
    1b0e:	089d           	mov.n	a9, a8
    1b10:	998d           	ae_zext16	a8, a9
    1b12:	9038c0        	addx2	a3, a8, a12
    1b15:	fc1392        	l16ui	a9, a3, 0x1f8
    1b18:	06ed           	mov.n	a14, a6
    1b1a:	aca0f2        	movi	a15, 172
    1b1d:	7939d7        	bltu	a9, a13, 1b9a <Pitch_by_Corel+0x4fe>
    1b20:	a088c0        	addx4	a8, a8, a12
    1b23:	0438           	l32i.n	a3, a4, 0
    1b25:	2b28b2        	l32i	a11, a8, 172
    1b28:	02dd           	mov.n	a13, a2
    1b2a:	2168           	l32i.n	a6, a1, 8
    1b2c:	3023b7        	blt	a3, a11, 1b60 <Pitch_by_Corel+0x4c4>
    1b2f:	213530        	srai	a3, a3, 5
    1b32:	02dd           	mov.n	a13, a2
    1b34:	282367        	blt	a3, a6, 1b60 <Pitch_by_Corel+0x4c4>
    1b37:	132132        	l32i	a3, a1, 76
    1b3a:	600404        	ae_lq32f.i	aeq0, a4, 0
    1b3d:	540144        	ae_lp24x2.i	aep0, a1, 32
    1b40:	026326        	beqi	a3, 6, 1b46 <Pitch_by_Corel+0x4aa>
    1b43:	003086        	j	1c09 <Pitch_by_Corel+0x56d>
    1b46:	02a9f6        	bgeui	a9, 12, 1b4c <Pitch_by_Corel+0x4b0>
    1b49:	002f06        	j	1c09 <Pitch_by_Corel+0x56d>
    1b4c:	f8603bb8ff 	{ ae_lq32f.x	aeq1, a8, a15; ae_mulrfq32sp24s.h	aeq0, aeq0, aep0 }
    1b51:	030c           	movi.n	a3, 0
    1b53:	d6480001df 	{ movi	a13, 1; ae_ltq56s	b0, aeq0, aeq1 }
    1b58:	d33d00        	movt	a3, a13, b0
    1b5b:	02dd           	mov.n	a13, a2
    1b5d:	0b8316        	beqz	a3, 1c19 <Pitch_by_Corel+0x57d>
    1b60:	551b           	addi.n	a5, a5, 1
    1b62:	772b           	addi.n	a7, a7, 2
    1b64:	02b5e7        	bgeu	a5, a14, 1b6a <Pitch_by_Corel+0x4ce>
    1b67:	ffcc46        	j	1a9c <Pitch_by_Corel+0x400>
    1b6a:	479d           	ae_l16ui.n	a9, a7, 0
    1b6c:	1621b2        	l32i	a11, a1, 88
    1b6f:	f87c           	movi.n	a8, -1
    1b71:	892d           	ae_sext16	a2, a9
    1b73:	9022c0        	addx2	a2, a2, a12
    1b76:	fc1232        	l16ui	a3, a2, 0x1f8
    1b79:	f48080        	extui	a8, a8, 0, 16
    1b7c:	b1d9           	s32i.n	a13, a1, 44
    1b7e:	c1a9           	s32i.n	a10, a1, 48
    1b80:	2873f6        	bgeui	a3, 7, 1bac <Pitch_by_Corel+0x510>
    1b83:	0026c6        	j	1c22 <Pitch_by_Corel+0x586>

00001b86 <Pitch_by_Corel+0x4ea>:
    1b86:	091c22        	l16ui	a2, a12, 18
    1b89:	0a5256        	bnez	a2, 1c32 <Pitch_by_Corel+0x596>
    1b8c:	04dc22        	addmi	a2, a12, 0x400
    1b8f:	030c           	movi.n	a3, 0
    1b91:	7e5232        	s16i	a3, a2, 252
    1b94:	002686        	j	1c32 <Pitch_by_Corel+0x596>

00001b97 <Pitch_by_Corel+0x4fb>:
    1b97:	1121c2        	l32i	a12, a1, 68
    1b9a:	b129           	s32i.n	a2, a1, 44
    1b9c:	c1a9           	s32i.n	a10, a1, 48
    1b9e:	122192        	l32i	a9, a1, 72
    1ba1:	132132        	l32i	a3, a1, 76
    1ba4:	f87c           	movi.n	a8, -1
    1ba6:	f48080        	extui	a8, a8, 0, 16
    1ba9:	7573b6        	bltui	a3, 7, 1c22 <Pitch_by_Corel+0x586>
    1bac:	c03ba0        	sub	a3, a11, a10
    1baf:	540c           	movi.n	a4, 5
    1bb1:	091c22        	l16ui	a2, a12, 18
    1bb4:	114420        	slli	a4, a4, 14
    1bb7:	603130        	abs	a3, a3
    1bba:	025192        	s16i	a9, a1, 4
    1bbd:	042437        	blt	a4, a3, 1bc5 <Pitch_by_Corel+0x529>
    1bc0:	221b           	addi.n	a2, a2, 1
    1bc2:	000d46        	j	1bfb <Pitch_by_Corel+0x55f>

00001bc5 <Pitch_by_Corel+0x529>:
    1bc5:	2a32b6        	bltui	a2, 3, 1bf3 <Pitch_by_Corel+0x557>
    1bc8:	4131a0        	srli	a3, a10, 1
    1bcb:	c03b30        	sub	a3, a11, a3
    1bce:	603130        	abs	a3, a3
    1bd1:	1e2437        	blt	a4, a3, 1bf3 <Pitch_by_Corel+0x557>
    1bd4:	30c132        	addi	a3, a1, 48
    1bd7:	600304        	ae_lq32f.i	aeq0, a3, 0
    1bda:	350074        	ae_sraiq56	aeq0, aeq0, 1
    1bdd:	f8e3b141be 	{ l32i	a11, a1, 80; ae_roundsp16q48sym	aep0, aeq0 }
    1be2:	420124        	ae_sp16f.l.i	aep0, a1, 4
    1be5:	029132        	l16si	a3, a1, 4
    1be8:	221b           	addi.n	a2, a2, 1
    1bea:	095c22        	s16i	a2, a12, 18
    1bed:	f7c392        	addi	a9, a3, -9
    1bf0:	0010c6        	j	1c37 <Pitch_by_Corel+0x59b>

00001bf3 <Pitch_by_Corel+0x557>:
    1bf3:	152132        	l32i	a3, a1, 84
    1bf6:	020c           	movi.n	a2, 0
    1bf8:	7e5322        	s16i	a2, a3, 252
    1bfb:	095c22        	s16i	a2, a12, 18
    1bfe:	1421b2        	l32i	a11, a1, 80
    1c01:	000d46        	j	1c3a <Pitch_by_Corel+0x59e>

00001c04 <Pitch_by_Corel+0x568>:
    1c04:	0b7d           	mov.n	a7, a11
    1c06:	ff2486        	j	189c <Pitch_by_Corel+0x200>

00001c09 <Pitch_by_Corel+0x56d>:
    1c09:	1621b2        	l32i	a11, a1, 88
    1c0c:	122192        	l32i	a9, a1, 72
    1c0f:	f87c           	movi.n	a8, -1
    1c11:	f48080        	extui	a8, a8, 0, 16
    1c14:	b129           	s32i.n	a2, a1, 44
    1c16:	ffd906        	j	1b7e <Pitch_by_Corel+0x4e2>

00001c19 <Pitch_by_Corel+0x57d>:
    1c19:	f87c           	movi.n	a8, -1
    1c1b:	f48080        	extui	a8, a8, 0, 16
    1c1e:	b129           	s32i.n	a2, a1, 44
    1c20:	c1a9           	s32i.n	a10, a1, 48
    1c22:	091c22        	l16ui	a2, a12, 18
    1c25:	1421b2        	l32i	a11, a1, 80
    1c28:	152132        	l32i	a3, a1, 84
    1c2b:	32cc           	bnez.n	a2, 1c32 <Pitch_by_Corel+0x596>
    1c2d:	020c           	movi.n	a2, 0
    1c2f:	7e5322        	s16i	a2, a3, 252
    1c32:	090c           	movi.n	a9, 0
    1c34:	095c92        	s16i	a9, a12, 18
    1c37:	025192        	s16i	a9, a1, 4
    1c3a:	04dc42        	addmi	a4, a12, 0x400
    1c3d:	7e1432        	l16ui	a3, a4, 252
    1c40:	020c           	movi.n	a2, 0
    1c42:	0a0c           	movi.n	a10, 0
    1c44:	06c356        	bnez	a3, 1cb4 <Pitch_by_Corel+0x618>
    1c47:	060c           	movi.n	a6, 0
    1c49:	f8a132        	movi	a3, 0x1f8
    1c4c:	bf2c           	movi.n	a15, 43
    1c4e:	126192        	s32i	a9, a1, 72
    1c51:	070c           	movi.n	a7, 0
    1c53:	050c           	movi.n	a5, 0
    1c55:	8c3a           	add.n	a8, a12, a3
    1c57:	6c69           	s32i.n	a6, a12, 24
    1c59:	0e8f76        	loop	a15, 1c6b <Pitch_by_Corel+0x5cf>
    1c5c:	483d           	ae_l16ui.n	a3, a8, 0
    1c5e:	882b           	addi.n	a8, a8, 2
    1c60:	629730        	saltu	a9, a7, a3
    1c63:	935690        	movnez	a5, a6, a9
    1c66:	737730        	maxu	a7, a7, a3
    1c69:	661b           	addi.n	a6, a6, 1

00001c6b <Pitch_by_Corel+0x5cf>:
    1c6b:	122192        	l32i	a9, a1, 72
    1c6e:	f87c           	movi.n	a8, -1
    1c70:	0a0c           	movi.n	a10, 0
    1c72:	f48080        	extui	a8, a8, 0, 16
    1c75:	3b47b6        	bltui	a7, 4, 1cb4 <Pitch_by_Corel+0x618>
    1c78:	f94431        	l32r	a3, 188 (ccccd <_end+0xbba6d>)
    1c7b:	600b04        	ae_lq32f.i	aeq0, a11, 0
    1c7e:	85bd           	ae_sext16	a11, a5
    1c80:	398334        	ae_movpa24x2	aep0, a3, a3
    1c83:	d46080ac5f 	{ movi	a5, 172; ae_mularfq32sp24s.h	aeq0, aeq0, aep0 }
    1c88:	a06bc0        	addx4	a6, a11, a12
    1c8b:	fc00fbb65f 	{ ae_lq32f.x	aeq1, a6, a5; ae_satq48s	aeq0, aeq0 }
    1c90:	355134        	ae_sraiq56	aeq1, aeq1, 4
    1c93:	d6480000ff 	{ movi	a15, 0; ae_ltq56s	b0, aeq0, aeq1 }
    1c98:	170c           	movi.n	a7, 1
    1c9a:	f91d31        	l32r	a3, 110 (1590 <Xfrac_num_pd_td32>)
    1c9d:	d3f700        	movt	a15, a7, b0
    1ca0:	0f9c           	beqz.n	a15, 1cb4 <Pitch_by_Corel+0x618>
    1ca2:	a65a           	add.n	a10, a6, a5
    1ca4:	9c0c           	movi.n	a12, 9
    1ca6:	0003e0        	callx8	a3
    1ca9:	122192        	l32i	a9, a1, 72
    1cac:	1121c2        	l32i	a12, a1, 68
    1caf:	f87c           	movi.n	a8, -1
    1cb1:	f48080        	extui	a8, a8, 0, 16

00001cb4 <Pitch_by_Corel+0x618>:
    1cb4:	7ca9           	s32i.n	a10, a12, 28
    1cb6:	7e5492        	s16i	a9, a4, 252
    1cb9:	160897        	bnone	a8, a9, 1cd3 <Pitch_by_Corel+0x637>
    1cbc:	99bd           	ae_zext16	a11, a9
    1cbe:	a03bc0        	addx4	a3, a11, a12
    1cc1:	aca022        	movi	a2, 172
    1cc4:	a32a           	add.n	a10, a3, a2
    1cc6:	f91221        	l32r	a2, 110 (1590 <Xfrac_num_pd_td32>)
    1cc9:	9c0c           	movi.n	a12, 9
    1ccb:	0002e0        	callx8	a2
    1cce:	1121c2        	l32i	a12, a1, 68
    1cd1:	0a2d           	mov.n	a2, a10
    1cd3:	106c22        	s32i	a2, a12, 64
    1cd6:	f01d           	retw.n

00001cd8 <PD_TD_prcs>:
    1cd8:	004136        	entry	a1, 32
    1cdb:	f8f731        	l32r	a3, b8 (11254 <p_ecnr_mem>)
    1cde:	9ca042        	movi	a4, 156
    1ce1:	58d442        	addmi	a4, a4, 0x5800
    1ce4:	0328           	l32i.n	a2, a3, 0
    1ce6:	f8fa61        	l32r	a6, d0 (e550 <xt_memcpy>)
    1ce9:	2c3c           	movi.n	a12, 50
    1ceb:	1ad252        	addmi	a5, a2, 0x1a00
    1cee:	282552        	l32i	a5, a5, 160
    1cf1:	b24a           	add.n	a11, a2, a4
    1cf3:	9cc522        	addi	a2, a5, -100
    1cf6:	02ad           	mov.n	a10, a2
    1cf8:	0006e0        	callx8	a6
    1cfb:	0378           	l32i.n	a7, a3, 0
    1cfd:	865c           	movi.n	a6, 88
    1cff:	58d662        	addmi	a6, a6, 0x5800
    1d02:	b76a           	add.n	a11, a7, a6
    1d04:	f92271        	l32r	a7, 18c (169c <Pitch_by_Corel>)
    1d07:	02ad           	mov.n	a10, a2
    1d09:	0007e0        	callx8	a7
    1d0c:	0328           	l32i.n	a2, a3, 0
    1d0e:	d8c5a2        	addi	a10, a5, -40
    1d11:	b26a           	add.n	a11, a2, a6
    1d13:	0007e0        	callx8	a7
    1d16:	0328           	l32i.n	a2, a3, 0
    1d18:	14c5b2        	addi	a11, a5, 20
    1d1b:	2c3c           	movi.n	a12, 50
    1d1d:	a24a           	add.n	a10, a2, a4
    1d1f:	f8ec21        	l32r	a2, d0 (e550 <xt_memcpy>)
    1d22:	0002e0        	callx8	a2
    1d25:	f01d           	retw.n

00001d27 <PD_TD_prcs+0x4f>:
	...

00001d28 <pitch_by_harmonic>:
    1d28:	012136        	entry	a1, 144
    1d2b:	f8e3d1        	l32r	a13, b8 (11254 <p_ecnr_mem>)
    1d2e:	6149           	s32i.n	a4, a1, 24
    1d30:	b1a072        	movi	a7, 177
    1d33:	0d68           	l32i.n	a6, a13, 0
    1d35:	0e0c           	movi.n	a14, 0
    1d37:	136132        	s32i	a3, a1, 76
    1d3a:	58d6f2        	addmi	a15, a6, 0x5800
    1d3d:	1c2f42        	l32i	a4, a15, 112
    1d40:	117790        	slli	a7, a7, 7
    1d43:	1161f2        	s32i	a15, a1, 68
    1d46:	1452e2        	s16i	a14, a2, 40
    1d49:	079416        	beqz	a4, 1dc6 <pitch_by_harmonic+0x9e>
    1d4c:	fb7c           	movi.n	a11, -1
    1d4e:	186122        	s32i	a2, a1, 96
    1d51:	f90f21        	l32r	a2, 190 (e598 <__udivdi3>)
    1d54:	11c420        	slli	a12, a4, 14
    1d57:	d5d240        	extui	a13, a4, 18, 14
    1d5a:	01bb10        	slli	a11, a11, 31
    1d5d:	0a0c           	movi.n	a10, 0
    1d5f:	0002e0        	callx8	a2
    1d62:	58d622        	addmi	a2, a6, 0x5800
    1d65:	202222        	l32i	a2, a2, 128
    1d68:	58d632        	addmi	a3, a6, 0x5800
    1d6b:	540c           	movi.n	a4, 5
    1d6d:	425342        	s16i	a4, a3, 132
    1d70:	c1a9           	s32i.n	a10, a1, 48
    1d72:	0212e6        	bgei	a2, 1, 1d78 <pitch_by_harmonic+0x50>
    1d75:	004486        	j	1e8b <pitch_by_harmonic+0x163>
    1d78:	30c132        	addi	a3, a1, 48
    1d7b:	f90641        	l32r	a4, 194 (aaaab <_end+0x9984b>)
    1d7e:	602674        	ae_lq32f.x	aeq0, a6, a7
    1d81:	604304        	ae_lq32f.i	aeq1, a3, 0
    1d84:	f94aa2044f 	{ ae_movpa24x2	aep0, a4, a4; ae_subsq56s	aeq1, aeq1, aeq0 }
    1d89:	fd04c000ef 	{ movi	a14, 0; ae_satq48s	aeq1, aeq1 }
    1d8e:	f8000001ff 	{ movi	a15, 1; ae_mulfq32sp24s.h	aeq0, aeq0, aep0 }
    1d93:	fd0cb1117e 	{ l32i	a7, a1, 68; ae_abssq56s	aeq1, aeq1 }
    1d98:	d64800343f 	{ movi	a3, 52; ae_ltq56s	b0, aeq0, aeq1 }
    1d9d:	58d642        	addmi	a4, a6, 0x5800
    1da0:	82aa           	add.n	a8, a2, a10
    1da2:	d3ef00        	movt	a14, a15, b0
    1da5:	0fbe16        	beqz	a14, 1ea4 <pitch_by_harmonic+0x17c>
    1da8:	449442        	l16si	a4, a4, 136
    1dab:	435732        	s16i	a3, a7, 134
    1dae:	0334a6        	blti	a4, 3, 1db5 <pitch_by_harmonic+0x8d>
    1db1:	02ad           	mov.n	a10, a2
    1db3:	c129           	s32i.n	a2, a1, 48

00001db5 <pitch_by_harmonic+0x8d>:
    1db5:	112142        	l32i	a4, a1, 68
    1db8:	1e0c           	movi.n	a14, 1
    1dba:	58d6f2        	addmi	a15, a6, 0x5800
    1dbd:	212aa0        	srai	a2, a10, 10
    1dc0:	1f6f22        	s32i	a2, a15, 124
    1dc3:	0035c6        	j	1e9e <pitch_by_harmonic+0x176>

00001dc6 <pitch_by_harmonic+0x9e>:
    1dc6:	58d632        	addmi	a3, a6, 0x5800
    1dc9:	1d2332        	l32i	a3, a3, 116
    1dcc:	fb7c           	movi.n	a11, -1
    1dce:	01bb10        	slli	a11, a11, 31
    1dd1:	56b316        	beqz	a3, 2340 <pitch_by_harmonic+0x618>
    1dd4:	186122        	s32i	a2, a1, 96
    1dd7:	f8ee21        	l32r	a2, 190 (e598 <__udivdi3>)
    1dda:	11c320        	slli	a12, a3, 14
    1ddd:	d5d230        	extui	a13, a3, 18, 14
    1de0:	0a0c           	movi.n	a10, 0
    1de2:	0002e0        	callx8	a2
    1de5:	30c122        	addi	a2, a1, 48
    1de8:	c1a9           	s32i.n	a10, a1, 48
    1dea:	600204        	ae_lq32f.i	aeq0, a2, 0
    1ded:	606674        	ae_lq32f.x	aeq1, a6, a7
    1df0:	358074        	ae_sraiq56	aeq2, aeq0, 1
    1df3:	fb5680013f 	{ movi	a3, 1; ae_subsq56s	aeq3, aeq2, aeq1 }
    1df8:	ff84fa014f 	{ ae_sq56s.i	aeq0, a1, 32; ae_satq48s	aeq3, aeq3 }
    1dfd:	013370        	slli	a3, a3, 25
    1e00:	ff8cbec33f 	{ ae_cvtq48a32s	aeq0, a3; ae_abssq56s	aeq3, aeq3 }
    1e05:	d6c40000ff 	{ movi	a15, 0; ae_ltq56s	b0, aeq3, aeq0 }
    1e0a:	140c           	movi.n	a4, 1
    1e0c:	351074        	ae_sraiq56	aeq0, aeq1, 1
    1e0f:	d3f400        	movt	a15, a4, b0
    1e12:	0fec           	bnez.n	a15, 1e36 <pitch_by_harmonic+0x10e>
    1e14:	618144        	ae_lq56.i	aeq2, a1, 32
    1e17:	f85280013f 	{ movi	a3, 1; ae_subsq56s	aeq0, aeq2, aeq0 }
    1e1c:	fc00c000ff 	{ movi	a15, 0; ae_satq48s	aeq0, aeq0 }
    1e21:	013380        	slli	a3, a3, 24
    1e24:	fc08bec3ff 	{ ae_cvtq48a32s	aeq3, a3; ae_abssq56s	aeq0, aeq0 }
    1e29:	d65800014f 	{ movi	a4, 1; ae_ltq56s	b0, aeq0, aeq3 }
    1e2e:	d3f400        	movt	a15, a4, b0
    1e31:	4f8c           	beqz.n	a15, 1e39 <pitch_by_harmonic+0x111>
    1e33:	36a054        	ae_sllisq56s	aeq2, aeq2, 1
    1e36:	622204        	ae_sq32f.i	aeq2, a2, 0
    1e39:	00a7b2        	movi	a11, 0x700
    1e3c:	600204        	ae_lq32f.i	aeq0, a2, 0
    1e3f:	398bb4        	ae_movpa24x2	aep0, a11, a11
    1e42:	f80030c1ae 	{ l32i	a10, a1, 48; ae_mulfq32sp24s.h	aeq0, aeq0, aep0 }
    1e47:	14c1c2        	addi	a12, a1, 20
    1e4a:	360154        	ae_sllisq56s	aeq0, aeq0, 5
    1e4d:	fbe3c0094f 	{ movi	a4, 9; ae_roundsp16q48sym	aep7, aeq0 }
    1e52:	58d632        	addmi	a3, a6, 0x5800
    1e55:	427c04        	ae_sp16f.l.i	aep7, a12, 0
    1e58:	425342        	s16i	a4, a3, 132
    1e5b:	0a9132        	l16si	a3, a1, 20
    1e5e:	58d672        	addmi	a7, a6, 0x5800
    1e61:	219aa0        	srai	a9, a10, 10
    1e64:	1f6792        	s32i	a9, a7, 124
    1e67:	3e2c           	movi.n	a14, 35
    1e69:	112172        	l32i	a7, a1, 68
    1e6c:	df2c           	movi.n	a15, 45
    1e6e:	5323e0        	max	a2, a3, a14
    1e71:	4322f0        	min	a2, a2, a15
    1e74:	58d682        	addmi	a8, a6, 0x5800
    1e77:	1d0c           	movi.n	a13, 1
    1e79:	4757d2        	s16i	a13, a7, 142
    1e7c:	1e68a2        	s32i	a10, a8, 120
    1e7f:	0a5122        	s16i	a2, a1, 20
    1e82:	435722        	s16i	a2, a7, 134
    1e85:	3d1ae6        	bgei	a10, 1, 1ec6 <pitch_by_harmonic+0x19e>
    1e88:	012f06        	j	2348 <pitch_by_harmonic+0x620>

00001e8b <pitch_by_harmonic+0x163>:
    1e8b:	112142        	l32i	a4, a1, 68
    1e8e:	ed3c           	movi.n	a13, 62
    1e90:	1e0c           	movi.n	a14, 1
    1e92:	58d6f2        	addmi	a15, a6, 0x5800
    1e95:	212aa0        	srai	a2, a10, 10
    1e98:	1f6f22        	s32i	a2, a15, 124
    1e9b:	4354d2        	s16i	a13, a4, 134
    1e9e:	4754e2        	s16i	a14, a4, 142
    1ea1:	000606        	j	1ebd <pitch_by_harmonic+0x195>

00001ea4 <pitch_by_harmonic+0x17c>:
    1ea4:	112172        	l32i	a7, a1, 68
    1ea7:	212a80        	srai	a2, a8, 10
    1eaa:	e33c           	movi.n	a3, 62
    1eac:	240c           	movi.n	a4, 2
    1eae:	11a270        	slli	a10, a2, 9
    1eb1:	58d6f2        	addmi	a15, a6, 0x5800
    1eb4:	435732        	s16i	a3, a7, 134
    1eb7:	475742        	s16i	a4, a7, 142
    1eba:	1f6f22        	s32i	a2, a15, 124
    1ebd:	1e6fa2        	s32i	a10, a15, 120
    1ec0:	021ae6        	bgei	a10, 1, 1ec6 <pitch_by_harmonic+0x19e>
    1ec3:	012046        	j	2348 <pitch_by_harmonic+0x620>
    1ec6:	6198           	l32i.n	a9, a1, 24
    1ec8:	132142        	l32i	a4, a1, 76
    1ecb:	58d632        	addmi	a3, a6, 0x5800
    1ece:	126162        	s32i	a6, a1, 72
    1ed1:	a0a490        	addx4	a10, a4, a9
    1ed4:	04a122        	movi	a2, 0x104
    1ed7:	84a182        	movi	a8, 0x184
    1eda:	1164e0        	slli	a6, a4, 2
    1edd:	f8ae41        	l32r	a4, 198 (948 <Log2_norm>)
    1ee0:	2a2a           	add.n	a2, a10, a2
    1ee2:	fa8a           	add.n	a15, a10, a8
    1ee4:	156132        	s32i	a3, a1, 84
    1ee7:	174c           	movi.n	a7, 65
    1ee9:	093d           	mov.n	a3, a9
    1eeb:	1a6122        	s32i	a2, a1, 104
    1eee:	1461a2        	s32i	a10, a1, 80
    1ef1:	1661f2        	s32i	a15, a1, 88
    1ef4:	1388           	l32i.n	a8, a3, 4
    1ef6:	236a           	add.n	a2, a3, a6
    1ef8:	770b           	addi.n	a7, a7, -1
    1efa:	40e890        	nsa	a9, a8
    1efd:	401900        	ssl	a9
    1f00:	c0b590        	sub	a11, a5, a9
    1f03:	a1a800        	sll	a10, a8
    1f06:	0004e0        	callx8	a4
    1f09:	334b           	addi.n	a3, a3, 4
    1f0b:	02a9           	s32i.n	a10, a2, 0
    1f0d:	fe3756        	bnez	a7, 1ef4 <pitch_by_harmonic+0x1cc>
    1f10:	122142        	l32i	a4, a1, 72
    1f13:	112162        	l32i	a6, a1, 68
    1f16:	070c           	movi.n	a7, 0
    1f18:	58d432        	addmi	a3, a4, 0x5800
    1f1b:	439622        	l16si	a2, a6, 134
    1f1e:	429352        	l16si	a5, a3, 132
    1f21:	58d442        	addmi	a4, a4, 0x5800
    1f24:	495672        	s16i	a7, a6, 146
    1f27:	c02250        	sub	a2, a2, a5
    1f2a:	823d           	ae_sext16	a3, a2
    1f2c:	1b6142        	s32i	a4, a1, 108
    1f2f:	485472        	s16i	a7, a4, 144
    1f32:	0213e6        	bgei	a3, 1, 1f38 <pitch_by_harmonic+0x210>
    1f35:	00fd86        	j	232f <pitch_by_harmonic+0x607>
    1f38:	1321e2        	l32i	a14, a1, 76
    1f3b:	142122        	l32i	a2, a1, 80
    1f3e:	6148           	l32i.n	a4, a1, 24
    1f40:	937d           	ae_zext16	a7, a3
    1f42:	3e5a           	add.n	a3, a14, a5
    1f44:	a04340        	addx4	a4, a3, a4
    1f47:	a02520        	addx4	a2, a5, a2
    1f4a:	0f0c           	movi.n	a15, 0
    1f4c:	5c0c           	movi.n	a12, 5
    1f4e:	060c           	movi.n	a6, 0
    1f50:	1361f2        	s32i	a15, a1, 76
    1f53:	fcc232        	addi	a3, a2, -4
    1f56:	f4c442        	addi	a4, a4, -12
    1f59:	0012c6        	j	1fa8 <pitch_by_harmonic+0x280>

00001f5c <pitch_by_harmonic+0x234>:
    1f5c:	5328a0        	max	a2, a8, a10
    1f5f:	3a9927        	bne	a9, a2, 1f9d <pitch_by_harmonic+0x275>
    1f62:	112122        	l32i	a2, a1, 68
    1f65:	f0c3a2        	addi	a10, a3, -16
    1f68:	1c2222        	l32i	a2, a2, 112
    1f6b:	e2ac           	beqz.n	a2, 1f9d <pitch_by_harmonic+0x275>
    1f6d:	4388           	l32i.n	a8, a3, 16
    1f6f:	0a28           	l32i.n	a2, a10, 0
    1f71:	03ad           	mov.n	a10, a3
    1f73:	05bd           	mov.n	a11, a5
    1f75:	432280        	min	a2, a2, a8
    1f78:	21a297        	bge	a2, a9, 1f9d <pitch_by_harmonic+0x275>
    1f7b:	f86521        	l32r	a2, 110 (1590 <Xfrac_num_pd_td32>)
    1f7e:	1c0c           	movi.n	a12, 1
    1f80:	0002e0        	callx8	a2
    1f83:	132192        	l32i	a9, a1, 76
    1f86:	162182        	l32i	a8, a1, 88
    1f89:	1b21f2        	l32i	a15, a1, 108
    1f8c:	892d           	ae_sext16	a2, a9
    1f8e:	991b           	addi.n	a9, a9, 1
    1f90:	5c0c           	movi.n	a12, 5
    1f92:	a02280        	addx4	a2, a2, a8
    1f95:	136192        	s32i	a9, a1, 76
    1f98:	485f92        	s16i	a9, a15, 144
    1f9b:	02a9           	s32i.n	a10, a2, 0
    1f9d:	770b           	addi.n	a7, a7, -1
    1f9f:	334b           	addi.n	a3, a3, 4
    1fa1:	444b           	addi.n	a4, a4, 4
    1fa3:	551b           	addi.n	a5, a5, 1
    1fa5:	084716        	beqz	a7, 202d <pitch_by_harmonic+0x305>
    1fa8:	f4c322        	addi	a2, a3, -12
    1fab:	0288           	l32i.n	a8, a2, 0
    1fad:	944b           	addi.n	a9, a4, 4
    1faf:	04ad           	mov.n	a10, a4
    1fb1:	068c76        	loop	a12, 1fbb <pitch_by_harmonic+0x293>
    1fb4:	0a28           	l32i.n	a2, a10, 0
    1fb6:	aa4b           	addi.n	a10, a10, 4
    1fb8:	538820        	max	a8, a8, a2

00001fbb <pitch_by_harmonic+0x293>:
    1fbb:	f8c322        	addi	a2, a3, -8
    1fbe:	02b8           	l32i.n	a11, a2, 0
    1fc0:	0bad           	mov.n	a10, a11
    1fc2:	068c76        	loop	a12, 1fcc <pitch_by_harmonic+0x2a4>
    1fc5:	0928           	l32i.n	a2, a9, 0
    1fc7:	994b           	addi.n	a9, a9, 4
    1fc9:	53aa20        	max	a10, a10, a2
    1fcc:	0398           	l32i.n	a9, a3, 0
    1fce:	021987        	beq	a9, a8, 1fd4 <pitch_by_harmonic+0x2ac>
    1fd1:	8799a7        	bne	a9, a10, 1f5c <pitch_by_harmonic+0x234>

00001fd4 <pitch_by_harmonic+0x2ac>:
    1fd4:	520c           	movi.n	a2, 5
    1fd6:	012280        	slli	a2, a2, 24
    1fd9:	2b2a           	add.n	a2, a11, a2
    1fdb:	112297        	blt	a2, a9, 1ff0 <pitch_by_harmonic+0x2c8>
    1fde:	fcc322        	addi	a2, a3, -4
    1fe1:	0228           	l32i.n	a2, a2, 0
    1fe3:	3b0c           	movi.n	a11, 3
    1fe5:	01bb60        	slli	a11, a11, 26
    1fe8:	22ba           	add.n	a2, a2, a11
    1fea:	022297        	blt	a2, a9, 1ff0 <pitch_by_harmonic+0x2c8>
    1fed:	ffdac6        	j	1f5c <pitch_by_harmonic+0x234>
    1ff0:	2328           	l32i.n	a2, a3, 8
    1ff2:	5b0c           	movi.n	a11, 5
    1ff4:	01bb80        	slli	a11, a11, 24
    1ff7:	22ba           	add.n	a2, a2, a11
    1ff9:	0e2297        	blt	a2, a9, 200b <pitch_by_harmonic+0x2e3>
    1ffc:	1328           	l32i.n	a2, a3, 4
    1ffe:	3b0c           	movi.n	a11, 3
    2000:	01bb60        	slli	a11, a11, 26
    2003:	22ba           	add.n	a2, a2, a11
    2005:	022297        	blt	a2, a9, 200b <pitch_by_harmonic+0x2e3>
    2008:	ffd406        	j	1f5c <pitch_by_harmonic+0x234>
    200b:	f84121        	l32r	a2, 110 (1590 <Xfrac_num_pd_td32>)
    200e:	1c0c           	movi.n	a12, 1
    2010:	03ad           	mov.n	a10, a3
    2012:	05bd           	mov.n	a11, a5
    2014:	0002e0        	callx8	a2
    2017:	1a2182        	l32i	a8, a1, 104
    201a:	1121f2        	l32i	a15, a1, 68
    201d:	862d           	ae_sext16	a2, a6
    201f:	661b           	addi.n	a6, a6, 1
    2021:	5c0c           	movi.n	a12, 5
    2023:	a02280        	addx4	a2, a2, a8
    2026:	495f62        	s16i	a6, a15, 146
    2029:	ffdb86        	j	1f9b <pitch_by_harmonic+0x273>

0000202c <pitch_by_harmonic+0x304>:
	...

0000202d <pitch_by_harmonic+0x305>:
    202d:	862d           	ae_sext16	a2, a6
    202f:	070c           	movi.n	a7, 0
    2031:	0212e6        	bgei	a2, 1, 2037 <pitch_by_harmonic+0x30f>
    2034:	00bdc6        	j	232f <pitch_by_harmonic+0x607>
    2037:	122142        	l32i	a4, a1, 72
    203a:	f85ac1        	l32r	a12, 1a4 (435e51 <_end+0x424bf1>)
    203d:	120c           	movi.n	a2, 1
    203f:	58d452        	addmi	a5, a4, 0x5800
    2042:	030c           	movi.n	a3, 0
    2044:	398cc4        	ae_movpa24x2	aep0, a12, a12
    2047:	1121c2        	l32i	a12, a1, 68
    204a:	012280        	slli	a2, a2, 24
    204d:	f853b1        	l32r	a11, 19c (cccccd <_end+0xcbba6d>)
    2050:	f85471        	l32r	a7, 1a0 (99999a <_end+0x98873a>)
    2053:	146152        	s32i	a5, a1, 80
    2056:	4a5532        	s16i	a3, a5, 148
    2059:	1a2152        	l32i	a5, a1, 104
    205c:	368b34        	ae_cvtq48a32s	aeq2, a11
    205f:	180c           	movi.n	a8, 1
    2061:	58d442        	addmi	a4, a4, 0x5800
    2064:	360234        	ae_cvtq48a32s	aeq0, a2
    2067:	36c734        	ae_cvtq48a32s	aeq3, a7
    206a:	1d0c           	movi.n	a13, 1
    206c:	966d           	ae_zext16	a6, a6
    206e:	176142        	s32i	a4, a1, 92
    2071:	3cc192        	addi	a9, a1, 60
    2074:	630134        	ae_sq56s.i	aeq0, a1, 24
    2077:	10c1a2        	addi	a10, a1, 16
    207a:	632154        	ae_sq56s.i	aeq2, a1, 40
    207d:	40c1b2        	addi	a11, a1, 64
    2080:	633144        	ae_sq56s.i	aeq3, a1, 32
    2083:	1e0c           	movi.n	a14, 1
    2085:	0f0c           	movi.n	a15, 0
    2087:	1961d2        	s32i	a13, a1, 100
    208a:	4b5c82        	s16i	a8, a12, 150
    208d:	178676        	loop	a6, 20a8 <pitch_by_harmonic+0x380>
    2090:	030160        	rsr.lend	a6
    2093:	130060        	wsr.lbeg	a6
    2096:	f84861        	l32r	a6, 1b8 (2285 <pitch_by_harmonic+0x55d>)
    2099:	0020f0        	nop
    209c:	130160        	wsr.lend	a6
    209f:	002000        	isync
    20a2:	030260        	rsr.lcount	a6
    20a5:	01c662        	addi	a6, a6, 1
    20a8:	060c           	movi.n	a6, 0
    20aa:	058d           	mov.n	a8, a5
    20ac:	10af16        	beqz	a15, 21ba <pitch_by_harmonic+0x492>
    20af:	604504        	ae_lq32f.i	aeq1, a5, 0
    20b2:	6085f4        	ae_lq32f.i	aeq2, a5, -4
    20b5:	f9cab1515e 	{ l32i	a5, a1, 84; ae_subsq56s	aeq1, aeq1, aeq2 }
    20ba:	355064        	ae_srliq56	aeq1, aeq1, 1
    20bd:	34c142        	addi	a4, a1, 52
    20c0:	1e2522        	l32i	a2, a5, 120
    20c3:	621404        	ae_sq32f.i	aeq1, a4, 0
    20c6:	d168           	l32i.n	a6, a1, 52
    20c8:	21dc20        	srai	a13, a2, 12
    20cb:	38c172        	addi	a7, a1, 56
    20ce:	d226d0        	quos	a2, a6, a13
    20d1:	e129           	s32i.n	a2, a1, 56
    20d3:	122162        	l32i	a6, a1, 72
    20d6:	60c414        	ae_lq32f.i	aeq3, a4, 4
    20d9:	78a0c2        	movi	a12, 120
    20dc:	36b3d4        	ae_sllisq56s	aeq2, aeq3, 15
    20df:	58dc22        	addmi	a2, a12, 0x5800
    20e2:	f8f3fbf62f 	{ ae_lq32f.x	aeq3, a6, a2; ae_roundsp16q48sym	aep1, aeq2 }
    20e7:	fb253ad22f 	{ ae_sllisq56s	aeq0, aeq1, 10; ae_mulq32sp16s.h	aeq2, aeq3, aep1 }
    20ec:	020c           	movi.n	a2, 0
    20ee:	36a3d4        	ae_sllisq56s	aeq2, aeq2, 15
    20f1:	f852bdc13f 	{ ae_lq56.i	aeq2, a1, 24; ae_subsq56s	aeq0, aeq2, aeq0 }
    20f6:	fc00b2116f 	{ ae_sp16f.l.i	aep1, a1, 12; ae_absq56	aeq0, aeq0 }
    20fb:	d65000c1ce 	{ addi	a12, a1, 12; ae_ltq56s	b0, aeq0, aeq2 }
    2100:	d32e00        	movt	a2, a14, b0
    2103:	72bc           	beqz.n	a2, 213e <pitch_by_harmonic+0x416>
    2105:	7ca0c2        	movi	a12, 124
    2108:	112172        	l32i	a7, a1, 68
    210b:	58dcc2        	addmi	a12, a12, 0x5800
    210e:	6026c4        	ae_lq32f.x	aeq0, a6, a12
    2111:	365054        	ae_sllisq56s	aeq1, aeq1, 1
    2114:	f86664772e 	{ l16si	a2, a7, 142; ae_addsq56s	aeq0, aeq0, aeq1 }
    2119:	fc00e0614e 	{ l16si	a4, a1, 12; ae_satq48s	aeq0, aeq0 }
    211e:	1721d2        	l32i	a13, a1, 92
    2121:	6286c4        	ae_sq32f.x	aeq0, a6, a12
    2124:	242a           	add.n	a2, a4, a2
    2126:	1f2d42        	l32i	a4, a13, 124
    2129:	475722        	s16i	a2, a7, 142
    212c:	822d           	ae_sext16	a2, a2
    212e:	d22420        	quos	a2, a4, a2
    2131:	112260        	slli	a2, a2, 10
    2134:	1e6522        	s32i	a2, a5, 120
    2137:	160c           	movi.n	a6, 1
    2139:	085d           	mov.n	a5, a8
    213b:	001ec6        	j	21ba <pitch_by_harmonic+0x492>

0000213e <pitch_by_harmonic+0x416>:
    213e:	060c           	movi.n	a6, 0
    2140:	085d           	mov.n	a5, a8
    2142:	742fb6        	bltui	a15, 2, 21ba <pitch_by_harmonic+0x492>
    2145:	600504        	ae_lq32f.i	aeq0, a5, 0
    2148:	6045e4        	ae_lq32f.i	aeq1, a5, -8
    214b:	f84680006f 	{ movi	a6, 0; ae_subsq56s	aeq0, aeq0, aeq1 }
    2150:	354064        	ae_srliq56	aeq1, aeq0, 1
    2153:	621404        	ae_sq32f.i	aeq1, a4, 0
    2156:	d128           	l32i.n	a2, a1, 52
    2158:	d222d0        	quos	a2, a2, a13
    215b:	e129           	s32i.n	a2, a1, 56
    215d:	608704        	ae_lq32f.i	aeq2, a7, 0
    2160:	3623d4        	ae_sllisq56s	aeq0, aeq2, 15
    2163:	f8e3fad2af 	{ ae_sllisq56s	aeq2, aeq1, 10; ae_roundsp16q48sym	aep1, aeq0 }
    2168:	fa253de13f 	{ ae_lq56.i	aeq3, a1, 24; ae_mulq32sp16s.h	aeq0, aeq3, aep1 }
    216d:	0d0c           	movi.n	a13, 0
    216f:	3603d4        	ae_sllisq56s	aeq0, aeq0, 15
    2172:	f8c2b21c0f 	{ ae_sp16f.l.i	aep1, a12, 0; ae_subsq56s	aeq0, aeq0, aeq2 }
    2177:	fc00807ccf 	{ movi	a12, 124; ae_absq56	aeq0, aeq0 }
    217c:	d65831117e 	{ l32i	a7, a1, 68; ae_ltq56s	b0, aeq0, aeq3 }
    2181:	58dcc2        	addmi	a12, a12, 0x5800
    2184:	d3de00        	movt	a13, a14, b0
    2187:	fdac           	beqz.n	a13, 21ba <pitch_by_harmonic+0x492>
    2189:	122162        	l32i	a6, a1, 72
    218c:	365054        	ae_sllisq56s	aeq1, aeq1, 1
    218f:	479722        	l16si	a2, a7, 142
    2192:	6026c4        	ae_lq32f.x	aeq0, a6, a12
    2195:	f86660614e 	{ l16si	a4, a1, 12; ae_addsq56s	aeq0, aeq0, aeq1 }
    219a:	fc00f151de 	{ l32i	a13, a1, 84; ae_satq48s	aeq0, aeq0 }
    219f:	6286c4        	ae_sq32f.x	aeq0, a6, a12
    21a2:	1721c2        	l32i	a12, a1, 92
    21a5:	242a           	add.n	a2, a4, a2
    21a7:	475722        	s16i	a2, a7, 142
    21aa:	1f2c42        	l32i	a4, a12, 124
    21ad:	822d           	ae_sext16	a2, a2
    21af:	160c           	movi.n	a6, 1
    21b1:	d22420        	quos	a2, a4, a2
    21b4:	112260        	slli	a2, a2, 10
    21b7:	1e6d22        	s32i	a2, a13, 120
    21ba:	1521d2        	l32i	a13, a1, 84
    21bd:	0548           	l32i.n	a4, a5, 0
    21bf:	122172        	l32i	a7, a1, 72
    21c2:	1e2d22        	l32i	a2, a13, 120
    21c5:	78a0c2        	movi	a12, 120
    21c8:	58dcc2        	addmi	a12, a12, 0x5800
    21cb:	212b20        	srai	a2, a2, 11
    21ce:	d22420        	quos	a2, a4, a2
    21d1:	f129           	s32i.n	a2, a1, 60
    21d3:	604904        	ae_lq32f.i	aeq1, a9, 0
    21d6:	3653d4        	ae_sllisq56s	aeq1, aeq1, 15
    21d9:	f8ebfb97cf 	{ ae_lq32f.x	aeq0, a7, a12; ae_roundsp16q48sym	aep1, aeq1 }
    21de:	f824321a0f 	{ ae_sp16f.l.i	aep1, a10, 0; ae_mulq32sp16s.h	aeq0, aeq0, aep1 }
    21e3:	106142        	s32i	a4, a1, 64
    21e6:	081172        	l16ui	a7, a1, 16
    21e9:	60cb04        	ae_lq32f.i	aeq3, a11, 0
    21ec:	36b254        	ae_sllisq56s	aeq2, aeq3, 9
    21ef:	3603d4        	ae_sllisq56s	aeq0, aeq0, 15
    21f2:	fac2bda14f 	{ ae_lq56.i	aeq1, a1, 32; ae_subsq56s	aeq2, aeq0, aeq2 }
    21f7:	081726        	beqi	a7, 1, 2203 <pitch_by_harmonic+0x4db>
    21fa:	614154        	ae_lq56.i	aeq1, a1, 40
    21fd:	022726        	beqi	a7, 2, 2203 <pitch_by_harmonic+0x4db>
    2200:	614134        	ae_lq56.i	aeq1, a1, 24
    2203:	069a64        	ae_absq56	aeq2, aeq2
    2206:	168c           	beqz.n	a6, 220b <pitch_by_harmonic+0x4e3>
    2208:	088594        	ae_mulrfq32sp24s.l	aeq2, aeq2, aep0
    220b:	d6c800002f 	{ movi	a2, 0; ae_ltq56s	b0, aeq2, aeq1 }
    2210:	122162        	l32i	a6, a1, 72
    2213:	7ca052        	movi	a5, 124
    2216:	d32e00        	movt	a2, a14, b0
    2219:	04a216        	beqz	a2, 2267 <pitch_by_harmonic+0x53f>
    221c:	874d           	ae_sext16	a4, a7
    221e:	2824a6        	blti	a4, 2, 224a <pitch_by_harmonic+0x522>
    2221:	58d552        	addmi	a5, a5, 0x5800
    2224:	112172        	l32i	a7, a1, 68
    2227:	602654        	ae_lq32f.x	aeq0, a6, a5
    222a:	f8e67171ce 	{ l32i	a12, a1, 92; ae_addsq56s	aeq0, aeq0, aeq3 }
    222f:	fc00e4772e 	{ l16si	a2, a7, 142; ae_satq48s	aeq0, aeq0 }
    2234:	628654        	ae_sq32f.x	aeq0, a6, a5
    2237:	1f2c62        	l32i	a6, a12, 124
    223a:	224a           	add.n	a2, a2, a4
    223c:	475722        	s16i	a2, a7, 142
    223f:	822d           	ae_sext16	a2, a2
    2241:	d22620        	quos	a2, a6, a2
    2244:	112260        	slli	a2, a2, 10
    2247:	1e6d22        	s32i	a2, a13, 120
    224a:	142122        	l32i	a2, a1, 80
    224d:	331b           	addi.n	a3, a3, 1
    224f:	085d           	mov.n	a5, a8
    2251:	4a5232        	s16i	a3, a2, 148
    2254:	296407        	bbci	a4, 0, 2281 <pitch_by_harmonic+0x559>
    2257:	112122        	l32i	a2, a1, 68
    225a:	060c           	movi.n	a6, 0
    225c:	040c           	movi.n	a4, 0
    225e:	196142        	s32i	a4, a1, 100
    2261:	4b5262        	s16i	a6, a2, 150
    2264:	000646        	j	2281 <pitch_by_harmonic+0x559>

00002267 <pitch_by_harmonic+0x53f>:
    2267:	132162        	l32i	a6, a1, 76
    226a:	162152        	l32i	a5, a1, 88
    226d:	1b21d2        	l32i	a13, a1, 108
    2270:	862d           	ae_sext16	a2, a6
    2272:	661b           	addi.n	a6, a6, 1
    2274:	a02250        	addx4	a2, a2, a5
    2277:	085d           	mov.n	a5, a8
    2279:	136162        	s32i	a6, a1, 76
    227c:	485d62        	s16i	a6, a13, 144
    227f:	0249           	s32i.n	a4, a2, 0
    2281:	554b           	addi.n	a5, a5, 4
    2283:	ff1b           	addi.n	a15, a15, 1

00002285 <pitch_by_harmonic+0x55d>:
    2285:	132162        	l32i	a6, a1, 76
    2288:	182142        	l32i	a4, a1, 96
    228b:	1521c2        	l32i	a12, a1, 84
    228e:	162152        	l32i	a5, a1, 88
    2291:	1921d2        	l32i	a13, a1, 100
    2294:	b1a072        	movi	a7, 177
    2297:	862d           	ae_sext16	a2, a6
    2299:	117790        	slli	a7, a7, 7
    229c:	145432        	s16i	a3, a4, 40
    229f:	6612a6        	blti	a2, 1, 2309 <pitch_by_harmonic+0x5e1>
    22a2:	1e2c42        	l32i	a4, a12, 120
    22a5:	122122        	l32i	a2, a1, 72
    22a8:	068d           	mov.n	a8, a6
    22aa:	78a0f2        	movi	a15, 120
    22ad:	58df62        	addmi	a6, a15, 0x5800
    22b0:	98fd           	ae_zext16	a15, a8
    22b2:	142182        	l32i	a8, a1, 80
    22b5:	f7bce1        	l32r	a14, 1a8 (159999a <_end+0x158873a>)
    22b8:	602264        	ae_lq32f.x	aeq0, a2, a6
    22bb:	364e34        	ae_cvtq48a32s	aeq1, a14
    22be:	120c           	movi.n	a2, 1
    22c0:	214b40        	srai	a4, a4, 11
    22c3:	428f76        	loop	a15, 2309 <pitch_by_harmonic+0x5e1>
    22c6:	0568           	l32i.n	a6, a5, 0
    22c8:	106162        	s32i	a6, a1, 64
    22cb:	0f0c           	movi.n	a15, 0
    22cd:	d26640        	quos	a6, a6, a4
    22d0:	f169           	s32i.n	a6, a1, 60
    22d2:	608904        	ae_lq32f.i	aeq2, a9, 0
    22d5:	36a3d4        	ae_sllisq56s	aeq2, aeq2, 15
    22d8:	f8f3bd4b0f 	{ ae_lq32f.i	aeq2, a11, 0; ae_roundsp16q48sym	aep0, aeq2 }
    22dd:	f9207ae29f 	{ ae_sllisq56s	aeq2, aeq2, 9; ae_mulq32sp16s.h	aeq3, aeq0, aep0 }
    22e2:	36f3d4        	ae_sllisq56s	aeq3, aeq3, 15
    22e5:	fadab20a0f 	{ ae_sp16f.l.i	aep0, a10, 0; ae_subsq56s	aeq2, aeq3, aeq2 }
    22ea:	fe80b111ee 	{ l32i	a14, a1, 68; ae_absq56	aeq2, aeq2 }
    22ef:	099204        	ae_ltq56s	b0, aeq2, aeq1
    22f2:	100162        	l8ui	a6, a1, 16
    22f5:	d3f200        	movt	a15, a2, b0
    22f8:	bf8c           	beqz.n	a15, 2307 <pitch_by_harmonic+0x5df>
    22fa:	331b           	addi.n	a3, a3, 1
    22fc:	4a5832        	s16i	a3, a8, 148
    22ff:	046607        	bbci	a6, 0, 2307 <pitch_by_harmonic+0x5df>
    2302:	0d0c           	movi.n	a13, 0
    2304:	4b5ed2        	s16i	a13, a14, 150

00002307 <pitch_by_harmonic+0x5df>:
    2307:	554b           	addi.n	a5, a5, 4

00002309 <pitch_by_harmonic+0x5e1>:
    2309:	f27c           	movi.n	a2, -1
    230b:	122152        	l32i	a5, a1, 72
    230e:	f42020        	extui	a2, a2, 0, 16
    2311:	4d02d7        	bnone	a2, a13, 2362 <pitch_by_harmonic+0x63a>
    2314:	58d522        	addmi	a2, a5, 0x5800
    2317:	1d2222        	l32i	a2, a2, 116
    231a:	834d           	ae_sext16	a4, a3
    231c:	112162        	l32i	a6, a1, 68
    231f:	22bc           	beqz.n	a2, 2355 <pitch_by_harmonic+0x62d>
    2321:	0234a6        	blti	a4, 3, 2327 <pitch_by_harmonic+0x5ff>
    2324:	0023c6        	j	23b7 <pitch_by_harmonic+0x68f>
    2327:	020c           	movi.n	a2, 0
    2329:	4b5622        	s16i	a2, a6, 150
    232c:	000e86        	j	236a <pitch_by_harmonic+0x642>

0000232f <pitch_by_harmonic+0x607>:
    232f:	122132        	l32i	a3, a1, 72
    2332:	58d322        	addmi	a2, a3, 0x5800
    2335:	58d332        	addmi	a3, a3, 0x5800
    2338:	206272        	s32i	a7, a2, 128
    233b:	445372        	s16i	a7, a3, 136
    233e:	f01d           	retw.n

00002340 <pitch_by_harmonic+0x618>:
    2340:	58d622        	addmi	a2, a6, 0x5800
    2343:	030c           	movi.n	a3, 0
    2345:	1e6232        	s32i	a3, a2, 120
    2348:	030c           	movi.n	a3, 0
    234a:	58d642        	addmi	a4, a6, 0x5800
    234d:	206432        	s32i	a3, a4, 128
    2350:	445432        	s16i	a3, a4, 136
    2353:	f01d           	retw.n

00002355 <pitch_by_harmonic+0x62d>:
    2355:	832d           	ae_sext16	a2, a3
    2357:	5c52e6        	bgei	a2, 5, 23b7 <pitch_by_harmonic+0x68f>
    235a:	112142        	l32i	a4, a1, 68
    235d:	020c           	movi.n	a2, 0
    235f:	4b5422        	s16i	a2, a4, 150
    2362:	832d           	ae_sext16	a2, a3
    2364:	0232a6        	blti	a2, 3, 236a <pitch_by_harmonic+0x642>
    2367:	002306        	j	23f7 <pitch_by_harmonic+0x6cf>
    236a:	932d           	ae_zext16	a2, a3
    236c:	022226        	beqi	a2, 2, 2372 <pitch_by_harmonic+0x64a>
    236f:	002486        	j	2405 <pitch_by_harmonic+0x6dd>
    2372:	58d522        	addmi	a2, a5, 0x5800
    2375:	441222        	l16ui	a2, a2, 136
    2378:	d37c           	movi.n	a3, -3
    237a:	013360        	slli	a3, a3, 26
    237d:	084216        	beqz	a2, 2405 <pitch_by_harmonic+0x6dd>
    2380:	1e2c22        	l32i	a2, a12, 120
    2383:	341c           	movi.n	a4, 19
    2385:	014480        	slli	a4, a4, 24
    2388:	323a           	add.n	a3, a2, a3
    238a:	773437        	bltu	a4, a3, 2405 <pitch_by_harmonic+0x6dd>
    238d:	78a032        	movi	a3, 120
    2390:	58d332        	addmi	a3, a3, 0x5800
    2393:	f780e1        	l32r	a14, 194 (aaaab <_end+0x9984b>)
    2396:	602534        	ae_lq32f.x	aeq0, a5, a3
    2399:	606574        	ae_lq32f.x	aeq1, a5, a7
    239c:	f846a20eef 	{ ae_movpa24x2	aep0, a14, a14; ae_subsq56s	aeq0, aeq0, aeq1 }
    23a1:	f8e14000ff 	{ movi	a15, 0; ae_mulrfq32sp24s.l	aeq1, aeq1, aep0 }
    23a6:	fc0080014f 	{ movi	a4, 1; ae_absq56	aeq0, aeq0 }
    23ab:	098104        	ae_ltq56s	b0, aeq1, aeq0
    23ae:	d3f400        	movt	a15, a4, b0
    23b1:	050f56        	bnez	a15, 2405 <pitch_by_harmonic+0x6dd>
    23b4:	0018c6        	j	241b <pitch_by_harmonic+0x6f3>

000023b7 <pitch_by_harmonic+0x68f>:
    23b7:	1e2c22        	l32i	a2, a12, 120
    23ba:	f77c31        	l32r	a3, 1ac (13ffffff <_end+0x13feed9f>)
    23bd:	58d542        	addmi	a4, a5, 0x5800
    23c0:	78a062        	movi	a6, 120
    23c3:	282327        	blt	a3, a2, 23ef <pitch_by_harmonic+0x6c7>
    23c6:	449432        	l16si	a3, a4, 136
    23c9:	58d682        	addmi	a8, a6, 0x5800
    23cc:	f772e1        	l32r	a14, 194 (aaaab <_end+0x9984b>)
    23cf:	3f33a6        	blti	a3, 3, 2412 <pitch_by_harmonic+0x6ea>
    23d2:	602584        	ae_lq32f.x	aeq0, a5, a8
    23d5:	606574        	ae_lq32f.x	aeq1, a5, a7
    23d8:	f846a20eef 	{ ae_movpa24x2	aep0, a14, a14; ae_subsq56s	aeq0, aeq0, aeq1 }
    23dd:	f8014000ff 	{ movi	a15, 0; ae_mulfq32sp24s.h	aeq1, aeq1, aep0 }
    23e2:	fc0080014f 	{ movi	a4, 1; ae_absq56	aeq0, aeq0 }
    23e7:	099404        	ae_leq56s	b0, aeq0, aeq1
    23ea:	d3f400        	movt	a15, a4, b0
    23ed:	1fac           	beqz.n	a15, 2412 <pitch_by_harmonic+0x6ea>
    23ef:	112132        	l32i	a3, a1, 68
    23f2:	020c           	movi.n	a2, 0
    23f4:	4b5322        	s16i	a2, a3, 150
    23f7:	1e2c22        	l32i	a2, a12, 120
    23fa:	f76d31        	l32r	a3, 1b0 (f570a3d7 <_end+0xf56f9177>)
    23fd:	f76d41        	l32r	a4, 1b4 (2428f5c4 <_end+0x2427e364>)
    2400:	323a           	add.n	a3, a2, a3
    2402:	153347        	bltu	a3, a4, 241b <pitch_by_harmonic+0x6f3>
    2405:	020c           	movi.n	a2, 0
    2407:	1e6c22        	s32i	a2, a12, 120
    240a:	58d532        	addmi	a3, a5, 0x5800
    240d:	040c           	movi.n	a4, 0
    240f:	000dc6        	j	244a <pitch_by_harmonic+0x722>

00002412 <pitch_by_harmonic+0x6ea>:
    2412:	1122f0        	slli	a2, a2, 1
    2415:	1e6c22        	s32i	a2, a12, 120
    2418:	ee12a6        	blti	a2, 1, 240a <pitch_by_harmonic+0x6e2>
    241b:	78a032        	movi	a3, 120
    241e:	58d332        	addmi	a3, a3, 0x5800
    2421:	f75ce1        	l32r	a14, 194 (aaaab <_end+0x9984b>)
    2424:	602534        	ae_lq32f.x	aeq0, a5, a3
    2427:	606574        	ae_lq32f.x	aeq1, a5, a7
    242a:	f846a20eef 	{ ae_movpa24x2	aep0, a14, a14; ae_subsq56s	aeq0, aeq0, aeq1 }
    242f:	f8e14000ff 	{ movi	a15, 0; ae_mulrfq32sp24s.l	aeq1, aeq1, aep0 }
    2434:	fc0080014f 	{ movi	a4, 1; ae_absq56	aeq0, aeq0 }
    2439:	099004        	ae_ltq56s	b0, aeq0, aeq1
    243c:	58d532        	addmi	a3, a5, 0x5800
    243f:	d3f400        	movt	a15, a4, b0
    2442:	fc4f16        	beqz	a15, 240a <pitch_by_harmonic+0x6e2>
    2445:	449342        	l16si	a4, a3, 136
    2448:	441b           	addi.n	a4, a4, 1
    244a:	58d5f2        	addmi	a15, a5, 0x5800
    244d:	445342        	s16i	a4, a3, 136
    2450:	206f22        	s32i	a2, a15, 128
    2453:	f01d           	retw.n

00002455 <pitch_by_harmonic+0x72d>:
    2455:	000000                                        ...

00002458 <XMAX6>:
    2458:	004136        	entry	a1, 32
    245b:	023d           	mov.n	a3, a2
    245d:	0228           	l32i.n	a2, a2, 0
    245f:	540c           	movi.n	a4, 5
    2461:	334b           	addi.n	a3, a3, 4
    2463:	068476        	loop	a4, 246d <XMAX6+0x15>
    2466:	0348           	l32i.n	a4, a3, 0
    2468:	334b           	addi.n	a3, a3, 4
    246a:	532240        	max	a2, a2, a4

0000246d <XMAX6+0x15>:
    246d:	f01d           	retw.n

0000246f <XMAX6+0x17>:
	...

00002470 <Xfrac_num_pd_td16>:
    2470:	008136        	entry	a1, 64
    2473:	400204        	ae_lp16f.i	aep0, a2, 0
    2476:	fc042c121f 	{ ae_lp16f.i	aep1, a2, 2; ae_cvtq48p24s.h	aeq0, aep0 }
    247b:	fd242c72ff 	{ ae_lp16f.i	aep7, a2, -2; ae_cvtq48p24s.h	aeq1, aep1 }
    2480:	f72d61        	l32r	a6, 134 (5a8200 <_end+0x596fa0>)
    2483:	f946a2066f 	{ ae_movpa24x2	aep0, a6, a6; ae_subsq56s	aeq1, aeq0, aeq1 }
    2488:	fee40000ff 	{ movi	a15, 0; ae_cvtq48p24s.h	aeq2, aep7 }
    248d:	f90140017f 	{ movi	a7, 1; ae_mulfq32sp24s.h	aeq3, aeq1, aep0 }
    2492:	f8c294513f 	{ s32i.n	a3, a1, 20; ae_subsq56s	aeq0, aeq0, aeq2 }
    2497:	d65839916f 	{ ae_sq32f.i	aeq1, a1, 24; ae_ltq56s	b0, aeq0, aeq3 }
    249c:	f98001815e 	{ addi	a5, a1, 24; ae_mulfq32sp24s.l	aeq2, aeq0, aep0 }
    24a1:	620174        	ae_sq32f.i	aeq0, a1, 28
    24a4:	d3f700        	movt	a15, a7, b0
    24a7:	2fac           	beqz.n	a15, 24cd <Xfrac_num_pd_td16+0x5d>
    24a9:	120c           	movi.n	a2, 1
    24ab:	0122c0        	slli	a2, a2, 20
    24ae:	604504        	ae_lq32f.i	aeq1, a5, 0
    24b1:	398224        	ae_movpa24x2	aep0, a2, a2
    24b4:	f8814000ef 	{ movi	a14, 0; ae_mulfq32sp24s.l	aeq1, aeq1, aep0 }
    24b9:	1f0c           	movi.n	a15, 1
    24bb:	d64800006f 	{ movi	a6, 0; ae_ltq56s	b0, aeq0, aeq1 }
    24c0:	f71e21        	l32r	a2, 138 (c28f0000 <_end+0xc28deda0>)
    24c3:	150c           	movi.n	a5, 1
    24c5:	d3ef00        	movt	a14, a15, b0
    24c8:	7e9c           	beqz.n	a14, 24e3 <Xfrac_num_pd_td16+0x73>
    24ca:	002446        	j	255f <Xfrac_num_pd_td16+0xef>

000024cd <Xfrac_num_pd_td16+0x5d>:
    24cd:	604504        	ae_lq32f.i	aeq1, a5, 0
    24d0:	d6c800002f 	{ movi	a2, 0; ae_ltq56s	b0, aeq2, aeq1 }
    24d5:	1f0c           	movi.n	a15, 1
    24d7:	160c           	movi.n	a6, 1
    24d9:	d32f00        	movt	a2, a15, b0
    24dc:	b29c           	beqz.n	a2, 24fb <Xfrac_num_pd_td16+0x8b>
    24de:	020c           	movi.n	a2, 0
    24e0:	001ec6        	j	255f <Xfrac_num_pd_td16+0xef>

000024e3 <Xfrac_num_pd_td16+0x73>:
    24e3:	369054        	ae_sllisq56s	aeq2, aeq1, 1
    24e6:	fe80c0007f 	{ movi	a7, 0; ae_satq48s	aeq2, aeq2 }
    24eb:	d65000018f 	{ movi	a8, 1; ae_ltq56s	b0, aeq0, aeq2 }
    24f0:	f71321        	l32r	a2, 13c (cccd0000 <_end+0xcccbeda0>)
    24f3:	d36500        	movt	a6, a5, b0
    24f6:	26ac           	beqz.n	a6, 251c <Xfrac_num_pd_td16+0xac>
    24f8:	0018c6        	j	255f <Xfrac_num_pd_td16+0xef>

000024fb <Xfrac_num_pd_td16+0x8b>:
    24fb:	0126a0        	slli	a2, a6, 22
    24fe:	398224        	ae_movpa24x2	aep0, a2, a2
    2501:	f8800000ff 	{ movi	a15, 0; ae_mulfq32sp24s.l	aeq0, aeq0, aep0 }
    2506:	150c           	movi.n	a5, 1
    2508:	d6483b009f 	{ ae_sraiq56	aeq2, aeq0, 1; ae_ltq56s	b0, aeq0, aeq1 }
    250d:	f70e21        	l32r	a2, 148 (ccd0000 <_end+0xccbeda0>)
    2510:	070c           	movi.n	a7, 0
    2512:	d6c856f50f 	{ movt	a15, a5, b0; ae_ltq56s	b1, aeq2, aeq1 }
    2517:	8f9c           	beqz.n	a15, 2533 <Xfrac_num_pd_td16+0xc3>
    2519:	001086        	j	255f <Xfrac_num_pd_td16+0xef>

0000251c <Xfrac_num_pd_td16+0xac>:
    251c:	365094        	ae_sllisq56s	aeq1, aeq1, 2
    251f:	064944        	ae_satq48s	aeq1, aeq1
    2522:	099004        	ae_ltq56s	b0, aeq0, aeq1
    2525:	f70621        	l32r	a2, 140 (e6660000 <_end+0xe664eda0>)
    2528:	f70751        	l32r	a5, 144 (f3330000 <_end+0xf331eda0>)
    252b:	d37800        	movt	a7, a8, b0
    252e:	e78c           	beqz.n	a7, 2540 <Xfrac_num_pd_td16+0xd0>
    2530:	000ac6        	j	255f <Xfrac_num_pd_td16+0xef>

00002533 <Xfrac_num_pd_td16+0xc3>:
    2533:	150c           	movi.n	a5, 1
    2535:	d37510        	movt	a7, a5, b1
    2538:	978c           	beqz.n	a7, 2545 <Xfrac_num_pd_td16+0xd5>
    253a:	f70421        	l32r	a2, 14c (199a0000 <_end+0x1998eda0>)
    253d:	000786        	j	255f <Xfrac_num_pd_td16+0xef>

00002540 <Xfrac_num_pd_td16+0xd0>:
    2540:	052d           	mov.n	a2, a5
    2542:	000646        	j	255f <Xfrac_num_pd_td16+0xef>

00002545 <Xfrac_num_pd_td16+0xd5>:
    2545:	3500b4        	ae_sraiq56	aeq0, aeq0, 2
    2548:	d64800002f 	{ movi	a2, 0; ae_ltq56s	b0, aeq0, aeq1 }
    254d:	150c           	movi.n	a5, 1
    254f:	f70061        	l32r	a6, 150 (33330000 <_end+0x3331eda0>)
    2552:	d32500        	movt	a2, a5, b0
    2555:	328c           	beqz.n	a2, 255c <Xfrac_num_pd_td16+0xec>
    2557:	062d           	mov.n	a2, a6
    2559:	000086        	j	255f <Xfrac_num_pd_td16+0xef>

0000255c <Xfrac_num_pd_td16+0xec>:
    255c:	f6fe21        	l32r	a2, 154 (3d710000 <_end+0x3d6feda0>)
    255f:	d43a           	add.n	a13, a4, a3
    2561:	4129           	s32i.n	a2, a1, 16
    2563:	112d00        	slli	a2, a13, 16
    2566:	600144        	ae_lq32f.i	aeq0, a1, 16
    2569:	5129           	s32i.n	a2, a1, 20
    256b:	604154        	ae_lq32f.i	aeq1, a1, 20
    256e:	3503f4        	ae_sraiq56	aeq0, aeq0, 15
    2571:	0118c4        	ae_addq56	aeq0, aeq1, aeq0
    2574:	060834        	ae_roundsq32sym	aeq0, aeq0
    2577:	620144        	ae_sq32f.i	aeq0, a1, 16
    257a:	4128           	l32i.n	a2, a1, 16
    257c:	f01d           	retw.n

0000257e <Xfrac_num_pd_td16+0x10e>:
	...

00002580 <SBAEC_INIT>:
    2580:	008136        	entry	a1, 64
    2583:	f6cd51        	l32r	a5, b8 (11254 <p_ecnr_mem>)
    2586:	b7a722        	movi	a2, 0x7b7
    2589:	1122d0        	slli	a2, a2, 3
    258c:	0578           	l32i.n	a7, a5, 0
    258e:	c1a732        	movi	a3, 0x7c1
    2591:	cba742        	movi	a4, 0x7cb
    2594:	672a           	add.n	a6, a7, a2
    2596:	f6cc21        	l32r	a2, c8 (e53c <xt_memset>)
    2599:	0b0c           	movi.n	a11, 0
    259b:	88a1c2        	movi	a12, 0x188
    259e:	06ad           	mov.n	a10, a6
    25a0:	1133d0        	slli	a3, a3, 3
    25a3:	1144d0        	slli	a4, a4, 3
    25a6:	0002e0        	callx8	a2
    25a9:	0558           	l32i.n	a5, a5, 0
    25ab:	57a382        	movi	a8, 0x357
    25ae:	1188d0        	slli	a8, a8, 3
    25b1:	a58a           	add.n	a10, a5, a8
    25b3:	0b0c           	movi.n	a11, 0
    25b5:	c0a4c2        	movi	a12, 0x4c0
    25b8:	0002e0        	callx8	a2
    25bb:	f6c421        	l32r	a2, cc (1125c <aec_nr_para>)
    25be:	c50c           	movi.n	a5, 12
    25c0:	0a1c           	movi.n	a10, 16
    25c2:	0288           	l32i.n	a8, a2, 0
    25c4:	041892        	l16ui	a9, a8, 8
    25c7:	105950        	and	a5, a9, a5
    25ca:	04a526        	beqi	a5, 12, 25d2 <SBAEC_INIT+0x52>
    25cd:	1059a0        	and	a5, a9, a10
    25d0:	459c           	beqz.n	a5, 25e8 <SBAEC_INIT+0x68>

000025d2 <SBAEC_INIT+0x52>:
    25d2:	757c           	movi.n	a5, -9
    25d4:	1318a2        	l16ui	a10, a8, 38
    25d7:	f45050        	extui	a5, a5, 0, 16
    25da:	109950        	and	a9, a9, a5
    25dd:	851c           	movi.n	a5, 24
    25df:	045892        	s16i	a9, a8, 8
    25e2:	023a57        	bltu	a10, a5, 25e8 <SBAEC_INIT+0x68>
    25e5:	135852        	s16i	a5, a8, 38
    25e8:	3dd722        	addmi	a2, a7, 0x3d00
    25eb:	d5a7d2        	movi	a13, 0x7d5
    25ee:	7129           	s32i.n	a2, a1, 28
    25f0:	112dd0        	slli	a2, a13, 3
    25f3:	272a           	add.n	a2, a7, a2
    25f5:	dfa7e2        	movi	a14, 0x7df
    25f8:	5129           	s32i.n	a2, a1, 20
    25fa:	112ed0        	slli	a2, a14, 3
    25fd:	f72a           	add.n	a15, a7, a2
    25ff:	573a           	add.n	a5, a7, a3
    2601:	474a           	add.n	a4, a7, a4
    2603:	41f9           	s32i.n	a15, a1, 16
    2605:	52e937        	bbsi	a9, 3, 265b <SBAEC_INIT+0xdb>
    2608:	e31832        	l16ui	a3, a8, 0x1c6
    260b:	4d0c           	movi.n	a13, 4
    260d:	131892        	l16ui	a9, a8, 38
    2610:	056316        	beqz	a3, 266a <SBAEC_INIT+0xea>
    2613:	41cc30        	srli	a12, a3, 12
    2616:	34a030        	extui	a10, a3, 0, 4
    2619:	a0ccd0        	addx4	a12, a12, a13
    261c:	40d722        	addmi	a2, a7, 0x4000
    261f:	34e430        	extui	a14, a3, 4, 4
    2622:	11ded0        	slli	a13, a14, 3
    2625:	11aae0        	slli	a10, a10, 2
    2628:	5552c2        	s16i	a12, a2, 170
    262b:	342830        	extui	a2, a3, 8, 4
    262e:	1132e0        	slli	a3, a2, 2
    2631:	aa4b           	addi.n	a10, a10, 4
    2633:	40d7f2        	addmi	a15, a7, 0x4000
    2636:	dd8b           	addi.n	a13, a13, 8
    2638:	535fd2        	s16i	a13, a15, 166
    263b:	40d7e2        	addmi	a14, a7, 0x4000
    263e:	334b           	addi.n	a3, a3, 4
    2640:	4399a0        	min	a9, a9, a10
    2643:	41f1d0        	srli	a15, a13, 1
    2646:	545e32        	s16i	a3, a14, 168
    2649:	4333c0        	min	a3, a3, a12
    264c:	4399f0        	min	a9, a9, a15
    264f:	433930        	min	a3, a9, a3
    2652:	525ea2        	s16i	a10, a14, 164
    2655:	135832        	s16i	a3, a8, 38
    2658:	000806        	j	267c <SBAEC_INIT+0xfc>

0000265b <SBAEC_INIT+0xdb>:
    265b:	f6da31        	l32r	a3, 1c4 (c00100 <_end+0xbeeea0>)
    265e:	40d792        	addmi	a9, a7, 0x4000
    2661:	296932        	s32i	a3, a9, 164
    2664:	f6d931        	l32r	a3, 1c8 (600040 <_end+0x5eede0>)
    2667:	0002c6        	j	2676 <SBAEC_INIT+0xf6>

0000266a <SBAEC_INIT+0xea>:
    266a:	f6d431        	l32r	a3, 1bc (300040 <_end+0x2eede0>)
    266d:	40d792        	addmi	a9, a7, 0x4000
    2670:	296932        	s32i	a3, a9, 164
    2673:	f6d331        	l32r	a3, 1c0 (200018 <_end+0x1eedb8>)
    2676:	40d792        	addmi	a9, a7, 0x4000
    2679:	2a6932        	s32i	a3, a9, 168
    267c:	baa032        	movi	a3, 186
    267f:	3dd332        	addmi	a3, a3, 0x3d00
    2682:	a73a           	add.n	a10, a7, a3
    2684:	f69331        	l32r	a3, d0 (e550 <xt_memcpy>)
    2687:	b8eb           	addi.n	a11, a8, 14
    2689:	ec0c           	movi.n	a12, 14
    268b:	0003e0        	callx8	a3
    268e:	f68f21        	l32r	a2, cc (1125c <aec_nr_para>)
    2691:	3dd782        	addmi	a8, a7, 0x3d00
    2694:	87a4c2        	movi	a12, 0x487
    2697:	0238           	l32i.n	a3, a2, 0
    2699:	f68721        	l32r	a2, b8 (11254 <p_ecnr_mem>)
    269c:	57a3d2        	movi	a13, 0x357
    269f:	061392        	l16ui	a9, a3, 12
    26a2:	c693a2        	l16si	a10, a3, 0x18c
    26a5:	6b58a2        	s16i	a10, a8, 214
    26a8:	1199c0        	slli	a9, a9, 4
    26ab:	376892        	s32i	a9, a8, 220
    26ae:	02b8           	l32i.n	a11, a2, 0
    26b0:	6c2332        	l32i	a3, a3, 0x1b0
    26b3:	119dd0        	slli	a9, a13, 3
    26b6:	366832        	s32i	a3, a8, 216
    26b9:	118cd0        	slli	a8, a12, 3
    26bc:	f6c431        	l32r	a3, 1cc (2a28 <Fill_CH_MEM_WB>)
    26bf:	51c8           	l32i.n	a12, a1, 20
    26c1:	41d8           	l32i.n	a13, a1, 16
    26c3:	fb9a           	add.n	a15, a11, a9
    26c5:	9b8a           	add.n	a9, a11, a8
    26c7:	05ad           	mov.n	a10, a5
    26c9:	04bd           	mov.n	a11, a4
    26cb:	06ed           	mov.n	a14, a6
    26cd:	0199           	s32i.n	a9, a1, 0
    26cf:	0003e0        	callx8	a3
    26d2:	0238           	l32i.n	a3, a2, 0
    26d4:	f67e21        	l32r	a2, cc (1125c <aec_nr_para>)
    26d7:	3fd762        	addmi	a6, a7, 0x3f00
    26da:	1ad332        	addmi	a3, a3, 0x1a00
    26dd:	0288           	l32i.n	a8, a2, 0
    26df:	1e2392        	l32i	a9, a3, 120
    26e2:	222332        	l32i	a3, a3, 136
    26e5:	106632        	s32i	a3, a6, 64
    26e8:	d296b2        	l16si	a11, a6, 0x1a4
    26eb:	1698c2        	l16si	a12, a8, 44
    26ee:	f6b831        	l32r	a3, 1d0 (29a0 <Fill_sbco>)
    26f1:	1d0c           	movi.n	a13, 1
    26f3:	05ad           	mov.n	a10, a5
    26f5:	f699           	s32i.n	a9, a6, 60
    26f7:	0003e0        	callx8	a3
    26fa:	40d762        	addmi	a6, a7, 0x4000
    26fd:	539662        	l16si	a6, a6, 166
    2700:	0288           	l32i.n	a8, a2, 0
    2702:	1d0c           	movi.n	a13, 1
    2704:	f61b           	addi.n	a15, a6, 1
    2706:	b3f660        	movgez	a15, a6, a6
    2709:	1798c2        	l16si	a12, a8, 46
    270c:	21b1f0        	srai	a11, a15, 1
    270f:	04ad           	mov.n	a10, a4
    2711:	0003e0        	callx8	a3
    2714:	40d762        	addmi	a6, a7, 0x4000
    2717:	0288           	l32i.n	a8, a2, 0
    2719:	5496b2        	l16si	a11, a6, 168
    271c:	5168           	l32i.n	a6, a1, 20
    271e:	1898c2        	l16si	a12, a8, 48
    2721:	1d0c           	movi.n	a13, 1
    2723:	06ad           	mov.n	a10, a6
    2725:	0003e0        	callx8	a3
    2728:	0288           	l32i.n	a8, a2, 0
    272a:	40d792        	addmi	a9, a7, 0x4000
    272d:	5599b2        	l16si	a11, a9, 170
    2730:	1998c2        	l16si	a12, a8, 50
    2733:	41a8           	l32i.n	a10, a1, 16
    2735:	1d0c           	movi.n	a13, 1
    2737:	6199           	s32i.n	a9, a1, 24
    2739:	0003e0        	callx8	a3
    273c:	0238           	l32i.n	a3, a2, 0
    273e:	05ad           	mov.n	a10, a5
    2740:	03d382        	addmi	a8, a3, 0x300
    2743:	03d392        	addmi	a9, a3, 0x300
    2746:	03d332        	addmi	a3, a3, 0x300
    2749:	1a9332        	l16si	a3, a3, 52
    274c:	129882        	l16si	a8, a8, 36
    274f:	169992        	l16si	a9, a9, 44
    2752:	21d830        	srai	a13, a3, 8
    2755:	f69f31        	l32r	a3, 1d4 (29e8 <Fill_sbco_v2>)
    2758:	21b880        	srai	a11, a8, 8
    275b:	21c890        	srai	a12, a9, 8
    275e:	0003e0        	callx8	a3
    2761:	0258           	l32i.n	a5, a2, 0
    2763:	04ad           	mov.n	a10, a4
    2765:	03d582        	addmi	a8, a5, 0x300
    2768:	03d592        	addmi	a9, a5, 0x300
    276b:	03d552        	addmi	a5, a5, 0x300
    276e:	1298b2        	l16si	a11, a8, 36
    2771:	1699c2        	l16si	a12, a9, 44
    2774:	1a95d2        	l16si	a13, a5, 52
    2777:	0003e0        	callx8	a3
    277a:	0248           	l32i.n	a4, a2, 0
    277c:	06ad           	mov.n	a10, a6
    277e:	03d452        	addmi	a5, a4, 0x300
    2781:	03d482        	addmi	a8, a4, 0x300
    2784:	03d442        	addmi	a4, a4, 0x300
    2787:	139552        	l16si	a5, a5, 38
    278a:	179882        	l16si	a8, a8, 46
    278d:	1b9442        	l16si	a4, a4, 54
    2790:	21b850        	srai	a11, a5, 8
    2793:	21c880        	srai	a12, a8, 8
    2796:	21d840        	srai	a13, a4, 8
    2799:	0003e0        	callx8	a3
    279c:	0248           	l32i.n	a4, a2, 0
    279e:	41a8           	l32i.n	a10, a1, 16
    27a0:	03d452        	addmi	a5, a4, 0x300
    27a3:	03d482        	addmi	a8, a4, 0x300
    27a6:	03d442        	addmi	a4, a4, 0x300
    27a9:	1395b2        	l16si	a11, a5, 38
    27ac:	1798c2        	l16si	a12, a8, 46
    27af:	1b94d2        	l16si	a13, a4, 54
    27b2:	0003e0        	callx8	a3
    27b5:	f64031        	l32r	a3, b8 (11254 <p_ecnr_mem>)
    27b8:	0228           	l32i.n	a2, a2, 0
    27ba:	7168           	l32i.n	a6, a1, 28
    27bc:	0338           	l32i.n	a3, a3, 0
    27be:	0412f2        	l16ui	a15, a2, 8
    27c1:	0292d2        	l16si	a13, a2, 4
    27c4:	1ad3b2        	addmi	a11, a3, 0x1a00
    27c7:	1592a2        	l16si	a10, a2, 42
    27ca:	1ad332        	addmi	a3, a3, 0x1a00
    27cd:	2d5ba2        	s16i	a10, a11, 90
    27d0:	5c56d2        	s16i	a13, a6, 184
    27d3:	03d282        	addmi	a8, a2, 0x300
    27d6:	40d7e2        	addmi	a14, a7, 0x4000
    27d9:	059262        	l16si	a6, a2, 10
    27dc:	1c2392        	l32i	a9, a3, 112
    27df:	04a0f0        	extui	a10, a15, 0, 1
    27e2:	ffa042        	movi	a4, 255
    27e5:	40d7c2        	addmi	a12, a7, 0x4000
    27e8:	1e9882        	l16si	a8, a8, 60
    27eb:	455e62        	s16i	a6, a14, 138
    27ee:	286e92        	s32i	a9, a14, 160
    27f1:	445ea2        	s16i	a10, a14, 136
    27f4:	03d2e2        	addmi	a14, a2, 0x300
    27f7:	575c82        	s16i	a8, a12, 174
    27fa:	7fd442        	addmi	a4, a4, 0x7f00
    27fd:	3dd752        	addmi	a5, a7, 0x3d00
    2800:	121e82        	l16ui	a8, a14, 36
    2803:	715542        	s16i	a4, a5, 226
    2806:	1441f0        	extui	a4, a15, 1, 2
    2809:	61f8           	l32i.n	a15, a1, 24
    280b:	ffa0b2        	movi	a11, 255
    280e:	2392d2        	l16si	a13, a2, 70
    2811:	625b80        	saltu	a5, a11, a8
    2814:	dc9222        	l16si	a2, a2, 0x1b8
    2817:	325342        	s16i	a4, a3, 100
    281a:	465cd2        	s16i	a13, a12, 140
    281d:	475c22        	s16i	a2, a12, 142
    2820:	565f52        	s16i	a5, a15, 172
    2823:	f01d           	retw.n

00002825 <SBAEC_INIT+0x2a5>:
    2825:	000000                                        ...

00002828 <SBAEC_INIT_inear>:
    2828:	008136        	entry	a1, 64
    282b:	40d232        	addmi	a3, a2, 0x4000
    282e:	529392        	l16si	a9, a3, 164
    2831:	5393a2        	l16si	a10, a3, 166
    2834:	5493b2        	l16si	a11, a3, 168
    2837:	5593c2        	l16si	a12, a3, 170
    283a:	40d262        	addmi	a6, a2, 0x4000
    283d:	b7a7d2        	movi	a13, 0x7b7
    2840:	e9a752        	movi	a5, 0x7e9
    2843:	f3a772        	movi	a7, 0x7f3
    2846:	9a9a           	add.n	a9, a10, a9
    2848:	843c           	movi.n	a4, 56
    284a:	bbca           	add.n	a11, a11, a12
    284c:	1155d0        	slli	a5, a5, 3
    284f:	fda782        	movi	a8, 0x7fd
    2852:	57a3f2        	movi	a15, 0x357
    2855:	11ddd0        	slli	a13, a13, 3
    2858:	40d4a2        	addmi	a10, a4, 0x4000
    285b:	c3a442        	movi	a4, 0x4c3
    285e:	1177d0        	slli	a7, a7, 3
    2861:	99ba           	add.n	a9, a9, a11
    2863:	1144d0        	slli	a4, a4, 3
    2866:	b27a           	add.n	a11, a2, a7
    2868:	1188d0        	slli	a8, a8, 3
    286b:	e2da           	add.n	a14, a2, a13
    286d:	d2aa           	add.n	a13, a2, a10
    286f:	11ffd0        	slli	a15, a15, 3
    2872:	b0a920        	addx8	a10, a9, a2
    2875:	525a           	add.n	a5, a2, a5
    2877:	f65571        	l32r	a7, 1cc (2a28 <Fill_CH_MEM_WB>)
    287a:	c28a           	add.n	a12, a2, a8
    287c:	424a           	add.n	a4, a2, a4
    287e:	fafa           	add.n	a15, a10, a15
    2880:	05ad           	mov.n	a10, a5
    2882:	51b9           	s32i.n	a11, a1, 20
    2884:	61c9           	s32i.n	a12, a1, 24
    2886:	71d9           	s32i.n	a13, a1, 28
    2888:	0149           	s32i.n	a4, a1, 0
    288a:	0007e0        	callx8	a7
    288d:	1ad282        	addmi	a8, a2, 0x1a00
    2890:	2a2842        	l32i	a4, a8, 168
    2893:	222882        	l32i	a8, a8, 136
    2896:	1f6342        	s32i	a4, a3, 124
    2899:	206382        	s32i	a8, a3, 128
    289c:	f60c71        	l32r	a7, cc (1125c <aec_nr_para>)
    289f:	3ed2e2        	addmi	a14, a2, 0x3e00
    28a2:	282e42        	l32i	a4, a14, 160
    28a5:	07e8           	l32i.n	a14, a7, 0
    28a7:	3ed292        	addmi	a9, a2, 0x3e00
    28aa:	786942        	s32i	a4, a9, 0x1e0
    28ad:	1429b2        	l32i	a11, a9, 80
    28b0:	02de42        	addmi	a4, a14, 0x200
    28b3:	6469b2        	s32i	a11, a9, 0x190
    28b6:	3c29f2        	l32i	a15, a9, 240
    28b9:	5794c2        	l16si	a12, a4, 174
    28bc:	5293b2        	l16si	a11, a3, 164
    28bf:	f64441        	l32r	a4, 1d0 (29a0 <Fill_sbco>)
    28c2:	c3f9           	s32i.n	a15, a3, 48
    28c4:	4d0c           	movi.n	a13, 4
    28c6:	05ad           	mov.n	a10, a5
    28c8:	0004e0        	callx8	a4
    28cb:	0788           	l32i.n	a8, a7, 0
    28cd:	539332        	l16si	a3, a3, 166
    28d0:	51a8           	l32i.n	a10, a1, 20
    28d2:	02d882        	addmi	a8, a8, 0x200
    28d5:	931b           	addi.n	a9, a3, 1
    28d7:	b39330        	movgez	a9, a3, a3
    28da:	5898c2        	l16si	a12, a8, 176
    28dd:	21b190        	srai	a11, a9, 1
    28e0:	4d0c           	movi.n	a13, 4
    28e2:	0004e0        	callx8	a4
    28e5:	0738           	l32i.n	a3, a7, 0
    28e7:	5496b2        	l16si	a11, a6, 168
    28ea:	61a8           	l32i.n	a10, a1, 24
    28ec:	02d332        	addmi	a3, a3, 0x200
    28ef:	5993c2        	l16si	a12, a3, 178
    28f2:	4d0c           	movi.n	a13, 4
    28f4:	0004e0        	callx8	a4
    28f7:	0738           	l32i.n	a3, a7, 0
    28f9:	5596b2        	l16si	a11, a6, 170
    28fc:	71a8           	l32i.n	a10, a1, 28
    28fe:	02d332        	addmi	a3, a3, 0x200
    2901:	5a93c2        	l16si	a12, a3, 180
    2904:	4d0c           	movi.n	a13, 4
    2906:	0004e0        	callx8	a4
    2909:	0738           	l32i.n	a3, a7, 0
    290b:	05ad           	mov.n	a10, a5
    290d:	03d342        	addmi	a4, a3, 0x300
    2910:	03d362        	addmi	a6, a3, 0x300
    2913:	03d332        	addmi	a3, a3, 0x300
    2916:	1c9332        	l16si	a3, a3, 56
    2919:	149442        	l16si	a4, a4, 40
    291c:	189662        	l16si	a6, a6, 48
    291f:	21d830        	srai	a13, a3, 8
    2922:	f62c31        	l32r	a3, 1d4 (29e8 <Fill_sbco_v2>)
    2925:	21b840        	srai	a11, a4, 8
    2928:	21c860        	srai	a12, a6, 8
    292b:	0003e0        	callx8	a3
    292e:	0748           	l32i.n	a4, a7, 0
    2930:	51a8           	l32i.n	a10, a1, 20
    2932:	03d452        	addmi	a5, a4, 0x300
    2935:	03d462        	addmi	a6, a4, 0x300
    2938:	03d442        	addmi	a4, a4, 0x300
    293b:	1495b2        	l16si	a11, a5, 40
    293e:	1896c2        	l16si	a12, a6, 48
    2941:	1c94d2        	l16si	a13, a4, 56
    2944:	0003e0        	callx8	a3
    2947:	0748           	l32i.n	a4, a7, 0
    2949:	61a8           	l32i.n	a10, a1, 24
    294b:	03d452        	addmi	a5, a4, 0x300
    294e:	03d462        	addmi	a6, a4, 0x300
    2951:	03d442        	addmi	a4, a4, 0x300
    2954:	159552        	l16si	a5, a5, 42
    2957:	199662        	l16si	a6, a6, 50
    295a:	1d9442        	l16si	a4, a4, 58
    295d:	21b850        	srai	a11, a5, 8
    2960:	21c860        	srai	a12, a6, 8
    2963:	21d840        	srai	a13, a4, 8
    2966:	0003e0        	callx8	a3
    2969:	0748           	l32i.n	a4, a7, 0
    296b:	71a8           	l32i.n	a10, a1, 28
    296d:	03d452        	addmi	a5, a4, 0x300
    2970:	03d462        	addmi	a6, a4, 0x300
    2973:	03d442        	addmi	a4, a4, 0x300
    2976:	1595b2        	l16si	a11, a5, 42
    2979:	1996c2        	l16si	a12, a6, 50
    297c:	1d94d2        	l16si	a13, a4, 58
    297f:	0003e0        	callx8	a3
    2982:	eaa032        	movi	a3, 234
    2985:	0748           	l32i.n	a4, a7, 0
    2987:	3dd332        	addmi	a3, a3, 0x3d00
    298a:	a23a           	add.n	a10, a2, a3
    298c:	88a2f2        	movi	a15, 0x288
    298f:	f5d021        	l32r	a2, d0 (e550 <xt_memcpy>)
    2992:	b4fa           	add.n	a11, a4, a15
    2994:	3c0c           	movi.n	a12, 3
    2996:	0002e0        	callx8	a2
    2999:	f01d           	retw.n

0000299b <SBAEC_INIT_inear+0x173>:
    299b:	00000000                                 .....

000029a0 <Fill_sbco>:
    29a0:	004136        	entry	a1, 32
    29a3:	ffa062        	movi	a6, 255
    29a6:	11f400        	slli	a15, a4, 16
    29a9:	7fd662        	addmi	a6, a6, 0x7f00
    29ac:	115232        	s16i	a3, a2, 34
    29af:	105262        	s16i	a6, a2, 32
    29b2:	125252        	s16i	a5, a2, 36
    29b5:	52f9           	s32i.n	a15, a2, 20
    29b7:	42f9           	s32i.n	a15, a2, 16
    29b9:	f01d           	retw.n

000029bb <Fill_sbco+0x1b>:
	...

000029bc <dt_ratio_thrd_form>:
    29bc:	004136        	entry	a1, 32
    29bf:	66a032        	movi	a3, 102
    29c2:	66d332        	addmi	a3, a3, 0x6600
    29c5:	742020        	extui	a2, a2, 0, 8
    29c8:	d12230        	mul16s	a2, a2, a3
    29cb:	48a1e2        	movi	a14, 0x148
    29ce:	40c222        	addi	a2, a2, 64
    29d1:	412720        	srli	a2, a2, 7
    29d4:	f601f1        	l32r	a15, 1d8 (cd080 <_end+0xbbe20>)
    29d7:	8222e0        	mull	a2, a2, a14
    29da:	22fa           	add.n	a2, a2, a15
    29dc:	412820        	srli	a2, a2, 8
    29df:	a22d           	ae_clamps16	a2, a2
    29e1:	822d           	ae_sext16	a2, a2
    29e3:	f01d           	retw.n

000029e5 <dt_ratio_thrd_form+0x29>:
    29e5:	000000                                        ...

000029e8 <Fill_sbco_v2>:
    29e8:	004136        	entry	a1, 32
    29eb:	66a062        	movi	a6, 102
    29ee:	743030        	extui	a3, a3, 0, 8
    29f1:	66d662        	addmi	a6, a6, 0x6600
    29f4:	74c040        	extui	a12, a4, 0, 8
    29f7:	1a5232        	s16i	a3, a2, 52
    29fa:	d13c60        	mul16s	a3, a12, a6
    29fd:	48a1e2        	movi	a14, 0x148
    2a00:	40c332        	addi	a3, a3, 64
    2a03:	413730        	srli	a3, a3, 7
    2a06:	f5f4f1        	l32r	a15, 1d8 (cd080 <_end+0xbbe20>)
    2a09:	8233e0        	mull	a3, a3, a14
    2a0c:	f5f4d1        	l32r	a13, 1dc (f6c0 <T_aec_min_gain>)
    2a0f:	33fa           	add.n	a3, a3, a15
    2a11:	745050        	extui	a5, a5, 0, 8
    2a14:	9045d0        	addx2	a4, a5, a13
    2a17:	413830        	srli	a3, a3, 8
    2a1a:	244d           	ae_l16si.n	a4, a4, 0
    2a1c:	a33d           	ae_clamps16	a3, a3
    2a1e:	185242        	s16i	a4, a2, 48
    2a21:	195232        	s16i	a3, a2, 50
    2a24:	f01d           	retw.n

00002a26 <Fill_sbco_v2+0x3e>:
	...

00002a28 <Fill_CH_MEM_WB>:
    2a28:	004136        	entry	a1, 32
    2a2b:	8188           	l32i.n	a8, a1, 32
    2a2d:	8ca092        	movi	a9, 140
    2a30:	a0a0a2        	movi	a10, 160
    2a33:	50c8f2        	addi	a15, a8, 80
    2a36:	c8a0b2        	movi	a11, 200
    2a39:	f0a0c2        	movi	a12, 240
    2a3c:	116382        	s32i	a8, a3, 68
    2a3f:	28c8d2        	addi	a13, a8, 40
    2a42:	1162f2        	s32i	a15, a2, 68
    2a45:	04a1f2        	movi	a15, 0x104
    2a48:	1363d2        	s32i	a13, a3, 76
    2a4b:	64c8e2        	addi	a14, a8, 100
    2a4e:	b8ba           	add.n	a11, a8, a11
    2a50:	989a           	add.n	a9, a8, a9
    2a52:	a8aa           	add.n	a10, a8, a10
    2a54:	c8ca           	add.n	a12, a8, a12
    2a56:	d8fa           	add.n	a13, a8, a15
    2a58:	78c882        	addi	a8, a8, 120
    2a5b:	136282        	s32i	a8, a2, 76
    2a5e:	136492        	s32i	a9, a4, 76
    2a61:	02d692        	addmi	a9, a6, 0x200
    2a64:	1164e2        	s32i	a14, a4, 68
    2a67:	7699e2        	l16si	a14, a9, 236
    2a6a:	1365a2        	s32i	a10, a5, 76
    2a6d:	779982        	l16si	a8, a9, 238
    2a70:	7899f2        	l16si	a15, a9, 240
    2a73:	1263b2        	s32i	a11, a3, 72
    2a76:	799962        	l16si	a6, a9, 242
    2a79:	90be70        	addx2	a11, a14, a7
    2a7c:	a279           	s32i.n	a7, a2, 40
    2a7e:	9078b0        	addx2	a7, a8, a11
    2a81:	a3b9           	s32i.n	a11, a3, 40
    2a83:	a479           	s32i.n	a7, a4, 40
    2a85:	907f70        	addx2	a7, a15, a7
    2a88:	906670        	addx2	a6, a6, a7
    2a8b:	b269           	s32i.n	a6, a2, 44
    2a8d:	906e60        	addx2	a6, a14, a6
    2a90:	a579           	s32i.n	a7, a5, 40
    2a92:	b369           	s32i.n	a6, a3, 44
    2a94:	906860        	addx2	a6, a8, a6
    2a97:	1262c2        	s32i	a12, a2, 72
    2a9a:	1264d2        	s32i	a13, a4, 72
    2a9d:	a3c8           	l32i.n	a12, a3, 40
    2a9f:	a2d8           	l32i.n	a13, a2, 40
    2aa1:	a4e8           	l32i.n	a14, a4, 40
    2aa3:	90ff60        	addx2	a15, a15, a6
    2aa6:	1063c2        	s32i	a12, a3, 64
    2aa9:	1062d2        	s32i	a13, a2, 64
    2aac:	1064e2        	s32i	a14, a4, 64
    2aaf:	b469           	s32i.n	a6, a4, 44
    2ab1:	106572        	s32i	a7, a5, 64
    2ab4:	b5f9           	s32i.n	a15, a5, 44
    2ab6:	f01d           	retw.n

00002ab8 <common_x_pow>:
    2ab8:	004136        	entry	a1, 32
    2abb:	360334        	ae_cvtq48a32s	aeq0, a3
    2abe:	fe00bec47f 	{ ae_cvtq48a32s	aeq1, a4; ae_absq56	aeq2, aeq0 }
    2ac3:	ff0480005f 	{ movi	a5, 0; ae_absq56	aeq3, aeq1 }
    2ac8:	d6d80001ff 	{ movi	a15, 1; ae_ltq56s	b0, aeq2, aeq3 }
    2acd:	023d           	mov.n	a3, a2
    2acf:	120c           	movi.n	a2, 1
    2ad1:	d35f00        	movt	a5, a15, b0
    2ad4:	65ac           	beqz.n	a5, 2afe <common_x_pow+0x46>
    2ad6:	f9bac0004f 	{ movi	a4, 0; ae_subq56	aeq1, aeq3, aeq2 }
    2adb:	0122b0        	slli	a2, a2, 21
    2ade:	36c234        	ae_cvtq48a32s	aeq3, a2
    2ae1:	d6cc0001ff 	{ movi	a15, 1; ae_ltq56s	b0, aeq3, aeq1 }
    2ae6:	120c           	movi.n	a2, 1
    2ae8:	f5be51        	l32r	a5, 1e0 (2aaa00 <_end+0x2997a0>)
    2aeb:	fd04564f0f 	{ movt	a4, a15, b0; ae_movq56	aeq1, aeq0 }
    2af0:	c48c           	beqz.n	a4, 2b00 <common_x_pow+0x48>
    2af2:	398554        	ae_movpa24x2	aep0, a5, a5
    2af5:	030a14        	ae_mulfq32sp16s.l	aeq1, aeq0, aep0
    2af8:	065934        	ae_roundsq32asym	aeq1, aeq1
    2afb:	000046        	j	2b00 <common_x_pow+0x48>

00002afe <common_x_pow+0x46>:
    2afe:	020c           	movi.n	a2, 0
    2b00:	f5b941        	l32r	a4, 1e4 (10930 <immediate_num>)
    2b03:	608324        	ae_lq32f.i	aeq2, a3, 8
    2b06:	60c334        	ae_lq32f.i	aeq3, a3, 12
    2b09:	440404        	ae_lp16x2f.i	aep0, a4, 0
    2b0c:	c10084        	ae_mulzaafq32sp16s.lh	aeq0, aeq2, aep0, aeq0, aep0
    2b0f:	c108d4        	ae_mulzaafq32sp16s.lh	aeq1, aeq3, aep0, aeq1, aep0
    2b12:	060934        	ae_roundsq32asym	aeq0, aeq0
    2b15:	fd2c79832f 	{ ae_sq32f.i	aeq0, a3, 8; ae_roundsq32asym	aeq1, aeq1 }
    2b1a:	621334        	ae_sq32f.i	aeq1, a3, 12
    2b1d:	f01d           	retw.n

00002b1f <common_x_pow+0x67>:
	...

00002b20 <ref_gain_adapt>:
    2b20:	004136        	entry	a1, 32
    2b23:	5378           	l32i.n	a7, a3, 20
    2b25:	f5af61        	l32r	a6, 1e4 (10930 <immediate_num>)
    2b28:	360734        	ae_cvtq48a32s	aeq0, a7
    2b2b:	03b5d6        	bgez	a5, 2b6a <ref_gain_adapt+0x4a>
    2b2e:	059252        	l16si	a5, a2, 10
    2b31:	440614        	ae_lp16x2f.i	aep0, a6, 4
    2b34:	364434        	ae_cvtq48a32s	aeq1, a4
    2b37:	11d500        	slli	a13, a5, 16
    2b3a:	d5637ecdbf 	{ ae_cvtq48a32s	aeq2, a13; ae_mulfq32sp16s.h	aeq3, aeq1, aep0 }
    2b3f:	0e0c           	movi.n	a14, 0
    2b41:	d6d80001ff 	{ movi	a15, 1; ae_ltq56s	b0, aeq2, aeq3 }
    2b46:	040c           	movi.n	a4, 0
    2b48:	150c           	movi.n	a5, 1
    2b4a:	d3ef00        	movt	a14, a15, b0
    2b4d:	0edc           	bnez.n	a14, 2b61 <ref_gain_adapt+0x41>
    2b4f:	440624        	ae_lp16x2f.i	aep0, a6, 8
    2b52:	d56340007f 	{ movi	a7, 0; ae_mulfq32sp16s.h	aeq3, aeq1, aep0 }
    2b57:	d6d800018f 	{ movi	a8, 1; ae_ltq56s	b0, aeq2, aeq3 }
    2b5c:	d34500        	movt	a4, a5, b0
    2b5f:	24ac           	beqz.n	a4, 2b85 <ref_gain_adapt+0x65>

00002b61 <ref_gain_adapt+0x41>:
    2b61:	a10004        	ae_mulzaafq32sp16s.ll	aeq0, aeq0, aep0, aeq0, aep0
    2b64:	060934        	ae_roundsq32asym	aeq0, aeq0
    2b67:	368704        	ae_trunca32q48	a7, aeq0
    2b6a:	120c           	movi.n	a2, 1
    2b6c:	0122b0        	slli	a2, a2, 21
    2b6f:	532720        	max	a2, a7, a2
    2b72:	5329           	s32i.n	a2, a3, 20
    2b74:	604344        	ae_lq32f.i	aeq1, a3, 16
    2b77:	440654        	ae_lp16x2f.i	aep0, a6, 20
    2b7a:	c10044        	ae_mulzaafq32sp16s.lh	aeq0, aeq1, aep0, aeq0, aep0
    2b7d:	060934        	ae_roundsq32asym	aeq0, aeq0
    2b80:	620344        	ae_sq32f.i	aeq0, a3, 16
    2b83:	f01d           	retw.n

00002b85 <ref_gain_adapt+0x65>:
    2b85:	440634        	ae_lp16x2f.i	aep0, a6, 12
    2b88:	d76240004f 	{ movi	a4, 0; ae_mulfq32sp16s.h	aeq3, aeq2, aep0 }
    2b8d:	02d222        	addmi	a2, a2, 0x200
    2b90:	d65c00015f 	{ movi	a5, 1; ae_ltq56s	b0, aeq1, aeq3 }
    2b95:	038a94        	ae_mulfq32sp16s.l	aeq3, aeq2, aep0
    2b98:	d60222        	l8ui	a2, a2, 214
    2b9b:	d6cc16780f 	{ movt	a7, a8, b0; ae_ltq56s	b0, aeq3, aeq1 }
    2ba0:	fc0716        	beqz	a7, 2b64 <ref_gain_adapt+0x44>
    2ba3:	370c           	movi.n	a7, 3
    2ba5:	d34500        	movt	a4, a5, b0
    2ba8:	14cc           	bnez.n	a4, 2bad <ref_gain_adapt+0x8d>
    2baa:	b60727        	bnone	a7, a2, 2b64 <ref_gain_adapt+0x44>
    2bad:	440644        	ae_lp16x2f.i	aep0, a6, 16
    2bb0:	030214        	ae_mulfq32sp16s.l	aeq0, aeq0, aep0
    2bb3:	ffeb46        	j	2b64 <ref_gain_adapt+0x44>

00002bb6 <ref_gain_adapt+0x96>:
	...

00002bb8 <aec_post_calc>:
    2bb8:	006136        	entry	a1, 48
    2bbb:	054466        	bnei	a4, 4, 2bc4 <aec_post_calc+0xc>
    2bbe:	20c242        	addi	a4, a2, 32
    2bc1:	000086        	j	2bc7 <aec_post_calc+0xf>

00002bc4 <aec_post_calc+0xc>:
    2bc4:	1ec242        	addi	a4, a2, 30
    2bc7:	150c           	movi.n	a5, 1
    2bc9:	0155d0        	slli	a5, a5, 19
    2bcc:	400404        	ae_lp16f.i	aep0, a4, 0
    2bcf:	360534        	ae_cvtq48a32s	aeq0, a5
    2bd2:	1d0c           	movi.n	a13, 1
    2bd4:	115d00        	slli	a5, a13, 16
    2bd7:	d4e2bec5ff 	{ ae_cvtq48a32s	aeq3, a5; ae_mulfq32sp16u.l	aeq0, aeq0, aep0 }
    2bdc:	23c8           	l32i.n	a12, a3, 8
    2bde:	d6e3b9813f 	{ ae_sq32f.i	aeq0, a1, 12; ae_mulfq32sp16u.l	aeq0, aeq3, aep0 }
    2be3:	3178           	l32i.n	a7, a1, 12
    2be5:	33e8           	l32i.n	a14, a3, 12
    2be7:	620134        	ae_sq32f.i	aeq0, a1, 12
    2bea:	3168           	l32i.n	a6, a1, 12
    2bec:	53bc70        	max	a11, a12, a7
    2bef:	f57e41        	l32r	a4, 1e8 (c254 <airoha_divide_limit_1>)
    2bf2:	53fe60        	max	a15, a14, a6
    2bf5:	43abf0        	min	a10, a11, a15
    2bf8:	0004e0        	callx8	a4
    2bfb:	600364        	ae_lq32f.i	aeq0, a3, 24
    2bfe:	4c0244        	ae_lp24.i	aep0, a2, 16
    2c01:	379aa4        	ae_truncp24a32x2	aep1, a10, a10
    2c04:	e207a1724e 	{ l16si	a4, a2, 46; ae_mulafp24s.ll	aeq0, aep1, aep0 }
    2c09:	f966a0225e 	{ l16si	a5, a2, 4; ae_movp48	aep2, aep1 }
    2c0e:	fc2460b27e 	{ l16si	a7, a2, 22; ae_roundsq32asym	aeq0, aeq0 }
    2c13:	620364        	ae_sq32f.i	aeq0, a3, 24
    2c16:	18a547        	bge	a5, a4, 2c32 <aec_post_calc+0x7a>
    2c19:	0a9242        	l16si	a4, a2, 20
    2c1c:	169252        	l16si	a5, a2, 44
    2c1f:	060c           	movi.n	a6, 0
    2c21:	742b           	addi.n	a7, a4, 2
    2c23:	725650        	salt	a5, a6, a5
    2c26:	837450        	moveqz	a7, a4, a5
    2c29:	031674        	wur.ae_sar	a7
    2c2c:	0b10a4        	ae_sllssp24s	aep2, aep1
    2c2f:	000506        	j	2c47 <aec_post_calc+0x8f>

00002c32 <aec_post_calc+0x7a>:
    2c32:	074d           	mov.n	a4, a7
    2c34:	0f27a6        	blti	a7, 2, 2c47 <aec_post_calc+0x8f>
    2c37:	944d           	ae_zext16	a4, a4
    2c39:	f9668ff44e 	{ addi	a4, a4, -1; ae_movp48	aep2, aep1 }
    2c3e:	058476        	loop	a4, 2c47 <aec_post_calc+0x8f>
    2c41:	012174        	ae_mulfp24s.ll	aeq0, aep2, aep1
    2c44:	1b8d24        	ae_roundsp24q48asym	aep2, aeq0

00002c47 <aec_post_calc+0x8f>:
    2c47:	401274        	ae_lp16f.i	aep1, a2, 14
    2c4a:	d82a7d037f 	{ ae_lq32f.i	aeq0, a3, 28; ae_maxp24s	aep1, aep2, aep1 }
    2c4f:	011034        	ae_mulafp24s.ll	aeq0, aep1, aep0
    2c52:	060934        	ae_roundsq32asym	aeq0, aeq0
    2c55:	620374        	ae_sq32f.i	aeq0, a3, 28
    2c58:	f01d           	retw.n

00002c5a <aec_post_calc+0xa2>:
	...

00002c5c <aec_post_calc_sb>:
    2c5c:	006136        	entry	a1, 48
    2c5f:	150c           	movi.n	a5, 1
    2c61:	00a142        	movi	a4, 0x100
    2c64:	0155d0        	slli	a5, a5, 19
    2c67:	170c           	movi.n	a7, 1
    2c69:	300444        	ae_cvtp24a16x2.ll	aep0, a4, a4
    2c6c:	360534        	ae_cvtq48a32s	aeq0, a5
    2c6f:	117700        	slli	a7, a7, 16
    2c72:	d4e2bec7ff 	{ ae_cvtq48a32s	aeq3, a7; ae_mulfq32sp16u.l	aeq0, aeq0, aep0 }
    2c77:	23c8           	l32i.n	a12, a3, 8
    2c79:	d6e3b9813f 	{ ae_sq32f.i	aeq0, a1, 12; ae_mulfq32sp16u.l	aeq0, aeq3, aep0 }
    2c7e:	31e8           	l32i.n	a14, a1, 12
    2c80:	620134        	ae_sq32f.i	aeq0, a1, 12
    2c83:	33d8           	l32i.n	a13, a3, 12
    2c85:	3168           	l32i.n	a6, a1, 12
    2c87:	53bce0        	max	a11, a12, a14
    2c8a:	f55741        	l32r	a4, 1e8 (c254 <airoha_divide_limit_1>)
    2c8d:	53fd60        	max	a15, a13, a6
    2c90:	43abf0        	min	a10, a11, a15
    2c93:	0004e0        	callx8	a4
    2c96:	600364        	ae_lq32f.i	aeq0, a3, 24
    2c99:	4c0244        	ae_lp24.i	aep0, a2, 16
    2c9c:	379aa4        	ae_truncp24a32x2	aep1, a10, a10
    2c9f:	e207a1c34e 	{ l16si	a4, a3, 56; ae_mulafp24s.ll	aeq0, aep1, aep0 }
    2ca4:	f966a0225e 	{ l16si	a5, a2, 4; ae_movp48	aep2, aep1 }
    2ca9:	fc2461a37e 	{ l16si	a7, a3, 52; ae_roundsq32asym	aeq0, aeq0 }
    2cae:	620364        	ae_sq32f.i	aeq0, a3, 24
    2cb1:	18a547        	bge	a5, a4, 2ccd <aec_post_calc_sb+0x71>
    2cb4:	0a9222        	l16si	a2, a2, 20
    2cb7:	1b9342        	l16si	a4, a3, 54
    2cba:	050c           	movi.n	a5, 0
    2cbc:	622b           	addi.n	a6, a2, 2
    2cbe:	724540        	salt	a4, a5, a4
    2cc1:	836240        	moveqz	a6, a2, a4
    2cc4:	031664        	wur.ae_sar	a6
    2cc7:	0b10a4        	ae_sllssp24s	aep2, aep1
    2cca:	000506        	j	2ce2 <aec_post_calc_sb+0x86>

00002ccd <aec_post_calc_sb+0x71>:
    2ccd:	072d           	mov.n	a2, a7
    2ccf:	0f27a6        	blti	a7, 2, 2ce2 <aec_post_calc_sb+0x86>
    2cd2:	922d           	ae_zext16	a2, a2
    2cd4:	f9668ff22e 	{ addi	a2, a2, -1; ae_movp48	aep2, aep1 }
    2cd9:	058276        	loop	a2, 2ce2 <aec_post_calc_sb+0x86>
    2cdc:	012174        	ae_mulfp24s.ll	aeq0, aep2, aep1
    2cdf:	1b8d24        	ae_roundsp24q48asym	aep2, aeq0

00002ce2 <aec_post_calc_sb+0x86>:
    2ce2:	30c322        	addi	a2, a3, 48
    2ce5:	401204        	ae_lp16f.i	aep1, a2, 0
    2ce8:	d82a7d037f 	{ ae_lq32f.i	aeq0, a3, 28; ae_maxp24s	aep1, aep2, aep1 }
    2ced:	011034        	ae_mulafp24s.ll	aeq0, aep1, aep0
    2cf0:	060934        	ae_roundsq32asym	aeq0, aeq0
    2cf3:	620374        	ae_sq32f.i	aeq0, a3, 28
    2cf6:	f01d           	retw.n

00002cf8 <aec_post_calc_FB>:
    2cf8:	004136        	entry	a1, 32
    2cfb:	2348           	l32i.n	a4, a3, 8
    2cfd:	3368           	l32i.n	a6, a3, 12
    2cff:	150c           	movi.n	a5, 1
    2d01:	115540        	slli	a5, a5, 12
    2d04:	00a2f2        	movi	a15, 0x200
    2d07:	53b450        	max	a11, a4, a5
    2d0a:	5346f0        	max	a4, a6, a15
    2d0d:	43ab40        	min	a10, a11, a4
    2d10:	f53641        	l32r	a4, 1e8 (c254 <airoha_divide_limit_1>)
    2d13:	0004e0        	callx8	a4
    2d16:	600364        	ae_lq32f.i	aeq0, a3, 24
    2d19:	4c0244        	ae_lp24.i	aep0, a2, 16
    2d1c:	379aa4        	ae_truncp24a32x2	aep1, a10, a10
    2d1f:	e207a1c24e 	{ l16si	a4, a2, 56; ae_mulafp24s.ll	aeq0, aep1, aep0 }
    2d24:	f966a0225e 	{ l16si	a5, a2, 4; ae_movp48	aep2, aep1 }
    2d29:	fc2460b27e 	{ l16si	a7, a2, 22; ae_roundsq32asym	aeq0, aeq0 }
    2d2e:	620364        	ae_sq32f.i	aeq0, a3, 24
    2d31:	18a547        	bge	a5, a4, 2d4d <aec_post_calc_FB+0x55>
    2d34:	0a9242        	l16si	a4, a2, 20
    2d37:	1d9252        	l16si	a5, a2, 58
    2d3a:	060c           	movi.n	a6, 0
    2d3c:	742b           	addi.n	a7, a4, 2
    2d3e:	725650        	salt	a5, a6, a5
    2d41:	837450        	moveqz	a7, a4, a5
    2d44:	031674        	wur.ae_sar	a7
    2d47:	0b10a4        	ae_sllssp24s	aep2, aep1
    2d4a:	000506        	j	2d62 <aec_post_calc_FB+0x6a>

00002d4d <aec_post_calc_FB+0x55>:
    2d4d:	074d           	mov.n	a4, a7
    2d4f:	0f27a6        	blti	a7, 2, 2d62 <aec_post_calc_FB+0x6a>
    2d52:	944d           	ae_zext16	a4, a4
    2d54:	f9668ff44e 	{ addi	a4, a4, -1; ae_movp48	aep2, aep1 }
    2d59:	058476        	loop	a4, 2d62 <aec_post_calc_FB+0x6a>
    2d5c:	012174        	ae_mulfp24s.ll	aeq0, aep2, aep1
    2d5f:	1b8d24        	ae_roundsp24q48asym	aep2, aeq0

00002d62 <aec_post_calc_FB+0x6a>:
    2d62:	32c222        	addi	a2, a2, 50
    2d65:	401204        	ae_lp16f.i	aep1, a2, 0
    2d68:	d82a7d037f 	{ ae_lq32f.i	aeq0, a3, 28; ae_maxp24s	aep1, aep2, aep1 }
    2d6d:	011034        	ae_mulafp24s.ll	aeq0, aep1, aep0
    2d70:	060934        	ae_roundsq32asym	aeq0, aeq0
    2d73:	620374        	ae_sq32f.i	aeq0, a3, 28
    2d76:	f01d           	retw.n

00002d78 <aec_post_calc_FB_sb>:
    2d78:	004136        	entry	a1, 32
    2d7b:	2348           	l32i.n	a4, a3, 8
    2d7d:	3368           	l32i.n	a6, a3, 12
    2d7f:	150c           	movi.n	a5, 1
    2d81:	115540        	slli	a5, a5, 12
    2d84:	00a2f2        	movi	a15, 0x200
    2d87:	53b450        	max	a11, a4, a5
    2d8a:	5346f0        	max	a4, a6, a15
    2d8d:	43ab40        	min	a10, a11, a4
    2d90:	f51641        	l32r	a4, 1e8 (c254 <airoha_divide_limit_1>)
    2d93:	0004e0        	callx8	a4
    2d96:	600364        	ae_lq32f.i	aeq0, a3, 24
    2d99:	4c0244        	ae_lp24.i	aep0, a2, 16
    2d9c:	379aa4        	ae_truncp24a32x2	aep1, a10, a10
    2d9f:	e207a1c34e 	{ l16si	a4, a3, 56; ae_mulafp24s.ll	aeq0, aep1, aep0 }
    2da4:	f966a0225e 	{ l16si	a5, a2, 4; ae_movp48	aep2, aep1 }
    2da9:	fc2461a37e 	{ l16si	a7, a3, 52; ae_roundsq32asym	aeq0, aeq0 }
    2dae:	620364        	ae_sq32f.i	aeq0, a3, 24
    2db1:	18a547        	bge	a5, a4, 2dcd <aec_post_calc_FB_sb+0x55>
    2db4:	0a9222        	l16si	a2, a2, 20
    2db7:	1b9342        	l16si	a4, a3, 54
    2dba:	050c           	movi.n	a5, 0
    2dbc:	622b           	addi.n	a6, a2, 2
    2dbe:	724540        	salt	a4, a5, a4
    2dc1:	836240        	moveqz	a6, a2, a4
    2dc4:	031664        	wur.ae_sar	a6
    2dc7:	0b10a4        	ae_sllssp24s	aep2, aep1
    2dca:	000506        	j	2de2 <aec_post_calc_FB_sb+0x6a>

00002dcd <aec_post_calc_FB_sb+0x55>:
    2dcd:	072d           	mov.n	a2, a7
    2dcf:	0f27a6        	blti	a7, 2, 2de2 <aec_post_calc_FB_sb+0x6a>
    2dd2:	922d           	ae_zext16	a2, a2
    2dd4:	f9668ff22e 	{ addi	a2, a2, -1; ae_movp48	aep2, aep1 }
    2dd9:	058276        	loop	a2, 2de2 <aec_post_calc_FB_sb+0x6a>
    2ddc:	012174        	ae_mulfp24s.ll	aeq0, aep2, aep1
    2ddf:	1b8d24        	ae_roundsp24q48asym	aep2, aeq0

00002de2 <aec_post_calc_FB_sb+0x6a>:
    2de2:	30c322        	addi	a2, a3, 48
    2de5:	401204        	ae_lp16f.i	aep1, a2, 0
    2de8:	d82a7d037f 	{ ae_lq32f.i	aeq0, a3, 28; ae_maxp24s	aep1, aep2, aep1 }
    2ded:	011034        	ae_mulafp24s.ll	aeq0, aep1, aep0
    2df0:	060934        	ae_roundsq32asym	aeq0, aeq0
    2df3:	620374        	ae_sq32f.i	aeq0, a3, 28
    2df6:	f01d           	retw.n

00002df8 <subband_aec_block>:
    2df8:	006136        	entry	a1, 48
    2dfb:	a378           	l32i.n	a7, a3, 40
    2dfd:	fd24a1138e 	{ l16si	a8, a3, 34; ae_zeroq56	aeq1 }
    2e02:	f41b           	addi.n	a15, a4, 1
    2e04:	a3d8           	l32i.n	a13, a3, 40
    2e06:	90e870        	addx2	a14, a8, a7
    2e09:	b3f440        	movgez	a15, a4, a4
    2e0c:	21b1f0        	srai	a11, a15, 1
    2e0f:	2169           	s32i.n	a6, a1, 8
    2e11:	f3f6d0        	wur.ae_cbegin0	a13
    2e14:	f3f7e0        	wur.ae_cend0	a14
    2e17:	3024a6        	blti	a4, 2, 2e4b <subband_aec_block+0x53>
    2e1a:	ba2262        	l32i	a6, a2, 0x2e8
    2e1d:	122382        	l32i	a8, a3, 72
    2e20:	102372        	l32i	a7, a3, 64
    2e23:	600344        	ae_lq32f.i	aeq0, a3, 16
    2e26:	490c           	movi.n	a9, 4
    2e28:	440804        	ae_lp16x2f.i	aep0, a8, 0
    2e2b:	fcc6a2        	addi	a10, a6, -4
    2e2e:	198b76        	loop	a11, 2e4b <subband_aec_block+0x53>
    2e31:	09001aa79f 	{ ae_lp16x2f.c	aep2, a7, a9; ae_mulzaafq32sp16s.hh	aeq2, aeq0, aep0, aeq0, aep0 }
    2e36:	11006d881f 	{ ae_lp16x2f.iu	aep0, a8, 4; ae_mulzaafq32sp16s.ll	aeq3, aeq0, aep0, aeq0, aep0 }
    2e3b:	1baf74        	ae_roundsp16q48asym	aep7, aeq2
    2e3e:	1bbf14        	ae_roundsp16q48asym	aep1, aeq3
    2e41:	f04a7e715f 	{ ae_selp24.hl	aep1, aep7, aep1; ae_mulssfp24s.hh.ll	aeq1, aep2, aep2 }
    2e46:	e224739a1f 	{ ae_sp16x2f.iu	aep1, a10, 4; ae_mulaafp24s.hh.ll	aeq1, aep1, aep1 }

00002e4b <subband_aec_block+0x53>:
    2e4b:	351234        	ae_sraiq56	aeq0, aeq1, 8
    2e4e:	618304        	ae_lq56.i	aeq2, a3, 0
    2e51:	f87230926e 	{ l32i	a6, a2, 36; ae_addq56	aeq0, aeq2, aeq0 }
    2e56:	fc00fec6ff 	{ ae_cvtq48a32s	aeq3, a6; ae_satq48s	aeq0, aeq0 }
    2e5b:	f87b1431bf 	{ s32i.n	a11, a1, 12; ae_maxq56s	aeq0, aeq0, aeq3 }
    2e60:	1129           	s32i.n	a2, a1, 4
    2e62:	630304        	ae_sq56s.i	aeq0, a3, 0
    2e65:	00e5d6        	bgez	a5, 2e77 <subband_aec_block+0x7f>
    2e68:	109362        	l16si	a6, a3, 32
    2e6b:	368b04        	ae_trunca32q48	a11, aeq0
    2e6e:	11a670        	slli	a10, a6, 9
    2e71:	f4de61        	l32r	a6, 1ec (c14c <airoha_divide>)
    2e74:	0006e0        	callx8	a6

00002e77 <subband_aec_block+0x7f>:
    2e77:	102382        	l32i	a8, a3, 64
    2e7a:	7814a6        	blti	a4, 1, 2ef6 <subband_aec_block+0xfe>
    2e7d:	1128           	l32i.n	a2, a1, 4
    2e7f:	b368           	l32i.n	a6, a3, 44
    2e81:	132372        	l32i	a7, a3, 76
    2e84:	1123c2        	l32i	a12, a3, 68
    2e87:	ba2222        	l32i	a2, a2, 0x2e8
    2e8a:	119392        	l16si	a9, a3, 34
    2e8d:	360b34        	ae_cvtq48a32s	aeq0, a11
    2e90:	fec7d2        	addi	a13, a7, -2
    2e93:	2b0c           	movi.n	a11, 2
    2e95:	fec662        	addi	a6, a6, -2
    2e98:	fecce2        	addi	a14, a12, -2
    2e9b:	04fd           	mov.n	a15, a4
    2e9d:	fec272        	addi	a7, a2, -2
    2ea0:	408714        	ae_lp16f.iu	aep0, a7, 2
    2ea3:	fc24e288bf 	{ ae_sp16f.l.c	aep0, a8, a11; nop }
    2ea8:	408e14        	ae_lp16f.iu	aep0, a14, 2
    2eab:	fd0c13c66f 	{ or	a12, a6, a6; ae_cvtq48p24s.l	aeq1, aep0 }
    2eb0:	0f19a6        	blti	a9, 1, 2ec3 <subband_aec_block+0xcb>
    2eb3:	408c14        	ae_lp16f.iu	aep0, a12, 2
    2eb6:	098976        	loop	a9, 2ec3 <subband_aec_block+0xcb>
    2eb9:	fc24d918bf 	{ ae_lp16f.c	aep1, a8, a11; nop }
    2ebe:	ee21ec8c1f 	{ ae_lp16f.iu	aep0, a12, 2; ae_mulsfp24s.ll	aeq1, aep0, aep1 }

00002ec3 <subband_aec_block+0xcb>:
    2ec3:	f86b93c66f 	{ or	a12, a6, a6; ae_roundsp16q48asym	aep0, aeq1 }
    2ec8:	d4e2728d1f 	{ ae_sp16f.l.iu	aep0, a13, 2; ae_mulfq32sp16s.l	aeq1, aeq0, aep0 }
    2ecd:	0205d6        	bgez	a5, 2ef1 <subband_aec_block+0xf9>
    2ed0:	fc24fe9a4f 	{ ae_slaasq56s	aeq1, aeq1, a10; nop }
    2ed5:	1b9d04        	ae_roundsp24q48asym	aep0, aeq1
    2ed8:	1519a6        	blti	a9, 1, 2ef1 <subband_aec_block+0xf9>
    2edb:	409c14        	ae_lp16f.iu	aep1, a12, 2
    2ede:	0f8976        	loop	a9, 2ef1 <subband_aec_block+0xf9>
    2ee1:	fd2c1978bf 	{ ae_lp16f.c	aep7, a8, a11; ae_cvtq48p24s.l	aeq1, aep1 }
    2ee6:	e2e3ec9c1f 	{ ae_lp16f.iu	aep1, a12, 2; ae_mulafp24s.ll	aeq1, aep0, aep7 }
    2eeb:	1b9f24        	ae_roundsp16q48asym	aep2, aeq1
    2eee:	422cf4        	ae_sp16f.l.i	aep2, a12, -2
    2ef1:	ff0b           	addi.n	a15, a15, -1
    2ef3:	fa9f56        	bnez	a15, 2ea0 <subband_aec_block+0xa8>

00002ef6 <subband_aec_block+0xfe>:
    2ef6:	106382        	s32i	a8, a3, 64
    2ef9:	fe24b1337e 	{ l32i	a7, a3, 76; ae_zeroq56	aeq2 }
    2efe:	fc24bf217f 	{ ae_movq56	aeq1, aeq2; ae_zeroq56	aeq0 }
    2f03:	1b24a6        	blti	a4, 2, 2f22 <subband_aec_block+0x12a>
    2f06:	112322        	l32i	a2, a3, 68
    2f09:	31f8           	l32i.n	a15, a1, 12
    2f0b:	fcc772        	addi	a7, a7, -4
    2f0e:	fcc262        	addi	a6, a2, -4
    2f11:	0d8f76        	loop	a15, 2f22 <subband_aec_block+0x12a>
    2f14:	448614        	ae_lp16x2f.iu	aep0, a6, 4
    2f17:	e2006d971f 	{ ae_lp16x2f.iu	aep1, a7, 4; ae_mulaafp24s.hh.ll	aeq1, aep0, aep0 }
    2f1c:	050104        	ae_mulaafp24s.hh.ll	aeq0, aep0, aep1
    2f1f:	059104        	ae_mulaafp24s.hh.ll	aeq2, aep1, aep1

00002f22 <subband_aec_block+0x12a>:
    2f22:	2128           	l32i.n	a2, a1, 8
    2f24:	060c           	movi.n	a6, 0
    2f26:	35e134        	ae_sraiq56	aeq3, aeq2, 4
    2f29:	0c42a6        	blti	a2, 4, 2f39 <subband_aec_block+0x141>
    2f2c:	fab6c0006f 	{ movi	a6, 0; ae_subq56	aeq2, aeq2, aeq3 }
    2f31:	d65400012f 	{ movi	a2, 1; ae_ltq56s	b0, aeq1, aeq2 }
    2f36:	d36200        	movt	a6, a2, b0

00002f39 <subband_aec_block+0x141>:
    2f39:	355134        	ae_sraiq56	aeq1, aeq1, 4
    2f3c:	fd2c7b010f 	{ ae_sraiq56	aeq0, aeq0, 4; ae_roundsq32asym	aeq1, aeq1 }
    2f41:	fc247f1bef 	{ ae_trunca32q48	a11, aeq1; ae_roundsq32asym	aeq0, aeq0 }
    2f46:	368c04        	ae_trunca32q48	a12, aeq0
    2f49:	f4a921        	l32r	a2, 1f0 (2ab8 <common_x_pow>)
    2f4c:	03ad           	mov.n	a10, a3
    2f4e:	0002e0        	callx8	a2
    2f51:	6020a0        	neg	a2, a10
    2f54:	0d1627        	beq	a6, a2, 2f65 <subband_aec_block+0x16d>
    2f57:	1323a2        	l32i	a10, a3, 76
    2f5a:	1123b2        	l32i	a11, a3, 68
    2f5d:	f45c21        	l32r	a2, d0 (e550 <xt_memcpy>)
    2f60:	04cd           	mov.n	a12, a4
    2f62:	0002e0        	callx8	a2
    2f65:	1128           	l32i.n	a2, a1, 4
    2f67:	fc24a0d24e 	{ l16si	a4, a2, 26; ae_zeroq56	aeq0 }
    2f6c:	2224a6        	blti	a4, 2, 2f92 <subband_aec_block+0x19a>
    2f6f:	b328           	l32i.n	a2, a3, 44
    2f71:	119362        	l16si	a6, a3, 34
    2f74:	01c4e2        	addi	a14, a4, 1
    2f77:	b3e440        	movgez	a14, a4, a4
    2f7a:	902620        	addx2	a2, a6, a2
    2f7d:	11f4f0        	slli	a15, a4, 1
    2f80:	c022f0        	sub	a2, a2, a15
    2f83:	2161e0        	srai	a6, a14, 1
    2f86:	fcc242        	addi	a4, a2, -4
    2f89:	058676        	loop	a6, 2f92 <subband_aec_block+0x19a>
    2f8c:	448414        	ae_lp16x2f.iu	aep0, a4, 4
    2f8f:	050004        	ae_mulaafp24s.hh.ll	aeq0, aep0, aep0

00002f92 <subband_aec_block+0x19a>:
    2f92:	3328           	l32i.n	a2, a3, 12
    2f94:	060c           	movi.n	a6, 0
    2f96:	3500b4        	ae_sraiq56	aeq0, aeq0, 2
    2f99:	53a260        	max	a10, a2, a6
    2f9c:	fc247023be 	{ l32i	a11, a3, 8; ae_roundsq32asym	aeq0, aeq0 }
    2fa1:	f49121        	l32r	a2, 1e8 (c254 <airoha_divide_limit_1>)
    2fa4:	368404        	ae_trunca32q48	a4, aeq0
    2fa7:	0002e0        	callx8	a2
    2faa:	1198           	l32i.n	a9, a1, 4
    2fac:	ffa022        	movi	a2, 255
    2faf:	2403f2        	l8ui	a15, a3, 36
    2fb2:	049962        	l16si	a6, a9, 8
    2fb5:	7fd222        	addmi	a2, a2, 0x7f00
    2fb8:	3170a0        	srai	a7, a10, 16
    2fbb:	c02270        	sub	a2, a2, a7
    2fbe:	536260        	max	a6, a2, a6
    2fc1:	05ef17        	bbsi	a15, 1, 2fca <subband_aec_block+0x1d2>
    2fc4:	105362        	s16i	a6, a3, 32
    2fc7:	000786        	j	2fe9 <subband_aec_block+0x1f1>

00002fca <subband_aec_block+0x1d2>:
    2fca:	039922        	l16si	a2, a9, 6
    2fcd:	09ad           	mov.n	a10, a9
    2fcf:	03bd           	mov.n	a11, a3
    2fd1:	822620        	mull	a2, a6, a2
    2fd4:	04cd           	mov.n	a12, a4
    2fd6:	40d222        	addmi	a2, a2, 0x4000
    2fd9:	412f20        	srli	a2, a2, 15
    2fdc:	105322        	s16i	a2, a3, 32
    2fdf:	f48521        	l32r	a2, 1f4 (2b20 <ref_gain_adapt>)
    2fe2:	05dd           	mov.n	a13, a5
    2fe4:	0002e0        	callx8	a2
    2fe7:	1198           	l32i.n	a9, a1, 4
    2fe9:	059922        	l16si	a2, a9, 10
    2fec:	069962        	l16si	a6, a9, 12
    2fef:	f47df1        	l32r	a15, 1e4 (10930 <immediate_num>)
    2ff2:	112200        	slli	a2, a2, 16
    2ff5:	56a247        	bge	a2, a4, 304f <subband_aec_block+0x257>
    2ff8:	129322        	l16si	a2, a3, 36
    2ffb:	250c           	movi.n	a5, 2
    2ffd:	11e600        	slli	a14, a6, 16
    3000:	202250        	or	a2, a2, a5
    3003:	125322        	s16i	a2, a3, 36
    3006:	18cf22        	addi	a2, a15, 24
    3009:	07ae47        	bge	a14, a4, 3014 <subband_aec_block+0x21c>
    300c:	400204        	ae_lp16f.i	aep0, a2, 0
    300f:	000106        	j	3017 <subband_aec_block+0x21f>

00003012 <subband_aec_block+0x21a>:
	...

00003014 <subband_aec_block+0x21c>:
    3014:	400214        	ae_lp16f.i	aep0, a2, 2
    3017:	0d9942        	l16si	a4, a9, 26
    301a:	3124a6        	blti	a4, 2, 304f <subband_aec_block+0x257>
    301d:	b328           	l32i.n	a2, a3, 44
    301f:	119352        	l16si	a5, a3, 34
    3022:	e41b           	addi.n	a14, a4, 1
    3024:	b3e440        	movgez	a14, a4, a4
    3027:	902520        	addx2	a2, a5, a2
    302a:	11f4f0        	slli	a15, a4, 1
    302d:	c042f0        	sub	a4, a2, a15
    3030:	2161e0        	srai	a6, a14, 1
    3033:	441404        	ae_lp16x2f.i	aep1, a4, 0
    3036:	fec452        	addi	a5, a4, -2
    3039:	128676        	loop	a6, 304f <subband_aec_block+0x257>
    303c:	011054        	ae_mulfp24s.hl	aeq0, aep1, aep0
    303f:	ea05ed941f 	{ ae_lp16x2f.iu	aep1, a4, 4; ae_mulfp24s.ll	aeq1, aep1, aep0 }
    3044:	1b8f24        	ae_roundsp16q48asym	aep2, aeq0
    3047:	fb6bf2a51f 	{ ae_sp16f.l.iu	aep2, a5, 2; ae_roundsp16q48asym	aep7, aeq1 }
    304c:	42f514        	ae_sp16f.l.iu	aep7, a5, 2

0000304f <subband_aec_block+0x257>:
    304f:	129342        	l16si	a4, a3, 36
    3052:	02d922        	addmi	a2, a9, 0x200
    3055:	21c8           	l32i.n	a12, a1, 8
    3057:	13e407        	bbsi	a4, 0, 306e <subband_aec_block+0x276>
    305a:	346427        	bbci	a4, 2, 3092 <subband_aec_block+0x29a>
    305d:	02d922        	addmi	a2, a9, 0x200
    3060:	7a1222        	l16ui	a2, a2, 244
    3063:	f46741        	l32r	a4, 200 (2d78 <aec_post_calc_FB_sb>)
    3066:	1e1266        	bnei	a2, 1, 3088 <subband_aec_block+0x290>
    3069:	042d           	mov.n	a2, a4
    306b:	0002c6        	j	307a <subband_aec_block+0x282>

0000306e <subband_aec_block+0x276>:
    306e:	7a1222        	l16ui	a2, a2, 244
    3071:	f46241        	l32r	a4, 1fc (2bb8 <aec_post_calc>)
    3074:	0b1266        	bnei	a2, 1, 3083 <subband_aec_block+0x28b>
    3077:	f46021        	l32r	a2, 1f8 (2c5c <aec_post_calc_sb>)
    307a:	09ad           	mov.n	a10, a9
    307c:	03bd           	mov.n	a11, a3
    307e:	0002e0        	callx8	a2
    3081:	f01d           	retw.n

00003083 <subband_aec_block+0x28b>:
    3083:	042d           	mov.n	a2, a4
    3085:	000086        	j	308b <subband_aec_block+0x293>

00003088 <subband_aec_block+0x290>:
    3088:	f45f21        	l32r	a2, 204 (2cf8 <aec_post_calc_FB>)
    308b:	09ad           	mov.n	a10, a9
    308d:	03bd           	mov.n	a11, a3
    308f:	0002e0        	callx8	a2
    3092:	f01d           	retw.n

00003094 <subband_aec_mid_channel>:
    3094:	006136        	entry	a1, 48
    3097:	a398           	l32i.n	a9, a3, 40
    3099:	a3e8           	l32i.n	a14, a3, 40
    309b:	fd24a1137e 	{ l16si	a7, a3, 34; ae_zeroq56	aeq1 }
    30a0:	f3f690        	wur.ae_cbegin0	a9
    30a3:	122392        	l32i	a9, a3, 72
    30a6:	ba22f2        	l32i	a15, a2, 0x2e8
    30a9:	1023a2        	l32i	a10, a3, 64
    30ac:	a077e0        	addx4	a7, a7, a14
    30af:	a80c           	movi.n	a8, 10
    30b1:	3159           	s32i.n	a5, a1, 12
    30b3:	f3f770        	wur.ae_cend0	a7
    30b6:	04a062        	movi	a6, 4
    30b9:	205330        	or	a5, a3, a3
    30bc:	600344        	ae_lq32f.i	aeq0, a3, 16
    30bf:	440904        	ae_lp16x2f.i	aep0, a9, 0
    30c2:	fccf72        	addi	a7, a15, -4
    30c5:	198876        	loop	a8, 30e2 <subband_aec_mid_channel+0x4e>
    30c8:	09001aaa6f 	{ ae_lp16x2f.c	aep2, a10, a6; ae_mulzaafq32sp16s.hh	aeq2, aeq0, aep0, aeq0, aep0 }
    30cd:	11006d891f 	{ ae_lp16x2f.iu	aep0, a9, 4; ae_mulzaafq32sp16s.ll	aeq3, aeq0, aep0, aeq0, aep0 }
    30d2:	1baf74        	ae_roundsp16q48asym	aep7, aeq2
    30d5:	1bbf14        	ae_roundsp16q48asym	aep1, aeq3
    30d8:	f04a7e715f 	{ ae_selp24.hl	aep1, aep7, aep1; ae_mulssfp24s.hh.ll	aeq1, aep2, aep2 }
    30dd:	e22473971f 	{ ae_sp16x2f.iu	aep1, a7, 4; ae_mulaafp24s.hh.ll	aeq1, aep1, aep1 }

000030e2 <subband_aec_mid_channel+0x4e>:
    30e2:	9268           	l32i.n	a6, a2, 36
    30e4:	3511b4        	ae_sraiq56	aeq0, aeq1, 6
    30e7:	618504        	ae_lq56.i	aeq2, a5, 0
    30ea:	f87213355f 	{ or	a3, a5, a5; ae_addq56	aeq0, aeq2, aeq0 }
    30ef:	1166e0        	slli	a6, a6, 2
    30f2:	fc00fec6ff 	{ ae_cvtq48a32s	aeq3, a6; ae_satq48s	aeq0, aeq0 }
    30f7:	f87b21036e 	{ l16si	a6, a3, 32; ae_maxq56s	aeq0, aeq0, aeq3 }
    30fc:	630504        	ae_sq56s.i	aeq0, a5, 0
    30ff:	00b4d6        	bgez	a4, 310e <subband_aec_mid_channel+0x7a>
    3102:	368b04        	ae_trunca32q48	a11, aeq0
    3105:	11a650        	slli	a10, a6, 11
    3108:	f43961        	l32r	a6, 1ec (c14c <airoha_divide>)
    310b:	0006e0        	callx8	a6

0000310e <subband_aec_mid_channel+0x7a>:
    310e:	1123c2        	l32i	a12, a3, 68
    3111:	ba22e2        	l32i	a14, a2, 0x2e8
    3114:	132382        	l32i	a8, a3, 76
    3117:	102362        	l32i	a6, a3, 64
    311a:	119372        	l16si	a7, a3, 34
    311d:	b338           	l32i.n	a3, a3, 44
    311f:	2129           	s32i.n	a2, a1, 8
    3121:	360b34        	ae_cvtq48a32s	aeq0, a11
    3124:	a90c           	movi.n	a9, 10
    3126:	4b0c           	movi.n	a11, 4
    3128:	fcccc2        	addi	a12, a12, -4
    312b:	fec8d2        	addi	a13, a8, -2
    312e:	fccee2        	addi	a14, a14, -4
    3131:	fec322        	addi	a2, a3, -2
    3134:	448e14        	ae_lp16x2f.iu	aep0, a14, 4
    3137:	fc24e406bf 	{ ae_sp16x2f.c	aep0, a6, a11; nop }
    313c:	448c14        	ae_lp16x2f.iu	aep0, a12, 4
    313f:	fe0413833f 	{ or	a8, a3, a3; ae_cvtq48p24s.h	aeq2, aep0 }
    3144:	0a4084        	ae_cvtq48p24s.l	aeq1, aep0
    3147:	1217a6        	blti	a7, 1, 315d <subband_aec_mid_channel+0xc9>
    314a:	440304        	ae_lp16x2f.i	aep0, a3, 0
    314d:	0c8776        	loop	a7, 315d <subband_aec_mid_channel+0xc9>
    3150:	fc24da96bf 	{ ae_lp16x2f.c	aep1, a6, a11; nop }
    3155:	0581c4        	ae_mulssfp24s.hh.ll	aeq2, aep0, aep1
    3158:	ee206d881f 	{ ae_lp16x2f.iu	aep0, a8, 4; ae_mulsafp24s.hl.lh	aeq1, aep0, aep1 }

0000315d <subband_aec_mid_channel+0xc9>:
    315d:	1baf04        	ae_roundsp16q48asym	aep0, aeq2
    3160:	f86bf28d1f 	{ ae_sp16f.l.iu	aep0, a13, 2; ae_roundsp16q48asym	aep1, aeq1 }
    3165:	d4e2729d1f 	{ ae_sp16f.l.iu	aep1, a13, 2; ae_mulfq32sp16s.l	aeq1, aeq0, aep0 }
    316a:	0364d6        	bgez	a4, 31a4 <subband_aec_mid_channel+0x110>
    316d:	d5e63e9a4f 	{ ae_slaasq56s	aeq1, aeq1, a10; ae_mulfq32sp16s.l	aeq2, aeq0, aep1 }
    3172:	038d           	mov.n	a8, a3
    3174:	f86fbeaa8f 	{ ae_slaasq56s	aeq2, aeq2, a10; ae_roundsp24q48asym	aep0, aeq1 }
    3179:	f877d3f22f 	{ or	a15, a2, a2; ae_roundsp24q48asym	aep1, aeq2 }
    317e:	2217a6        	blti	a7, 1, 31a4 <subband_aec_mid_channel+0x110>
    3181:	dc20ad130f 	{ ae_lp16x2f.i	aep1, a3, 0; ae_selp24.hl	aep0, aep0, aep1 }
    3186:	1a8776        	loop	a7, 31a4 <subband_aec_mid_channel+0x110>
    3189:	fd241aa6bf 	{ ae_lp16x2f.c	aep2, a6, a11; ae_cvtq48p24s.h	aeq1, aep1 }
    318e:	fe2c2d981f 	{ ae_lp16x2f.iu	aep1, a8, 4; ae_cvtq48p24s.l	aeq2, aep1 }
    3193:	050a04        	ae_mulaafp24s.hh.ll	aeq1, aep0, aep2
    3196:	058254        	ae_mulasfp24s.hl.lh	aeq2, aep0, aep2
    3199:	1b9f64        	ae_roundsp16q48asym	aep6, aeq1
    319c:	fb73f2ef1f 	{ ae_sp16f.l.iu	aep6, a15, 2; ae_roundsp16q48asym	aep7, aeq2 }
    31a1:	42ff14        	ae_sp16f.l.iu	aep7, a15, 2
    31a4:	990b           	addi.n	a9, a9, -1
    31a6:	f8a956        	bnez	a9, 3134 <subband_aec_mid_channel+0xa0>
    31a9:	106562        	s32i	a6, a5, 64
    31ac:	fd24b1156e 	{ l32i	a6, a5, 68; ae_zeroq56	aeq1 }
    31b1:	fc0c71352e 	{ l32i	a2, a5, 76; ae_movq56	aeq0, aeq1 }
    31b6:	a30c           	movi.n	a3, 10
    31b8:	057d           	mov.n	a7, a5
    31ba:	fe0c6d060f 	{ ae_lp16x2f.i	aep0, a6, 0; ae_movq56	aeq2, aeq1 }
    31bf:	441204        	ae_lp16x2f.i	aep1, a2, 0
    31c2:	0c8376        	loop	a3, 31d2 <subband_aec_mid_channel+0x13e>
    31c5:	058104        	ae_mulaafp24s.hh.ll	aeq2, aep0, aep1
    31c8:	ea202d921f 	{ ae_lp16x2f.iu	aep1, a2, 4; ae_mulasfp24s.hl.lh	aeq0, aep0, aep1 }
    31cd:	e2006d861f 	{ ae_lp16x2f.iu	aep0, a6, 4; ae_mulaafp24s.hh.ll	aeq1, aep0, aep0 }

000031d2 <subband_aec_mid_channel+0x13e>:
    31d2:	35a134        	ae_sraiq56	aeq2, aeq2, 4
    31d5:	f877bb010f 	{ ae_sraiq56	aeq0, aeq0, 4; ae_roundsp24q48asym	aep0, aeq2 }
    31da:	f867fb114f 	{ ae_sraiq56	aeq1, aeq1, 4; ae_roundsp24q48asym	aep1, aeq0 }
    31df:	fd2c7e011f 	{ ae_selp24.hl	aep0, aep0, aep1; ae_roundsq32asym	aeq1, aeq1 }
    31e4:	f1028000af 	{ movi	a10, 0; ae_mulzaafp24s.hh.ll	aeq2, aep0, aep0 }
    31e9:	f3b221        	l32r	a2, b4 (8f0 <HIFI_sqrt>)
    31ec:	ff347f16ef 	{ ae_trunca32q48	a6, aeq1; ae_roundsq32asym	aeq3, aeq2 }
    31f1:	36bb04        	ae_trunca32q48	a11, aeq3
    31f4:	0002e0        	callx8	a2
    31f7:	360b34        	ae_cvtq48a32s	aeq0, a11
    31fa:	fc24fe8a0f 	{ ae_slaasq56s	aeq0, aeq0, a10; nop }
    31ff:	fc2453a77f 	{ or	a10, a7, a7; ae_roundsq32asym	aeq0, aeq0 }
    3204:	368c04        	ae_trunca32q48	a12, aeq0
    3207:	f3fa21        	l32r	a2, 1f0 (2ab8 <common_x_pow>)
    320a:	06bd           	mov.n	a11, a6
    320c:	0002e0        	callx8	a2
    320f:	da8c           	beqz.n	a10, 3220 <subband_aec_mid_channel+0x18c>
    3211:	1327a2        	l32i	a10, a7, 76
    3214:	1127b2        	l32i	a11, a7, 68
    3217:	f3ae21        	l32r	a2, d0 (e550 <xt_memcpy>)
    321a:	14a0c2        	movi	a12, 20
    321d:	0002e0        	callx8	a2

00003220 <subband_aec_mid_channel+0x18c>:
    3220:	2128           	l32i.n	a2, a1, 8
    3222:	fc24a0d22e 	{ l16si	a2, a2, 26; ae_zeroq56	aeq0 }
    3227:	1712a6        	blti	a2, 1, 3242 <subband_aec_mid_channel+0x1ae>
    322a:	119732        	l16si	a3, a7, 34
    322d:	0b2762        	l32i	a6, a7, 44
    3230:	c03320        	sub	a3, a3, a2
    3233:	a03360        	addx4	a3, a3, a6
    3236:	fcc332        	addi	a3, a3, -4
    3239:	058276        	loop	a2, 3242 <subband_aec_mid_channel+0x1ae>
    323c:	448314        	ae_lp16x2f.iu	aep0, a3, 4
    323f:	050004        	ae_mulaafp24s.hh.ll	aeq0, aep0, aep0

00003242 <subband_aec_mid_channel+0x1ae>:
    3242:	3500b4        	ae_sraiq56	aeq0, aeq0, 2
    3245:	fc247037ae 	{ l32i	a10, a7, 12; ae_roundsq32asym	aeq0, aeq0 }
    324a:	27b8           	l32i.n	a11, a7, 8
    324c:	f3e721        	l32r	a2, 1e8 (c254 <airoha_divide_limit_1>)
    324f:	368504        	ae_trunca32q48	a5, aeq0
    3252:	0002e0        	callx8	a2
    3255:	2198           	l32i.n	a9, a1, 8
    3257:	076d           	mov.n	a6, a7
    3259:	ffa022        	movi	a2, 255
    325c:	049932        	l16si	a3, a9, 8
    325f:	2407f2        	l8ui	a15, a7, 36
    3262:	7fd222        	addmi	a2, a2, 0x7f00
    3265:	31e0a0        	srai	a14, a10, 16
    3268:	c022e0        	sub	a2, a2, a14
    326b:	532230        	max	a2, a2, a3
    326e:	05ef17        	bbsi	a15, 1, 3277 <subband_aec_mid_channel+0x1e3>
    3271:	105622        	s16i	a2, a6, 32
    3274:	000786        	j	3296 <subband_aec_mid_channel+0x202>

00003277 <subband_aec_mid_channel+0x1e3>:
    3277:	039932        	l16si	a3, a9, 6
    327a:	09ad           	mov.n	a10, a9
    327c:	06bd           	mov.n	a11, a6
    327e:	822230        	mull	a2, a2, a3
    3281:	05cd           	mov.n	a12, a5
    3283:	40d222        	addmi	a2, a2, 0x4000
    3286:	412f20        	srli	a2, a2, 15
    3289:	105622        	s16i	a2, a6, 32
    328c:	f3da21        	l32r	a2, 1f4 (2b20 <ref_gain_adapt>)
    328f:	04dd           	mov.n	a13, a4
    3291:	0002e0        	callx8	a2
    3294:	2198           	l32i.n	a9, a1, 8
    3296:	059922        	l16si	a2, a9, 10
    3299:	069942        	l16si	a4, a9, 12
    329c:	f3d2f1        	l32r	a15, 1e4 (10930 <immediate_num>)
    329f:	112200        	slli	a2, a2, 16
    32a2:	49a257        	bge	a2, a5, 32ef <subband_aec_mid_channel+0x25b>
    32a5:	129622        	l16si	a2, a6, 36
    32a8:	230c           	movi.n	a3, 2
    32aa:	11e400        	slli	a14, a4, 16
    32ad:	202230        	or	a2, a2, a3
    32b0:	125622        	s16i	a2, a6, 36
    32b3:	18cf22        	addi	a2, a15, 24
    32b6:	05ae57        	bge	a14, a5, 32bf <subband_aec_mid_channel+0x22b>
    32b9:	400204        	ae_lp16f.i	aep0, a2, 0
    32bc:	000086        	j	32c2 <subband_aec_mid_channel+0x22e>

000032bf <subband_aec_mid_channel+0x22b>:
    32bf:	400214        	ae_lp16f.i	aep0, a2, 2
    32c2:	0d9942        	l16si	a4, a9, 26
    32c5:	2614a6        	blti	a4, 1, 32ef <subband_aec_mid_channel+0x25b>
    32c8:	119622        	l16si	a2, a6, 34
    32cb:	b638           	l32i.n	a3, a6, 44
    32cd:	c02240        	sub	a2, a2, a4
    32d0:	a02230        	addx4	a2, a2, a3
    32d3:	441204        	ae_lp16x2f.i	aep1, a2, 0
    32d6:	fec232        	addi	a3, a2, -2
    32d9:	128476        	loop	a4, 32ef <subband_aec_mid_channel+0x25b>
    32dc:	011054        	ae_mulfp24s.hl	aeq0, aep1, aep0
    32df:	ea05ed921f 	{ ae_lp16x2f.iu	aep1, a2, 4; ae_mulfp24s.ll	aeq1, aep1, aep0 }
    32e4:	1b8f24        	ae_roundsp16q48asym	aep2, aeq0
    32e7:	fb6bf2a31f 	{ ae_sp16f.l.iu	aep2, a3, 2; ae_roundsp16q48asym	aep7, aeq1 }
    32ec:	42f314        	ae_sp16f.l.iu	aep7, a3, 2

000032ef <subband_aec_mid_channel+0x25b>:
    32ef:	129622        	l16si	a2, a6, 36
    32f2:	02d932        	addmi	a3, a9, 0x200
    32f5:	f3c141        	l32r	a4, 1fc (2bb8 <aec_post_calc>)
    32f8:	13e207        	bbsi	a2, 0, 330f <subband_aec_mid_channel+0x27b>
    32fb:	336227        	bbci	a2, 2, 3332 <subband_aec_mid_channel+0x29e>
    32fe:	02d922        	addmi	a2, a9, 0x200
    3301:	7a1222        	l16ui	a2, a2, 244
    3304:	f3bf31        	l32r	a3, 200 (2d78 <aec_post_calc_FB_sb>)
    3307:	1d1266        	bnei	a2, 1, 3328 <subband_aec_mid_channel+0x294>
    330a:	032d           	mov.n	a2, a3
    330c:	000286        	j	331a <subband_aec_mid_channel+0x286>

0000330f <subband_aec_mid_channel+0x27b>:
    330f:	7a1322        	l16ui	a2, a3, 244
    3312:	31c8           	l32i.n	a12, a1, 12
    3314:	0b1266        	bnei	a2, 1, 3323 <subband_aec_mid_channel+0x28f>
    3317:	f3b821        	l32r	a2, 1f8 (2c5c <aec_post_calc_sb>)
    331a:	09ad           	mov.n	a10, a9
    331c:	06bd           	mov.n	a11, a6
    331e:	0002e0        	callx8	a2
    3321:	f01d           	retw.n

00003323 <subband_aec_mid_channel+0x28f>:
    3323:	042d           	mov.n	a2, a4
    3325:	000086        	j	332b <subband_aec_mid_channel+0x297>

00003328 <subband_aec_mid_channel+0x294>:
    3328:	f3b721        	l32r	a2, 204 (2cf8 <aec_post_calc_FB>)
    332b:	09ad           	mov.n	a10, a9
    332d:	06bd           	mov.n	a11, a6
    332f:	0002e0        	callx8	a2
    3332:	f01d           	retw.n

00003334 <dt_detect>:
    3334:	004136        	entry	a1, 32
    3337:	0c9252        	l16si	a5, a2, 24
    333a:	179242        	l16si	a4, a2, 46
    333d:	189262        	l16si	a6, a2, 48
    3340:	115500        	slli	a5, a5, 16
    3343:	19a537        	bge	a5, a3, 3360 <dt_detect+0x2c>
    3346:	154c           	movi.n	a5, 65
    3348:	142657        	blt	a6, a5, 3360 <dt_detect+0x2c>
    334b:	169252        	l16si	a5, a2, 44
    334e:	0e9232        	l16si	a3, a2, 28
    3351:	442b           	addi.n	a4, a4, 2
    3353:	554b           	addi.n	a5, a5, 4
    3355:	435530        	min	a5, a5, a3
    3358:	165252        	s16i	a5, a2, 44
    335b:	855d           	ae_sext16	a5, a5
    335d:	000246        	j	336a <dt_detect+0x36>

00003360 <dt_detect+0x2c>:
    3360:	0e9232        	l16si	a3, a2, 28
    3363:	050c           	movi.n	a5, 0
    3365:	440b           	addi.n	a4, a4, -1
    3367:	165252        	s16i	a5, a2, 44
    336a:	534450        	max	a4, a4, a5
    336d:	433430        	min	a3, a4, a3
    3370:	175232        	s16i	a3, a2, 46
    3373:	f01d           	retw.n

00003375 <dt_detect+0x41>:
    3375:	000000                                        ...

00003378 <dt_detect_sb>:
    3378:	004136        	entry	a1, 32
    337b:	199362        	l16si	a6, a3, 50
    337e:	1c9352        	l16si	a5, a3, 56
    3381:	174c           	movi.n	a7, 65
    3383:	116600        	slli	a6, a6, 16
    3386:	1ca647        	bge	a6, a4, 33a6 <dt_detect_sb+0x2e>
    3389:	189242        	l16si	a4, a2, 48
    338c:	1b9362        	l16si	a6, a3, 54
    338f:	0e9282        	l16si	a8, a2, 28
    3392:	102477        	blt	a4, a7, 33a6 <dt_detect_sb+0x2e>
    3395:	552b           	addi.n	a5, a5, 2
    3397:	464b           	addi.n	a4, a6, 4
    3399:	434480        	min	a4, a4, a8
    339c:	1b5342        	s16i	a4, a3, 54
    339f:	844d           	ae_sext16	a4, a4
    33a1:	082d           	mov.n	a2, a8
    33a3:	000246        	j	33b0 <dt_detect_sb+0x38>

000033a6 <dt_detect_sb+0x2e>:
    33a6:	0e9222        	l16si	a2, a2, 28
    33a9:	040c           	movi.n	a4, 0
    33ab:	550b           	addi.n	a5, a5, -1
    33ad:	1b5342        	s16i	a4, a3, 54
    33b0:	534540        	max	a4, a5, a4
    33b3:	432420        	min	a2, a4, a2
    33b6:	1c5322        	s16i	a2, a3, 56
    33b9:	f01d           	retw.n

000033bb <dt_detect_sb+0x43>:
	...

000033bc <dt_detect_FB>:
    33bc:	004136        	entry	a1, 32
    33bf:	1a9252        	l16si	a5, a2, 52
    33c2:	1c9242        	l16si	a4, a2, 56
    33c5:	189262        	l16si	a6, a2, 48
    33c8:	115500        	slli	a5, a5, 16
    33cb:	19a537        	bge	a5, a3, 33e8 <dt_detect_FB+0x2c>
    33ce:	154c           	movi.n	a5, 65
    33d0:	142657        	blt	a6, a5, 33e8 <dt_detect_FB+0x2c>
    33d3:	1d9252        	l16si	a5, a2, 58
    33d6:	1b9232        	l16si	a3, a2, 54
    33d9:	442b           	addi.n	a4, a4, 2
    33db:	554b           	addi.n	a5, a5, 4
    33dd:	435530        	min	a5, a5, a3
    33e0:	1d5252        	s16i	a5, a2, 58
    33e3:	855d           	ae_sext16	a5, a5
    33e5:	000246        	j	33f2 <dt_detect_FB+0x36>

000033e8 <dt_detect_FB+0x2c>:
    33e8:	1b9232        	l16si	a3, a2, 54
    33eb:	050c           	movi.n	a5, 0
    33ed:	440b           	addi.n	a4, a4, -1
    33ef:	1d5252        	s16i	a5, a2, 58
    33f2:	534450        	max	a4, a4, a5
    33f5:	433430        	min	a3, a4, a3
    33f8:	1c5232        	s16i	a3, a2, 56
    33fb:	f01d           	retw.n

000033fd <dt_detect_FB+0x41>:
    33fd:	000000                                        ...

00003400 <dt_detect_FB_sb>:
    3400:	004136        	entry	a1, 32
    3403:	199362        	l16si	a6, a3, 50
    3406:	1c9352        	l16si	a5, a3, 56
    3409:	174c           	movi.n	a7, 65
    340b:	116600        	slli	a6, a6, 16
    340e:	1ca647        	bge	a6, a4, 342e <dt_detect_FB_sb+0x2e>
    3411:	189242        	l16si	a4, a2, 48
    3414:	1b9362        	l16si	a6, a3, 54
    3417:	1b9282        	l16si	a8, a2, 54
    341a:	102477        	blt	a4, a7, 342e <dt_detect_FB_sb+0x2e>
    341d:	552b           	addi.n	a5, a5, 2
    341f:	464b           	addi.n	a4, a6, 4
    3421:	434480        	min	a4, a4, a8
    3424:	1b5342        	s16i	a4, a3, 54
    3427:	844d           	ae_sext16	a4, a4
    3429:	082d           	mov.n	a2, a8
    342b:	000246        	j	3438 <dt_detect_FB_sb+0x38>

0000342e <dt_detect_FB_sb+0x2e>:
    342e:	1b9222        	l16si	a2, a2, 54
    3431:	040c           	movi.n	a4, 0
    3433:	550b           	addi.n	a5, a5, -1
    3435:	1b5342        	s16i	a4, a3, 54
    3438:	534540        	max	a4, a5, a4
    343b:	432420        	min	a2, a4, a2
    343e:	1c5322        	s16i	a2, a3, 56
    3441:	f01d           	retw.n

00003443 <dt_detect_FB_sb+0x43>:
	...

00003444 <aec_sub_post>:
    3444:	004136        	entry	a1, 32
    3447:	549c           	beqz.n	a4, 3460 <aec_sub_post+0x1c>
    3449:	30a272        	movi	a7, 0x230
    344c:	90a142        	movi	a4, 0x190
    344f:	e0a162        	movi	a6, 0x1e0
    3452:	80a282        	movi	a8, 0x280
    3455:	524a           	add.n	a5, a2, a4
    3457:	926a           	add.n	a9, a2, a6
    3459:	727a           	add.n	a7, a2, a7
    345b:	000446        	j	3470 <aec_sub_post+0x2c>

0000345e <aec_sub_post+0x1a>:
	...

00003460 <aec_sub_post+0x1c>:
    3460:	a0a042        	movi	a4, 160
    3463:	f0a062        	movi	a6, 240
    3466:	50c252        	addi	a5, a2, 80
    3469:	40a182        	movi	a8, 0x140
    346c:	924a           	add.n	a9, a2, a4
    346e:	726a           	add.n	a7, a2, a6
    3470:	02d242        	addmi	a4, a2, 0x200
    3473:	32fd           	ae_l16si.n	a15, a2, 2
    3475:	7c9442        	l16si	a4, a4, 248
    3478:	828a           	add.n	a8, a2, a8
    347a:	ffa0a2        	movi	a10, 255
    347d:	0baf47        	bge	a15, a4, 348c <aec_sub_post+0x48>
    3480:	7fdaa2        	addmi	a10, a10, 0x7f00
    3483:	0a6d           	mov.n	a6, a10
    3485:	0a4d           	mov.n	a4, a10
    3487:	0a2d           	mov.n	a2, a10
    3489:	0002c6        	j	3498 <aec_sub_post+0x54>

0000348c <aec_sub_post+0x48>:
    348c:	0f15a2        	l16ui	a10, a5, 30
    348f:	0f1962        	l16ui	a6, a9, 30
    3492:	0f1742        	l16ui	a4, a7, 30
    3495:	0f1822        	l16ui	a2, a8, 30
    3498:	1d55a2        	s16i	a10, a5, 58
    349b:	1d5962        	s16i	a6, a9, 58
    349e:	1d5742        	s16i	a4, a7, 58
    34a1:	6ea0f2        	movi	a15, 110
    34a4:	1d5822        	s16i	a2, a8, 58
    34a7:	300aa4        	ae_cvtp24a16x2.ll	aep0, a10, a10
    34aa:	601304        	ae_lq32f.iu	aeq0, a3, 0
    34ad:	088f76        	loop	a15, 34b9 <aec_sub_post+0x75>
    34b0:	030204        	ae_mulfq32sp16s.h	aeq0, aeq0, aep0
    34b3:	624304        	ae_sq32f.iu	aeq0, a3, 0
    34b6:	601314        	ae_lq32f.iu	aeq0, a3, 4

000034b9 <aec_sub_post+0x75>:
    34b9:	a53c           	movi.n	a5, 58
    34bb:	300664        	ae_cvtp24a16x2.ll	aep0, a6, a6
    34be:	088576        	loop	a5, 34ca <aec_sub_post+0x86>
    34c1:	030204        	ae_mulfq32sp16s.h	aeq0, aeq0, aep0
    34c4:	624304        	ae_sq32f.iu	aeq0, a3, 0
    34c7:	601314        	ae_lq32f.iu	aeq0, a3, 4
    34ca:	855c           	movi.n	a5, 88
    34cc:	300444        	ae_cvtp24a16x2.ll	aep0, a4, a4
    34cf:	088576        	loop	a5, 34db <aec_sub_post+0x97>
    34d2:	030204        	ae_mulfq32sp16s.h	aeq0, aeq0, aep0
    34d5:	624304        	ae_sq32f.iu	aeq0, a3, 0
    34d8:	601314        	ae_lq32f.iu	aeq0, a3, 4
    34db:	00a142        	movi	a4, 0x100
    34de:	300224        	ae_cvtp24a16x2.ll	aep0, a2, a2
    34e1:	088476        	loop	a4, 34ed <aec_sub_post+0xa9>
    34e4:	030204        	ae_mulfq32sp16s.h	aeq0, aeq0, aep0
    34e7:	624304        	ae_sq32f.iu	aeq0, a3, 0
    34ea:	601314        	ae_lq32f.iu	aeq0, a3, 4
    34ed:	f01d           	retw.n

000034ef <aec_sub_post+0xab>:
	...

000034f0 <mixed_main_noise>:
    34f0:	006136        	entry	a1, 48
    34f3:	c188           	l32i.n	a8, a1, 48
    34f5:	3159           	s32i.n	a5, a1, 12
    34f7:	7aa152        	movi	a5, 0x17a
    34fa:	193826        	beqi	a8, 3, 3517 <mixed_main_noise+0x27>
    34fd:	2d2826        	beqi	a8, 2, 352e <mixed_main_noise+0x3e>
    3500:	3e1866        	bnei	a8, 1, 3542 <mixed_main_noise+0x52>
    3503:	8aa052        	movi	a5, 138
    3506:	caa172        	movi	a7, 0x1ca
    3509:	525a           	add.n	a5, a2, a5
    350b:	227a           	add.n	a2, a2, a7
    350d:	832560        	moveqz	a2, a5, a6
    3510:	773c           	movi.n	a7, 55
    3512:	350c           	movi.n	a5, 3
    3514:	000dc6        	j	354f <mixed_main_noise+0x5f>

00003517 <mixed_main_noise+0x27>:
    3517:	2aa152        	movi	a5, 0x12a
    351a:	6aa272        	movi	a7, 0x26a
    351d:	525a           	add.n	a5, a2, a5
    351f:	227a           	add.n	a2, a2, a7
    3521:	832560        	moveqz	a2, a5, a6
    3524:	80a072        	movi	a7, 128
    3527:	455c           	movi.n	a5, 84
    3529:	000886        	j	354f <mixed_main_noise+0x5f>

0000352c <mixed_main_noise+0x3c>:
	...

0000352e <mixed_main_noise+0x3e>:
    352e:	daa052        	movi	a5, 218
    3531:	1aa272        	movi	a7, 0x21a
    3534:	525a           	add.n	a5, a2, a5
    3536:	227a           	add.n	a2, a2, a7
    3538:	832560        	moveqz	a2, a5, a6
    353b:	475c           	movi.n	a7, 84
    353d:	753c           	movi.n	a5, 55
    353f:	000306        	j	354f <mixed_main_noise+0x5f>

00003542 <mixed_main_noise+0x52>:
    3542:	baa282        	movi	a8, 0x2ba
    3545:	925a           	add.n	a9, a2, a5
    3547:	228a           	add.n	a2, a2, a8
    3549:	80a052        	movi	a5, 128
    354c:	832960        	moveqz	a2, a9, a6
    354f:	422d           	ae_l16ui.n	a2, a2, 0
    3551:	ffa082        	movi	a8, 255
    3554:	7fd882        	addmi	a8, a8, 0x7f00
    3557:	c02820        	sub	a2, a8, a2
    355a:	301224        	ae_cvtp24a16x2.ll	aep1, a2, a2
    355d:	500134        	ae_lp24f.i	aep0, a1, 12
    3560:	ea0595f75f 	{ sub	a15, a7, a5; ae_mulfp24s.ll	aeq0, aep1, aep0 }
    3565:	b02530        	addx8	a2, a5, a3
    3568:	f8423d120f 	{ ae_lq32f.iu	aeq0, a2, 0; ae_truncp24q48x2	aep0, aeq0, aeq0 }
    356d:	8f7d           	ae_sext16	a7, a15
    356f:	271666        	bnei	a6, 1, 359a <mixed_main_noise+0xaa>
    3572:	4617a6        	blti	a7, 1, 35bc <mixed_main_noise+0xcc>
    3575:	a03540        	addx4	a3, a5, a4
    3578:	97fd           	ae_zext16	a15, a7
    357a:	605304        	ae_lq32f.iu	aeq1, a3, 0
    357d:	148f76        	loop	a15, 3595 <mixed_main_noise+0xa5>
    3580:	080364        	ae_mulafq32sp24s.l	aeq0, aeq1, aep0
    3583:	624204        	ae_sq32f.iu	aeq0, a2, 0
    3586:	601214        	ae_lq32f.iu	aeq0, a2, 4
    3589:	080364        	ae_mulafq32sp24s.l	aeq0, aeq1, aep0
    358c:	624204        	ae_sq32f.iu	aeq0, a2, 0
    358f:	601214        	ae_lq32f.iu	aeq0, a2, 4
    3592:	605314        	ae_lq32f.iu	aeq1, a3, 4

00003595 <mixed_main_noise+0xa5>:
    3595:	0008c6        	j	35bc <mixed_main_noise+0xcc>

00003598 <mixed_main_noise+0xa8>:
	...

0000359a <mixed_main_noise+0xaa>:
    359a:	1137f0        	slli	a3, a7, 1
    359d:	833d           	ae_sext16	a3, a3
    359f:	1913a6        	blti	a3, 1, 35bc <mixed_main_noise+0xcc>
    35a2:	1155f0        	slli	a5, a5, 1
    35a5:	936d           	ae_zext16	a6, a3
    35a7:	a03540        	addx4	a3, a5, a4
    35aa:	605304        	ae_lq32f.iu	aeq1, a3, 0
    35ad:	0b8676        	loop	a6, 35bc <mixed_main_noise+0xcc>
    35b0:	080364        	ae_mulafq32sp24s.l	aeq0, aeq1, aep0
    35b3:	624204        	ae_sq32f.iu	aeq0, a2, 0
    35b6:	601214        	ae_lq32f.iu	aeq0, a2, 4
    35b9:	605314        	ae_lq32f.iu	aeq1, a3, 4

000035bc <mixed_main_noise+0xcc>:
    35bc:	f01d           	retw.n

000035be <mixed_main_noise+0xce>:
	...

000035c0 <subband_comfort_noise>:
    35c0:	006136        	entry	a1, 48
    35c3:	690c           	movi.n	a9, 6
    35c5:	fc248fc38e 	{ addi	a8, a3, -4; ae_zeroq56	aeq0 }
    35ca:	028976        	loop	a9, 35d0 <subband_comfort_noise+0x10>
    35cd:	624814        	ae_sq32f.iu	aeq0, a8, 4

000035d0 <subband_comfort_noise+0x10>:
    35d0:	02d282        	addmi	a8, a2, 0x200
    35d3:	7b1882        	l16ui	a8, a8, 246
    35d6:	301884        	ae_cvtp24a16x2.ll	aep1, a8, a8
    35d9:	300554        	ae_cvtp24a16x2.ll	aep0, a5, a5
    35dc:	ea0580019f 	{ movi	a9, 1; ae_mulfp24s.ll	aeq0, aep1, aep0 }
    35e1:	f30981        	l32r	a8, 208 (34f0 <mixed_main_noise>)
    35e4:	350094        	ae_slliq56	aeq0, aeq0, 2
    35e7:	fc00d3a22f 	{ or	a10, a2, a2; ae_satq48s	aeq0, aeq0 }
    35ec:	368504        	ae_trunca32q48	a5, aeq0
    35ef:	03bd           	mov.n	a11, a3
    35f1:	04cd           	mov.n	a12, a4
    35f3:	05dd           	mov.n	a13, a5
    35f5:	07ed           	mov.n	a14, a7
    35f7:	06fd           	mov.n	a15, a6
    35f9:	0199           	s32i.n	a9, a1, 0
    35fb:	0008e0        	callx8	a8
    35fe:	280c           	movi.n	a8, 2
    3600:	0189           	s32i.n	a8, a1, 0
    3602:	f30181        	l32r	a8, 208 (34f0 <mixed_main_noise>)
    3605:	02ad           	mov.n	a10, a2
    3607:	03bd           	mov.n	a11, a3
    3609:	04cd           	mov.n	a12, a4
    360b:	05dd           	mov.n	a13, a5
    360d:	07ed           	mov.n	a14, a7
    360f:	06fd           	mov.n	a15, a6
    3611:	0008e0        	callx8	a8
    3614:	380c           	movi.n	a8, 3
    3616:	0189           	s32i.n	a8, a1, 0
    3618:	f2fc81        	l32r	a8, 208 (34f0 <mixed_main_noise>)
    361b:	02ad           	mov.n	a10, a2
    361d:	03bd           	mov.n	a11, a3
    361f:	04cd           	mov.n	a12, a4
    3621:	05dd           	mov.n	a13, a5
    3623:	07ed           	mov.n	a14, a7
    3625:	06fd           	mov.n	a15, a6
    3627:	0008e0        	callx8	a8
    362a:	02ad           	mov.n	a10, a2
    362c:	f2f721        	l32r	a2, 208 (34f0 <mixed_main_noise>)
    362f:	480c           	movi.n	a8, 4
    3631:	03bd           	mov.n	a11, a3
    3633:	04cd           	mov.n	a12, a4
    3635:	05dd           	mov.n	a13, a5
    3637:	07ed           	mov.n	a14, a7
    3639:	06fd           	mov.n	a15, a6
    363b:	0189           	s32i.n	a8, a1, 0
    363d:	0002e0        	callx8	a2
    3640:	0a1084        	ae_zeroq56	aeq0
    3643:	14f6e6        	bgei	a6, 0x100, 365b <subband_comfort_noise+0x9b>
    3646:	1126f0        	slli	a2, a6, 1
    3649:	00a242        	movi	a4, 0x200
    364c:	c04420        	sub	a4, a4, a2
    364f:	a02230        	addx4	a2, a2, a3
    3652:	fcc222        	addi	a2, a2, -4
    3655:	028476        	loop	a4, 365b <subband_comfort_noise+0x9b>
    3658:	624214        	ae_sq32f.iu	aeq0, a2, 4

0000365b <subband_comfort_noise+0x9b>:
    365b:	f01d           	retw.n

0000365d <subband_comfort_noise+0x9d>:
    365d:	000000                                        ...

00003660 <get_ECNR_SVN>:
    3660:	004136        	entry	a1, 32
    3663:	4ca422        	movi	a2, 0x44c
    3666:	f01d           	retw.n

00003668 <get_aec_nr_memsize>:
    3668:	004136        	entry	a1, 32
    366b:	f2e821        	l32r	a2, 20c (9958 <two_mic_WB_NR_NSN_proc+0x5ec>)
    366e:	f01d           	retw.n

00003670 <get_txnr_pitch_last>:
    3670:	004136        	entry	a1, 32
    3673:	f29121        	l32r	a2, b8 (11254 <p_ecnr_mem>)
    3676:	f7a632        	movi	a3, 0x6f7
    3679:	b1a042        	movi	a4, 177
    367c:	0228           	l32i.n	a2, a2, 0
    367e:	1133d0        	slli	a3, a3, 3
    3681:	114490        	slli	a4, a4, 7
    3684:	1ad252        	addmi	a5, a2, 0x1a00
    3687:	321552        	l16ui	a5, a5, 100
    368a:	323a           	add.n	a3, a2, a3
    368c:	224a           	add.n	a2, a2, a4
    368e:	fec5e2        	addi	a14, a5, -2
    3691:	8323e0        	moveqz	a2, a3, a14
    3694:	0228           	l32i.n	a2, a2, 0
    3696:	0f0c           	movi.n	a15, 0
    3698:	622f20        	saltu	a2, a15, a2
    369b:	f01d           	retw.n

0000369d <get_txnr_pitch_last+0x2d>:
    369d:	000000                                        ...

000036a0 <sb_ana_init>:
    36a0:	004136        	entry	a1, 32
    36a3:	a24b           	addi.n	a10, a2, 4
    36a5:	02a9           	s32i.n	a10, a2, 0
    36a7:	f28821        	l32r	a2, c8 (e53c <xt_memset>)
    36aa:	0b0c           	movi.n	a11, 0
    36ac:	ec1c           	movi.n	a12, 30
    36ae:	0002e0        	callx8	a2
    36b1:	f01d           	retw.n

000036b3 <sb_ana_init+0x13>:
	...

000036b4 <sb_syn_init>:
    36b4:	004136        	entry	a1, 32
    36b7:	a24b           	addi.n	a10, a2, 4
    36b9:	02a9           	s32i.n	a10, a2, 0
    36bb:	f28321        	l32r	a2, c8 (e53c <xt_memset>)
    36be:	0b0c           	movi.n	a11, 0
    36c0:	cc3c           	movi.n	a12, 60
    36c2:	0002e0        	callx8	a2
    36c5:	f01d           	retw.n

000036c7 <sb_syn_init+0x13>:
	...

000036c8 <AVC_init>:
    36c8:	004136        	entry	a1, 32
    36cb:	f28031        	l32r	a3, cc (1125c <aec_nr_para>)
    36ce:	f47c           	movi.n	a4, -1
    36d0:	014410        	slli	a4, a4, 31
    36d3:	0338           	l32i.n	a3, a3, 0
    36d5:	050c           	movi.n	a5, 0
    36d7:	2259           	s32i.n	a5, a2, 8
    36d9:	1e13e2        	l16ui	a14, a3, 60
    36dc:	1f9362        	l16si	a6, a3, 62
    36df:	209332        	l16si	a3, a3, 64
    36e2:	11fe00        	slli	a15, a14, 16
    36e5:	4e4a           	add.n	a4, a14, a4
    36e7:	035232        	s16i	a3, a2, 6
    36ea:	c034f0        	sub	a3, a4, a15
    36ed:	025262        	s16i	a6, a2, 4
    36f0:	0239           	s32i.n	a3, a2, 0
    36f2:	f01d           	retw.n

000036f4 <HP_coef_setup>:
    36f4:	004136        	entry	a1, 32
    36f7:	f27641        	l32r	a4, d0 (e550 <xt_memcpy>)
    36fa:	4c0c           	movi.n	a12, 4
    36fc:	02ad           	mov.n	a10, a2
    36fe:	03bd           	mov.n	a11, a3
    3700:	0004e0        	callx8	a4
    3703:	a2cb           	addi.n	a10, a2, 12
    3705:	b38b           	addi.n	a11, a3, 8
    3707:	ac0c           	movi.n	a12, 10
    3709:	0004e0        	callx8	a4
    370c:	24c2a2        	addi	a10, a2, 36
    370f:	1cc3b2        	addi	a11, a3, 28
    3712:	8c0c           	movi.n	a12, 8
    3714:	0004e0        	callx8	a4
    3717:	1238           	l32i.n	a3, a2, 4
    3719:	72f8           	l32i.n	a15, a2, 28
    371b:	2239           	s32i.n	a3, a2, 8
    371d:	82f9           	s32i.n	a15, a2, 32
    371f:	f01d           	retw.n

00003721 <HP_coef_setup+0x2d>:
    3721:	000000                                        ...

00003724 <main_err_alpha>:
    3724:	004136        	entry	a1, 32
    3727:	f47c           	movi.n	a4, -1
    3729:	014410        	slli	a4, a4, 31
    372c:	f27051        	l32r	a5, ec (7fff0000 <_end+0x7ffdeda0>)
    372f:	0022e2        	l32i	a14, a2, 0
    3732:	032222        	l32i	a2, a2, 12
    3735:	116300        	slli	a6, a3, 16
    3738:	304340        	xor	a4, a3, a4
    373b:	c04460        	sub	a4, a4, a6
    373e:	935430        	movnez	a5, a4, a3
    3741:	0aa0f2        	movi	a15, 10
    3744:	fece32        	addi	a3, a14, -2
    3747:	308554        	ae_cvtp24a16x2.lh	aep0, a5, a5
    374a:	409204        	ae_lp16f.iu	aep1, a2, 0
    374d:	108f76        	loop	a15, 3761 <main_err_alpha+0x3d>
    3750:	e820acf31f 	{ ae_lp16f.iu	aep7, a3, 2; ae_mulfp24s.hh	aeq0, aep0, aep1 }
    3755:	010734        	ae_mulafp24s.ll	aeq0, aep0, aep7
    3758:	1b8f14        	ae_roundsp16q48asym	aep1, aeq0
    375b:	421304        	ae_sp16f.l.i	aep1, a3, 0
    375e:	409214        	ae_lp16f.iu	aep1, a2, 2

00003761 <main_err_alpha+0x3d>:
    3761:	f01d           	retw.n

00003763 <main_err_alpha+0x3f>:
	...

00003764 <tx_ref_vad_init>:
    3764:	004136        	entry	a1, 32
    3767:	f25841        	l32r	a4, c8 (e53c <xt_memset>)
    376a:	0b0c           	movi.n	a11, 0
    376c:	ec0c           	movi.n	a12, 14
    376e:	02ad           	mov.n	a10, a2
    3770:	0004e0        	callx8	a4
    3773:	03d3b2        	addmi	a11, a3, 0x300
    3776:	f25631        	l32r	a3, d0 (e550 <xt_memcpy>)
    3779:	7c0c           	movi.n	a12, 7
    377b:	02ad           	mov.n	a10, a2
    377d:	0003e0        	callx8	a3
    3780:	f01d           	retw.n

00003782 <tx_ref_vad_init+0x1e>:
	...

00003784 <Voice_WB_TX_Init>:
    3784:	006136        	entry	a1, 48
    3787:	f24c71        	l32r	a7, b8 (11254 <p_ecnr_mem>)
    378a:	02ad           	mov.n	a10, a2
    378c:	05bd           	mov.n	a11, a5
    378e:	0749           	s32i.n	a4, a7, 0
    3790:	f2a041        	l32r	a4, 210 (d308 <TX_ECNR_PARA_init>)
    3793:	06cd           	mov.n	a12, a6
    3795:	3139           	s32i.n	a3, a1, 12
    3797:	0004e0        	callx8	a4
    379a:	f24c31        	l32r	a3, cc (1125c <aec_nr_para>)
    379d:	0748           	l32i.n	a4, a7, 0
    379f:	fda252        	movi	a5, 0x2fd
    37a2:	0368           	l32i.n	a6, a3, 0
    37a4:	1155d0        	slli	a5, a5, 3
    37a7:	a45a           	add.n	a10, a4, a5
    37a9:	08a1f2        	movi	a15, 0x108
    37ac:	f29a41        	l32r	a4, 214 (36f4 <HP_coef_setup>)
    37af:	b6fa           	add.n	a11, a6, a15
    37b1:	0004e0        	callx8	a4
    37b4:	0748           	l32i.n	a4, a7, 0
    37b6:	15a652        	movi	a5, 0x615
    37b9:	1155e0        	slli	a5, a5, 2
    37bc:	a45a           	add.n	a10, a4, a5
    37be:	f24241        	l32r	a4, c8 (e53c <xt_memset>)
    37c1:	0b0c           	movi.n	a11, 0
    37c3:	8c0c           	movi.n	a12, 8
    37c5:	050c           	movi.n	a5, 0
    37c7:	0004e0        	callx8	a4
    37ca:	0768           	l32i.n	a6, a7, 0
    37cc:	19a682        	movi	a8, 0x619
    37cf:	1188e0        	slli	a8, a8, 2
    37d2:	a68a           	add.n	a10, a6, a8
    37d4:	0b0c           	movi.n	a11, 0
    37d6:	4c0c           	movi.n	a12, 4
    37d8:	0004e0        	callx8	a4
    37db:	0768           	l32i.n	a6, a7, 0
    37dd:	1ba682        	movi	a8, 0x61b
    37e0:	1188e0        	slli	a8, a8, 2
    37e3:	a68a           	add.n	a10, a6, a8
    37e5:	0b0c           	movi.n	a11, 0
    37e7:	f0a0c2        	movi	a12, 240
    37ea:	f0a062        	movi	a6, 240
    37ed:	0004e0        	callx8	a4
    37f0:	0788           	l32i.n	a8, a7, 0
    37f2:	c8a092        	movi	a9, 200
    37f5:	40d992        	addmi	a9, a9, 0x4000
    37f8:	40d8b2        	addmi	a11, a8, 0x4000
    37fb:	889a           	add.n	a8, a8, a9
    37fd:	a84b           	addi.n	a10, a8, 4
    37ff:	326ba2        	s32i	a10, a11, 200
    3802:	0b0c           	movi.n	a11, 0
    3804:	ec1c           	movi.n	a12, 30
    3806:	0004e0        	callx8	a4
    3809:	0788           	l32i.n	a8, a7, 0
    380b:	890c           	movi.n	a9, 8
    380d:	41d992        	addmi	a9, a9, 0x4100
    3810:	41d8b2        	addmi	a11, a8, 0x4100
    3813:	889a           	add.n	a8, a8, a9
    3815:	a84b           	addi.n	a10, a8, 4
    3817:	2ba9           	s32i.n	a10, a11, 8
    3819:	0b0c           	movi.n	a11, 0
    381b:	ec1c           	movi.n	a12, 30
    381d:	0004e0        	callx8	a4
    3820:	0788           	l32i.n	a8, a7, 0
    3822:	c8a092        	movi	a9, 200
    3825:	41d992        	addmi	a9, a9, 0x4100
    3828:	41d8b2        	addmi	a11, a8, 0x4100
    382b:	889a           	add.n	a8, a8, a9
    382d:	a84b           	addi.n	a10, a8, 4
    382f:	326ba2        	s32i	a10, a11, 200
    3832:	0b0c           	movi.n	a11, 0
    3834:	cc3c           	movi.n	a12, 60
    3836:	0004e0        	callx8	a4
    3839:	0388           	l32i.n	a8, a3, 0
    383b:	0798           	l32i.n	a9, a7, 0
    383d:	c8a0a2        	movi	a10, 200
    3840:	3398f2        	l16si	a15, a8, 102
    3843:	18d922        	addmi	a2, a9, 0x1800
    3846:	0e52f2        	s16i	a15, a2, 28
    3849:	3498f2        	l16si	a15, a8, 104
    384c:	0f52f2        	s16i	a15, a2, 30
    384f:	47a5f2        	movi	a15, 0x547
    3852:	112fd0        	slli	a2, a15, 3
    3855:	83a5f2        	movi	a15, 0x583
    3858:	11ffd0        	slli	a15, a15, 3
    385b:	0888           	l32i.n	a8, a8, 0
    385d:	292a           	add.n	a2, a9, a2
    385f:	f9fa           	add.n	a15, a9, a15
    3861:	1ad992        	addmi	a9, a9, 0x1a00
    3864:	256922        	s32i	a2, a9, 148
    3867:	b8a122        	movi	a2, 0x1b8
    386a:	282a           	add.n	a2, a8, a2
    386c:	18a1b2        	movi	a11, 0x118
    386f:	40a1c2        	movi	a12, 0x140
    3872:	68a1d2        	movi	a13, 0x168
    3875:	90a1e2        	movi	a14, 0x190
    3878:	2669f2        	s32i	a15, a9, 152
    387b:	e0a1f2        	movi	a15, 0x1e0
    387e:	246922        	s32i	a2, a9, 144
    3881:	f26521        	l32r	a2, 218 (2580 <SBAEC_INIT>)
    3884:	a8aa           	add.n	a10, a8, a10
    3886:	686a           	add.n	a6, a8, a6
    3888:	b8ba           	add.n	a11, a8, a11
    388a:	c8ca           	add.n	a12, a8, a12
    388c:	d8da           	add.n	a13, a8, a13
    388e:	e8ea           	add.n	a14, a8, a14
    3890:	f8fa           	add.n	a15, a8, a15
    3892:	78c882        	addi	a8, a8, 120
    3895:	1c6982        	s32i	a8, a9, 112
    3898:	1d69a2        	s32i	a10, a9, 116
    389b:	1e6962        	s32i	a6, a9, 120
    389e:	1f69b2        	s32i	a11, a9, 124
    38a1:	2069c2        	s32i	a12, a9, 128
    38a4:	2169d2        	s32i	a13, a9, 132
    38a7:	2269e2        	s32i	a14, a9, 136
    38aa:	2369f2        	s32i	a15, a9, 140
    38ad:	0002e0        	callx8	a2
    38b0:	f25b21        	l32r	a2, 21c (8e5c <WB_TX_NR_init>)
    38b3:	0002e0        	callx8	a2
    38b6:	0328           	l32i.n	a2, a3, 0
    38b8:	0768           	l32i.n	a6, a7, 0
    38ba:	fa7c           	movi.n	a10, -1
    38bc:	2092e2        	l16si	a14, a2, 64
    38bf:	1f92d2        	l16si	a13, a2, 62
    38c2:	1e1222        	l16ui	a2, a2, 60
    38c5:	f25681        	l32r	a8, 220 (11258 <avc_vol>)
    38c8:	190c           	movi.n	a9, 1
    38ca:	01aa10        	slli	a10, a10, 31
    38cd:	31d6f2        	addmi	a15, a6, 0x3100
    38d0:	4b5fe2        	s16i	a14, a15, 150
    38d3:	119930        	slli	a9, a9, 13
    38d6:	a2aa           	add.n	a10, a2, a10
    38d8:	112200        	slli	a2, a2, 16
    38db:	93a6e2        	movi	a14, 0x693
    38de:	689d           	ae_s16i.n	a9, a8, 0
    38e0:	31d6c2        	addmi	a12, a6, 0x3100
    38e3:	118ee0        	slli	a8, a14, 2
    38e6:	c02a20        	sub	a2, a10, a2
    38e9:	190c           	movi.n	a9, 1
    38eb:	1ad6b2        	addmi	a11, a6, 0x1a00
    38ee:	7f0c           	movi.n	a15, 7
    38f0:	266c52        	s32i	a5, a12, 152
    38f3:	345b92        	s16i	a9, a11, 104
    38f6:	4a5cd2        	s16i	a13, a12, 148
    38f9:	00a452        	movi	a5, 0x400
    38fc:	868a           	add.n	a8, a6, a8
    38fe:	246c22        	s32i	a2, a12, 144
    3901:	038f76        	loop	a15, 3908 <Voice_WB_TX_Init+0x184>
    3904:	685d           	ae_s16i.n	a5, a8, 0
    3906:	882b           	addi.n	a8, a8, 2

00003908 <Voice_WB_TX_Init+0x184>:
    3908:	07a622        	movi	a2, 0x607
    390b:	1122d0        	slli	a2, a2, 3
    390e:	a62a           	add.n	a10, a6, a2
    3910:	0b0c           	movi.n	a11, 0
    3912:	70a0c2        	movi	a12, 112
    3915:	0004e0        	callx8	a4
    3918:	0728           	l32i.n	a2, a7, 0
    391a:	23a652        	movi	a5, 0x623
    391d:	1155d0        	slli	a5, a5, 3
    3920:	a25a           	add.n	a10, a2, a5
    3922:	0b0c           	movi.n	a11, 0
    3924:	cc3c           	movi.n	a12, 60
    3926:	0004e0        	callx8	a4
    3929:	07a8           	l32i.n	a10, a7, 0
    392b:	854c           	movi.n	a5, 72
    392d:	41d552        	addmi	a5, a5, 0x4100
    3930:	1ada22        	addmi	a2, a10, 0x1a00
    3933:	321222        	l16ui	a2, a2, 100
    3936:	342266        	bnei	a2, 2, 396e <Voice_WB_TX_Init+0x1ea>
    3939:	03a8           	l32i.n	a10, a3, 0
    393b:	f23a21        	l32r	a2, 224 (6988 <TWO_MIC_WB_init>)
    393e:	0002e0        	callx8	a2
    3941:	0728           	l32i.n	a2, a7, 0
    3943:	0b0c           	movi.n	a11, 0
    3945:	ec1c           	movi.n	a12, 30
    3947:	41d262        	addmi	a6, a2, 0x4100
    394a:	225a           	add.n	a2, a2, a5
    394c:	a24b           	addi.n	a10, a2, 4
    394e:	1266a2        	s32i	a10, a6, 72
    3951:	0004e0        	callx8	a4
    3954:	0728           	l32i.n	a2, a7, 0
    3956:	454c           	movi.n	a5, 68
    3958:	42d552        	addmi	a5, a5, 0x4200
    395b:	42d262        	addmi	a6, a2, 0x4200
    395e:	225a           	add.n	a2, a2, a5
    3960:	a24b           	addi.n	a10, a2, 4
    3962:	0b0c           	movi.n	a11, 0
    3964:	cc3c           	movi.n	a12, 60
    3966:	1166a2        	s32i	a10, a6, 68
    3969:	0004e0        	callx8	a4
    396c:	07a8           	l32i.n	a10, a7, 0

0000396e <Voice_WB_TX_Init+0x1ea>:
    396e:	f22e21        	l32r	a2, 228 (8328 <FLASH_REF_GAIN_Preload>)
    3971:	31b8           	l32i.n	a11, a1, 12
    3973:	0002e0        	callx8	a2
    3976:	0728           	l32i.n	a2, a7, 0
    3978:	84a052        	movi	a5, 132
    397b:	74d552        	addmi	a5, a5, 0x7400
    397e:	225a           	add.n	a2, a2, a5
    3980:	0338           	l32i.n	a3, a3, 0
    3982:	0b0c           	movi.n	a11, 0
    3984:	ec0c           	movi.n	a12, 14
    3986:	02ad           	mov.n	a10, a2
    3988:	0004e0        	callx8	a4
    398b:	03d3b2        	addmi	a11, a3, 0x300
    398e:	f1d031        	l32r	a3, d0 (e550 <xt_memcpy>)
    3991:	7c0c           	movi.n	a12, 7
    3993:	02ad           	mov.n	a10, a2
    3995:	0003e0        	callx8	a3
    3998:	f01d           	retw.n

0000399a <Voice_WB_TX_Init+0x216>:
	...

0000399c <mic240_delay>:
    399c:	004136        	entry	a1, 32
    399f:	f1cc61        	l32r	a6, d0 (e550 <xt_memcpy>)
    39a2:	02ad           	mov.n	a10, a2
    39a4:	04bd           	mov.n	a11, a4
    39a6:	05cd           	mov.n	a12, a5
    39a8:	0006e0        	callx8	a6
    39ab:	f0a072        	movi	a7, 240
    39ae:	90a520        	addx2	a10, a5, a2
    39b1:	c0c750        	sub	a12, a7, a5
    39b4:	03bd           	mov.n	a11, a3
    39b6:	1125f0        	slli	a2, a5, 1
    39b9:	0006e0        	callx8	a6
    39bc:	c02320        	sub	a2, a3, a2
    39bf:	e0a1f2        	movi	a15, 0x1e0
    39c2:	b2fa           	add.n	a11, a2, a15
    39c4:	04ad           	mov.n	a10, a4
    39c6:	05cd           	mov.n	a12, a5
    39c8:	0006e0        	callx8	a6
    39cb:	f01d           	retw.n

000039cd <mic240_delay+0x31>:
    39cd:	000000                                        ...

000039d0 <tx_downsample_by2>:
    39d0:	004136        	entry	a1, 32
    39d3:	f21671        	l32r	a7, 22c (10b40 <wb_r01>)
    39d6:	14a082        	movi	a8, 20
    39d9:	fec222        	addi	a2, a2, -2
    39dc:	fec332        	addi	a3, a3, -2
    39df:	600604        	ae_lq32f.i	aeq0, a6, 0
    39e2:	440404        	ae_lp16x2f.i	aep0, a4, 0
    39e5:	948876        	loop	a8, 3a7d <tx_downsample_by2+0xad>
    39e8:	e2002f150f 	{ ae_lp24x2f.i	aep1, a5, 0; ae_mulaafp24s.hh.ll	aeq0, aep0, aep0 }
    39ed:	fd242c340f 	{ ae_lp16f.i	aep3, a4, 0; ae_cvtq48p24s.h	aeq1, aep1 }
    39f2:	de2cb1273f 	{ ae_lp24.i	aep2, a7, 12; ae_selp24.hl	aep4, aep3, aep1 }
    39f7:	e88874350f 	{ ae_sp24f.l.i	aep3, a5, 0; ae_mulasfp24s.hh.ll	aeq1, aep2, aep4 }
    39fc:	ff2c2f251f 	{ ae_lp24x2f.i	aep2, a5, 8; ae_cvtq48p24s.l	aeq3, aep1 }
    3a01:	fa6ff1674f 	{ ae_lp24.i	aep6, a7, 16; ae_roundsp24q48asym	aep5, aeq1 }
    3a06:	df55f4551f 	{ ae_sp24f.l.i	aep5, a5, 4; ae_selp24.lh	aep7, aep5, aep2 }
    3a0b:	e9f871375f 	{ ae_lp24.i	aep3, a7, 20; ae_mulasfp24s.hh.ll	aeq3, aep6, aep7 }
    3a10:	fe442c441f 	{ ae_lp16f.i	aep4, a4, 2; ae_cvtq48p24s.h	aeq2, aep2 }
    3a15:	f87fed841f 	{ ae_lp16x2f.iu	aep0, a4, 4; ae_roundsp24q48asym	aep1, aeq3 }
    3a1a:	dd4634152f 	{ ae_sp24f.l.i	aep1, a5, 8; ae_selp24.ll	aep2, aep1, aep2 }
    3a1f:	05b244        	ae_mulasfp24s.hh.ll	aeq2, aep3, aep2
    3a22:	1bad14        	ae_roundsp24q48asym	aep1, aeq2
    3a25:	521534        	ae_sp24f.l.i	aep1, a5, 12
    3a28:	5c6524        	ae_lp24x2f.i	aep6, a5, 16
    3a2b:	ffc431770f 	{ ae_lp24.i	aep7, a7, 0; ae_cvtq48p24s.h	aeq3, aep6 }
    3a30:	ded0f4454f 	{ ae_sp24f.l.i	aep4, a5, 16; ae_selp24.hl	aep5, aep4, aep6 }
    3a35:	e9bc6f253f 	{ ae_lp24x2f.i	aep2, a5, 24; ae_mulasfp24s.hh.ll	aeq3, aep7, aep5 }
    3a3a:	fecc31671f 	{ ae_lp24.i	aep6, a7, 4; ae_cvtq48p24s.l	aeq2, aep6 }
    3a3f:	fa7fbf18df 	{ ae_movap24s.l	a8, aep1; ae_roundsp24q48asym	aep4, aeq3 }
    3a44:	df51f4455f 	{ ae_sp24f.l.i	aep4, a5, 20; ae_selp24.lh	aep7, aep4, aep2 }
    3a49:	e9f831472f 	{ ae_lp24.i	aep4, a7, 8; ae_mulasfp24s.hh.ll	aeq2, aep6, aep7 }
    3a4e:	0aca84        	ae_cvtq48p24s.h	aeq3, aep2
    3a51:	1bad34        	ae_roundsp24q48asym	aep3, aeq2
    3a54:	dd4e34356f 	{ ae_sp24f.l.i	aep3, a5, 24; ae_selp24.ll	aep2, aep3, aep2 }
    3a59:	05ca44        	ae_mulasfp24s.hh.ll	aeq3, aep4, aep2
    3a5c:	1bbd54        	ae_roundsp24q48asym	aep5, aeq3
    3a5f:	34d904        	ae_movap24s.l	a9, aep5
    3a62:	a98a           	add.n	a10, a9, a8
    3a64:	c08980        	sub	a8, a9, a8
    3a67:	41f1a0        	srli	a15, a10, 1
    3a6a:	418180        	srli	a8, a8, 1
    3a6d:	39ef84        	ae_movpa24x2	aep6, a15, a8
    3a70:	f9fab4557f 	{ ae_sp24f.l.i	aep5, a5, 28; ae_roundsp16asym	aep2, aep6 }
    3a75:	df4972a31f 	{ ae_sp16f.l.iu	aep2, a3, 2; ae_selp24.hh	aep7, aep2, aep2 }
    3a7a:	42f214        	ae_sp16f.l.iu	aep7, a2, 2

00003a7d <tx_downsample_by2+0xad>:
    3a7d:	060934        	ae_roundsq32asym	aeq0, aeq0
    3a80:	620604        	ae_sq32f.i	aeq0, a6, 0
    3a83:	f01d           	retw.n

00003a85 <tx_downsample_by2+0xb5>:
    3a85:	000000                                        ...

00003a88 <tx_upsample_by2>:
    3a88:	006136        	entry	a1, 48
    3a8b:	f1e891        	l32r	a9, 22c (10b40 <wb_r01>)
    3a8e:	4a1c           	movi.n	a10, 20
    3a90:	71eb           	addi.n	a7, a1, 14
    3a92:	81cb           	addi.n	a8, a1, 12
    3a94:	fcc442        	addi	a4, a4, -4
    3a97:	600604        	ae_lq32f.i	aeq0, a6, 0
    3a9a:	401204        	ae_lp16f.i	aep1, a2, 0
    3a9d:	402304        	ae_lp16f.i	aep2, a3, 0
    3aa0:	8f8a76        	loop	a10, 3b33 <tx_upsample_by2+0xab>
    3aa3:	dd46ef050f 	{ ae_lp24x2f.i	aep0, a5, 0; ae_subsp24s	aep3, aep1, aep2 }
    3aa8:	fd0432381f 	{ ae_sp16f.l.i	aep3, a8, 2; ae_cvtq48p24s.h	aeq1, aep0 }
    3aad:	ff0c2c370f 	{ ae_lp16f.i	aep3, a7, 0; ae_cvtq48p24s.l	aeq3, aep0 }
    3ab2:	de0cf1490f 	{ ae_lp24.i	aep4, a9, 0; ae_selp24.hl	aep5, aep3, aep0 }
    3ab7:	e8b074350f 	{ ae_sp24f.l.i	aep3, a5, 0; ae_mulasfp24s.hh.ll	aeq1, aep4, aep5 }
    3abc:	d8452f351f 	{ ae_lp24x2f.i	aep3, a5, 8; ae_addsp24s	aep0, aep1, aep2 }
    3ac1:	fa6fb1691f 	{ ae_lp24.i	aep6, a9, 4; ae_roundsp24q48asym	aep4, aeq1 }
    3ac6:	df71f4451f 	{ ae_sp24f.l.i	aep4, a5, 4; ae_selp24.lh	aep7, aep4, aep3 }
    3acb:	e9f871592f 	{ ae_lp24.i	aep5, a9, 8; ae_mulasfp24s.hh.ll	aeq3, aep6, aep7 }
    3ad0:	fe6432080f 	{ ae_sp16f.l.i	aep0, a8, 0; ae_cvtq48p24s.h	aeq2, aep3 }
    3ad5:	fa7fac680f 	{ ae_lp16f.i	aep6, a8, 0; ae_roundsp24q48asym	aep4, aeq3 }
    3ada:	dd7274452f 	{ ae_sp24f.l.i	aep4, a5, 8; ae_selp24.ll	aep3, aep4, aep3 }
    3adf:	05d344        	ae_mulasfp24s.hh.ll	aeq2, aep5, aep3
    3ae2:	1bad24        	ae_roundsp24q48asym	aep2, aeq2
    3ae5:	e203b4253f 	{ ae_sp24f.l.i	aep2, a5, 12; ae_mulafp24s.ll	aeq0, aep0, aep0 }
    3aea:	5c1524        	ae_lp24x2f.i	aep1, a5, 16
    3aed:	ff2431493f 	{ ae_lp24.i	aep4, a9, 12; ae_cvtq48p24s.h	aeq3, aep1 }
    3af2:	df38f4654f 	{ ae_sp24f.l.i	aep6, a5, 16; ae_selp24.hl	aep7, aep6, aep1 }
    3af7:	e9f06f353f 	{ ae_lp24x2f.i	aep3, a5, 24; ae_mulasfp24s.hh.ll	aeq3, aep4, aep7 }
    3afc:	fe2c31694f 	{ ae_lp24.i	aep6, a9, 16; ae_cvtq48p24s.l	aeq2, aep1 }
    3b01:	fa7fbf2adf 	{ ae_movap24s.l	a10, aep2; ae_roundsp24q48asym	aep4, aeq3 }
    3b06:	df71f4455f 	{ ae_sp24f.l.i	aep4, a5, 20; ae_selp24.lh	aep7, aep4, aep3 }
    3b0b:	e9f831795f 	{ ae_lp24.i	aep7, a9, 20; ae_mulasfp24s.hh.ll	aeq2, aep6, aep7 }
    3b10:	ff642c921f 	{ ae_lp16f.iu	aep1, a2, 2; ae_cvtq48p24s.h	aeq3, aep3 }
    3b15:	fb77aca31f 	{ ae_lp16f.iu	aep2, a3, 2; ae_roundsp24q48asym	aep6, aeq2 }
    3b1a:	dd7a74656f 	{ ae_sp24f.l.i	aep6, a5, 24; ae_selp24.ll	aep3, aep6, aep3 }
    3b1f:	05fb44        	ae_mulasfp24s.hh.ll	aeq3, aep7, aep3
    3b22:	1bbd64        	ae_roundsp24q48asym	aep6, aeq3
    3b25:	34eb04        	ae_movap24s.l	a11, aep6
    3b28:	39fab4        	ae_movpa24x2	aep7, a10, a11
    3b2b:	f9fef4657f 	{ ae_sp24f.l.i	aep6, a5, 28; ae_roundsp16asym	aep3, aep7 }
    3b30:	46b414        	ae_sp16x2f.iu	aep3, a4, 4

00003b33 <tx_upsample_by2+0xab>:
    3b33:	060934        	ae_roundsq32asym	aeq0, aeq0
    3b36:	620604        	ae_sq32f.i	aeq0, a6, 0
    3b39:	f01d           	retw.n

00003b3b <tx_upsample_by2+0xb3>:
	...

00003b3c <emph_filter_N>:
    3b3c:	004136        	entry	a1, 32
    3b3f:	440404        	ae_lp16x2f.i	aep0, a4, 0
    3b42:	3725a6        	blti	a5, 2, 3b7d <emph_filter_N+0x41>
    3b45:	651b           	addi.n	a6, a5, 1
    3b47:	b36550        	movgez	a6, a5, a5
    3b4a:	215160        	srai	a5, a6, 1
    3b4d:	441304        	ae_lp16x2f.i	aep1, a3, 0
    3b50:	fec232        	addi	a3, a2, -2
    3b53:	fcc222        	addi	a2, a2, -4
    3b56:	238576        	loop	a5, 3b7d <emph_filter_N+0x41>
    3b59:	44a214        	ae_lp16x2f.iu	aep2, a2, 4
    3b5c:	fc443e20cf 	{ ae_selp24.hh	aep3, aep2, aep0; ae_cvtq48p24s.h	aeq0, aep2 }
    3b61:	0a4284        	ae_cvtq48p24s.l	aeq1, aep2
    3b64:	011004        	ae_mulafp24s.hh	aeq0, aep1, aep0
    3b67:	011a04        	ae_mulafp24s.hh	aeq1, aep1, aep2
    3b6a:	051004        	ae_mulaafp24s.hh.ll	aeq0, aep1, aep0
    3b6d:	051b04        	ae_mulaafp24s.hh.ll	aeq1, aep1, aep3
    3b70:	1b8f04        	ae_roundsp16q48asym	aep0, aeq0
    3b73:	f96bf2831f 	{ ae_sp16f.l.iu	aep0, a3, 2; ae_roundsp16q48asym	aep3, aeq1 }
    3b78:	dc49b2b31f 	{ ae_sp16f.l.iu	aep3, a3, 2; ae_selp24.lh	aep0, aep2, aep2 }

00003b7d <emph_filter_N+0x41>:
    3b7d:	460404        	ae_sp16x2f.i	aep0, a4, 0
    3b80:	f01d           	retw.n

00003b82 <emph_filter_N+0x46>:
	...

00003b84 <deemph_filter_N>:
    3b84:	004136        	entry	a1, 32
    3b87:	600404        	ae_lq32f.i	aeq0, a4, 0
    3b8a:	604414        	ae_lq32f.i	aeq1, a4, 4
    3b8d:	2e15a6        	blti	a5, 1, 3bbf <deemph_filter_N+0x3b>
    3b90:	f195f1        	l32r	a15, 1e4 (10930 <immediate_num>)
    3b93:	ff0c6d030f 	{ ae_lp16x2f.i	aep0, a3, 0; ae_movq56	aeq3, aeq1 }
    3b98:	99002c120f 	{ ae_lp16f.i	aep1, a2, 0; ae_mulzssfq32sp16s.hh	aeq2, aeq0, aep0, aeq0, aep0 }
    3b9d:	30cf32        	addi	a3, a15, 48
    3ba0:	442304        	ae_lp16x2f.i	aep2, a3, 0
    3ba3:	f03d           	nop.n
    3ba5:	168576        	loop	a5, 3bbf <deemph_filter_N+0x3b>
    3ba8:	fb81bf017f 	{ ae_movq56	aeq1, aeq0; ae_mulsfq32sp16s.l	aeq2, aeq3, aep0 }
    3bad:	f1462c921f 	{ ae_lp16f.iu	aep1, a2, 2; ae_mulssfp24s.hh.ll	aeq2, aep1, aep2 }
    3bb2:	fc347f11ff 	{ ae_movq56	aeq3, aeq1; ae_roundsq32asym	aeq0, aeq2 }
    3bb7:	1b8f34        	ae_roundsp16q48asym	aep3, aeq0
    3bba:	99003232ff 	{ ae_sp16f.l.i	aep3, a2, -2; ae_mulzssfq32sp16s.hh	aeq2, aeq0, aep0, aeq0, aep0 }

00003bbf <deemph_filter_N+0x3b>:
    3bbf:	620404        	ae_sq32f.i	aeq0, a4, 0
    3bc2:	621414        	ae_sq32f.i	aeq1, a4, 4
    3bc5:	f01d           	retw.n

00003bc7 <deemph_filter_N+0x43>:
	...

00003bc8 <analy_3band>:
    3bc8:	004136        	entry	a1, 32
    3bcb:	f199b1        	l32r	a11, 230 (10b60 <sb_g10>)
    3bce:	f199c1        	l32r	a12, 234 (10ba0 <sb_h2ir>)
    3bd1:	a34b           	addi.n	a10, a3, 4
    3bd3:	f3f6a0        	wur.ae_cbegin0	a10
    3bd6:	03a8           	l32i.n	a10, a3, 0
    3bd8:	40c3f2        	addi	a15, a3, 64
    3bdb:	a70c           	movi.n	a7, 10
    3bdd:	480c           	movi.n	a8, 4
    3bdf:	790c           	movi.n	a9, 7
    3be1:	f3f7f0        	wur.ae_cend0	a15
    3be4:	fe248fc44e 	{ addi	a4, a4, -4; ae_zeroq56	aeq2 }
    3be9:	fec552        	addi	a5, a5, -2
    3bec:	fec662        	addi	a6, a6, -2
    3bef:	fccbb2        	addi	a11, a11, -4
    3bf2:	fcccc2        	addi	a12, a12, -4
    3bf5:	fcc222        	addi	a2, a2, -4

00003bf8 <analy_3band+0x30>:
    3bf8:	448214        	ae_lp16x2f.iu	aep0, a2, 4
    3bfb:	fc14640a8f 	{ ae_sp16x2f.c	aep0, a10, a8; ae_movq56	aeq0, aeq2 }
    3c00:	0bdd           	mov.n	a13, a11
    3c02:	20ecc0        	or	a14, a12, a12
    3c05:	fc24da8a8f 	{ ae_lp16x2f.c	aep0, a10, a8; nop }
    3c0a:	449d14        	ae_lp16x2f.iu	aep1, a13, 4
    3c0d:	ea05edfe1f 	{ ae_lp16x2f.iu	aep7, a14, 4; ae_mulfp24s.ll	aeq1, aep1, aep0 }
    3c12:	01f874        	ae_mulfp24s.ll	aeq3, aep7, aep0
    3c15:	278976        	loop	a9, 3c40 <analy_3band+0x78>
    3c18:	fc24da8a8f 	{ ae_lp16x2f.c	aep0, a10, a8; nop }
    3c1d:	449d14        	ae_lp16x2f.iu	aep1, a13, 4
    3c20:	e2062dae1f 	{ ae_lp16x2f.iu	aep2, a14, 4; ae_mulafp24s.hh	aeq0, aep1, aep0 }
    3c25:	e207daea8f 	{ ae_lp16x2f.c	aep6, a10, a8; ae_mulafp24s.ll	aeq1, aep1, aep0 }
    3c2a:	e30a2dbd1f 	{ ae_lp16x2f.iu	aep3, a13, 4; ae_mulafp24s.hh	aeq2, aep2, aep0 }
    3c2f:	e30bedfe1f 	{ ae_lp16x2f.iu	aep7, a14, 4; ae_mulafp24s.ll	aeq3, aep2, aep0 }
    3c34:	013604        	ae_mulafp24s.hh	aeq0, aep3, aep6
    3c37:	013e34        	ae_mulafp24s.ll	aeq1, aep3, aep6
    3c3a:	01f604        	ae_mulafp24s.hh	aeq2, aep7, aep6
    3c3d:	01fe34        	ae_mulafp24s.ll	aeq3, aep7, aep6

