
Build/lib/pisplit_ec_rxnr_position_independent.splitload.lib:     file format elf32-xtensa-le


Disassembly of section .text:

00000000 <_init-0x2d4>:
       0:	00000320 00006bd0 000075fc 00000000      ....k...u......
      10:	000075cc 00000000 000075e4 00006c04     .u.......u...l..
      20:	00008688 00008680 00000338 00000514     ........8.......
      30:	00007890 00007900 00008684 00007654     .x...y......Tv..
      40:	000013b0 0000766d 00001440 00007681     ....mv..@....v..
      50:	000032cc 00007695 00003164 000076ad     .2...v..d1...v..
      60:	000033bc 000076c8 00003938 000076dc     .3...v..89...v..
      70:	00003304 000076f3 000036b0 00007707     .3...v...6...w..
      80:	00003360 0000771e 000013bc 0000773d     `3...w......=w..
      90:	000016a0 00007757 000032e8 00007771     ....Ww...2..qw..
      a0:	00003418 00007792 000013a8 000077a5     .4...w.......w..
      b0:	00003440 000077c3 00003490 000077e5     @4...w...4...w..
      c0:	000034a0 00007610 00006bf0 00300040     .4...v...k..@.0.
      d0:	00200018 00c00100 00600040 00155555     .. .....@.`.UU..
      e0:	00000aac 00000a90 002aaa00 00007800     ..........*..x..
      f0:	00004738 00004630 00000b34 00000b9c     8G..0F..4.......
     100:	00000c34 00000cd8 01507660 00000380     4.......`vP.....
     110:	000013f0 00000698 00003a0c 00005254     .........:..TR..
     120:	00003a2c 0000dfff 00000990 7fff0000     ,:..............
     130:	00007a10 00007a30 00007a70 00007ab0     .z..0z..pz...z..
     140:	0000056c 000005b0 00001dc4 00001804     l...............
     150:	00001b60 00007f00 7f800080 78000800     `..............x
     160:	00017fff 7c000400 000019a4 00001838     .......|....8...
     170:	00001a30 00000d84 00001060 00001c00     0.......`.......
     180:	00005590 00005814 00005ae0 0000595c     .U...X...Z..\Y..
     190:	00005ec0 00006028 00006300 00006448     .^..(`...c..Hd..
     1a0:	00001ad4 000018f0 000019ec 0006ffff     ................
     1b0:	00005d70 00003a48 00001318 0000135c     p]..H:......\...
     1c0:	00006a8c 00006954 4ec4ec4f 00001eb8     .j..Ti..O..N....
     1d0:	00003978 000036f4 00006778 00006764     x9...6..xg..dg..
     1e0:	00006740 00007f40 ffe9ffe9 00007bd0     @g..@........{..
     1f0:	0000ee09 000067d4 000003ec 000034dc     .....g.......4..
     200:	00003744 00003cb0 00003e04 00003f20     D7...<...>.. ?..
     210:	00004098 000041bc 00004278 00004504     .@...A..xB...E..
     220:	00007df0 00003788 000039c8 00003c40     .}...7...9..@<..
     230:	00035e51 00008160 000050a4 00003c68     Q^..`....P..h<..
     240:	00007b90 00007bc0 00007870 00003bd8     .{...{..px...;..
     250:	000e38e4 00007b70 00124925 00007bb0     .8..p{..%I...{..
     260:	80000001 00004a98 00008560 000047f4     .....J..`....G..
     270:	00004758 00004ac8 00004d1c 00004d44     XG...J...M..DM..
     280:	00004d70 00004dc0 00004d98 00004e24     pM...M...M..$N..
     290:	00004dfc 00005070 00005004 0d330000     .M..pP...P....3.
     2a0:	0e390000 000ccccc 00393e4b 00175e97     ..9.....K>9..^..
     2b0:	00005178 0000552c c0010000 3fff0000     xQ..,U.........?
     2c0:	00008660 00000468 000069bc 000075d4     `...h....i...u..
     2d0:	000002ec                                ....

000002d4 <_init>:
     2d4:	008136        	entry	a1, 64
     2d7:	ff4a81        	l32r	a8, 0 (320 <frame_dummy>)
     2da:	f03d           	nop.n
     2dc:	0008e0        	callx8	a8
     2df:	ff4981        	l32r	a8, 4 (6bd0 <__do_global_ctors_aux>)
     2e2:	f03d           	nop.n
     2e4:	0008e0        	callx8	a8
     2e7:	f01d           	retw.n

000002e9 <_init+0x15>:
     2e9:	000000                                        ...

000002ec <__do_global_dtors_aux>:
     2ec:	004136        	entry	a1, 32
     2ef:	ff4621        	l32r	a2, 8 (75fc <__do_global_dtors_aux.completed>)
     2f2:	000232        	l8ui	a3, a2, 0
     2f5:	23ec           	bnez.n	a3, 31b <__do_global_dtors_aux+0x2f>

000002f7 <__do_global_dtors_aux+0xb>:
     2f7:	1248           	l32i.n	a4, a2, 4
     2f9:	0438           	l32i.n	a3, a4, 0
     2fb:	444b           	addi.n	a4, a4, 4
     2fd:	738c           	beqz.n	a3, 308 <__do_global_dtors_aux+0x1c>
     2ff:	1249           	s32i.n	a4, a2, 4
     301:	0003e0        	callx8	a3
     304:	fffbc6        	j	2f7 <__do_global_dtors_aux+0xb>

00000307 <__do_global_dtors_aux+0x1b>:
	...

00000308 <__do_global_dtors_aux+0x1c>:
     308:	ff4131        	l32r	a3, c (0 <_text_start>)
     30b:	ff41a1        	l32r	a10, 10 (75cc <__FRAME_END__>)
     30e:	438c           	beqz.n	a3, 316 <__do_global_dtors_aux+0x2a>
     310:	ff3f81        	l32r	a8, c (0 <_text_start>)
     313:	0008e0        	callx8	a8
     316:	130c           	movi.n	a3, 1
     318:	004232        	s8i	a3, a2, 0
     31b:	f01d           	retw.n

0000031d <__do_global_dtors_aux+0x31>:
     31d:	000000                                        ...

00000320 <frame_dummy>:
     320:	004136        	entry	a1, 32
     323:	ff3c21        	l32r	a2, 14 (0 <_text_start>)
     326:	ff3aa1        	l32r	a10, 10 (75cc <__FRAME_END__>)
     329:	ff3bb1        	l32r	a11, 18 (75e4 <frame_dummy.object>)
     32c:	428c           	beqz.n	a2, 334 <frame_dummy+0x14>
     32e:	ff3981        	l32r	a8, 14 (0 <_text_start>)
     331:	0008e0        	callx8	a8

00000334 <frame_dummy+0x14>:
     334:	f01d           	retw.n

00000336 <frame_dummy+0x16>:
	...

00000338 <common_ECNR_PARA_init_v2>:
     338:	004136        	entry	a1, 32
     33b:	ff3841        	l32r	a4, 1c (6c04 <xt_memcpy>)
     33e:	b32b           	addi.n	a11, a3, 2
     340:	a28b           	addi.n	a10, a2, 8
     342:	79a0c2        	movi	a12, 121
     345:	0004e0        	callx8	a4
     348:	fca052        	movi	a5, 252
     34b:	f4a062        	movi	a6, 244
     34e:	a25a           	add.n	a10, a2, a5
     350:	b36a           	add.n	a11, a3, a6
     352:	5c0c           	movi.n	a12, 5
     354:	0004e0        	callx8	a4
     357:	08a152        	movi	a5, 0x108
     35a:	fea062        	movi	a6, 254
     35d:	a25a           	add.n	a10, a2, a5
     35f:	b36a           	add.n	a11, a3, a6
     361:	d7a0c2        	movi	a12, 215
     364:	0004e0        	callx8	a4
     367:	b8a252        	movi	a5, 0x2b8
     36a:	aca262        	movi	a6, 0x2ac
     36d:	a25a           	add.n	a10, a2, a5
     36f:	b36a           	add.n	a11, a3, a6
     371:	6c3c           	movi.n	a12, 54
     373:	0004e0        	callx8	a4
     376:	ff2a31        	l32r	a3, 20 (8688 <p_ecnr_mem>)
     379:	0338           	l32i.n	a3, a3, 0
     37b:	0239           	s32i.n	a3, a2, 0
     37d:	f01d           	retw.n

0000037f <common_ECNR_PARA_init_v2+0x47>:
	...

00000380 <TX_ECNR_PARA_init>:
     380:	004136        	entry	a1, 32
     383:	ff2741        	l32r	a4, 20 (8688 <p_ecnr_mem>)
     386:	ff2751        	l32r	a5, 24 (8680 <aec_nr_para>)
     389:	ff2761        	l32r	a6, 28 (338 <common_ECNR_PARA_init_v2>)
     38c:	04a8           	l32i.n	a10, a4, 0
     38e:	03bd           	mov.n	a11, a3
     390:	05a9           	s32i.n	a10, a5, 0
     392:	0006e0        	callx8	a6
     395:	0568           	l32i.n	a6, a5, 0
     397:	0478           	l32i.n	a7, a4, 0
     399:	04a182        	movi	a8, 0x104
     39c:	02a192        	movi	a9, 0x102
     39f:	91a4d2        	movi	a13, 0x491
     3a2:	939820        	movnez	a9, a8, a2
     3a5:	0496a2        	l16si	a10, a6, 8
     3a8:	12d7b2        	addmi	a11, a7, 0x1200
     3ab:	2196c2        	l16si	a12, a6, 66
     3ae:	112de0        	slli	a2, a13, 2
     3b1:	2a5ba2        	s16i	a10, a11, 84
     3b4:	2b5bc2        	s16i	a12, a11, 86
     3b7:	baa1e2        	movi	a14, 0x1ba
     3ba:	969a           	add.n	a9, a6, a9
     3bc:	a72a           	add.n	a10, a7, a2
     3be:	ff1721        	l32r	a2, 1c (6c04 <xt_memcpy>)
     3c1:	29fd           	ae_l16si.n	a15, a9, 0
     3c3:	b6ea           	add.n	a11, a6, a14
     3c5:	4c0c           	movi.n	a12, 4
     3c7:	0256f2        	s16i	a15, a6, 4
     3ca:	0002e0        	callx8	a2
     3cd:	0448           	l32i.n	a4, a4, 0
     3cf:	0558           	l32i.n	a5, a5, 0
     3d1:	32a362        	movi	a6, 0x332
     3d4:	24a3e2        	movi	a14, 0x324
     3d7:	b36a           	add.n	a11, a3, a6
     3d9:	a5ea           	add.n	a10, a5, a14
     3db:	1c1c           	movi.n	a12, 17
     3dd:	db95f2        	l16si	a15, a5, 0x1b6
     3e0:	46d442        	addmi	a4, a4, 0x4600
     3e3:	5354f2        	s16i	a15, a4, 166
     3e6:	0002e0        	callx8	a2
     3e9:	f01d           	retw.n

000003eb <TX_ECNR_PARA_init+0x6b>:
	...

000003ec <RX_ECNR_PARA_init>:
     3ec:	004136        	entry	a1, 32
     3ef:	ff0c51        	l32r	a5, 20 (8688 <p_ecnr_mem>)
     3f2:	ff0c61        	l32r	a6, 24 (8680 <aec_nr_para>)
     3f5:	ff0c71        	l32r	a7, 28 (338 <common_ECNR_PARA_init_v2>)
     3f8:	05a8           	l32i.n	a10, a5, 0
     3fa:	03bd           	mov.n	a11, a3
     3fc:	06a9           	s32i.n	a10, a6, 0
     3fe:	0007e0        	callx8	a7
     401:	0638           	l32i.n	a3, a6, 0
     403:	46a372        	movi	a7, 0x346
     406:	b42b           	addi.n	a11, a4, 2
     408:	a37a           	add.n	a10, a3, a7
     40a:	12ac           	beqz.n	a2, 42f <RX_ECNR_PARA_init+0x43>
     40c:	ff0421        	l32r	a2, 1c (6c04 <xt_memcpy>)
     40f:	80a0c2        	movi	a12, 128
     412:	0002e0        	callx8	a2
     415:	0628           	l32i.n	a2, a6, 0
     417:	46a442        	movi	a4, 0x446
     41a:	130c           	movi.n	a3, 1
     41c:	80a0f2        	movi	a15, 128
     41f:	113340        	slli	a3, a3, 12
     422:	804240        	add	a4, a2, a4
     425:	038f76        	loop	a15, 42c <RX_ECNR_PARA_init+0x40>
     428:	643d           	ae_s16i.n	a3, a4, 0
     42a:	442b           	addi.n	a4, a4, 2

0000042c <RX_ECNR_PARA_init+0x40>:
     42c:	000286        	j	43a <RX_ECNR_PARA_init+0x4e>

0000042f <RX_ECNR_PARA_init+0x43>:
     42f:	fefb21        	l32r	a2, 1c (6c04 <xt_memcpy>)
     432:	00a1c2        	movi	a12, 0x100
     435:	0002e0        	callx8	a2
     438:	0628           	l32i.n	a2, a6, 0
     43a:	da9222        	l16si	a2, a2, 0x1b4
     43d:	0538           	l32i.n	a3, a5, 0
     43f:	220b           	addi.n	a2, a2, -1
     441:	46d332        	addmi	a3, a3, 0x4600
     444:	525322        	s16i	a2, a3, 164
     447:	f01d           	retw.n

00000449 <RX_ECNR_PARA_init+0x5d>:
     449:	000000                                        ...

0000044c <EQ_update>:
     44c:	004136        	entry	a1, 32
     44f:	fef441        	l32r	a4, 20 (8688 <p_ecnr_mem>)
     452:	452c           	movi.n	a5, 36
     454:	46d552        	addmi	a5, a5, 0x4600
     457:	0429           	s32i.n	a2, a4, 0
     459:	a25a           	add.n	a10, a2, a5
     45b:	fef021        	l32r	a2, 1c (6c04 <xt_memcpy>)
     45e:	2c0c           	movi.n	a12, 2
     460:	03bd           	mov.n	a11, a3
     462:	0002e0        	callx8	a2
     465:	f01d           	retw.n

00000467 <EQ_update+0x1b>:
	...

00000468 <comfort_noise_gen_wb2>:
     468:	008136        	entry	a1, 64
     46b:	fc24b3a2fe 	{ l32i	a15, a2, 232; ae_zeroq56	aeq0 }
     470:	2f0262        	l8ui	a6, a2, 47
     473:	6f9252        	l16si	a5, a2, 222
     476:	fccf42        	addi	a4, a15, -4
     479:	624414        	ae_sq32f.iu	aeq0, a4, 4
     47c:	624414        	ae_sq32f.iu	aeq0, a4, 4
     47f:	139292        	l16si	a9, a2, 38
     482:	624414        	ae_sq32f.iu	aeq0, a4, 4
     485:	402232        	l32i	a3, a2, 0x100
     488:	624414        	ae_sq32f.iu	aeq0, a4, 4
     48b:	4139           	s32i.n	a3, a1, 16
     48d:	7226b6        	bltui	a6, 2, 503 <comfort_noise_gen_wb2+0x9b>
     490:	41f8           	l32i.n	a15, a1, 16
     492:	8c1272        	l16ui	a7, a2, 0x118
     495:	350b           	addi.n	a3, a5, -1
     497:	6129           	s32i.n	a2, a1, 24
     499:	7139           	s32i.n	a3, a1, 28
     49b:	5169           	s32i.n	a6, a1, 20
     49d:	560b           	addi.n	a5, a6, -1
     49f:	fccf22        	addi	a2, a15, -4
     4a2:	f67c           	movi.n	a6, -1

000004a4 <comfort_noise_gen_wb2+0x3c>:
     4a4:	41f8           	l32i.n	a15, a1, 16
     4a6:	028d           	mov.n	a8, a2
     4a8:	71a8           	l32i.n	a10, a1, 28
     4aa:	a38f60        	movltz	a8, a15, a6
     4ad:	08b8           	l32i.n	a11, a8, 0
     4af:	fedf81        	l32r	a8, 2c (514 <HIFI_sqrt>)
     4b2:	093d           	mov.n	a3, a9
     4b4:	0008e0        	callx8	a8
     4b7:	75a0d2        	movi	a13, 117
     4ba:	039d           	mov.n	a9, a3
     4bc:	bbdd32        	addmi	a3, a13, 0xffffbb00
     4bf:	f1a3e2        	movi	a14, 0x3f1
     4c2:	828730        	mull	a8, a7, a3
     4c5:	b03ee0        	addx8	a3, a14, a14
     4c8:	827730        	mull	a7, a7, a3
     4cb:	300874        	ae_cvtp24a16x2.ll	aep0, a8, a7
     4ce:	360b34        	ae_cvtq48a32s	aeq0, a11
     4d1:	d4e250fa9f 	{ add	a15, a10, a9; ae_mulfq32sp16s.l	aeq1, aeq0, aep0 }
     4d6:	d4620ff55e 	{ addi	a5, a5, -1; ae_mulfq32sp16s.h	aeq0, aeq0, aep0 }
     4db:	fc24fe9f4f 	{ ae_slaasq56s	aeq1, aeq1, a15; nop }
     4e0:	fd4c7e8f0f 	{ ae_slaasq56s	aeq0, aeq0, a15; ae_roundsq32sym	aeq1, aeq1 }
     4e5:	fc4479d41f 	{ ae_sq32f.iu	aeq1, a4, 4; ae_roundsq32sym	aeq0, aeq0 }
     4ea:	224b           	addi.n	a2, a2, 4
     4ec:	661b           	addi.n	a6, a6, 1
     4ee:	624414        	ae_sq32f.iu	aeq0, a4, 4
     4f1:	faf556        	bnez	a5, 4a4 <comfort_noise_gen_wb2+0x3c>
     4f4:	6138           	l32i.n	a3, a1, 24
     4f6:	5168           	l32i.n	a6, a1, 20
     4f8:	fc24807e2f 	{ movi	a2, 126; ae_zeroq56	aeq0 }
     4fd:	8c5372        	s16i	a7, a3, 0x118
     500:	0e3267        	bltu	a2, a6, 512 <comfort_noise_gen_wb2+0xaa>
     503:	7fa022        	movi	a2, 127
     506:	c02260        	sub	a2, a2, a6
     509:	058276        	loop	a2, 512 <comfort_noise_gen_wb2+0xaa>
     50c:	624414        	ae_sq32f.iu	aeq0, a4, 4
     50f:	624414        	ae_sq32f.iu	aeq0, a4, 4

00000512 <comfort_noise_gen_wb2+0xaa>:
     512:	f01d           	retw.n

00000514 <HIFI_sqrt>:
     514:	004136        	entry	a1, 32
     517:	4b13a6        	blti	a3, 1, 566 <HIFI_sqrt+0x52>
     51a:	40e340        	nsa	a4, a3
     51d:	c02240        	sub	a2, a2, a4
     520:	401400        	ssl	a4
     523:	044020        	extui	a4, a2, 0, 1
     526:	a1c300        	sll	a12, a3
     529:	400400        	ssr	a4
     52c:	b130c0        	sra	a3, a12
     52f:	656930        	extui	a6, a3, 25, 7
     532:	febfd1        	l32r	a13, 30 (7890 <TABLE_SQRT>)
     535:	050c           	movi.n	a5, 0
     537:	f0c662        	addi	a6, a6, -16
     53a:	535650        	max	a5, a6, a5
     53d:	9055d0        	addx2	a5, a5, a13
     540:	456d           	ae_l16ui.n	a6, a5, 0
     542:	355d           	ae_l16si.n	a5, a5, 2
     544:	413930        	srli	a3, a3, 9
     547:	11f600        	slli	a15, a6, 16
     54a:	c0e560        	sub	a14, a5, a6
     54d:	300334        	ae_cvtp24a16x2.ll	aep0, a3, a3
     550:	113e00        	slli	a3, a14, 16
     553:	360f34        	ae_cvtq48a32s	aeq0, a15
     556:	364334        	ae_cvtq48a32s	aeq1, a3
     559:	d4e110242f 	{ add	a2, a4, a2; ae_mulaq32sp16u.l	aeq0, aeq1, aep0 }
     55e:	212120        	srai	a2, a2, 1
     561:	368304        	ae_trunca32q48	a3, aeq0
     564:	f01d           	retw.n

00000566 <HIFI_sqrt+0x52>:
     566:	020c           	movi.n	a2, 0
     568:	030c           	movi.n	a3, 0
     56a:	f01d           	retw.n

0000056c <Log2_norm>:
     56c:	004136        	entry	a1, 32
     56f:	024d           	mov.n	a4, a2
     571:	ff7c           	movi.n	a15, -1
     573:	012f10        	slli	a2, a15, 31
     576:	3214a6        	blti	a4, 1, 5ac <Log2_norm+0x40>
     579:	156c           	movi.n	a5, -31
     57b:	2d2357        	blt	a3, a5, 5ac <Log2_norm+0x40>
     57e:	022c           	movi.n	a2, 32
     580:	06a237        	bge	a2, a3, 58a <Log2_norm+0x1e>
     583:	f27c           	movi.n	a2, -1
     585:	412120        	srli	a2, a2, 1
     588:	f01d           	retw.n

0000058a <Log2_norm+0x1e>:
     58a:	feaa51        	l32r	a5, 34 (7900 <TABLE_LOG2_1530>)
     58d:	552840        	extui	a2, a4, 24, 6
     590:	1122e0        	slli	a2, a2, 2
     593:	603524        	ae_lq32f.xu	aeq0, a5, a2
     596:	604514        	ae_lq32f.i	aeq1, a5, 4
     599:	f92ae2044f 	{ ae_movpa24x2	aep0, a4, a4; ae_subq56	aeq1, aeq1, aeq0 }
     59e:	030174        	ae_mulaq32sp16u.l	aeq0, aeq1, aep0
     5a1:	013360        	slli	a3, a3, 26
     5a4:	368f04        	ae_trunca32q48	a15, aeq0
     5a7:	2125f0        	srai	a2, a15, 5
     5aa:	223a           	add.n	a2, a2, a3
     5ac:	f01d           	retw.n

000005ae <Log2_norm+0x42>:
	...

000005b0 <siir_safr>:
     5b0:	004136        	entry	a1, 32
     5b3:	05a237        	bge	a2, a3, 5bc <siir_safr+0xc>
     5b6:	440404        	ae_lp16x2f.i	aep0, a4, 0
     5b9:	000086        	j	5bf <siir_safr+0xf>

000005bc <siir_safr+0xc>:
     5bc:	440414        	ae_lp16x2f.i	aep0, a4, 4
     5bf:	360234        	ae_cvtq48a32s	aeq0, a2
     5c2:	364334        	ae_cvtq48a32s	aeq1, a3
     5c5:	c10014        	ae_mulzaafq32sp16s.lh	aeq0, aeq0, aep0, aeq1, aep0
     5c8:	060934        	ae_roundsq32asym	aeq0, aeq0
     5cb:	368204        	ae_trunca32q48	a2, aeq0
     5ce:	f01d           	retw.n

000005d0 <_start>:
     5d0:	004136        	entry	a1, 32
     5d3:	fe9931        	l32r	a3, 38 (8684 <printf_ptr>)
     5d6:	0228           	l32i.n	a2, a2, 0
     5d8:	fe99a1        	l32r	a10, 3c (7654 <export_parameter_array+0x44>)
     5db:	fe99b1        	l32r	a11, 40 (13b0 <get_aec_nr_memsize>)
     5de:	0329           	s32i.n	a2, a3, 0
     5e0:	0002e0        	callx8	a2
     5e3:	0328           	l32i.n	a2, a3, 0
     5e5:	fe97a1        	l32r	a10, 44 (766d <export_parameter_array+0x5d>)
     5e8:	fe98b1        	l32r	a11, 48 (1440 <Voice_EC_Init>)
     5eb:	0002e0        	callx8	a2
     5ee:	0328           	l32i.n	a2, a3, 0
     5f0:	fe97a1        	l32r	a10, 4c (7681 <export_parameter_array+0x71>)
     5f3:	fe97b1        	l32r	a11, 50 (32cc <Voice_EC_Prcs>)
     5f6:	0002e0        	callx8	a2
     5f9:	0328           	l32i.n	a2, a3, 0
     5fb:	fe96a1        	l32r	a10, 54 (7695 <export_parameter_array+0x85>)
     5fe:	fe96b1        	l32r	a11, 58 (3164 <Voice_PostEC_Prcs>)
     601:	0002e0        	callx8	a2
     604:	0328           	l32i.n	a2, a3, 0
     606:	fe95a1        	l32r	a10, 5c (76ad <export_parameter_array+0x9d>)
     609:	fe95b1        	l32r	a11, 60 (33bc <EC_REF_GAIN_READBACK>)
     60c:	0002e0        	callx8	a2
     60f:	0328           	l32i.n	a2, a3, 0
     611:	fe94a1        	l32r	a10, 64 (76c8 <export_parameter_array+0xb8>)
     614:	fe95b1        	l32r	a11, 68 (3938 <NB_RX_NR_init>)
     617:	0002e0        	callx8	a2
     61a:	0328           	l32i.n	a2, a3, 0
     61c:	fe94a1        	l32r	a10, 6c (76dc <export_parameter_array+0xcc>)
     61f:	fe94b1        	l32r	a11, 70 (3304 <Voice_NB_RX_Prcs>)
     622:	0002e0        	callx8	a2
     625:	0328           	l32i.n	a2, a3, 0
     627:	fe93a1        	l32r	a10, 74 (76f3 <export_parameter_array+0xe3>)
     62a:	fe93b1        	l32r	a11, 78 (36b0 <WB_RX_NR_init>)
     62d:	0002e0        	callx8	a2
     630:	0328           	l32i.n	a2, a3, 0
     632:	fe92a1        	l32r	a10, 7c (7707 <export_parameter_array+0xf7>)
     635:	fe92b1        	l32r	a11, 80 (3360 <Voice_WB_RX_Prcs>)
     638:	0002e0        	callx8	a2
     63b:	0328           	l32i.n	a2, a3, 0
     63d:	fe91a1        	l32r	a10, 84 (771e <export_parameter_array+0x10e>)
     640:	fe92b1        	l32r	a11, 88 (13bc <get_aec_nr_inear_memsize>)
     643:	0002e0        	callx8	a2
     646:	0328           	l32i.n	a2, a3, 0
     648:	fe91a1        	l32r	a10, 8c (773d <export_parameter_array+0x12d>)
     64b:	fe91b1        	l32r	a11, 90 (16a0 <Voice_EC_Inear_Init>)
     64e:	0002e0        	callx8	a2
     651:	0328           	l32i.n	a2, a3, 0
     653:	fe90a1        	l32r	a10, 94 (7757 <export_parameter_array+0x147>)
     656:	fe90b1        	l32r	a11, 98 (32e8 <Voice_EC_Inear_Prcs>)
     659:	0002e0        	callx8	a2
     65c:	0328           	l32i.n	a2, a3, 0
     65e:	fe8fa1        	l32r	a10, 9c (7771 <export_parameter_array+0x161>)
     661:	fe8fb1        	l32r	a11, a0 (3418 <EC_Inear_REF_GAIN_READBACK>)
     664:	0002e0        	callx8	a2
     667:	0328           	l32i.n	a2, a3, 0
     669:	fe8ea1        	l32r	a10, a4 (7792 <export_parameter_array+0x182>)
     66c:	fe8fb1        	l32r	a11, a8 (13a8 <get_ECNR_SVN>)
     66f:	0002e0        	callx8	a2
     672:	0328           	l32i.n	a2, a3, 0
     674:	fe8ea1        	l32r	a10, ac (77a5 <export_parameter_array+0x195>)
     677:	fe8eb1        	l32r	a11, b0 (3440 <EC_PreLim_Coef_READBACK>)
     67a:	0002e0        	callx8	a2
     67d:	0328           	l32i.n	a2, a3, 0
     67f:	fe8da1        	l32r	a10, b4 (77c3 <export_parameter_array+0x1b3>)
     682:	fe8db1        	l32r	a11, b8 (3490 <DaulMIC_power_Coef_READBACK>)
     685:	0002e0        	callx8	a2
     688:	0328           	l32i.n	a2, a3, 0
     68a:	fe8ca1        	l32r	a10, bc (77e5 <export_parameter_array+0x1d5>)
     68d:	fe8cb1        	l32r	a11, c0 (34a0 <PF_GAIN_FB_READBACK>)
     690:	0002e0        	callx8	a2
     693:	fe8c21        	l32r	a2, c4 (7610 <export_parameter_array>)
     696:	f01d           	retw.n

00000698 <SBAEC_INIT>:
     698:	00a136        	entry	a1, 80
     69b:	fe6151        	l32r	a5, 20 (8688 <p_ecnr_mem>)
     69e:	fe8a21        	l32r	a2, c8 (6bf0 <xt_memset>)
     6a1:	29a532        	movi	a3, 0x529
     6a4:	0578           	l32i.n	a7, a5, 0
     6a6:	31a542        	movi	a4, 0x531
     6a9:	0b0c           	movi.n	a11, 0
     6ab:	29d7a2        	addmi	a10, a7, 0x2900
     6ae:	30a1c2        	movi	a12, 0x130
     6b1:	1133d0        	slli	a3, a3, 3
     6b4:	1144d0        	slli	a4, a4, 3
     6b7:	a1a9           	s32i.n	a10, a1, 40
     6b9:	0002e0        	callx8	a2
     6bc:	0558           	l32i.n	a5, a5, 0
     6be:	562c           	movi.n	a6, 37
     6c0:	116690        	slli	a6, a6, 7
     6c3:	a56a           	add.n	a10, a5, a6
     6c5:	0b0c           	movi.n	a11, 0
     6c7:	c0a4c2        	movi	a12, 0x4c0
     6ca:	0002e0        	callx8	a2
     6cd:	fe5591        	l32r	a9, 24 (8680 <aec_nr_para>)
     6d0:	c50c           	movi.n	a5, 12
     6d2:	061c           	movi.n	a6, 16
     6d4:	0928           	l32i.n	a2, a9, 0
     6d6:	041282        	l16ui	a8, a2, 8
     6d9:	105850        	and	a5, a8, a5
     6dc:	04a526        	beqi	a5, 12, 6e4 <SBAEC_INIT+0x4c>
     6df:	105860        	and	a5, a8, a6
     6e2:	459c           	beqz.n	a5, 6fa <SBAEC_INIT+0x62>

000006e4 <SBAEC_INIT+0x4c>:
     6e4:	757c           	movi.n	a5, -9
     6e6:	131262        	l16ui	a6, a2, 38
     6e9:	f45050        	extui	a5, a5, 0, 16
     6ec:	108850        	and	a8, a8, a5
     6ef:	851c           	movi.n	a5, 24
     6f1:	045282        	s16i	a8, a2, 8
     6f4:	023657        	bltu	a6, a5, 6fa <SBAEC_INIT+0x62>
     6f7:	135252        	s16i	a5, a2, 38
     6fa:	373a           	add.n	a3, a7, a3
     6fc:	39a5e2        	movi	a14, 0x539
     6ff:	9139           	s32i.n	a3, a1, 36
     701:	113ed0        	slli	a3, a14, 3
     704:	373a           	add.n	a3, a7, a3
     706:	41a5f2        	movi	a15, 0x541
     709:	6139           	s32i.n	a3, a1, 24
     70b:	113fd0        	slli	a3, a15, 3
     70e:	d74a           	add.n	a13, a7, a4
     710:	373a           	add.n	a3, a7, a3
     712:	096d           	mov.n	a6, a9
     714:	51d9           	s32i.n	a13, a1, 20
     716:	7139           	s32i.n	a3, a1, 28
     718:	4fe837        	bbsi	a8, 3, 76b <SBAEC_INIT+0xd3>
     71b:	e31232        	l16ui	a3, a2, 0x1c6
     71e:	131242        	l16ui	a4, a2, 38
     721:	4b0c           	movi.n	a11, 4
     723:	053316        	beqz	a3, 77a <SBAEC_INIT+0xe2>
     726:	348030        	extui	a8, a3, 0, 4
     729:	41ac30        	srli	a10, a3, 12
     72c:	345430        	extui	a5, a3, 4, 4
     72f:	1188e0        	slli	a8, a8, 2
     732:	34d830        	extui	a13, a3, 8, 4
     735:	a0aab0        	addx4	a10, a10, a11
     738:	11b5d0        	slli	a11, a5, 3
     73b:	113de0        	slli	a3, a13, 2
     73e:	2bd7f2        	addmi	a15, a7, 0x2b00
     741:	884b           	addi.n	a8, a8, 4
     743:	bb8b           	addi.n	a11, a11, 8
     745:	2d5fa2        	s16i	a10, a15, 90
     748:	2bd7e2        	addmi	a14, a7, 0x2b00
     74b:	334b           	addi.n	a3, a3, 4
     74d:	434480        	min	a4, a4, a8
     750:	41f1b0        	srli	a15, a11, 1
     753:	2c5e32        	s16i	a3, a14, 88
     756:	4333a0        	min	a3, a3, a10
     759:	4344f0        	min	a4, a4, a15
     75c:	433430        	min	a3, a4, a3
     75f:	2a5e82        	s16i	a8, a14, 84
     762:	2b5eb2        	s16i	a11, a14, 86
     765:	135232        	s16i	a3, a2, 38
     768:	000806        	j	78c <SBAEC_INIT+0xf4>

0000076b <SBAEC_INIT+0xd3>:
     76b:	fe5a31        	l32r	a3, d4 (c00100 <_end+0xbf7a74>)
     76e:	2bd742        	addmi	a4, a7, 0x2b00
     771:	156432        	s32i	a3, a4, 84
     774:	fe5931        	l32r	a3, d8 (600040 <_end+0x5f79b4>)
     777:	0002c6        	j	786 <SBAEC_INIT+0xee>

0000077a <SBAEC_INIT+0xe2>:
     77a:	fe5431        	l32r	a3, cc (300040 <_end+0x2f79b4>)
     77d:	2bd742        	addmi	a4, a7, 0x2b00
     780:	156432        	s32i	a3, a4, 84
     783:	fe5331        	l32r	a3, d0 (200018 <_end+0x1f798c>)
     786:	2bd742        	addmi	a4, a7, 0x2b00
     789:	166432        	s32i	a3, a4, 88
     78c:	230c           	movi.n	a3, 2
     78e:	29d332        	addmi	a3, a3, 0x2900
     791:	b2eb           	addi.n	a11, a2, 14
     793:	fe2221        	l32r	a2, 1c (6c04 <xt_memcpy>)
     796:	a73a           	add.n	a10, a7, a3
     798:	ec0c           	movi.n	a12, 14
     79a:	0002e0        	callx8	a2
     79d:	0628           	l32i.n	a2, a6, 0
     79f:	fe2051        	l32r	a5, 20 (8688 <p_ecnr_mem>)
     7a2:	29d742        	addmi	a4, a7, 0x2900
     7a5:	061292        	l16ui	a9, a2, 12
     7a8:	d99282        	l16si	a8, a2, 0x1b2
     7ab:	05b8           	l32i.n	a11, a5, 0
     7ad:	02e8           	l32i.n	a14, a2, 0
     7af:	d812d2        	l16ui	a13, a2, 0x1b0
     7b2:	115482        	s16i	a8, a4, 34
     7b5:	fe4981        	l32r	a8, dc (155555 <_end+0x14cec9>)
     7b8:	5f2c           	movi.n	a15, 37
     7ba:	9158           	l32i.n	a5, a1, 36
     7bc:	4489           	s32i.n	a8, a4, 16
     7be:	1189c0        	slli	a8, a9, 4
     7c1:	c692c2        	l16si	a12, a2, 0x18c
     7c4:	112f90        	slli	a2, a15, 7
     7c7:	9489           	s32i.n	a8, a4, 36
     7c9:	b480d0        	extui	a8, a13, 0, 12
     7cc:	0f54c2        	s16i	a12, a4, 30
     7cf:	fb2a           	add.n	a15, a11, a2
     7d1:	81e9           	s32i.n	a14, a1, 32
     7d3:	04de92        	addmi	a9, a14, 0x400
     7d6:	fe4231        	l32r	a3, e0 (aac <Fill_CH_MEM_WB>)
     7d9:	51b8           	l32i.n	a11, a1, 20
     7db:	61c8           	l32i.n	a12, a1, 24
     7dd:	71d8           	l32i.n	a13, a1, 28
     7df:	a1e8           	l32i.n	a14, a1, 40
     7e1:	105482        	s16i	a8, a4, 32
     7e4:	05ad           	mov.n	a10, a5
     7e6:	0199           	s32i.n	a9, a1, 0
     7e8:	0003e0        	callx8	a3
     7eb:	fe0d21        	l32r	a2, 20 (8688 <p_ecnr_mem>)
     7ee:	0648           	l32i.n	a4, a6, 0
     7f0:	2bd792        	addmi	a9, a7, 0x2b00
     7f3:	0228           	l32i.n	a2, a2, 0
     7f5:	1694c2        	l16si	a12, a4, 44
     7f8:	2a99b2        	l16si	a11, a9, 84
     7fb:	12d282        	addmi	a8, a2, 0x1200
     7fe:	12d222        	addmi	a2, a2, 0x1200
     801:	fe3841        	l32r	a4, e4 (a90 <Fill_sbco>)
     804:	2ad732        	addmi	a3, a7, 0x2a00
     807:	182882        	l32i	a8, a8, 96
     80a:	1c2222        	l32i	a2, a2, 112
     80d:	1d0c           	movi.n	a13, 1
     80f:	05ad           	mov.n	a10, a5
     811:	f389           	s32i.n	a8, a3, 60
     813:	b199           	s32i.n	a9, a1, 44
     815:	106322        	s32i	a2, a3, 64
     818:	0004e0        	callx8	a4
     81b:	2bd732        	addmi	a3, a7, 0x2b00
     81e:	9139           	s32i.n	a3, a1, 36
     820:	2b9332        	l16si	a3, a3, 86
     823:	0628           	l32i.n	a2, a6, 0
     825:	51a8           	l32i.n	a10, a1, 20
     827:	f31b           	addi.n	a15, a3, 1
     829:	1792c2        	l16si	a12, a2, 46
     82c:	b3f330        	movgez	a15, a3, a3
     82f:	21b1f0        	srai	a11, a15, 1
     832:	fdfb21        	l32r	a2, 20 (8688 <p_ecnr_mem>)
     835:	1d0c           	movi.n	a13, 1
     837:	0004e0        	callx8	a4
     83a:	0638           	l32i.n	a3, a6, 0
     83c:	2bd752        	addmi	a5, a7, 0x2b00
     83f:	2c95b2        	l16si	a11, a5, 88
     842:	1893c2        	l16si	a12, a3, 48
     845:	61a8           	l32i.n	a10, a1, 24
     847:	1d0c           	movi.n	a13, 1
     849:	5159           	s32i.n	a5, a1, 20
     84b:	0004e0        	callx8	a4
     84e:	0658           	l32i.n	a5, a6, 0
     850:	2bd732        	addmi	a3, a7, 0x2b00
     853:	2d93b2        	l16si	a11, a3, 90
     856:	1995c2        	l16si	a12, a5, 50
     859:	71a8           	l32i.n	a10, a1, 28
     85b:	1d0c           	movi.n	a13, 1
     85d:	0004e0        	callx8	a4
     860:	0668           	l32i.n	a6, a6, 0
     862:	ffa0a2        	movi	a10, 255
     865:	0258           	l32i.n	a5, a2, 0
     867:	29d792        	addmi	a9, a7, 0x2900
     86a:	7fdaa2        	addmi	a10, a10, 0x7f00
     86d:	1459a2        	s16i	a10, a9, 40
     870:	2453a2        	s16i	a10, a3, 72
     873:	0416a2        	l16ui	a10, a6, 8
     876:	a1e8           	l32i.n	a14, a1, 40
     878:	059642        	l16si	a4, a6, 10
     87b:	155942        	s16i	a4, a9, 42
     87e:	12d592        	addmi	a9, a5, 0x1200
     881:	2396f2        	l16si	a15, a6, 70
     884:	159622        	l16si	a2, a6, 42
     887:	215922        	s16i	a2, a9, 66
     88a:	029622        	l16si	a2, a6, 4
     88d:	2653f2        	s16i	a15, a3, 76
     890:	04f0a0        	extui	a15, a10, 0, 1
     893:	162942        	l32i	a4, a9, 88
     896:	14a1a0        	extui	a10, a10, 1, 2
     899:	dc9662        	l16si	a6, a6, 0x1b8
     89c:	2659a2        	s16i	a10, a9, 76
     89f:	6e2d           	ae_s16i.n	a2, a14, 0
     8a1:	146342        	s32i	a4, a3, 80
     8a4:	2553f2        	s16i	a15, a3, 74
     8a7:	275362        	s16i	a6, a3, 78
     8aa:	022a26        	beqi	a10, 2, 8b0 <SBAEC_INIT+0x218>
     8ad:	003706        	j	98d <SBAEC_INIT+0x2f5>
     8b0:	03bd           	mov.n	a11, a3
     8b2:	6139           	s32i.n	a3, a1, 24
     8b4:	b138           	l32i.n	a3, a1, 44
     8b6:	9148           	l32i.n	a4, a1, 36
     8b8:	5128           	l32i.n	a2, a1, 20
     8ba:	2d9bf2        	l16si	a15, a11, 90
     8bd:	2a9362        	l16si	a6, a3, 84
     8c0:	2c9292        	l16si	a9, a2, 88
     8c3:	2b9482        	l16si	a8, a4, 86
     8c6:	81d8           	l32i.n	a13, a1, 32
     8c8:	18a5a2        	movi	a10, 0x518
     8cb:	99fa           	add.n	a9, a9, a15
     8cd:	2daa           	add.n	a2, a13, a10
     8cf:	686a           	add.n	a6, a8, a6
     8d1:	49a5b2        	movi	a11, 0x549
     8d4:	51a5c2        	movi	a12, 0x551
     8d7:	59a5d2        	movi	a13, 0x559
     8da:	669a           	add.n	a6, a6, a9
     8dc:	118bd0        	slli	a8, a11, 3
     8df:	119dd0        	slli	a9, a13, 3
     8e2:	61a5d2        	movi	a13, 0x561
     8e5:	11acd0        	slli	a10, a12, 3
     8e8:	5f2c           	movi.n	a15, 37
     8ea:	a0b650        	addx4	a11, a6, a5
     8ed:	11ddd0        	slli	a13, a13, 3
     8f0:	678a           	add.n	a6, a7, a8
     8f2:	118f90        	slli	a8, a15, 7
     8f5:	57aa           	add.n	a5, a7, a10
     8f7:	0129           	s32i.n	a2, a1, 0
     8f9:	fdf921        	l32r	a2, e0 (aac <Fill_CH_MEM_WB>)
     8fc:	c79a           	add.n	a12, a7, a9
     8fe:	d7da           	add.n	a13, a7, a13
     900:	fb8a           	add.n	a15, a11, a8
     902:	06ad           	mov.n	a10, a6
     904:	05bd           	mov.n	a11, a5
     906:	81c9           	s32i.n	a12, a1, 32
     908:	71d9           	s32i.n	a13, a1, 28
     90a:	0002e0        	callx8	a2
     90d:	fdc421        	l32r	a2, 20 (8688 <p_ecnr_mem>)
     910:	2a93b2        	l16si	a11, a3, 84
     913:	fdc431        	l32r	a3, 24 (8680 <aec_nr_para>)
     916:	29d782        	addmi	a8, a7, 0x2900
     919:	0228           	l32i.n	a2, a2, 0
     91b:	03d8           	l32i.n	a13, a3, 0
     91d:	202882        	l32i	a8, a8, 128
     920:	29d7e2        	addmi	a14, a7, 0x2900
     923:	606e82        	s32i	a8, a14, 0x180
     926:	302e82        	l32i	a8, a14, 192
     929:	2ad7f2        	addmi	a15, a7, 0x2a00
     92c:	0f98           	l32i.n	a9, a15, 0
     92e:	306f82        	s32i	a8, a15, 192
     931:	12d2e2        	addmi	a14, a2, 0x1200
     934:	12d222        	addmi	a2, a2, 0x1200
     937:	2bd782        	addmi	a8, a7, 0x2b00
     93a:	0899           	s32i.n	a9, a8, 0
     93c:	1a9dc2        	l16si	a12, a13, 52
     93f:	fde971        	l32r	a7, e4 (a90 <Fill_sbco>)
     942:	1a2ef2        	l32i	a15, a14, 104
     945:	1c2222        	l32i	a2, a2, 112
     948:	0d0c           	movi.n	a13, 0
     94a:	06ad           	mov.n	a10, a6
     94c:	f8f9           	s32i.n	a15, a8, 60
     94e:	106822        	s32i	a2, a8, 64
     951:	0007e0        	callx8	a7
     954:	2b9422        	l16si	a2, a4, 86
     957:	03f8           	l32i.n	a15, a3, 0
     959:	0d0c           	movi.n	a13, 0
     95b:	621b           	addi.n	a6, a2, 1
     95d:	b36220        	movgez	a6, a2, a2
     960:	1b9fc2        	l16si	a12, a15, 54
     963:	21b160        	srai	a11, a6, 1
     966:	05ad           	mov.n	a10, a5
     968:	0007e0        	callx8	a7
     96b:	0328           	l32i.n	a2, a3, 0
     96d:	5148           	l32i.n	a4, a1, 20
     96f:	81a8           	l32i.n	a10, a1, 32
     971:	1c92c2        	l16si	a12, a2, 56
     974:	2c94b2        	l16si	a11, a4, 88
     977:	0d0c           	movi.n	a13, 0
     979:	0007e0        	callx8	a7
     97c:	0328           	l32i.n	a2, a3, 0
     97e:	61f8           	l32i.n	a15, a1, 24
     980:	71a8           	l32i.n	a10, a1, 28
     982:	1d92c2        	l16si	a12, a2, 58
     985:	2d9fb2        	l16si	a11, a15, 90
     988:	0d0c           	movi.n	a13, 0
     98a:	0007e0        	callx8	a7
     98d:	f01d           	retw.n

0000098f <SBAEC_INIT+0x2f7>:
	...

00000990 <SBAEC_INIT_inear>:
     990:	008136        	entry	a1, 64
     993:	fda441        	l32r	a4, 24 (8680 <aec_nr_para>)
     996:	2bd232        	addmi	a3, a2, 0x2b00
     999:	2a9352        	l16si	a5, a3, 84
     99c:	2b9362        	l16si	a6, a3, 86
     99f:	04f8           	l32i.n	a15, a4, 0
     9a1:	2c93d2        	l16si	a13, a3, 88
     9a4:	2d93e2        	l16si	a14, a3, 90
     9a7:	2bd272        	addmi	a7, a2, 0x2b00
     9aa:	5139           	s32i.n	a3, a1, 20
     9ac:	46d232        	addmi	a3, a2, 0x4600
     9af:	665a           	add.n	a6, a6, a5
     9b1:	3a2352        	l32i	a5, a3, 232
     9b4:	ddea           	add.n	a13, a13, a14
     9b6:	0ff8           	l32i.n	a15, a15, 0
     9b8:	5b2c           	movi.n	a11, 37
     9ba:	f0a082        	movi	a8, 240
     9bd:	36da           	add.n	a3, a6, a13
     9bf:	b0a062        	movi	a6, 176
     9c2:	70a1a2        	movi	a10, 0x170
     9c5:	30a1c2        	movi	a12, 0x130
     9c8:	e0a592        	movi	a9, 0x5e0
     9cb:	d5aa           	add.n	a13, a5, a10
     9cd:	458a           	add.n	a4, a5, a8
     9cf:	11bb90        	slli	a11, a11, 7
     9d2:	656a           	add.n	a6, a5, a6
     9d4:	b0a320        	addx8	a10, a3, a2
     9d7:	fdc281        	l32r	a8, e0 (aac <Fill_CH_MEM_WB>)
     9da:	9f9a           	add.n	a9, a15, a9
     9dc:	faba           	add.n	a15, a10, a11
     9de:	c5ca           	add.n	a12, a5, a12
     9e0:	29d2e2        	addmi	a14, a2, 0x2900
     9e3:	06ad           	mov.n	a10, a6
     9e5:	04bd           	mov.n	a11, a4
     9e7:	61c9           	s32i.n	a12, a1, 24
     9e9:	71d9           	s32i.n	a13, a1, 28
     9eb:	0199           	s32i.n	a9, a1, 0
     9ed:	0008e0        	callx8	a8
     9f0:	12d292        	addmi	a9, a2, 0x1200
     9f3:	1c2992        	l32i	a9, a9, 112
     9f6:	fd8b31        	l32r	a3, 24 (8680 <aec_nr_para>)
     9f9:	a02582        	l32i	a8, a5, 0x280
     9fc:	29d2c2        	addmi	a12, a2, 0x2900
     9ff:	6a6592        	s32i	a9, a5, 0x1a8
     a02:	696582        	s32i	a8, a5, 0x1a4
     a05:	202c82        	l32i	a8, a12, 128
     a08:	03f8           	l32i.n	a15, a3, 0
     a0a:	3a6582        	s32i	a8, a5, 232
     a0d:	302c92        	l32i	a9, a12, 192
     a10:	5138           	l32i.n	a3, a1, 20
     a12:	2ad2e2        	addmi	a14, a2, 0x2a00
     a15:	4a6592        	s32i	a9, a5, 0x128
     a18:	0e28           	l32i.n	a2, a14, 0
     a1a:	02df82        	addmi	a8, a15, 0x200
     a1d:	5a6522        	s32i	a2, a5, 0x168
     a20:	2a93b2        	l16si	a11, a3, 84
     a23:	5798c2        	l16si	a12, a8, 174
     a26:	fdaf21        	l32r	a2, e4 (a90 <Fill_sbco>)
     a29:	4d0c           	movi.n	a13, 4
     a2b:	06ad           	mov.n	a10, a6
     a2d:	0002e0        	callx8	a2
     a30:	2b9362        	l16si	a6, a3, 86
     a33:	fd7c31        	l32r	a3, 24 (8680 <aec_nr_para>)
     a36:	4d0c           	movi.n	a13, 4
     a38:	961b           	addi.n	a9, a6, 1
     a3a:	0388           	l32i.n	a8, a3, 0
     a3c:	b39660        	movgez	a9, a6, a6
     a3f:	21b190        	srai	a11, a9, 1
     a42:	02d882        	addmi	a8, a8, 0x200
     a45:	5898c2        	l16si	a12, a8, 176
     a48:	04ad           	mov.n	a10, a4
     a4a:	0002e0        	callx8	a2
     a4d:	0348           	l32i.n	a4, a3, 0
     a4f:	2c97b2        	l16si	a11, a7, 88
     a52:	61a8           	l32i.n	a10, a1, 24
     a54:	02d442        	addmi	a4, a4, 0x200
     a57:	5994c2        	l16si	a12, a4, 178
     a5a:	4d0c           	movi.n	a13, 4
     a5c:	036d           	mov.n	a6, a3
     a5e:	0002e0        	callx8	a2
     a61:	0348           	l32i.n	a4, a3, 0
     a63:	2d97b2        	l16si	a11, a7, 90
     a66:	71a8           	l32i.n	a10, a1, 28
     a68:	02d432        	addmi	a3, a4, 0x200
     a6b:	5a93c2        	l16si	a12, a3, 180
     a6e:	4d0c           	movi.n	a13, 4
     a70:	0002e0        	callx8	a2
     a73:	0638           	l32i.n	a3, a6, 0
     a75:	6ea222        	movi	a2, 0x26e
     a78:	88a242        	movi	a4, 0x288
     a7b:	a52a           	add.n	a10, a5, a2
     a7d:	fd6721        	l32r	a2, 1c (6c04 <xt_memcpy>)
     a80:	b34a           	add.n	a11, a3, a4
     a82:	3c0c           	movi.n	a12, 3
     a84:	0002e0        	callx8	a2
     a87:	5128           	l32i.n	a2, a1, 20
     a89:	176252        	s32i	a5, a2, 92
     a8c:	f01d           	retw.n

00000a8e <SBAEC_INIT_inear+0xfe>:
	...

00000a90 <Fill_sbco>:
     a90:	004136        	entry	a1, 32
     a93:	ffa062        	movi	a6, 255
     a96:	11f400        	slli	a15, a4, 16
     a99:	7fd662        	addmi	a6, a6, 0x7f00
     a9c:	115232        	s16i	a3, a2, 34
     a9f:	105262        	s16i	a6, a2, 32
     aa2:	125252        	s16i	a5, a2, 36
     aa5:	52f9           	s32i.n	a15, a2, 20
     aa7:	42f9           	s32i.n	a15, a2, 16
     aa9:	f01d           	retw.n

00000aab <Fill_sbco+0x1b>:
	...

00000aac <Fill_CH_MEM_WB>:
     aac:	004136        	entry	a1, 32
     aaf:	8188           	l32i.n	a8, a1, 32
     ab1:	8ca092        	movi	a9, 140
     ab4:	a0a0a2        	movi	a10, 160
     ab7:	50c8f2        	addi	a15, a8, 80
     aba:	c8a0b2        	movi	a11, 200
     abd:	f0a0c2        	movi	a12, 240
     ac0:	d389           	s32i.n	a8, a3, 52
     ac2:	28c8d2        	addi	a13, a8, 40
     ac5:	d2f9           	s32i.n	a15, a2, 52
     ac7:	04a1f2        	movi	a15, 0x104
     aca:	f3d9           	s32i.n	a13, a3, 60
     acc:	64c8e2        	addi	a14, a8, 100
     acf:	b8ba           	add.n	a11, a8, a11
     ad1:	989a           	add.n	a9, a8, a9
     ad3:	a8aa           	add.n	a10, a8, a10
     ad5:	c8ca           	add.n	a12, a8, a12
     ad7:	d8fa           	add.n	a13, a8, a15
     ad9:	78c882        	addi	a8, a8, 120
     adc:	f289           	s32i.n	a8, a2, 60
     ade:	f499           	s32i.n	a9, a4, 60
     ae0:	58c692        	addi	a9, a6, 88
     ae3:	d4e9           	s32i.n	a14, a4, 52
     ae5:	fe99e2        	l16si	a14, a9, 0x1fc
     ae8:	f5a9           	s32i.n	a10, a5, 60
     aea:	5cc6a2        	addi	a10, a6, 92
     aed:	ff9982        	l16si	a8, a9, 0x1fe
     af0:	fe9af2        	l16si	a15, a10, 0x1fc
     af3:	e3b9           	s32i.n	a11, a3, 56
     af5:	ff9a62        	l16si	a6, a10, 0x1fe
     af8:	90be70        	addx2	a11, a14, a7
     afb:	a279           	s32i.n	a7, a2, 40
     afd:	9078b0        	addx2	a7, a8, a11
     b00:	a3b9           	s32i.n	a11, a3, 40
     b02:	a479           	s32i.n	a7, a4, 40
     b04:	907f70        	addx2	a7, a15, a7
     b07:	906670        	addx2	a6, a6, a7
     b0a:	b269           	s32i.n	a6, a2, 44
     b0c:	906e60        	addx2	a6, a14, a6
     b0f:	a579           	s32i.n	a7, a5, 40
     b11:	b369           	s32i.n	a6, a3, 44
     b13:	906860        	addx2	a6, a8, a6
     b16:	e2c9           	s32i.n	a12, a2, 56
     b18:	e4d9           	s32i.n	a13, a4, 56
     b1a:	a3c8           	l32i.n	a12, a3, 40
     b1c:	a2d8           	l32i.n	a13, a2, 40
     b1e:	a4e8           	l32i.n	a14, a4, 40
     b20:	90ff60        	addx2	a15, a15, a6
     b23:	c3c9           	s32i.n	a12, a3, 48
     b25:	c2d9           	s32i.n	a13, a2, 48
     b27:	c4e9           	s32i.n	a14, a4, 48
     b29:	b469           	s32i.n	a6, a4, 44
     b2b:	c579           	s32i.n	a7, a5, 48
     b2d:	b5f9           	s32i.n	a15, a5, 44
     b2f:	f01d           	retw.n

00000b31 <Fill_CH_MEM_WB+0x85>:
     b31:	000000                                        ...

00000b34 <common_x_pow>:
     b34:	004136        	entry	a1, 32
     b37:	360334        	ae_cvtq48a32s	aeq0, a3
     b3a:	fe00bec47f 	{ ae_cvtq48a32s	aeq1, a4; ae_absq56	aeq2, aeq0 }
     b3f:	ff0480005f 	{ movi	a5, 0; ae_absq56	aeq3, aeq1 }
     b44:	d6d80001ff 	{ movi	a15, 1; ae_ltq56s	b0, aeq2, aeq3 }
     b49:	023d           	mov.n	a3, a2
     b4b:	120c           	movi.n	a2, 1
     b4d:	d35f00        	movt	a5, a15, b0
     b50:	65ac           	beqz.n	a5, b7a <common_x_pow+0x46>
     b52:	f9bac0004f 	{ movi	a4, 0; ae_subq56	aeq1, aeq3, aeq2 }
     b57:	0122b0        	slli	a2, a2, 21
     b5a:	36c234        	ae_cvtq48a32s	aeq3, a2
     b5d:	d6cc0001ff 	{ movi	a15, 1; ae_ltq56s	b0, aeq3, aeq1 }
     b62:	120c           	movi.n	a2, 1
     b64:	fd6151        	l32r	a5, e8 (2aaa00 <_end+0x2a2374>)
     b67:	fd04564f0f 	{ movt	a4, a15, b0; ae_movq56	aeq1, aeq0 }
     b6c:	c48c           	beqz.n	a4, b7c <common_x_pow+0x48>
     b6e:	398554        	ae_movpa24x2	aep0, a5, a5
     b71:	030a14        	ae_mulfq32sp16s.l	aeq1, aeq0, aep0
     b74:	065934        	ae_roundsq32asym	aeq1, aeq1
     b77:	000046        	j	b7c <common_x_pow+0x48>

00000b7a <common_x_pow+0x46>:
     b7a:	020c           	movi.n	a2, 0
     b7c:	fd5c41        	l32r	a4, ec (7800 <immediate_num>)
     b7f:	608324        	ae_lq32f.i	aeq2, a3, 8
     b82:	60c334        	ae_lq32f.i	aeq3, a3, 12
     b85:	440404        	ae_lp16x2f.i	aep0, a4, 0
     b88:	c10084        	ae_mulzaafq32sp16s.lh	aeq0, aeq2, aep0, aeq0, aep0
     b8b:	c108d4        	ae_mulzaafq32sp16s.lh	aeq1, aeq3, aep0, aeq1, aep0
     b8e:	060934        	ae_roundsq32asym	aeq0, aeq0
     b91:	fd2c79832f 	{ ae_sq32f.i	aeq0, a3, 8; ae_roundsq32asym	aeq1, aeq1 }
     b96:	621334        	ae_sq32f.i	aeq1, a3, 12
     b99:	f01d           	retw.n

00000b9b <common_x_pow+0x67>:
	...

00000b9c <ref_gain_adapt>:
     b9c:	004136        	entry	a1, 32
     b9f:	5378           	l32i.n	a7, a3, 20
     ba1:	fd5261        	l32r	a6, ec (7800 <immediate_num>)
     ba4:	360734        	ae_cvtq48a32s	aeq0, a7
     ba7:	03b5d6        	bgez	a5, be6 <ref_gain_adapt+0x4a>
     baa:	059252        	l16si	a5, a2, 10
     bad:	440614        	ae_lp16x2f.i	aep0, a6, 4
     bb0:	364434        	ae_cvtq48a32s	aeq1, a4
     bb3:	11d500        	slli	a13, a5, 16
     bb6:	d5637ecdbf 	{ ae_cvtq48a32s	aeq2, a13; ae_mulfq32sp16s.h	aeq3, aeq1, aep0 }
     bbb:	0e0c           	movi.n	a14, 0
     bbd:	d6d80001ff 	{ movi	a15, 1; ae_ltq56s	b0, aeq2, aeq3 }
     bc2:	040c           	movi.n	a4, 0
     bc4:	150c           	movi.n	a5, 1
     bc6:	d3ef00        	movt	a14, a15, b0
     bc9:	0edc           	bnez.n	a14, bdd <ref_gain_adapt+0x41>
     bcb:	440624        	ae_lp16x2f.i	aep0, a6, 8
     bce:	d56340007f 	{ movi	a7, 0; ae_mulfq32sp16s.h	aeq3, aeq1, aep0 }
     bd3:	d6d800018f 	{ movi	a8, 1; ae_ltq56s	b0, aeq2, aeq3 }
     bd8:	d34500        	movt	a4, a5, b0
     bdb:	24ac           	beqz.n	a4, c01 <ref_gain_adapt+0x65>

00000bdd <ref_gain_adapt+0x41>:
     bdd:	a10004        	ae_mulzaafq32sp16s.ll	aeq0, aeq0, aep0, aeq0, aep0
     be0:	060934        	ae_roundsq32asym	aeq0, aeq0
     be3:	368704        	ae_trunca32q48	a7, aeq0
     be6:	120c           	movi.n	a2, 1
     be8:	0122b0        	slli	a2, a2, 21
     beb:	532720        	max	a2, a7, a2
     bee:	5329           	s32i.n	a2, a3, 20
     bf0:	604344        	ae_lq32f.i	aeq1, a3, 16
     bf3:	440654        	ae_lp16x2f.i	aep0, a6, 20
     bf6:	c10044        	ae_mulzaafq32sp16s.lh	aeq0, aeq1, aep0, aeq0, aep0
     bf9:	060934        	ae_roundsq32asym	aeq0, aeq0
     bfc:	620344        	ae_sq32f.i	aeq0, a3, 16
     bff:	f01d           	retw.n

00000c01 <ref_gain_adapt+0x65>:
     c01:	440634        	ae_lp16x2f.i	aep0, a6, 12
     c04:	d76240004f 	{ movi	a4, 0; ae_mulfq32sp16s.h	aeq3, aeq2, aep0 }
     c09:	02d222        	addmi	a2, a2, 0x200
     c0c:	d65c00015f 	{ movi	a5, 1; ae_ltq56s	b0, aeq1, aeq3 }
     c11:	038a94        	ae_mulfq32sp16s.l	aeq3, aeq2, aep0
     c14:	4e0222        	l8ui	a2, a2, 78
     c17:	d6cc16780f 	{ movt	a7, a8, b0; ae_ltq56s	b0, aeq3, aeq1 }
     c1c:	fc0716        	beqz	a7, be0 <ref_gain_adapt+0x44>
     c1f:	370c           	movi.n	a7, 3
     c21:	d34500        	movt	a4, a5, b0
     c24:	14cc           	bnez.n	a4, c29 <ref_gain_adapt+0x8d>
     c26:	b60727        	bnone	a7, a2, be0 <ref_gain_adapt+0x44>
     c29:	440644        	ae_lp16x2f.i	aep0, a6, 16
     c2c:	030214        	ae_mulfq32sp16s.l	aeq0, aeq0, aep0
     c2f:	ffeb46        	j	be0 <ref_gain_adapt+0x44>

00000c32 <ref_gain_adapt+0x96>:
	...

00000c34 <aec_post_calc>:
     c34:	006136        	entry	a1, 48
     c37:	054466        	bnei	a4, 4, c40 <aec_post_calc+0xc>
     c3a:	20c242        	addi	a4, a2, 32
     c3d:	000086        	j	c43 <aec_post_calc+0xf>

00000c40 <aec_post_calc+0xc>:
     c40:	1ec242        	addi	a4, a2, 30
     c43:	150c           	movi.n	a5, 1
     c45:	0155d0        	slli	a5, a5, 19
     c48:	400404        	ae_lp16f.i	aep0, a4, 0
     c4b:	360534        	ae_cvtq48a32s	aeq0, a5
     c4e:	1d0c           	movi.n	a13, 1
     c50:	115d00        	slli	a5, a13, 16
     c53:	d4e2bec5ff 	{ ae_cvtq48a32s	aeq3, a5; ae_mulfq32sp16u.l	aeq0, aeq0, aep0 }
     c58:	23c8           	l32i.n	a12, a3, 8
     c5a:	d6e3b9813f 	{ ae_sq32f.i	aeq0, a1, 12; ae_mulfq32sp16u.l	aeq0, aeq3, aep0 }
     c5f:	3178           	l32i.n	a7, a1, 12
     c61:	33e8           	l32i.n	a14, a3, 12
     c63:	620134        	ae_sq32f.i	aeq0, a1, 12
     c66:	3168           	l32i.n	a6, a1, 12
     c68:	53bc70        	max	a11, a12, a7
     c6b:	fd2141        	l32r	a4, f0 (4738 <airoha_divide_limit_1>)
     c6e:	53fe60        	max	a15, a14, a6
     c71:	43abf0        	min	a10, a11, a15
     c74:	0004e0        	callx8	a4
     c77:	600364        	ae_lq32f.i	aeq0, a3, 24
     c7a:	4c0244        	ae_lp24.i	aep0, a2, 16
     c7d:	379aa4        	ae_truncp24a32x2	aep1, a10, a10
     c80:	e207a1824e 	{ l16si	a4, a2, 48; ae_mulafp24s.ll	aeq0, aep1, aep0 }
     c85:	f966a0225e 	{ l16si	a5, a2, 4; ae_movp48	aep2, aep1 }
     c8a:	fc2460b27e 	{ l16si	a7, a2, 22; ae_roundsq32asym	aeq0, aeq0 }
     c8f:	620364        	ae_sq32f.i	aeq0, a3, 24
     c92:	18a547        	bge	a5, a4, cae <aec_post_calc+0x7a>
     c95:	0a9242        	l16si	a4, a2, 20
     c98:	179252        	l16si	a5, a2, 46
     c9b:	060c           	movi.n	a6, 0
     c9d:	742b           	addi.n	a7, a4, 2
     c9f:	725650        	salt	a5, a6, a5
     ca2:	837450        	moveqz	a7, a4, a5
     ca5:	031674        	wur.ae_sar	a7
     ca8:	0b10a4        	ae_sllssp24s	aep2, aep1
     cab:	000506        	j	cc3 <aec_post_calc+0x8f>

00000cae <aec_post_calc+0x7a>:
     cae:	074d           	mov.n	a4, a7
     cb0:	0f27a6        	blti	a7, 2, cc3 <aec_post_calc+0x8f>
     cb3:	944d           	ae_zext16	a4, a4
     cb5:	f9668ff44e 	{ addi	a4, a4, -1; ae_movp48	aep2, aep1 }
     cba:	058476        	loop	a4, cc3 <aec_post_calc+0x8f>
     cbd:	012174        	ae_mulfp24s.ll	aeq0, aep2, aep1
     cc0:	1b8d24        	ae_roundsp24q48asym	aep2, aeq0

00000cc3 <aec_post_calc+0x8f>:
     cc3:	401274        	ae_lp16f.i	aep1, a2, 14
     cc6:	d82a7d037f 	{ ae_lq32f.i	aeq0, a3, 28; ae_maxp24s	aep1, aep2, aep1 }
     ccb:	011034        	ae_mulafp24s.ll	aeq0, aep1, aep0
     cce:	060934        	ae_roundsq32asym	aeq0, aeq0
     cd1:	620374        	ae_sq32f.i	aeq0, a3, 28
     cd4:	f01d           	retw.n

00000cd6 <aec_post_calc+0xa2>:
	...

00000cd8 <aec_post_calc_FB>:
     cd8:	006136        	entry	a1, 48
     cdb:	140c           	movi.n	a4, 1
     cdd:	0144d0        	slli	a4, a4, 19
     ce0:	1ec272        	addi	a7, a2, 30
     ce3:	160c           	movi.n	a6, 1
     ce5:	360434        	ae_cvtq48a32s	aeq0, a4
     ce8:	400704        	ae_lp16f.i	aep0, a7, 0
     ceb:	116600        	slli	a6, a6, 16
     cee:	d4e2bec6ff 	{ ae_cvtq48a32s	aeq3, a6; ae_mulfq32sp16u.l	aeq0, aeq0, aep0 }
     cf3:	23d8           	l32i.n	a13, a3, 8
     cf5:	d6e3b9813f 	{ ae_sq32f.i	aeq0, a1, 12; ae_mulfq32sp16u.l	aeq0, aeq3, aep0 }
     cfa:	31f8           	l32i.n	a15, a1, 12
     cfc:	620134        	ae_sq32f.i	aeq0, a1, 12
     cff:	33e8           	l32i.n	a14, a3, 12
     d01:	3158           	l32i.n	a5, a1, 12
     d03:	53bdf0        	max	a11, a13, a15
     d06:	972242        	l32i	a4, a2, 0x25c
     d09:	535e50        	max	a5, a14, a5
     d0c:	43ab50        	min	a10, a11, a5
     d0f:	fcf851        	l32r	a5, f0 (4738 <airoha_divide_limit_1>)
     d12:	0005e0        	callx8	a5
     d15:	76c452        	addi	a5, a4, 118
     d18:	600364        	ae_lq32f.i	aeq0, a3, 24
     d1b:	4c0244        	ae_lp24.i	aep0, a2, 16
     d1e:	379aa4        	ae_truncp24a32x2	aep1, a10, a10
     d21:	e207a0226e 	{ l16si	a6, a2, 4; ae_mulafp24s.ll	aeq0, aep1, aep0 }
     d26:	f966aff55e 	{ l16si	a5, a5, 0x1fe; ae_movp48	aep2, aep1 }
     d2b:	fc2460b27e 	{ l16si	a7, a2, 22; ae_roundsq32asym	aeq0, aeq0 }
     d30:	620364        	ae_sq32f.i	aeq0, a3, 24
     d33:	1fa657        	bge	a6, a5, d56 <aec_post_calc_FB+0x7e>
     d36:	78c452        	addi	a5, a4, 120
     d39:	04d462        	addmi	a6, a4, 0x400
     d3c:	0a9222        	l16si	a2, a2, 20
     d3f:	ff9552        	l16si	a5, a5, 0x1fe
     d42:	269662        	l16si	a6, a6, 76
     d45:	722b           	addi.n	a7, a2, 2
     d47:	725650        	salt	a5, a6, a5
     d4a:	837250        	moveqz	a7, a2, a5
     d4d:	031674        	wur.ae_sar	a7
     d50:	0b10a4        	ae_sllssp24s	aep2, aep1
     d53:	000506        	j	d6b <aec_post_calc_FB+0x93>

00000d56 <aec_post_calc_FB+0x7e>:
     d56:	072d           	mov.n	a2, a7
     d58:	0f27a6        	blti	a7, 2, d6b <aec_post_calc_FB+0x93>
     d5b:	922d           	ae_zext16	a2, a2
     d5d:	f9668ff22e 	{ addi	a2, a2, -1; ae_movp48	aep2, aep1 }
     d62:	058276        	loop	a2, d6b <aec_post_calc_FB+0x93>
     d65:	012174        	ae_mulfp24s.ll	aeq0, aep2, aep1
     d68:	1b8d24        	ae_roundsp24q48asym	aep2, aeq0

00000d6b <aec_post_calc_FB+0x93>:
     d6b:	6ea222        	movi	a2, 0x26e
     d6e:	411424        	ae_lp16f.x	aep1, a4, a2
     d71:	d82a7d037f 	{ ae_lq32f.i	aeq0, a3, 28; ae_maxp24s	aep1, aep2, aep1 }
     d76:	011034        	ae_mulafp24s.ll	aeq0, aep1, aep0
     d79:	060934        	ae_roundsq32asym	aeq0, aeq0
     d7c:	620374        	ae_sq32f.i	aeq0, a3, 28
     d7f:	f01d           	retw.n

00000d81 <aec_post_calc_FB+0xa9>:
     d81:	000000                                        ...

00000d84 <subband_aec_block>:
     d84:	006136        	entry	a1, 48
     d87:	a3e8           	l32i.n	a14, a3, 40
     d89:	fd24a1137e 	{ l16si	a7, a3, 34; ae_zeroq56	aeq1 }
     d8e:	f41b           	addi.n	a15, a4, 1
     d90:	3169           	s32i.n	a6, a1, 12
     d92:	a388           	l32i.n	a8, a3, 40
     d94:	9067e0        	addx2	a6, a7, a14
     d97:	b3f440        	movgez	a15, a4, a4
     d9a:	21a1f0        	srai	a10, a15, 1
     d9d:	f3f680        	wur.ae_cbegin0	a8
     da0:	f3f760        	wur.ae_cend0	a6
     da3:	2e24a6        	blti	a4, 2, dd5 <subband_aec_block+0x51>
     da6:	942292        	l32i	a9, a2, 0x250
     da9:	e378           	l32i.n	a7, a3, 56
     dab:	c368           	l32i.n	a6, a3, 48
     dad:	600344        	ae_lq32f.i	aeq0, a3, 16
     db0:	480c           	movi.n	a8, 4
     db2:	440704        	ae_lp16x2f.i	aep0, a7, 0
     db5:	fcc992        	addi	a9, a9, -4
     db8:	198a76        	loop	a10, dd5 <subband_aec_block+0x51>
     dbb:	09001aa68f 	{ ae_lp16x2f.c	aep2, a6, a8; ae_mulzaafq32sp16s.hh	aeq2, aeq0, aep0, aeq0, aep0 }
     dc0:	11006d871f 	{ ae_lp16x2f.iu	aep0, a7, 4; ae_mulzaafq32sp16s.ll	aeq3, aeq0, aep0, aeq0, aep0 }
     dc5:	1baf74        	ae_roundsp16q48asym	aep7, aeq2
     dc8:	1bbf14        	ae_roundsp16q48asym	aep1, aeq3
     dcb:	f04a7e715f 	{ ae_selp24.hl	aep1, aep7, aep1; ae_mulssfp24s.hh.ll	aeq1, aep2, aep2 }
     dd0:	e22473991f 	{ ae_sp16x2f.iu	aep1, a9, 4; ae_mulaafp24s.hh.ll	aeq1, aep1, aep1 }

00000dd5 <subband_aec_block+0x51>:
     dd5:	351234        	ae_sraiq56	aeq0, aeq1, 8
     dd8:	618304        	ae_lq56.i	aeq2, a3, 0
     ddb:	f87230926e 	{ l32i	a6, a2, 36; ae_addq56	aeq0, aeq2, aeq0 }
     de0:	fc00fec6ff 	{ ae_cvtq48a32s	aeq3, a6; ae_satq48s	aeq0, aeq0 }
     de5:	f87b1421af 	{ s32i.n	a10, a1, 8; ae_maxq56s	aeq0, aeq0, aeq3 }
     dea:	1129           	s32i.n	a2, a1, 4
     dec:	630304        	ae_sq56s.i	aeq0, a3, 0
     def:	00e5d6        	bgez	a5, e01 <subband_aec_block+0x7d>
     df2:	109362        	l16si	a6, a3, 32
     df5:	368b04        	ae_trunca32q48	a11, aeq0
     df8:	11a670        	slli	a10, a6, 9
     dfb:	fcbe61        	l32r	a6, f4 (4630 <airoha_divide>)
     dfe:	0006e0        	callx8	a6

00000e01 <subband_aec_block+0x7d>:
     e01:	c378           	l32i.n	a7, a3, 48
     e03:	7614a6        	blti	a4, 1, e7d <subband_aec_block+0xf9>
     e06:	1128           	l32i.n	a2, a1, 4
     e08:	f3c8           	l32i.n	a12, a3, 60
     e0a:	d3d8           	l32i.n	a13, a3, 52
     e0c:	9422f2        	l32i	a15, a2, 0x250
     e0f:	b368           	l32i.n	a6, a3, 44
     e11:	119382        	l16si	a8, a3, 34
     e14:	360b34        	ae_cvtq48a32s	aeq0, a11
     e17:	290c           	movi.n	a9, 2
     e19:	fec6b2        	addi	a11, a6, -2
     e1c:	feccc2        	addi	a12, a12, -2
     e1f:	fecdd2        	addi	a13, a13, -2
     e22:	04ed           	mov.n	a14, a4
     e24:	fecff2        	addi	a15, a15, -2
     e27:	408f14        	ae_lp16f.iu	aep0, a15, 2
     e2a:	fc24e2879f 	{ ae_sp16f.l.c	aep0, a7, a9; nop }
     e2f:	408d14        	ae_lp16f.iu	aep0, a13, 2
     e32:	fd0c136bbf 	{ or	a6, a11, a11; ae_cvtq48p24s.l	aeq1, aep0 }
     e37:	0f18a6        	blti	a8, 1, e4a <subband_aec_block+0xc6>
     e3a:	408614        	ae_lp16f.iu	aep0, a6, 2
     e3d:	098876        	loop	a8, e4a <subband_aec_block+0xc6>
     e40:	fc24d9179f 	{ ae_lp16f.c	aep1, a7, a9; nop }
     e45:	ee21ec861f 	{ ae_lp16f.iu	aep0, a6, 2; ae_mulsfp24s.ll	aeq1, aep0, aep1 }

00000e4a <subband_aec_block+0xc6>:
     e4a:	f86b936bbf 	{ or	a6, a11, a11; ae_roundsp16q48asym	aep0, aeq1 }
     e4f:	d4e2728c1f 	{ ae_sp16f.l.iu	aep0, a12, 2; ae_mulfq32sp16s.l	aeq1, aeq0, aep0 }
     e54:	0205d6        	bgez	a5, e78 <subband_aec_block+0xf4>
     e57:	fc24fe9a4f 	{ ae_slaasq56s	aeq1, aeq1, a10; nop }
     e5c:	1b9d04        	ae_roundsp24q48asym	aep0, aeq1
     e5f:	1518a6        	blti	a8, 1, e78 <subband_aec_block+0xf4>
     e62:	409614        	ae_lp16f.iu	aep1, a6, 2
     e65:	0f8876        	loop	a8, e78 <subband_aec_block+0xf4>
     e68:	fd2c19779f 	{ ae_lp16f.c	aep7, a7, a9; ae_cvtq48p24s.l	aeq1, aep1 }
     e6d:	e2e3ec961f 	{ ae_lp16f.iu	aep1, a6, 2; ae_mulafp24s.ll	aeq1, aep0, aep7 }
     e72:	1b9f24        	ae_roundsp16q48asym	aep2, aeq1
     e75:	4226f4        	ae_sp16f.l.i	aep2, a6, -2
     e78:	ee0b           	addi.n	a14, a14, -1
     e7a:	fa9e56        	bnez	a14, e27 <subband_aec_block+0xa3>

00000e7d <subband_aec_block+0xf9>:
     e7d:	fe2494c37f 	{ s32i.n	a7, a3, 48; ae_zeroq56	aeq2 }
     e82:	fc24bf217f 	{ ae_movq56	aeq1, aeq2; ae_zeroq56	aeq0 }
     e87:	1c24a6        	blti	a4, 2, ea7 <subband_aec_block+0x123>
     e8a:	d368           	l32i.n	a6, a3, 52
     e8c:	f378           	l32i.n	a7, a3, 60
     e8e:	2128           	l32i.n	a2, a1, 8
     e90:	fcc662        	addi	a6, a6, -4
     e93:	fcc772        	addi	a7, a7, -4
     e96:	0d8276        	loop	a2, ea7 <subband_aec_block+0x123>
     e99:	448614        	ae_lp16x2f.iu	aep0, a6, 4
     e9c:	e2006d971f 	{ ae_lp16x2f.iu	aep1, a7, 4; ae_mulaafp24s.hh.ll	aeq1, aep0, aep0 }
     ea1:	050104        	ae_mulaafp24s.hh.ll	aeq0, aep0, aep1
     ea4:	059104        	ae_mulaafp24s.hh.ll	aeq2, aep1, aep1

00000ea7 <subband_aec_block+0x123>:
     ea7:	31f8           	l32i.n	a15, a1, 12
     ea9:	1198           	l32i.n	a9, a1, 4
     eab:	020c           	movi.n	a2, 0
     ead:	060c           	movi.n	a6, 0
     eaf:	2129           	s32i.n	a2, a1, 8
     eb1:	0f4fa6        	blti	a15, 4, ec4 <subband_aec_block+0x140>
     eb4:	35e134        	ae_sraiq56	aeq3, aeq2, 4
     eb7:	fab6c0006f 	{ movi	a6, 0; ae_subq56	aeq2, aeq2, aeq3 }
     ebc:	d65400012f 	{ movi	a2, 1; ae_ltq56s	b0, aeq1, aeq2 }
     ec1:	d36200        	movt	a6, a2, b0

00000ec4 <subband_aec_block+0x140>:
     ec4:	355134        	ae_sraiq56	aeq1, aeq1, 4
     ec7:	fd2c7b010f 	{ ae_sraiq56	aeq0, aeq0, 4; ae_roundsq32asym	aeq1, aeq1 }
     ecc:	fc247f17ef 	{ ae_trunca32q48	a7, aeq1; ae_roundsq32asym	aeq0, aeq0 }
     ed1:	240382        	l8ui	a8, a3, 36
     ed4:	368204        	ae_trunca32q48	a2, aeq0
     ed7:	0f0c           	movi.n	a15, 0
     ed9:	076827        	bbci	a8, 2, ee4 <subband_aec_block+0x160>
     edc:	972982        	l32i	a8, a9, 0x25c
     edf:	628f80        	saltu	a8, a15, a8
     ee2:	2189           	s32i.n	a8, a1, 8
     ee4:	fc8581        	l32r	a8, f8 (b34 <common_x_pow>)
     ee7:	03ad           	mov.n	a10, a3
     ee9:	07bd           	mov.n	a11, a7
     eeb:	02cd           	mov.n	a12, a2
     eed:	0008e0        	callx8	a8
     ef0:	2188           	l32i.n	a8, a1, 8
     ef2:	6a6a           	add.n	a6, a10, a6
     ef4:	48ac           	beqz.n	a8, f1c <subband_aec_block+0x198>
     ef6:	221666        	bnei	a6, 1, f1c <subband_aec_block+0x198>
     ef9:	3168           	l32i.n	a6, a1, 12
     efb:	1188           	l32i.n	a8, a1, 4
     efd:	0b46e6        	bgei	a6, 4, f0c <subband_aec_block+0x188>
     f00:	972862        	l32i	a6, a8, 0x25c
     f03:	76c662        	addi	a6, a6, 118
     f06:	ff9662        	l16si	a6, a6, 0x1fe
     f09:	1d16e6        	bgei	a6, 1, f2a <subband_aec_block+0x1a6>
     f0c:	212220        	srai	a2, a2, 2
     f0f:	602120        	abs	a2, a2
     f12:	902220        	addx2	a2, a2, a2
     f15:	05a277        	bge	a2, a7, f1e <subband_aec_block+0x19a>
     f18:	000386        	j	f2a <subband_aec_block+0x1a6>

00000f1b <subband_aec_block+0x197>:
	...

00000f1c <subband_aec_block+0x198>:
     f1c:	a68c           	beqz.n	a6, f2a <subband_aec_block+0x1a6>
     f1e:	f3a8           	l32i.n	a10, a3, 60
     f20:	d3b8           	l32i.n	a11, a3, 52
     f22:	fc3e21        	l32r	a2, 1c (6c04 <xt_memcpy>)
     f25:	04cd           	mov.n	a12, a4
     f27:	0002e0        	callx8	a2
     f2a:	1128           	l32i.n	a2, a1, 4
     f2c:	fc24a0d22e 	{ l16si	a2, a2, 26; ae_zeroq56	aeq0 }
     f31:	2122a6        	blti	a2, 2, f56 <subband_aec_block+0x1d2>
     f34:	b348           	l32i.n	a4, a3, 44
     f36:	119362        	l16si	a6, a3, 34
     f39:	e21b           	addi.n	a14, a2, 1
     f3b:	b3e220        	movgez	a14, a2, a2
     f3e:	904640        	addx2	a4, a6, a4
     f41:	11f2f0        	slli	a15, a2, 1
     f44:	c024f0        	sub	a2, a4, a15
     f47:	2161e0        	srai	a6, a14, 1
     f4a:	fcc222        	addi	a2, a2, -4
     f4d:	058676        	loop	a6, f56 <subband_aec_block+0x1d2>
     f50:	448214        	ae_lp16x2f.iu	aep0, a2, 4
     f53:	050004        	ae_mulaafp24s.hh.ll	aeq0, aep0, aep0

00000f56 <subband_aec_block+0x1d2>:
     f56:	3328           	l32i.n	a2, a3, 12
     f58:	060c           	movi.n	a6, 0
     f5a:	3500b4        	ae_sraiq56	aeq0, aeq0, 2
     f5d:	53a260        	max	a10, a2, a6
     f60:	fc247023be 	{ l32i	a11, a3, 8; ae_roundsq32asym	aeq0, aeq0 }
     f65:	fc6221        	l32r	a2, f0 (4738 <airoha_divide_limit_1>)
     f68:	368404        	ae_trunca32q48	a4, aeq0
     f6b:	0002e0        	callx8	a2
     f6e:	1198           	l32i.n	a9, a1, 4
     f70:	ffa022        	movi	a2, 255
     f73:	2403f2        	l8ui	a15, a3, 36
     f76:	049962        	l16si	a6, a9, 8
     f79:	7fd222        	addmi	a2, a2, 0x7f00
     f7c:	3170a0        	srai	a7, a10, 16
     f7f:	c02270        	sub	a2, a2, a7
     f82:	532260        	max	a2, a2, a6
     f85:	05ef17        	bbsi	a15, 1, f8e <subband_aec_block+0x20a>
     f88:	105322        	s16i	a2, a3, 32
     f8b:	000786        	j	fad <subband_aec_block+0x229>

00000f8e <subband_aec_block+0x20a>:
     f8e:	039962        	l16si	a6, a9, 6
     f91:	09ad           	mov.n	a10, a9
     f93:	03bd           	mov.n	a11, a3
     f95:	822260        	mull	a2, a2, a6
     f98:	04cd           	mov.n	a12, a4
     f9a:	40d222        	addmi	a2, a2, 0x4000
     f9d:	412f20        	srli	a2, a2, 15
     fa0:	105322        	s16i	a2, a3, 32
     fa3:	fc5621        	l32r	a2, fc (b9c <ref_gain_adapt>)
     fa6:	05dd           	mov.n	a13, a5
     fa8:	0002e0        	callx8	a2
     fab:	1198           	l32i.n	a9, a1, 4
     fad:	059922        	l16si	a2, a9, 10
     fb0:	069972        	l16si	a7, a9, 12
     fb3:	fc4ef1        	l32r	a15, ec (7800 <immediate_num>)
     fb6:	112200        	slli	a2, a2, 16
     fb9:	56a247        	bge	a2, a4, 1013 <subband_aec_block+0x28f>
     fbc:	129322        	l16si	a2, a3, 36
     fbf:	260c           	movi.n	a6, 2
     fc1:	11e700        	slli	a14, a7, 16
     fc4:	202260        	or	a2, a2, a6
     fc7:	125322        	s16i	a2, a3, 36
     fca:	18cf22        	addi	a2, a15, 24
     fcd:	07ae47        	bge	a14, a4, fd8 <subband_aec_block+0x254>
     fd0:	400204        	ae_lp16f.i	aep0, a2, 0
     fd3:	000106        	j	fdb <subband_aec_block+0x257>

00000fd6 <subband_aec_block+0x252>:
	...

00000fd8 <subband_aec_block+0x254>:
     fd8:	400214        	ae_lp16f.i	aep0, a2, 2
     fdb:	0d9922        	l16si	a2, a9, 26
     fde:	3122a6        	blti	a2, 2, 1013 <subband_aec_block+0x28f>
     fe1:	b348           	l32i.n	a4, a3, 44
     fe3:	119362        	l16si	a6, a3, 34
     fe6:	e21b           	addi.n	a14, a2, 1
     fe8:	b3e220        	movgez	a14, a2, a2
     feb:	904640        	addx2	a4, a6, a4
     fee:	11f2f0        	slli	a15, a2, 1
     ff1:	c024f0        	sub	a2, a4, a15
     ff4:	2161e0        	srai	a6, a14, 1
     ff7:	441204        	ae_lp16x2f.i	aep1, a2, 0
     ffa:	fec242        	addi	a4, a2, -2
     ffd:	128676        	loop	a6, 1013 <subband_aec_block+0x28f>
    1000:	011054        	ae_mulfp24s.hl	aeq0, aep1, aep0
    1003:	ea05ed921f 	{ ae_lp16x2f.iu	aep1, a2, 4; ae_mulfp24s.ll	aeq1, aep1, aep0 }
    1008:	1b8f24        	ae_roundsp16q48asym	aep2, aeq0
    100b:	fb6bf2a41f 	{ ae_sp16f.l.iu	aep2, a4, 2; ae_roundsp16q48asym	aep7, aeq1 }
    1010:	42f414        	ae_sp16f.l.iu	aep7, a4, 2

00001013 <subband_aec_block+0x28f>:
    1013:	121322        	l16ui	a2, a3, 36
    1016:	31c8           	l32i.n	a12, a1, 12
    1018:	2148           	l32i.n	a4, a1, 8
    101a:	33e207        	bbsi	a2, 0, 1051 <subband_aec_block+0x2cd>
    101d:	3178           	l32i.n	a7, a1, 12
    101f:	84bc           	beqz.n	a4, 105b <subband_aec_block+0x2d7>
    1021:	972942        	l32i	a4, a9, 0x25c
    1024:	04d462        	addmi	a6, a4, 0x400
    1027:	241642        	l16ui	a4, a6, 72
    102a:	00d5d6        	bgez	a5, 103b <subband_aec_block+0x2b7>
    102d:	0a1766        	bnei	a7, 1, 103b <subband_aec_block+0x2b7>
    1030:	ffa552        	movi	a5, 0x5ff
    1033:	0c3547        	bltu	a5, a4, 1043 <subband_aec_block+0x2bf>
    1036:	441b           	addi.n	a4, a4, 1
    1038:	245642        	s16i	a4, a6, 72

0000103b <subband_aec_block+0x2b7>:
    103b:	944d           	ae_zext16	a4, a4
    103d:	00a652        	movi	a5, 0x600
    1040:	073457        	bltu	a4, a5, 104b <subband_aec_block+0x2c7>
    1043:	240c           	movi.n	a4, 2
    1045:	202240        	or	a2, a2, a4
    1048:	125322        	s16i	a2, a3, 36
    104b:	fc2e21        	l32r	a2, 104 (cd8 <aec_post_calc_FB>)
    104e:	000086        	j	1054 <subband_aec_block+0x2d0>

00001051 <subband_aec_block+0x2cd>:
    1051:	fc2b21        	l32r	a2, 100 (c34 <aec_post_calc>)
    1054:	09ad           	mov.n	a10, a9
    1056:	03bd           	mov.n	a11, a3
    1058:	0002e0        	callx8	a2
    105b:	f01d           	retw.n

0000105d <subband_aec_block+0x2d9>:
    105d:	000000                                        ...

00001060 <subband_aec_mid_channel>:
    1060:	006136        	entry	a1, 48
    1063:	a3e8           	l32i.n	a14, a3, 40
    1065:	fd24a1137e 	{ l16si	a7, a3, 34; ae_zeroq56	aeq1 }
    106a:	3159           	s32i.n	a5, a1, 12
    106c:	a398           	l32i.n	a9, a3, 40
    106e:	e358           	l32i.n	a5, a3, 56
    1070:	9422f2        	l32i	a15, a2, 0x250
    1073:	f3f690        	wur.ae_cbegin0	a9
    1076:	c398           	l32i.n	a9, a3, 48
    1078:	a077e0        	addx4	a7, a7, a14
    107b:	0aa082        	movi	a8, 10
    107e:	f3f770        	wur.ae_cend0	a7
    1081:	04a062        	movi	a6, 4
    1084:	600344        	ae_lq32f.i	aeq0, a3, 16
    1087:	440504        	ae_lp16x2f.i	aep0, a5, 0
    108a:	fccf72        	addi	a7, a15, -4
    108d:	198876        	loop	a8, 10aa <subband_aec_mid_channel+0x4a>
    1090:	09001aa96f 	{ ae_lp16x2f.c	aep2, a9, a6; ae_mulzaafq32sp16s.hh	aeq2, aeq0, aep0, aeq0, aep0 }
    1095:	11006d851f 	{ ae_lp16x2f.iu	aep0, a5, 4; ae_mulzaafq32sp16s.ll	aeq3, aeq0, aep0, aeq0, aep0 }
    109a:	1baf74        	ae_roundsp16q48asym	aep7, aeq2
    109d:	1bbf14        	ae_roundsp16q48asym	aep1, aeq3
    10a0:	f04a7e715f 	{ ae_selp24.hl	aep1, aep7, aep1; ae_mulssfp24s.hh.ll	aeq1, aep2, aep2 }
    10a5:	e22473971f 	{ ae_sp16x2f.iu	aep1, a7, 4; ae_mulaafp24s.hh.ll	aeq1, aep1, aep1 }

000010aa <subband_aec_mid_channel+0x4a>:
    10aa:	9258           	l32i.n	a5, a2, 36
    10ac:	3511b4        	ae_sraiq56	aeq0, aeq1, 6
    10af:	618304        	ae_lq56.i	aeq2, a3, 0
    10b2:	f87221036e 	{ l16si	a6, a3, 32; ae_addq56	aeq0, aeq2, aeq0 }
    10b7:	1155e0        	slli	a5, a5, 2
    10ba:	fc00fec5ff 	{ ae_cvtq48a32s	aeq3, a5; ae_satq48s	aeq0, aeq0 }
    10bf:	f87b13533f 	{ or	a5, a3, a3; ae_maxq56s	aeq0, aeq0, aeq3 }
    10c4:	630304        	ae_sq56s.i	aeq0, a3, 0
    10c7:	00d4d6        	bgez	a4, 10d8 <subband_aec_mid_channel+0x78>
    10ca:	368b04        	ae_trunca32q48	a11, aeq0
    10cd:	11a650        	slli	a10, a6, 11
    10d0:	fc0931        	l32r	a3, f4 (4630 <airoha_divide>)
    10d3:	0003e0        	callx8	a3
    10d6:	053d           	mov.n	a3, a5

000010d8 <subband_aec_mid_channel+0x78>:
    10d8:	d3c8           	l32i.n	a12, a3, 52
    10da:	9422e2        	l32i	a14, a2, 0x250
    10dd:	f388           	l32i.n	a8, a3, 60
    10df:	c368           	l32i.n	a6, a3, 48
    10e1:	119372        	l16si	a7, a3, 34
    10e4:	b338           	l32i.n	a3, a3, 44
    10e6:	2129           	s32i.n	a2, a1, 8
    10e8:	360b34        	ae_cvtq48a32s	aeq0, a11
    10eb:	a90c           	movi.n	a9, 10
    10ed:	04a0b2        	movi	a11, 4
    10f0:	fcccc2        	addi	a12, a12, -4
    10f3:	fec8d2        	addi	a13, a8, -2
    10f6:	fccee2        	addi	a14, a14, -4
    10f9:	fec322        	addi	a2, a3, -2
    10fc:	448e14        	ae_lp16x2f.iu	aep0, a14, 4
    10ff:	fc24e406bf 	{ ae_sp16x2f.c	aep0, a6, a11; nop }
    1104:	448c14        	ae_lp16x2f.iu	aep0, a12, 4
    1107:	fe0413833f 	{ or	a8, a3, a3; ae_cvtq48p24s.h	aeq2, aep0 }
    110c:	0a4084        	ae_cvtq48p24s.l	aeq1, aep0
    110f:	1217a6        	blti	a7, 1, 1125 <subband_aec_mid_channel+0xc5>
    1112:	440304        	ae_lp16x2f.i	aep0, a3, 0
    1115:	0c8776        	loop	a7, 1125 <subband_aec_mid_channel+0xc5>
    1118:	fc24da96bf 	{ ae_lp16x2f.c	aep1, a6, a11; nop }
    111d:	0581c4        	ae_mulssfp24s.hh.ll	aeq2, aep0, aep1
    1120:	ee206d881f 	{ ae_lp16x2f.iu	aep0, a8, 4; ae_mulsafp24s.hl.lh	aeq1, aep0, aep1 }

00001125 <subband_aec_mid_channel+0xc5>:
    1125:	1baf04        	ae_roundsp16q48asym	aep0, aeq2
    1128:	f86bf28d1f 	{ ae_sp16f.l.iu	aep0, a13, 2; ae_roundsp16q48asym	aep1, aeq1 }
    112d:	d4e2729d1f 	{ ae_sp16f.l.iu	aep1, a13, 2; ae_mulfq32sp16s.l	aeq1, aeq0, aep0 }
    1132:	0364d6        	bgez	a4, 116c <subband_aec_mid_channel+0x10c>
    1135:	d5e63e9a4f 	{ ae_slaasq56s	aeq1, aeq1, a10; ae_mulfq32sp16s.l	aeq2, aeq0, aep1 }
    113a:	038d           	mov.n	a8, a3
    113c:	f86fbeaa8f 	{ ae_slaasq56s	aeq2, aeq2, a10; ae_roundsp24q48asym	aep0, aeq1 }
    1141:	f877d3f22f 	{ or	a15, a2, a2; ae_roundsp24q48asym	aep1, aeq2 }
    1146:	2217a6        	blti	a7, 1, 116c <subband_aec_mid_channel+0x10c>
    1149:	dc20ad130f 	{ ae_lp16x2f.i	aep1, a3, 0; ae_selp24.hl	aep0, aep0, aep1 }
    114e:	1a8776        	loop	a7, 116c <subband_aec_mid_channel+0x10c>
    1151:	fd241aa6bf 	{ ae_lp16x2f.c	aep2, a6, a11; ae_cvtq48p24s.h	aeq1, aep1 }
    1156:	fe2c2d981f 	{ ae_lp16x2f.iu	aep1, a8, 4; ae_cvtq48p24s.l	aeq2, aep1 }
    115b:	050a04        	ae_mulaafp24s.hh.ll	aeq1, aep0, aep2
    115e:	058254        	ae_mulasfp24s.hl.lh	aeq2, aep0, aep2
    1161:	1b9f64        	ae_roundsp16q48asym	aep6, aeq1
    1164:	fb73f2ef1f 	{ ae_sp16f.l.iu	aep6, a15, 2; ae_roundsp16q48asym	aep7, aeq2 }
    1169:	42ff14        	ae_sp16f.l.iu	aep7, a15, 2
    116c:	990b           	addi.n	a9, a9, -1
    116e:	f8a956        	bnez	a9, 10fc <subband_aec_mid_channel+0x9c>
    1171:	fd24b0d57e 	{ l32i	a7, a5, 52; ae_zeroq56	aeq1 }
    1176:	f528           	l32i.n	a2, a5, 60
    1178:	c569           	s32i.n	a6, a5, 48
    117a:	a30c           	movi.n	a3, 10
    117c:	208550        	or	a8, a5, a5
    117f:	fe0c6d070f 	{ ae_lp16x2f.i	aep0, a7, 0; ae_movq56	aeq2, aeq1 }
    1184:	fc0c6d120f 	{ ae_lp16x2f.i	aep1, a2, 0; ae_movq56	aeq0, aeq1 }
    1189:	0c8376        	loop	a3, 1199 <subband_aec_mid_channel+0x139>
    118c:	058104        	ae_mulaafp24s.hh.ll	aeq2, aep0, aep1
    118f:	ea202d921f 	{ ae_lp16x2f.iu	aep1, a2, 4; ae_mulasfp24s.hl.lh	aeq0, aep0, aep1 }
    1194:	e2006d871f 	{ ae_lp16x2f.iu	aep0, a7, 4; ae_mulaafp24s.hh.ll	aeq1, aep0, aep0 }

00001199 <subband_aec_mid_channel+0x139>:
    1199:	35a134        	ae_sraiq56	aeq2, aeq2, 4
    119c:	f877bb010f 	{ ae_sraiq56	aeq0, aeq0, 4; ae_roundsp24q48asym	aep0, aeq2 }
    11a1:	f867fb114f 	{ ae_sraiq56	aeq1, aeq1, 4; ae_roundsp24q48asym	aep1, aeq0 }
    11a6:	fd2c7e011f 	{ ae_selp24.hl	aep0, aep0, aep1; ae_roundsq32asym	aeq1, aeq1 }
    11ab:	f1028000af 	{ movi	a10, 0; ae_mulzaafp24s.hh.ll	aeq2, aep0, aep0 }
    11b0:	fb9f21        	l32r	a2, 2c (514 <HIFI_sqrt>)
    11b3:	ff347f16ef 	{ ae_trunca32q48	a6, aeq1; ae_roundsq32asym	aeq3, aeq2 }
    11b8:	36bb04        	ae_trunca32q48	a11, aeq3
    11bb:	070c           	movi.n	a7, 0
    11bd:	0002e0        	callx8	a2
    11c0:	360b34        	ae_cvtq48a32s	aeq0, a11
    11c3:	fc24fe8a0f 	{ ae_slaasq56s	aeq0, aeq0, a10; nop }
    11c8:	fc2453955f 	{ or	a9, a5, a5; ae_roundsq32asym	aeq0, aeq0 }
    11cd:	240522        	l8ui	a2, a5, 36
    11d0:	368c04        	ae_trunca32q48	a12, aeq0
    11d3:	2188           	l32i.n	a8, a1, 8
    11d5:	0ee227        	bbsi	a2, 2, 11e7 <subband_aec_mid_channel+0x187>
    11d8:	fbc821        	l32r	a2, f8 (b34 <common_x_pow>)
    11db:	09ad           	mov.n	a10, a9
    11dd:	06bd           	mov.n	a11, a6
    11df:	0002e0        	callx8	a2
    11e2:	059d           	mov.n	a9, a5
    11e4:	000806        	j	1208 <subband_aec_mid_channel+0x1a8>

000011e7 <subband_aec_mid_channel+0x187>:
    11e7:	fbc431        	l32r	a3, f8 (b34 <common_x_pow>)
    11ea:	09ad           	mov.n	a10, a9
    11ec:	972822        	l32i	a2, a8, 0x25c
    11ef:	06bd           	mov.n	a11, a6
    11f1:	0003e0        	callx8	a3
    11f4:	059d           	mov.n	a9, a5
    11f6:	e28c           	beqz.n	a2, 1208 <subband_aec_mid_channel+0x1a8>
    11f8:	2128           	l32i.n	a2, a1, 8
    11fa:	170c           	movi.n	a7, 1
    11fc:	972222        	l32i	a2, a2, 0x25c
    11ff:	76c222        	addi	a2, a2, 118
    1202:	ff9222        	l16si	a2, a2, 0x1fe
    1205:	0f12e6        	bgei	a2, 1, 1218 <subband_aec_mid_channel+0x1b8>
    1208:	ca8c           	beqz.n	a10, 1218 <subband_aec_mid_channel+0x1b8>
    120a:	f9a8           	l32i.n	a10, a9, 60
    120c:	d9b8           	l32i.n	a11, a9, 52
    120e:	fb8321        	l32r	a2, 1c (6c04 <xt_memcpy>)
    1211:	4c1c           	movi.n	a12, 20
    1213:	0002e0        	callx8	a2
    1216:	059d           	mov.n	a9, a5
    1218:	2128           	l32i.n	a2, a1, 8
    121a:	fc24a0d22e 	{ l16si	a2, a2, 26; ae_zeroq56	aeq0 }
    121f:	1712a6        	blti	a2, 1, 123a <subband_aec_mid_channel+0x1da>
    1222:	119932        	l16si	a3, a9, 34
    1225:	0b2962        	l32i	a6, a9, 44
    1228:	c03320        	sub	a3, a3, a2
    122b:	a03360        	addx4	a3, a3, a6
    122e:	fcc332        	addi	a3, a3, -4
    1231:	058276        	loop	a2, 123a <subband_aec_mid_channel+0x1da>
    1234:	448314        	ae_lp16x2f.iu	aep0, a3, 4
    1237:	050004        	ae_mulaafp24s.hh.ll	aeq0, aep0, aep0

0000123a <subband_aec_mid_channel+0x1da>:
    123a:	3500b4        	ae_sraiq56	aeq0, aeq0, 2
    123d:	fc247039ae 	{ l32i	a10, a9, 12; ae_roundsq32asym	aeq0, aeq0 }
    1242:	29b8           	l32i.n	a11, a9, 8
    1244:	fbab21        	l32r	a2, f0 (4738 <airoha_divide_limit_1>)
    1247:	368604        	ae_trunca32q48	a6, aeq0
    124a:	0002e0        	callx8	a2
    124d:	2198           	l32i.n	a9, a1, 8
    124f:	ffa022        	movi	a2, 255
    1252:	2405f2        	l8ui	a15, a5, 36
    1255:	049932        	l16si	a3, a9, 8
    1258:	7fd222        	addmi	a2, a2, 0x7f00
    125b:	3180a0        	srai	a8, a10, 16
    125e:	c02280        	sub	a2, a2, a8
    1261:	05bd           	mov.n	a11, a5
    1263:	532230        	max	a2, a2, a3
    1266:	05ef17        	bbsi	a15, 1, 126f <subband_aec_mid_channel+0x20f>
    1269:	105b22        	s16i	a2, a11, 32
    126c:	000786        	j	128e <subband_aec_mid_channel+0x22e>

0000126f <subband_aec_mid_channel+0x20f>:
    126f:	039932        	l16si	a3, a9, 6
    1272:	09ad           	mov.n	a10, a9
    1274:	06cd           	mov.n	a12, a6
    1276:	822230        	mull	a2, a2, a3
    1279:	04dd           	mov.n	a13, a4
    127b:	40d222        	addmi	a2, a2, 0x4000
    127e:	412f20        	srli	a2, a2, 15
    1281:	105b22        	s16i	a2, a11, 32
    1284:	fb9e21        	l32r	a2, fc (b9c <ref_gain_adapt>)
    1287:	0002e0        	callx8	a2
    128a:	2198           	l32i.n	a9, a1, 8
    128c:	05bd           	mov.n	a11, a5
    128e:	059922        	l16si	a2, a9, 10
    1291:	069942        	l16si	a4, a9, 12
    1294:	fb96f1        	l32r	a15, ec (7800 <immediate_num>)
    1297:	112200        	slli	a2, a2, 16
    129a:	49a267        	bge	a2, a6, 12e7 <subband_aec_mid_channel+0x287>
    129d:	129b22        	l16si	a2, a11, 36
    12a0:	230c           	movi.n	a3, 2
    12a2:	11e400        	slli	a14, a4, 16
    12a5:	202230        	or	a2, a2, a3
    12a8:	125b22        	s16i	a2, a11, 36
    12ab:	18cf22        	addi	a2, a15, 24
    12ae:	05ae67        	bge	a14, a6, 12b7 <subband_aec_mid_channel+0x257>
    12b1:	400204        	ae_lp16f.i	aep0, a2, 0
    12b4:	000086        	j	12ba <subband_aec_mid_channel+0x25a>

000012b7 <subband_aec_mid_channel+0x257>:
    12b7:	400214        	ae_lp16f.i	aep0, a2, 2
    12ba:	0d9942        	l16si	a4, a9, 26
    12bd:	2614a6        	blti	a4, 1, 12e7 <subband_aec_mid_channel+0x287>
    12c0:	119b22        	l16si	a2, a11, 34
    12c3:	bb38           	l32i.n	a3, a11, 44
    12c5:	c02240        	sub	a2, a2, a4
    12c8:	a02230        	addx4	a2, a2, a3
    12cb:	441204        	ae_lp16x2f.i	aep1, a2, 0
    12ce:	fec232        	addi	a3, a2, -2
    12d1:	128476        	loop	a4, 12e7 <subband_aec_mid_channel+0x287>
    12d4:	011054        	ae_mulfp24s.hl	aeq0, aep1, aep0
    12d7:	ea05ed921f 	{ ae_lp16x2f.iu	aep1, a2, 4; ae_mulfp24s.ll	aeq1, aep1, aep0 }
    12dc:	1b8f24        	ae_roundsp16q48asym	aep2, aeq0
    12df:	fb6bf2a31f 	{ ae_sp16f.l.iu	aep2, a3, 2; ae_roundsp16q48asym	aep7, aeq1 }
    12e4:	42f314        	ae_sp16f.l.iu	aep7, a3, 2

000012e7 <subband_aec_mid_channel+0x287>:
    12e7:	121b22        	l16ui	a2, a11, 36
    12ea:	31c8           	l32i.n	a12, a1, 12
    12ec:	00a642        	movi	a4, 0x600
    12ef:	1be207        	bbsi	a2, 0, 130e <subband_aec_mid_channel+0x2ae>
    12f2:	07ac           	beqz.n	a7, 1316 <subband_aec_mid_channel+0x2b6>
    12f4:	972932        	l32i	a3, a9, 0x25c
    12f7:	250c           	movi.n	a5, 2
    12f9:	202250        	or	a2, a2, a5
    12fc:	04d332        	addmi	a3, a3, 0x400
    12ff:	241332        	l16ui	a3, a3, 72
    1302:	023347        	bltu	a3, a4, 1308 <subband_aec_mid_channel+0x2a8>
    1305:	125b22        	s16i	a2, a11, 36

00001308 <subband_aec_mid_channel+0x2a8>:
    1308:	fb7f21        	l32r	a2, 104 (cd8 <aec_post_calc_FB>)
    130b:	000086        	j	1311 <subband_aec_mid_channel+0x2b1>

0000130e <subband_aec_mid_channel+0x2ae>:
    130e:	fb7c21        	l32r	a2, 100 (c34 <aec_post_calc>)
    1311:	09ad           	mov.n	a10, a9
    1313:	0002e0        	callx8	a2
    1316:	f01d           	retw.n

00001318 <dt_detect>:
    1318:	004136        	entry	a1, 32
    131b:	0c9252        	l16si	a5, a2, 24
    131e:	189242        	l16si	a4, a2, 48
    1321:	199262        	l16si	a6, a2, 50
    1324:	115500        	slli	a5, a5, 16
    1327:	19a537        	bge	a5, a3, 1344 <dt_detect+0x2c>
    132a:	154c           	movi.n	a5, 65
    132c:	142657        	blt	a6, a5, 1344 <dt_detect+0x2c>
    132f:	179252        	l16si	a5, a2, 46
    1332:	0e9232        	l16si	a3, a2, 28
    1335:	442b           	addi.n	a4, a4, 2
    1337:	554b           	addi.n	a5, a5, 4
    1339:	435530        	min	a5, a5, a3
    133c:	175252        	s16i	a5, a2, 46
    133f:	855d           	ae_sext16	a5, a5
    1341:	000246        	j	134e <dt_detect+0x36>

00001344 <dt_detect+0x2c>:
    1344:	0e9232        	l16si	a3, a2, 28
    1347:	050c           	movi.n	a5, 0
    1349:	440b           	addi.n	a4, a4, -1
    134b:	175252        	s16i	a5, a2, 46
    134e:	534450        	max	a4, a4, a5
    1351:	433430        	min	a3, a4, a3
    1354:	185232        	s16i	a3, a2, 48
    1357:	f01d           	retw.n

00001359 <dt_detect+0x41>:
    1359:	000000                                        ...

0000135c <dt_detect_FB>:
    135c:	004136        	entry	a1, 32
    135f:	78c252        	addi	a5, a2, 120
    1362:	fe9562        	l16si	a6, a5, 0x1fc
    1365:	174c           	movi.n	a7, 65
    1367:	1e2477        	blt	a4, a7, 1389 <dt_detect_FB+0x2d>
    136a:	72c242        	addi	a4, a2, 114
    136d:	ff9442        	l16si	a4, a4, 0x1fe
    1370:	ff9572        	l16si	a7, a5, 0x1fe
    1373:	74c282        	addi	a8, a2, 116
    1376:	114400        	slli	a4, a4, 16
    1379:	0ca437        	bge	a4, a3, 1389 <dt_detect_FB+0x2d>
    137c:	ff9822        	l16si	a2, a8, 0x1fe
    137f:	474b           	addi.n	a4, a7, 4
    1381:	362b           	addi.n	a3, a6, 2
    1383:	434420        	min	a4, a4, a2
    1386:	000246        	j	1393 <dt_detect_FB+0x37>

00001389 <dt_detect_FB+0x2d>:
    1389:	74c222        	addi	a2, a2, 116
    138c:	ff9222        	l16si	a2, a2, 0x1fe
    138f:	360b           	addi.n	a3, a6, -1
    1391:	040c           	movi.n	a4, 0
    1393:	84fd           	ae_sext16	a15, a4
    1395:	5333f0        	max	a3, a3, a15
    1398:	432320        	min	a2, a3, a2
    139b:	ff5542        	s16i	a4, a5, 0x1fe
    139e:	fe5522        	s16i	a2, a5, 0x1fc
    13a1:	f01d           	retw.n

000013a3 <dt_detect_FB+0x47>:
    13a3:	00000000                                 .....

000013a8 <get_ECNR_SVN>:
    13a8:	004136        	entry	a1, 32
    13ab:	fb5721        	l32r	a2, 108 (1507660 <_end+0x14fefd4>)
    13ae:	f01d           	retw.n

000013b0 <get_aec_nr_memsize>:
    13b0:	004136        	entry	a1, 32
    13b3:	6fa422        	movi	a2, 0x46f
    13b6:	1122c0        	slli	a2, a2, 4
    13b9:	f01d           	retw.n

000013bb <get_aec_nr_memsize+0xb>:
	...

000013bc <get_aec_nr_inear_memsize>:
    13bc:	004136        	entry	a1, 32
    13bf:	2da122        	movi	a2, 0x12d
    13c2:	1122a0        	slli	a2, a2, 6
    13c5:	f01d           	retw.n

000013c7 <get_aec_nr_inear_memsize+0xb>:
	...

000013c8 <sb_ana_init>:
    13c8:	004136        	entry	a1, 32
    13cb:	a24b           	addi.n	a10, a2, 4
    13cd:	02a9           	s32i.n	a10, a2, 0
    13cf:	fb3e21        	l32r	a2, c8 (6bf0 <xt_memset>)
    13d2:	0b0c           	movi.n	a11, 0
    13d4:	ec1c           	movi.n	a12, 30
    13d6:	0002e0        	callx8	a2
    13d9:	f01d           	retw.n

000013db <sb_ana_init+0x13>:
	...

000013dc <sb_syn_init>:
    13dc:	004136        	entry	a1, 32
    13df:	a24b           	addi.n	a10, a2, 4
    13e1:	02a9           	s32i.n	a10, a2, 0
    13e3:	fb3921        	l32r	a2, c8 (6bf0 <xt_memset>)
    13e6:	0b0c           	movi.n	a11, 0
    13e8:	cc3c           	movi.n	a12, 60
    13ea:	0002e0        	callx8	a2
    13ed:	f01d           	retw.n

000013ef <sb_syn_init+0x13>:
	...

000013f0 <HP_coef_setup>:
    13f0:	004136        	entry	a1, 32
    13f3:	fb0a41        	l32r	a4, 1c (6c04 <xt_memcpy>)
    13f6:	4c0c           	movi.n	a12, 4
    13f8:	02ad           	mov.n	a10, a2
    13fa:	03bd           	mov.n	a11, a3
    13fc:	0004e0        	callx8	a4
    13ff:	a2cb           	addi.n	a10, a2, 12
    1401:	b38b           	addi.n	a11, a3, 8
    1403:	ac0c           	movi.n	a12, 10
    1405:	0004e0        	callx8	a4
    1408:	24c2a2        	addi	a10, a2, 36
    140b:	1cc3b2        	addi	a11, a3, 28
    140e:	8c0c           	movi.n	a12, 8
    1410:	0004e0        	callx8	a4
    1413:	1238           	l32i.n	a3, a2, 4
    1415:	72f8           	l32i.n	a15, a2, 28
    1417:	2239           	s32i.n	a3, a2, 8
    1419:	82f9           	s32i.n	a15, a2, 32
    141b:	f01d           	retw.n

0000141d <HP_coef_setup+0x2d>:
    141d:	000000                                        ...

00001420 <tx_ref_vad_init>:
    1420:	004136        	entry	a1, 32
    1423:	fb2941        	l32r	a4, c8 (6bf0 <xt_memset>)
    1426:	0b0c           	movi.n	a11, 0
    1428:	ec0c           	movi.n	a12, 14
    142a:	02ad           	mov.n	a10, a2
    142c:	0004e0        	callx8	a4
    142f:	03d3b2        	addmi	a11, a3, 0x300
    1432:	fafa31        	l32r	a3, 1c (6c04 <xt_memcpy>)
    1435:	7c0c           	movi.n	a12, 7
    1437:	02ad           	mov.n	a10, a2
    1439:	0003e0        	callx8	a3
    143c:	f01d           	retw.n

0000143e <tx_ref_vad_init+0x1e>:
	...

00001440 <Voice_EC_Init>:
    1440:	004136        	entry	a1, 32
    1443:	faf761        	l32r	a6, 20 (8688 <p_ecnr_mem>)
    1446:	0c0c           	movi.n	a12, 0
    1448:	02ad           	mov.n	a10, a2
    144a:	0639           	s32i.n	a3, a6, 0
    144c:	fb3031        	l32r	a3, 10c (380 <TX_ECNR_PARA_init>)
    144f:	04bd           	mov.n	a11, a4
    1451:	0003e0        	callx8	a3
    1454:	faf421        	l32r	a2, 24 (8680 <aec_nr_para>)
    1457:	0638           	l32i.n	a3, a6, 0
    1459:	08a1f2        	movi	a15, 0x108
    145c:	0228           	l32i.n	a2, a2, 0
    145e:	10d3a2        	addmi	a10, a3, 0x1000
    1461:	13a332        	movi	a3, 0x313
    1464:	239242        	l16si	a4, a2, 70
    1467:	b2fa           	add.n	a11, a2, a15
    1469:	fb2921        	l32r	a2, 110 (13f0 <HP_coef_setup>)
    146c:	654d           	ae_s16i.n	a4, a5, 0
    146e:	0002e0        	callx8	a2
    1471:	0628           	l32i.n	a2, a6, 0
    1473:	1133c0        	slli	a3, a3, 4
    1476:	03a1c2        	movi	a12, 0x103
    1479:	a23a           	add.n	a10, a2, a3
    147b:	fb1331        	l32r	a3, c8 (6bf0 <xt_memset>)
    147e:	11ccd0        	slli	a12, a12, 3
    1481:	0b0c           	movi.n	a11, 0
    1483:	0003e0        	callx8	a3
    1486:	0628           	l32i.n	a2, a6, 0
    1488:	0da442        	movi	a4, 0x40d
    148b:	1144e0        	slli	a4, a4, 2
    148e:	a24a           	add.n	a10, a2, a4
    1490:	0b0c           	movi.n	a11, 0
    1492:	ec0c           	movi.n	a12, 14
    1494:	0003e0        	callx8	a3
    1497:	0628           	l32i.n	a2, a6, 0
    1499:	15a442        	movi	a4, 0x415
    149c:	1144e0        	slli	a4, a4, 2
    149f:	a24a           	add.n	a10, a2, a4
    14a1:	0b0c           	movi.n	a11, 0
    14a3:	f0a0c2        	movi	a12, 240
    14a6:	f0a042        	movi	a4, 240
    14a9:	0003e0        	callx8	a3
    14ac:	0628           	l32i.n	a2, a6, 0
    14ae:	5ba152        	movi	a5, 0x15b
    14b1:	1155b0        	slli	a5, a5, 5
    14b4:	2bd272        	addmi	a7, a2, 0x2b00
    14b7:	225a           	add.n	a2, a2, a5
    14b9:	a24b           	addi.n	a10, a2, 4
    14bb:	0b0c           	movi.n	a11, 0
    14bd:	ec1c           	movi.n	a12, 30
    14bf:	1867a2        	s32i	a10, a7, 96
    14c2:	0003e0        	callx8	a3
    14c5:	0628           	l32i.n	a2, a6, 0
    14c7:	5da152        	movi	a5, 0x15d
    14ca:	1155b0        	slli	a5, a5, 5
    14cd:	2bd272        	addmi	a7, a2, 0x2b00
    14d0:	225a           	add.n	a2, a2, a5
    14d2:	a24b           	addi.n	a10, a2, 4
    14d4:	0b0c           	movi.n	a11, 0
    14d6:	ec1c           	movi.n	a12, 30
    14d8:	2867a2        	s32i	a10, a7, 160
    14db:	0003e0        	callx8	a3
    14de:	0628           	l32i.n	a2, a6, 0
    14e0:	61a152        	movi	a5, 0x161
    14e3:	1155b0        	slli	a5, a5, 5
    14e6:	2cd272        	addmi	a7, a2, 0x2c00
    14e9:	225a           	add.n	a2, a2, a5
    14eb:	a24b           	addi.n	a10, a2, 4
    14ed:	0b0c           	movi.n	a11, 0
    14ef:	cc3c           	movi.n	a12, 60
    14f1:	87a9           	s32i.n	a10, a7, 32
    14f3:	0003e0        	callx8	a3
    14f6:	facb31        	l32r	a3, 24 (8680 <aec_nr_para>)
    14f9:	0658           	l32i.n	a5, a6, 0
    14fb:	c8a072        	movi	a7, 200
    14fe:	0328           	l32i.n	a2, a3, 0
    1500:	10d5d2        	addmi	a13, a5, 0x1000
    1503:	18a182        	movi	a8, 0x118
    1506:	3392c2        	l16si	a12, a2, 102
    1509:	285dc2        	s16i	a12, a13, 80
    150c:	3492c2        	l16si	a12, a2, 104
    150f:	0228           	l32i.n	a2, a2, 0
    1511:	40a192        	movi	a9, 0x140
    1514:	68a1a2        	movi	a10, 0x168
    1517:	90a1b2        	movi	a11, 0x190
    151a:	b8a1e2        	movi	a14, 0x1b8
    151d:	e0a1f2        	movi	a15, 0x1e0
    1520:	295dc2        	s16i	a12, a13, 82
    1523:	12d552        	addmi	a5, a5, 0x1200
    1526:	727a           	add.n	a7, a2, a7
    1528:	424a           	add.n	a4, a2, a4
    152a:	828a           	add.n	a8, a2, a8
    152c:	929a           	add.n	a9, a2, a9
    152e:	a2aa           	add.n	a10, a2, a10
    1530:	b2ba           	add.n	a11, a2, a11
    1532:	c2ea           	add.n	a12, a2, a14
    1534:	d2fa           	add.n	a13, a2, a15
    1536:	78c222        	addi	a2, a2, 120
    1539:	166522        	s32i	a2, a5, 88
    153c:	faf621        	l32r	a2, 114 (698 <SBAEC_INIT>)
    153f:	176572        	s32i	a7, a5, 92
    1542:	186542        	s32i	a4, a5, 96
    1545:	196582        	s32i	a8, a5, 100
    1548:	1a6592        	s32i	a9, a5, 104
    154b:	1b65a2        	s32i	a10, a5, 108
    154e:	1c65b2        	s32i	a11, a5, 112
    1551:	1e65c2        	s32i	a12, a5, 120
    1554:	1d65d2        	s32i	a13, a5, 116
    1557:	0002e0        	callx8	a2
    155a:	faef21        	l32r	a2, 118 (3a0c <NOISE_GEN_init>)
    155d:	0002e0        	callx8	a2
    1560:	0328           	l32i.n	a2, a3, 0
    1562:	0658           	l32i.n	a5, a6, 0
    1564:	c4a072        	movi	a7, 196
    1567:	7228           	l32i.n	a2, a2, 28
    1569:	46d772        	addmi	a7, a7, 0x4600
    156c:	a57a           	add.n	a10, a5, a7
    156e:	fad671        	l32r	a7, c8 (6bf0 <xt_memset>)
    1571:	0b0c           	movi.n	a11, 0
    1573:	0c1c           	movi.n	a12, 16
    1575:	46d542        	addmi	a4, a5, 0x4600
    1578:	f53020        	extui	a3, a2, 16, 16
    157b:	756820        	extui	a6, a2, 24, 8
    157e:	0007e0        	callx8	a7
    1581:	fad6b1        	l32r	a11, dc (155555 <_end+0x14cec9>)
    1584:	faa881        	l32r	a8, 24 (8680 <aec_nr_para>)
    1587:	46d5e2        	addmi	a14, a5, 0x4600
    158a:	46d5d2        	addmi	a13, a5, 0x4600
    158d:	faa451        	l32r	a5, 20 (8688 <p_ecnr_mem>)
    1590:	991c           	movi.n	a9, 25
    1592:	c0b2b0        	sub	a11, a2, a11
    1595:	0888           	l32i.n	a8, a8, 0
    1597:	9393b0        	movnez	a9, a3, a11
    159a:	743020        	extui	a3, a2, 0, 8
    159d:	74f820        	extui	a15, a2, 8, 8
    15a0:	0c1c           	movi.n	a12, 16
    15a2:	0528           	l32i.n	a2, a5, 0
    15a4:	d70c           	movi.n	a7, 13
    15a6:	833cb0        	moveqz	a3, a12, a11
    15a9:	2c0c           	movi.n	a12, 2
    15ab:	9376b0        	movnez	a7, a6, a11
    15ae:	93cfb0        	movnez	a12, a15, a11
    15b1:	2098b2        	l16si	a11, a8, 64
    15b4:	655eb2        	s16i	a11, a14, 202
    15b7:	1e0c           	movi.n	a14, 1
    15b9:	12d2f2        	addmi	a15, a2, 0x1200
    15bc:	275fe2        	s16i	a14, a15, 78
    15bf:	1f98b2        	l16si	a11, a8, 62
    15c2:	3018e2        	l16ui	a14, a8, 96
    15c5:	1e18f2        	l16ui	a15, a8, 60
    15c8:	321882        	l16ui	a8, a8, 100
    15cb:	fa7c           	movi.n	a10, -1
    15cd:	c133e0        	mul16u	a3, a3, a14
    15d0:	01aa10        	slli	a10, a10, 31
    15d3:	8da452        	movi	a5, 0x48d
    15d6:	c18c80        	mul16u	a8, a12, a8
    15d9:	1165e0        	slli	a6, a5, 2
    15dc:	e14492        	s8i	a9, a4, 225
    15df:	efaa           	add.n	a14, a15, a10
    15e1:	119f00        	slli	a9, a15, 16
    15e4:	6454b2        	s16i	a11, a4, 200
    15e7:	e04472        	s8i	a7, a4, 224
    15ea:	726a           	add.n	a7, a2, a6
    15ec:	c06e90        	sub	a6, a14, a9
    15ef:	413530        	srli	a3, a3, 5
    15f2:	41f580        	srli	a15, a8, 5
    15f5:	7b0c           	movi.n	a11, 7
    15f7:	00a452        	movi	a5, 0x400
    15fa:	316462        	s32i	a6, a4, 196
    15fd:	6e5432        	s16i	a3, a4, 220
    1600:	6f5df2        	s16i	a15, a13, 222
    1603:	038b76        	loop	a11, 160a <Voice_EC_Init+0x1ca>
    1606:	675d           	ae_s16i.n	a5, a7, 0
    1608:	772b           	addi.n	a7, a7, 2

0000160a <Voice_EC_Init+0x1ca>:
    160a:	faaf71        	l32r	a7, c8 (6bf0 <xt_memset>)
    160d:	24d2a2        	addmi	a10, a2, 0x2400
    1610:	0b0c           	movi.n	a11, 0
    1612:	0c5c           	movi.n	a12, 80
    1614:	0007e0        	callx8	a7
    1617:	fa8251        	l32r	a5, 20 (8688 <p_ecnr_mem>)
    161a:	25a132        	movi	a3, 0x125
    161d:	1133b0        	slli	a3, a3, 5
    1620:	0528           	l32i.n	a2, a5, 0
    1622:	0b0c           	movi.n	a11, 0
    1624:	4c2c           	movi.n	a12, 36
    1626:	a23a           	add.n	a10, a2, a3
    1628:	0007e0        	callx8	a7
    162b:	0528           	l32i.n	a2, a5, 0
    162d:	fa7d61        	l32r	a6, 24 (8680 <aec_nr_para>)
    1630:	5fa142        	movi	a4, 0x15f
    1633:	12d232        	addmi	a3, a2, 0x1200
    1636:	261332        	l16ui	a3, a3, 76
    1639:	06a8           	l32i.n	a10, a6, 0
    163b:	3e2366        	bnei	a3, 2, 167d <Voice_EC_Init+0x23d>
    163e:	fab721        	l32r	a2, 11c (5254 <TWO_MIC_WB_init>)
    1641:	0002e0        	callx8	a2
    1644:	0528           	l32i.n	a2, a5, 0
    1646:	1134b0        	slli	a3, a4, 5
    1649:	0b0c           	movi.n	a11, 0
    164b:	2bd242        	addmi	a4, a2, 0x2b00
    164e:	223a           	add.n	a2, a2, a3
    1650:	a24b           	addi.n	a10, a2, 4
    1652:	ec1c           	movi.n	a12, 30
    1654:	3864a2        	s32i	a10, a4, 224
    1657:	0007e0        	callx8	a7
    165a:	0528           	l32i.n	a2, a5, 0
    165c:	9ca032        	movi	a3, 156
    165f:	2cd332        	addmi	a3, a3, 0x2c00
    1662:	2cd242        	addmi	a4, a2, 0x2c00
    1665:	223a           	add.n	a2, a2, a3
    1667:	a24b           	addi.n	a10, a2, 4
    1669:	0b0c           	movi.n	a11, 0
    166b:	cc3c           	movi.n	a12, 60
    166d:	2764a2        	s32i	a10, a4, 156
    1670:	0007e0        	callx8	a7
    1673:	06a8           	l32i.n	a10, a6, 0
    1675:	faaa21        	l32r	a2, 120 (3a2c <NC_NOISE_EST_init>)
    1678:	0002e0        	callx8	a2
    167b:	0528           	l32i.n	a2, a5, 0

0000167d <Voice_EC_Init+0x23d>:
    167d:	a8a032        	movi	a3, 168
    1680:	46d332        	addmi	a3, a3, 0x4600
    1683:	223a           	add.n	a2, a2, a3
    1685:	0648           	l32i.n	a4, a6, 0
    1687:	0b0c           	movi.n	a11, 0
    1689:	ec0c           	movi.n	a12, 14
    168b:	02ad           	mov.n	a10, a2
    168d:	0007e0        	callx8	a7
    1690:	fa6331        	l32r	a3, 1c (6c04 <xt_memcpy>)
    1693:	03d4b2        	addmi	a11, a4, 0x300
    1696:	7c0c           	movi.n	a12, 7
    1698:	02ad           	mov.n	a10, a2
    169a:	0003e0        	callx8	a3
    169d:	f01d           	retw.n

0000169f <Voice_EC_Init+0x25f>:
	...

000016a0 <Voice_EC_Inear_Init>:
    16a0:	004136        	entry	a1, 32
    16a3:	fa6961        	l32r	a6, 48 (1440 <Voice_EC_Init>)
    16a6:	02ad           	mov.n	a10, a2
    16a8:	03bd           	mov.n	a11, a3
    16aa:	04cd           	mov.n	a12, a4
    16ac:	05dd           	mov.n	a13, a5
    16ae:	0006e0        	callx8	a6
    16b1:	6fa442        	movi	a4, 0x46f
    16b4:	1144c0        	slli	a4, a4, 4
    16b7:	fa8451        	l32r	a5, c8 (6bf0 <xt_memset>)
    16ba:	46d322        	addmi	a2, a3, 0x4600
    16bd:	a34a           	add.n	a10, a3, a4
    16bf:	0b0c           	movi.n	a11, 0
    16c1:	28a2c2        	movi	a12, 0x228
    16c4:	3a62a2        	s32i	a10, a2, 232
    16c7:	0005e0        	callx8	a5
    16ca:	fa5661        	l32r	a6, 24 (8680 <aec_nr_para>)
    16cd:	a4a082        	movi	a8, 164
    16d0:	48d882        	addmi	a8, a8, 0x4800
    16d3:	0698           	l32i.n	a9, a6, 0
    16d5:	a38a           	add.n	a10, a3, a8
    16d7:	a862a2        	s32i	a10, a2, 0x2a0
    16da:	02d9e2        	addmi	a14, a9, 0x200
    16dd:	49d342        	addmi	a4, a3, 0x4900
    16e0:	4b9e72        	l16si	a7, a14, 150
    16e3:	3c5472        	s16i	a7, a4, 120
    16e6:	079e72        	l16si	a7, a14, 14
    16e9:	0b0c           	movi.n	a11, 0
    16eb:	ec1c           	movi.n	a12, 30
    16ed:	3d5472        	s16i	a7, a4, 122
    16f0:	0005e0        	callx8	a5
    16f3:	e4a042        	movi	a4, 228
    16f6:	48d442        	addmi	a4, a4, 0x4800
    16f9:	a34a           	add.n	a10, a3, a4
    16fb:	0b0c           	movi.n	a11, 0
    16fd:	cc3c           	movi.n	a12, 60
    16ff:	b862a2        	s32i	a10, a2, 0x2e0
    1702:	0005e0        	callx8	a5
    1705:	12d342        	addmi	a4, a3, 0x1200
    1708:	1d2442        	l32i	a4, a4, 116
    170b:	0688           	l32i.n	a8, a6, 0
    170d:	28c4d2        	addi	a13, a4, 40
    1710:	50c4f2        	addi	a15, a4, 80
    1713:	78c442        	addi	a4, a4, 120
    1716:	02d8b2        	addmi	a11, a8, 0x200
    1719:	db62d2        	s32i	a13, a2, 0x36c
    171c:	dc62f2        	s32i	a15, a2, 0x370
    171f:	481bd2        	l16ui	a13, a11, 144
    1722:	dd6242        	s32i	a4, a2, 0x374
    1725:	479b72        	l16si	a7, a11, 142
    1728:	00a1c2        	movi	a12, 0x100
    172b:	49d392        	addmi	a9, a3, 0x4900
    172e:	5377c0        	max	a7, a7, a12
    1731:	4bd3a2        	addmi	a10, a3, 0x4b00
    1734:	41ffd0        	srli	a15, a13, 15
    1737:	3e4af2        	s8i	a15, a10, 62
    173a:	345972        	s16i	a7, a9, 104
    173d:	fa79a1        	l32r	a10, 124 (dfff <_end+0x5973>)
    1740:	d81872        	l16ui	a7, a8, 0x1b0
    1743:	b8a2b2        	movi	a11, 0x2b8
    1746:	1e0c           	movi.n	a14, 1
    1748:	e4f0d0        	extui	a15, a13, 0, 15
    174b:	014e90        	slli	a4, a14, 23
    174e:	b8ba           	add.n	a11, a8, a11
    1750:	538fc0        	max	a8, a15, a12
    1753:	62aa70        	saltu	a10, a10, a7
    1756:	2e7c           	movi.n	a14, -14
    1758:	2d0c           	movi.n	a13, 2
    175a:	93dea0        	movnez	a13, a14, a10
    175d:	417c70        	srli	a7, a7, 12
    1760:	3ba2e2        	movi	a14, 0x23b
    1763:	c24480        	quou	a4, a4, a8
    1766:	7d7a           	add.n	a7, a13, a7
    1768:	11aeb0        	slli	a10, a14, 5
    176b:	355942        	s16i	a4, a9, 106
    176e:	fa6841        	l32r	a4, 110 (13f0 <HP_coef_setup>)
    1771:	a3aa           	add.n	a10, a3, a10
    1773:	4bd3f2        	addmi	a15, a3, 0x4b00
    1776:	1177e0        	slli	a7, a7, 2
    1779:	1e5f72        	s16i	a7, a15, 60
    177c:	0004e0        	callx8	a4
    177f:	fa6a41        	l32r	a4, 128 (990 <SBAEC_INIT_inear>)
    1782:	03ad           	mov.n	a10, a3
    1784:	0004e0        	callx8	a4
    1787:	3a2272        	l32i	a7, a2, 232
    178a:	90a2f2        	movi	a15, 0x290
    178d:	0648           	l32i.n	a4, a6, 0
    178f:	38a4e2        	movi	a14, 0x438
    1792:	a7fa           	add.n	a10, a7, a15
    1794:	0b0c           	movi.n	a11, 0
    1796:	d4a0c2        	movi	a12, 212
    1799:	04d762        	addmi	a6, a7, 0x400
    179c:	27ea           	add.n	a2, a7, a14
    179e:	0005e0        	callx8	a5
    17a1:	02ad           	mov.n	a10, a2
    17a3:	0b0c           	movi.n	a11, 0
    17a5:	8c0c           	movi.n	a12, 8
    17a7:	820c           	movi.n	a2, 8
    17a9:	0005e0        	callx8	a5
    17ac:	29d332        	addmi	a3, a3, 0x2900
    17af:	04d782        	addmi	a8, a7, 0x400
    17b2:	212332        	l32i	a3, a3, 132
    17b5:	03d4e2        	addmi	a14, a4, 0x300
    17b8:	c839           	s32i.n	a3, a8, 48
    17ba:	1a1e32        	l16ui	a3, a14, 52
    17bd:	392752        	l32i	a5, a7, 228
    17c0:	98a3a2        	movi	a10, 0x398
    17c3:	b859           	s32i.n	a5, a8, 44
    17c5:	3b2792        	l32i	a9, a7, 236
    17c8:	57aa           	add.n	a5, a7, a10
    17ca:	fa58d1        	l32r	a13, 12c (7fff0000 <_end+0x7ffe7974>)
    17cd:	d899           	s32i.n	a9, a8, 52
    17cf:	a659           	s32i.n	a5, a6, 40
    17d1:	76d9           	s32i.n	a13, a6, 28
    17d3:	66d9           	s32i.n	a13, a6, 24
    17d5:	239c           	beqz.n	a3, 17eb <Voice_EC_Inear_Init+0x14b>
    17d7:	03d422        	addmi	a2, a4, 0x300
    17da:	857c           	movi.n	a5, -8
    17dc:	1b1222        	l16ui	a2, a2, 54
    17df:	f45050        	extui	a5, a5, 0, 16
    17e2:	248030        	extui	a8, a3, 0, 3
    17e5:	103350        	and	a3, a3, a5
    17e8:	0001c6        	j	17f3 <Voice_EC_Inear_Init+0x153>

000017eb <Voice_EC_Inear_Init+0x14b>:
    17eb:	33a332        	movi	a3, 0x333
    17ee:	1133d0        	slli	a3, a3, 3
    17f1:	080c           	movi.n	a8, 0
    17f3:	04d7f2        	addmi	a15, a7, 0x400
    17f6:	1c5632        	s16i	a3, a6, 56
    17f9:	1d5f82        	s16i	a8, a15, 58
    17fc:	105f22        	s16i	a2, a15, 32
    17ff:	f01d           	retw.n

00001801 <Voice_EC_Inear_Init+0x161>:
    1801:	000000                                        ...

00001804 <mic240_delay>:
    1804:	004136        	entry	a1, 32
    1807:	fa0561        	l32r	a6, 1c (6c04 <xt_memcpy>)
    180a:	02ad           	mov.n	a10, a2
    180c:	04bd           	mov.n	a11, a4
    180e:	05cd           	mov.n	a12, a5
    1810:	0006e0        	callx8	a6
    1813:	f0a072        	movi	a7, 240
    1816:	90a520        	addx2	a10, a5, a2
    1819:	c0c750        	sub	a12, a7, a5
    181c:	03bd           	mov.n	a11, a3
    181e:	1125f0        	slli	a2, a5, 1
    1821:	0006e0        	callx8	a6
    1824:	c02320        	sub	a2, a3, a2
    1827:	e0a1f2        	movi	a15, 0x1e0
    182a:	b2fa           	add.n	a11, a2, a15
    182c:	04ad           	mov.n	a10, a4
    182e:	05cd           	mov.n	a12, a5
    1830:	0006e0        	callx8	a6
    1833:	f01d           	retw.n

00001835 <mic240_delay+0x31>:
    1835:	000000                                        ...

00001838 <tx_downsample_by2>:
    1838:	004136        	entry	a1, 32
    183b:	fa3d71        	l32r	a7, 130 (7a10 <wb_r01>)
    183e:	14a082        	movi	a8, 20
    1841:	fec222        	addi	a2, a2, -2
    1844:	fec332        	addi	a3, a3, -2
    1847:	600604        	ae_lq32f.i	aeq0, a6, 0
    184a:	440404        	ae_lp16x2f.i	aep0, a4, 0
    184d:	948876        	loop	a8, 18e5 <tx_downsample_by2+0xad>
    1850:	e2002f150f 	{ ae_lp24x2f.i	aep1, a5, 0; ae_mulaafp24s.hh.ll	aeq0, aep0, aep0 }
    1855:	fd242c340f 	{ ae_lp16f.i	aep3, a4, 0; ae_cvtq48p24s.h	aeq1, aep1 }
    185a:	de2cb1273f 	{ ae_lp24.i	aep2, a7, 12; ae_selp24.hl	aep4, aep3, aep1 }
    185f:	e88874350f 	{ ae_sp24f.l.i	aep3, a5, 0; ae_mulasfp24s.hh.ll	aeq1, aep2, aep4 }
    1864:	ff2c2f251f 	{ ae_lp24x2f.i	aep2, a5, 8; ae_cvtq48p24s.l	aeq3, aep1 }
    1869:	fa6ff1674f 	{ ae_lp24.i	aep6, a7, 16; ae_roundsp24q48asym	aep5, aeq1 }
    186e:	df55f4551f 	{ ae_sp24f.l.i	aep5, a5, 4; ae_selp24.lh	aep7, aep5, aep2 }
    1873:	e9f871375f 	{ ae_lp24.i	aep3, a7, 20; ae_mulasfp24s.hh.ll	aeq3, aep6, aep7 }
    1878:	fe442c441f 	{ ae_lp16f.i	aep4, a4, 2; ae_cvtq48p24s.h	aeq2, aep2 }
    187d:	f87fed841f 	{ ae_lp16x2f.iu	aep0, a4, 4; ae_roundsp24q48asym	aep1, aeq3 }
    1882:	dd4634152f 	{ ae_sp24f.l.i	aep1, a5, 8; ae_selp24.ll	aep2, aep1, aep2 }
    1887:	05b244        	ae_mulasfp24s.hh.ll	aeq2, aep3, aep2
    188a:	1bad14        	ae_roundsp24q48asym	aep1, aeq2
    188d:	521534        	ae_sp24f.l.i	aep1, a5, 12
    1890:	5c6524        	ae_lp24x2f.i	aep6, a5, 16
    1893:	ffc431770f 	{ ae_lp24.i	aep7, a7, 0; ae_cvtq48p24s.h	aeq3, aep6 }
    1898:	ded0f4454f 	{ ae_sp24f.l.i	aep4, a5, 16; ae_selp24.hl	aep5, aep4, aep6 }
    189d:	e9bc6f253f 	{ ae_lp24x2f.i	aep2, a5, 24; ae_mulasfp24s.hh.ll	aeq3, aep7, aep5 }
    18a2:	fecc31671f 	{ ae_lp24.i	aep6, a7, 4; ae_cvtq48p24s.l	aeq2, aep6 }
    18a7:	fa7fbf18df 	{ ae_movap24s.l	a8, aep1; ae_roundsp24q48asym	aep4, aeq3 }
    18ac:	df51f4455f 	{ ae_sp24f.l.i	aep4, a5, 20; ae_selp24.lh	aep7, aep4, aep2 }
    18b1:	e9f831472f 	{ ae_lp24.i	aep4, a7, 8; ae_mulasfp24s.hh.ll	aeq2, aep6, aep7 }
    18b6:	0aca84        	ae_cvtq48p24s.h	aeq3, aep2
    18b9:	1bad34        	ae_roundsp24q48asym	aep3, aeq2
    18bc:	dd4e34356f 	{ ae_sp24f.l.i	aep3, a5, 24; ae_selp24.ll	aep2, aep3, aep2 }
    18c1:	05ca44        	ae_mulasfp24s.hh.ll	aeq3, aep4, aep2
    18c4:	1bbd54        	ae_roundsp24q48asym	aep5, aeq3
    18c7:	34d904        	ae_movap24s.l	a9, aep5
    18ca:	a98a           	add.n	a10, a9, a8
    18cc:	c08980        	sub	a8, a9, a8
    18cf:	41f1a0        	srli	a15, a10, 1
    18d2:	418180        	srli	a8, a8, 1
    18d5:	39ef84        	ae_movpa24x2	aep6, a15, a8
    18d8:	f9fab4557f 	{ ae_sp24f.l.i	aep5, a5, 28; ae_roundsp16asym	aep2, aep6 }
    18dd:	df4972a31f 	{ ae_sp16f.l.iu	aep2, a3, 2; ae_selp24.hh	aep7, aep2, aep2 }
    18e2:	42f214        	ae_sp16f.l.iu	aep7, a2, 2

000018e5 <tx_downsample_by2+0xad>:
    18e5:	060934        	ae_roundsq32asym	aeq0, aeq0
    18e8:	620604        	ae_sq32f.i	aeq0, a6, 0
    18eb:	f01d           	retw.n

000018ed <tx_downsample_by2+0xb5>:
    18ed:	000000                                        ...

000018f0 <tx_upsample_by2>:
    18f0:	006136        	entry	a1, 48
    18f3:	fa0f91        	l32r	a9, 130 (7a10 <wb_r01>)
    18f6:	4a1c           	movi.n	a10, 20
    18f8:	71eb           	addi.n	a7, a1, 14
    18fa:	81cb           	addi.n	a8, a1, 12
    18fc:	fcc442        	addi	a4, a4, -4
    18ff:	600604        	ae_lq32f.i	aeq0, a6, 0
    1902:	401204        	ae_lp16f.i	aep1, a2, 0
    1905:	402304        	ae_lp16f.i	aep2, a3, 0
    1908:	8f8a76        	loop	a10, 199b <tx_upsample_by2+0xab>
    190b:	dd46ef050f 	{ ae_lp24x2f.i	aep0, a5, 0; ae_subsp24s	aep3, aep1, aep2 }
    1910:	fd0432381f 	{ ae_sp16f.l.i	aep3, a8, 2; ae_cvtq48p24s.h	aeq1, aep0 }
    1915:	ff0c2c370f 	{ ae_lp16f.i	aep3, a7, 0; ae_cvtq48p24s.l	aeq3, aep0 }
    191a:	de0cf1490f 	{ ae_lp24.i	aep4, a9, 0; ae_selp24.hl	aep5, aep3, aep0 }
    191f:	e8b074350f 	{ ae_sp24f.l.i	aep3, a5, 0; ae_mulasfp24s.hh.ll	aeq1, aep4, aep5 }
    1924:	d8452f351f 	{ ae_lp24x2f.i	aep3, a5, 8; ae_addsp24s	aep0, aep1, aep2 }
    1929:	fa6fb1691f 	{ ae_lp24.i	aep6, a9, 4; ae_roundsp24q48asym	aep4, aeq1 }
    192e:	df71f4451f 	{ ae_sp24f.l.i	aep4, a5, 4; ae_selp24.lh	aep7, aep4, aep3 }
    1933:	e9f871592f 	{ ae_lp24.i	aep5, a9, 8; ae_mulasfp24s.hh.ll	aeq3, aep6, aep7 }
    1938:	fe6432080f 	{ ae_sp16f.l.i	aep0, a8, 0; ae_cvtq48p24s.h	aeq2, aep3 }
    193d:	fa7fac680f 	{ ae_lp16f.i	aep6, a8, 0; ae_roundsp24q48asym	aep4, aeq3 }
    1942:	dd7274452f 	{ ae_sp24f.l.i	aep4, a5, 8; ae_selp24.ll	aep3, aep4, aep3 }
    1947:	05d344        	ae_mulasfp24s.hh.ll	aeq2, aep5, aep3
    194a:	1bad24        	ae_roundsp24q48asym	aep2, aeq2
    194d:	e203b4253f 	{ ae_sp24f.l.i	aep2, a5, 12; ae_mulafp24s.ll	aeq0, aep0, aep0 }
    1952:	5c1524        	ae_lp24x2f.i	aep1, a5, 16
    1955:	ff2431493f 	{ ae_lp24.i	aep4, a9, 12; ae_cvtq48p24s.h	aeq3, aep1 }
    195a:	df38f4654f 	{ ae_sp24f.l.i	aep6, a5, 16; ae_selp24.hl	aep7, aep6, aep1 }
    195f:	e9f06f353f 	{ ae_lp24x2f.i	aep3, a5, 24; ae_mulasfp24s.hh.ll	aeq3, aep4, aep7 }
    1964:	fe2c31694f 	{ ae_lp24.i	aep6, a9, 16; ae_cvtq48p24s.l	aeq2, aep1 }
    1969:	fa7fbf2adf 	{ ae_movap24s.l	a10, aep2; ae_roundsp24q48asym	aep4, aeq3 }
    196e:	df71f4455f 	{ ae_sp24f.l.i	aep4, a5, 20; ae_selp24.lh	aep7, aep4, aep3 }
    1973:	e9f831795f 	{ ae_lp24.i	aep7, a9, 20; ae_mulasfp24s.hh.ll	aeq2, aep6, aep7 }
    1978:	ff642c921f 	{ ae_lp16f.iu	aep1, a2, 2; ae_cvtq48p24s.h	aeq3, aep3 }
    197d:	fb77aca31f 	{ ae_lp16f.iu	aep2, a3, 2; ae_roundsp24q48asym	aep6, aeq2 }
    1982:	dd7a74656f 	{ ae_sp24f.l.i	aep6, a5, 24; ae_selp24.ll	aep3, aep6, aep3 }
    1987:	05fb44        	ae_mulasfp24s.hh.ll	aeq3, aep7, aep3
    198a:	1bbd64        	ae_roundsp24q48asym	aep6, aeq3
    198d:	34eb04        	ae_movap24s.l	a11, aep6
    1990:	39fab4        	ae_movpa24x2	aep7, a10, a11
    1993:	f9fef4657f 	{ ae_sp24f.l.i	aep6, a5, 28; ae_roundsp16asym	aep3, aep7 }
    1998:	46b414        	ae_sp16x2f.iu	aep3, a4, 4

0000199b <tx_upsample_by2+0xab>:
    199b:	060934        	ae_roundsq32asym	aeq0, aeq0
    199e:	620604        	ae_sq32f.i	aeq0, a6, 0
    19a1:	f01d           	retw.n

000019a3 <tx_upsample_by2+0xb3>:
	...

000019a4 <emph_filter_N>:
    19a4:	004136        	entry	a1, 32
    19a7:	440404        	ae_lp16x2f.i	aep0, a4, 0
    19aa:	3725a6        	blti	a5, 2, 19e5 <emph_filter_N+0x41>
    19ad:	651b           	addi.n	a6, a5, 1
    19af:	b36550        	movgez	a6, a5, a5
    19b2:	215160        	srai	a5, a6, 1
    19b5:	441304        	ae_lp16x2f.i	aep1, a3, 0
    19b8:	fec232        	addi	a3, a2, -2
    19bb:	fcc222        	addi	a2, a2, -4
    19be:	238576        	loop	a5, 19e5 <emph_filter_N+0x41>
    19c1:	44a214        	ae_lp16x2f.iu	aep2, a2, 4
    19c4:	fc443e20cf 	{ ae_selp24.hh	aep3, aep2, aep0; ae_cvtq48p24s.h	aeq0, aep2 }
    19c9:	0a4284        	ae_cvtq48p24s.l	aeq1, aep2
    19cc:	011004        	ae_mulafp24s.hh	aeq0, aep1, aep0
    19cf:	011a04        	ae_mulafp24s.hh	aeq1, aep1, aep2
    19d2:	051004        	ae_mulaafp24s.hh.ll	aeq0, aep1, aep0
    19d5:	051b04        	ae_mulaafp24s.hh.ll	aeq1, aep1, aep3
    19d8:	1b8f04        	ae_roundsp16q48asym	aep0, aeq0
    19db:	f96bf2831f 	{ ae_sp16f.l.iu	aep0, a3, 2; ae_roundsp16q48asym	aep3, aeq1 }
    19e0:	dc49b2b31f 	{ ae_sp16f.l.iu	aep3, a3, 2; ae_selp24.lh	aep0, aep2, aep2 }

000019e5 <emph_filter_N+0x41>:
    19e5:	460404        	ae_sp16x2f.i	aep0, a4, 0
    19e8:	f01d           	retw.n

000019ea <emph_filter_N+0x46>:
	...

000019ec <deemph_filter_N>:
    19ec:	004136        	entry	a1, 32
    19ef:	600404        	ae_lq32f.i	aeq0, a4, 0
    19f2:	604414        	ae_lq32f.i	aeq1, a4, 4
    19f5:	2e15a6        	blti	a5, 1, 1a27 <deemph_filter_N+0x3b>
    19f8:	f9bdf1        	l32r	a15, ec (7800 <immediate_num>)
    19fb:	ff0c6d030f 	{ ae_lp16x2f.i	aep0, a3, 0; ae_movq56	aeq3, aeq1 }
    1a00:	99002c120f 	{ ae_lp16f.i	aep1, a2, 0; ae_mulzssfq32sp16s.hh	aeq2, aeq0, aep0, aeq0, aep0 }
    1a05:	30cf32        	addi	a3, a15, 48
    1a08:	442304        	ae_lp16x2f.i	aep2, a3, 0
    1a0b:	f03d           	nop.n
    1a0d:	168576        	loop	a5, 1a27 <deemph_filter_N+0x3b>
    1a10:	fb81bf017f 	{ ae_movq56	aeq1, aeq0; ae_mulsfq32sp16s.l	aeq2, aeq3, aep0 }
    1a15:	f1462c921f 	{ ae_lp16f.iu	aep1, a2, 2; ae_mulssfp24s.hh.ll	aeq2, aep1, aep2 }
    1a1a:	fc347f11ff 	{ ae_movq56	aeq3, aeq1; ae_roundsq32asym	aeq0, aeq2 }
    1a1f:	1b8f34        	ae_roundsp16q48asym	aep3, aeq0
    1a22:	99003232ff 	{ ae_sp16f.l.i	aep3, a2, -2; ae_mulzssfq32sp16s.hh	aeq2, aeq0, aep0, aeq0, aep0 }

00001a27 <deemph_filter_N+0x3b>:
    1a27:	620404        	ae_sq32f.i	aeq0, a4, 0
    1a2a:	621414        	ae_sq32f.i	aeq1, a4, 4
    1a2d:	f01d           	retw.n

00001a2f <deemph_filter_N+0x43>:
	...

00001a30 <analy_3band>:
    1a30:	004136        	entry	a1, 32
    1a33:	f9c0b1        	l32r	a11, 134 (7a30 <sb_g10>)
    1a36:	f9c0c1        	l32r	a12, 138 (7a70 <sb_h2ir>)
    1a39:	a34b           	addi.n	a10, a3, 4
    1a3b:	f3f6a0        	wur.ae_cbegin0	a10
    1a3e:	03a8           	l32i.n	a10, a3, 0
    1a40:	40c3f2        	addi	a15, a3, 64
    1a43:	a70c           	movi.n	a7, 10
    1a45:	480c           	movi.n	a8, 4
    1a47:	790c           	movi.n	a9, 7
    1a49:	f3f7f0        	wur.ae_cend0	a15
    1a4c:	fe248fc44e 	{ addi	a4, a4, -4; ae_zeroq56	aeq2 }
    1a51:	fec552        	addi	a5, a5, -2
    1a54:	fec662        	addi	a6, a6, -2
    1a57:	fccbb2        	addi	a11, a11, -4
    1a5a:	fcccc2        	addi	a12, a12, -4
    1a5d:	fcc222        	addi	a2, a2, -4

00001a60 <analy_3band+0x30>:
    1a60:	448214        	ae_lp16x2f.iu	aep0, a2, 4
    1a63:	fc14640a8f 	{ ae_sp16x2f.c	aep0, a10, a8; ae_movq56	aeq0, aeq2 }
    1a68:	0bdd           	mov.n	a13, a11
    1a6a:	20ecc0        	or	a14, a12, a12
    1a6d:	fc24da8a8f 	{ ae_lp16x2f.c	aep0, a10, a8; nop }
    1a72:	449d14        	ae_lp16x2f.iu	aep1, a13, 4
    1a75:	ea05edfe1f 	{ ae_lp16x2f.iu	aep7, a14, 4; ae_mulfp24s.ll	aeq1, aep1, aep0 }
    1a7a:	01f874        	ae_mulfp24s.ll	aeq3, aep7, aep0
    1a7d:	278976        	loop	a9, 1aa8 <analy_3band+0x78>
    1a80:	fc24da8a8f 	{ ae_lp16x2f.c	aep0, a10, a8; nop }
    1a85:	449d14        	ae_lp16x2f.iu	aep1, a13, 4
    1a88:	e2062dae1f 	{ ae_lp16x2f.iu	aep2, a14, 4; ae_mulafp24s.hh	aeq0, aep1, aep0 }
    1a8d:	e207daea8f 	{ ae_lp16x2f.c	aep6, a10, a8; ae_mulafp24s.ll	aeq1, aep1, aep0 }
    1a92:	e30a2dbd1f 	{ ae_lp16x2f.iu	aep3, a13, 4; ae_mulafp24s.hh	aeq2, aep2, aep0 }
    1a97:	e30bedfe1f 	{ ae_lp16x2f.iu	aep7, a14, 4; ae_mulafp24s.ll	aeq3, aep2, aep0 }
    1a9c:	013604        	ae_mulafp24s.hh	aeq0, aep3, aep6
    1a9f:	013e34        	ae_mulafp24s.ll	aeq1, aep3, aep6
    1aa2:	01f604        	ae_mulafp24s.hh	aeq2, aep7, aep6
    1aa5:	01fe34        	ae_mulafp24s.ll	aeq3, aep7, aep6

00001aa8 <analy_3band+0x78>:
    1aa8:	f87bcff77e 	{ addi	a7, a7, -1; ae_roundsp16q48asym	aep1, aeq3 }
    1aad:	fb6a32961f 	{ ae_sp16f.l.iu	aep1, a6, 2; ae_addq56	aeq3, aeq1, aeq0 }
    1ab2:	f92afb30df 	{ ae_sraiq56	aeq3, aeq3, 1; ae_subq56	aeq1, aeq1, aeq0 }
    1ab7:	f873bb101f 	{ ae_sraiq56	aeq0, aeq1, 1; ae_roundsp16q48asym	aep0, aeq2 }
    1abc:	fb7fb2861f 	{ ae_sp16f.l.iu	aep0, a6, 2; ae_roundsp24q48asym	aep6, aeq3 }
    1ac1:	fb63f4e41f 	{ ae_sp24f.l.iu	aep6, a4, 4; ae_roundsp16q48asym	aep7, aeq0 }
    1ac6:	fe24b2f51f 	{ ae_sp16f.l.iu	aep7, a5, 2; ae_zeroq56	aeq2 }
    1acb:	f91756        	bnez	a7, 1a60 <analy_3band+0x30>
    1ace:	03a9           	s32i.n	a10, a3, 0
    1ad0:	f01d           	retw.n

00001ad2 <analy_3band+0xa2>:
	...

00001ad4 <synth_3band>:
    1ad4:	004136        	entry	a1, 32
    1ad7:	c54b           	addi.n	a12, a5, 4
    1ad9:	f3f6c0        	wur.ae_cbegin0	a12
    1adc:	f99671        	l32r	a7, 134 (7a30 <sb_g10>)
    1adf:	f99781        	l32r	a8, 13c (7ab0 <sb_h2ir_v2>)
    1ae2:	0025c2        	l32i	a12, a5, 0
    1ae5:	7cc5f2        	addi	a15, a5, 124
    1ae8:	0aa092        	movi	a9, 10
    1aeb:	fd248004af 	{ movi	a10, 4; ae_zeroq56	aeq1 }
    1af0:	0fa0b2        	movi	a11, 15
    1af3:	f3f7f0        	wur.ae_cend0	a15
    1af6:	fc0c4fe22e 	{ addi	a2, a2, -2; ae_movq56	aeq0, aeq1 }
    1afb:	fec332        	addi	a3, a3, -2
    1afe:	fcc442        	addi	a4, a4, -4
    1b01:	fec662        	addi	a6, a6, -2

00001b04 <synth_3band+0x30>:
    1b04:	408214        	ae_lp16f.iu	aep0, a2, 2
    1b07:	409314        	ae_lp16f.iu	aep1, a3, 2
    1b0a:	d9212df41f 	{ ae_lp16x2f.iu	aep7, a4, 4; ae_addsp24s	aep2, aep0, aep1 }
    1b0f:	078184        	ae_subsp24s	aep0, aep0, aep1
    1b12:	1aa004        	ae_selp24.ll	aep0, aep2, aep0
    1b15:	fc24e40caf 	{ ae_sp16x2f.c	aep0, a12, a10; nop }
    1b1a:	fc24e47caf 	{ ae_sp16x2f.c	aep7, a12, a10; nop }
    1b1f:	441704        	ae_lp16x2f.i	aep1, a7, 0
    1b22:	440804        	ae_lp16x2f.i	aep0, a8, 0
    1b25:	168b76        	loop	a11, 1b3f <synth_3band+0x6b>
    1b28:	fc24daacaf 	{ ae_lp16x2f.c	aep2, a12, a10; nop }
    1b2d:	e247dabcaf 	{ ae_lp16x2f.c	aep3, a12, a10; ae_mulafp24s.ll	aeq1, aep1, aep2 }
    1b32:	e2462d971f 	{ ae_lp16x2f.iu	aep1, a7, 4; ae_mulafp24s.hh	aeq0, aep1, aep2 }
    1b37:	010b94        	ae_mulsfp24s.hl	aeq1, aep0, aep3
    1b3a:	e262ad881f 	{ ae_lp16x2f.iu	aep0, a8, 4; ae_mulafp24s.lh	aeq0, aep0, aep3 }

00001b3f <synth_3band+0x6b>:
    1b3f:	f86b8ff99e 	{ addi	a9, a9, -1; ae_roundsp16q48asym	aep0, aeq1 }
    1b44:	f863f2861f 	{ ae_sp16f.l.iu	aep0, a6, 2; ae_roundsp16q48asym	aep1, aeq0 }
    1b49:	fd248c477e 	{ addi	a7, a7, -60; ae_zeroq56	aeq1 }
    1b4e:	fc0c4c488e 	{ addi	a8, a8, -60; ae_movq56	aeq0, aeq1 }
    1b53:	429614        	ae_sp16f.l.iu	aep1, a6, 2
    1b56:	faa956        	bnez	a9, 1b04 <synth_3band+0x30>
    1b59:	05c9           	s32i.n	a12, a5, 0
    1b5b:	f01d           	retw.n

00001b5d <synth_3band+0x89>:
    1b5d:	000000                                        ...

00001b60 <biquad_2cascade_24bitTx>:
    1b60:	00a136        	entry	a1, 80
    1b63:	542304        	ae_lp24x2.i	aep2, a3, 0
    1b66:	541314        	ae_lp24x2.i	aep1, a3, 8
    1b69:	540324        	ae_lp24x2.i	aep0, a3, 16
    1b6c:	6616a6        	blti	a6, 1, 1bd6 <biquad_2cascade_24bitTx+0x76>
    1b6f:	18c472        	addi	a7, a4, 24
    1b72:	543414        	ae_lp24x2.i	aep3, a4, 8
    1b75:	545404        	ae_lp24x2.i	aep5, a4, 0
    1b78:	546444        	ae_lp24x2.i	aep6, a4, 32
    1b7b:	547434        	ae_lp24x2.i	aep7, a4, 24
    1b7e:	563154        	ae_sp24x2s.i	aep3, a1, 40
    1b81:	565144        	ae_sp24x2s.i	aep5, a1, 32
    1b84:	545424        	ae_lp24x2.i	aep5, a4, 16
    1b87:	543454        	ae_lp24x2.i	aep3, a4, 40
    1b8a:	566134        	ae_sp24x2s.i	aep6, a1, 24
    1b8d:	567124        	ae_sp24x2s.i	aep7, a1, 16
    1b90:	fec542        	addi	a4, a5, -2
    1b93:	fcc222        	addi	a2, a2, -4
    1b96:	4c4764        	ae_lp24.i	aep4, a7, 24
    1b99:	398676        	loop	a6, 1bd6 <biquad_2cascade_24bitTx+0x76>
    1b9c:	547154        	ae_lp24x2.i	aep7, a1, 40
    1b9f:	f05eaee21f 	{ ae_lp24f.iu	aep6, a2, 4; ae_mulzaafp24s.hh.ll	aeq0, aep7, aep2 }
    1ba4:	dd59b0714f 	{ ae_lp24x2.i	aep7, a1, 32; ae_selp24.lh	aep2, aep6, aep2 }
    1ba9:	e25c30713f 	{ ae_lp24x2.i	aep7, a1, 24; ae_mulaafp24s.hh.ll	aeq0, aep7, aep2 }
    1bae:	015184        	ae_mulsfp24s.hh	aeq0, aep5, aep1
    1bb1:	0551c4        	ae_mulssfp24s.hh.ll	aeq0, aep5, aep1
    1bb4:	f13ef0712f 	{ ae_lp24x2.i	aep7, a1, 16; ae_mulzaafp24s.hh.ll	aeq3, aep7, aep1 }
    1bb9:	1b8d64        	ae_roundsp24q48asym	aep6, aeq0
    1bbc:	1ae194        	ae_selp24.lh	aep1, aep6, aep1
    1bbf:	05f904        	ae_mulaafp24s.hh.ll	aeq3, aep7, aep1
    1bc2:	01b884        	ae_mulsfp24s.hh	aeq3, aep3, aep0
    1bc5:	05b8c4        	ae_mulssfp24s.hh.ll	aeq3, aep3, aep0
    1bc8:	1bbd64        	ae_roundsp24q48asym	aep6, aeq3
    1bcb:	f0d2be602f 	{ ae_selp24.lh	aep0, aep6, aep0; ae_mulzaafp24s.hh.ll	aeq0, aep4, aep6 }
    1bd0:	1b8f74        	ae_roundsp16q48asym	aep7, aeq0
    1bd3:	42f414        	ae_sp16f.l.iu	aep7, a4, 2

00001bd6 <biquad_2cascade_24bitTx+0x76>:
    1bd6:	562304        	ae_sp24x2s.i	aep2, a3, 0
    1bd9:	561314        	ae_sp24x2s.i	aep1, a3, 8
    1bdc:	560324        	ae_sp24x2s.i	aep0, a3, 16
    1bdf:	f01d           	retw.n

00001be1 <biquad_2cascade_24bitTx+0x81>:
    1be1:	000000                                        ...

00001be4 <conv_24_to_16>:
    1be4:	004136        	entry	a1, 32
    1be7:	540c           	movi.n	a4, 5
    1be9:	fcc332        	addi	a3, a3, -4
    1bec:	f8c222        	addi	a2, a2, -8
    1bef:	088476        	loop	a4, 1bfb <conv_24_to_16+0x17>
    1bf2:	5c8214        	ae_lp24x2f.iu	aep0, a2, 8
    1bf5:	090184        	ae_roundsp16asym	aep0, aep0
    1bf8:	468314        	ae_sp16x2f.iu	aep0, a3, 4

00001bfb <conv_24_to_16+0x17>:
    1bfb:	f01d           	retw.n

00001bfd <conv_24_to_16+0x19>:
    1bfd:	000000                                        ...

00001c00 <gain_after_ec>:
    1c00:	00a136        	entry	a1, 80
    1c03:	f907c1        	l32r	a12, 20 (8688 <p_ecnr_mem>)
    1c06:	05ed           	mov.n	a14, a5
    1c08:	16a6f2        	movi	a15, 0x616
    1c0b:	0c58           	l32i.n	a5, a12, 0
    1c0d:	04dd           	mov.n	a13, a4
    1c0f:	904ff0        	addx2	a4, a15, a15
    1c12:	9169           	s32i.n	a6, a1, 36
    1c14:	443d04        	ae_lp16x2f.i	aep3, a13, 0
    1c17:	444e04        	ae_lp16x2f.i	aep4, a14, 0
    1c1a:	412544        	ae_lp16f.x	aep2, a5, a4
    1c1d:	07bc           	beqz.n	a7, 1c51 <gain_after_ec+0x51>
    1c1f:	1a0c           	movi.n	a10, 1
    1c21:	f93441        	l32r	a4, f4 (4630 <airoha_divide>)
    1c24:	11aa10        	slli	a10, a10, 15
    1c27:	07bd           	mov.n	a11, a7
    1c29:	0e5d           	mov.n	a5, a14
    1c2b:	0d6d           	mov.n	a6, a13
    1c2d:	562114        	ae_sp24x2s.i	aep2, a1, 8
    1c30:	563134        	ae_sp24x2s.i	aep3, a1, 24
    1c33:	564124        	ae_sp24x2s.i	aep4, a1, 16
    1c36:	0004e0        	callx8	a4
    1c39:	360b34        	ae_cvtq48a32s	aeq0, a11
    1c3c:	540114        	ae_lp24x2.i	aep0, a1, 8
    1c3f:	d4e230412f 	{ ae_lp24x2.i	aep4, a1, 16; ae_mulfq32sp16s.l	aeq0, aeq0, aep0 }
    1c44:	543134        	ae_lp24x2.i	aep3, a1, 24
    1c47:	340a94        	ae_sllaq56	aeq0, aeq0, a10
    1c4a:	f96793d66f 	{ or	a13, a6, a6; ae_roundsp24q48asym	aep2, aeq0 }
    1c4f:	05ed           	mov.n	a14, a5

00001c51 <gain_after_ec+0x51>:
    1c51:	fecd92        	addi	a9, a13, -2
    1c54:	fece82        	addi	a8, a14, -2
    1c57:	fec352        	addi	a5, a3, -2
    1c5a:	fec242        	addi	a4, a2, -2
    1c5d:	a60c           	movi.n	a6, 10
    1c5f:	8139           	s32i.n	a3, a1, 32
    1c61:	fec3b2        	addi	a11, a3, -2
    1c64:	fec2c2        	addi	a12, a2, -2
    1c67:	b1d9           	s32i.n	a13, a1, 44
    1c69:	a1e9           	s32i.n	a14, a1, 40
    1c6b:	08fd           	mov.n	a15, a8
    1c6d:	097d           	mov.n	a7, a9
    1c6f:	20a550        	or	a10, a5, a5
    1c72:	203440        	or	a3, a4, a4
    1c75:	598676        	loop	a6, 1cd2 <gain_after_ec+0xd2>
    1c78:	eb69ac8c1f 	{ ae_lp16f.iu	aep0, a12, 2; ae_mulfp24s.ll	aeq2, aep2, aep3 }
    1c7d:	e868ac9b1f 	{ ae_lp16f.iu	aep1, a11, 2; ae_mulfp24s.hh	aeq0, aep2, aep3 }
    1c82:	ea89faa18f 	{ ae_slliq56	aeq2, aeq2, 4; ae_mulfp24s.ll	aeq1, aep2, aep4 }
    1c87:	e988fa810f 	{ ae_slliq56	aeq0, aeq0, 4; ae_mulfp24s.hh	aeq3, aep2, aep4 }
    1c8c:	eb09ba213f 	{ ae_sq56s.i	aeq2, a1, 24; ae_mulfp24s.ll	aeq2, aep2, aep0 }
    1c91:	ea29ba012f 	{ ae_sq56s.i	aeq0, a1, 16; ae_mulfp24s.ll	aeq0, aep2, aep1 }
    1c96:	355114        	ae_slliq56	aeq1, aeq1, 4
    1c99:	631114        	ae_sq56s.i	aeq1, a1, 8
    1c9c:	356114        	ae_slliq56	aeq1, aeq2, 4
    1c9f:	618124        	ae_lq56.i	aeq2, a1, 16
    1ca2:	fbf3bdc13f 	{ ae_lq56.i	aeq2, a1, 24; ae_roundsp16q48sym	aep6, aeq2 }
    1ca7:	fbf3edbd1f 	{ ae_lp16x2f.iu	aep3, a13, 4; ae_roundsp16q48sym	aep7, aeq2 }
    1cac:	fbebb2e71f 	{ ae_sp16f.l.iu	aep6, a7, 2; ae_roundsp16q48sym	aep6, aeq1 }
    1cb1:	35f114        	ae_slliq56	aeq3, aeq3, 4
    1cb4:	f8fbf2f71f 	{ ae_sp16f.l.iu	aep7, a7, 2; ae_roundsp16q48sym	aep1, aeq3 }
    1cb9:	350114        	ae_slliq56	aeq0, aeq0, 4
    1cbc:	fbe3fde11f 	{ ae_lq56.i	aeq3, a1, 8; ae_roundsp16q48sym	aep7, aeq0 }
    1cc1:	fafbedce1f 	{ ae_lp16x2f.iu	aep4, a14, 4; ae_roundsp16q48sym	aep5, aeq3 }
    1cc6:	429f14        	ae_sp16f.l.iu	aep1, a15, 2
    1cc9:	42df14        	ae_sp16f.l.iu	aep5, a15, 2
    1ccc:	42e414        	ae_sp16f.l.iu	aep6, a4, 2
    1ccf:	42fa14        	ae_sp16f.l.iu	aep7, a10, 2

00001cd2 <gain_after_ec+0xd2>:
    1cd2:	9148           	l32i.n	a4, a1, 36
    1cd4:	a178           	l32i.n	a7, a1, 40
    1cd6:	b1a8           	l32i.n	a10, a1, 44
    1cd8:	021426        	beqi	a4, 1, 1cde <gain_after_ec+0xde>
    1cdb:	002146        	j	1d64 <gain_after_ec+0x164>
    1cde:	f8d041        	l32r	a4, 20 (8688 <p_ecnr_mem>)
    1ce1:	03fd           	mov.n	a15, a3
    1ce3:	8138           	l32i.n	a3, a1, 32
    1ce5:	0468           	l32i.n	a6, a4, 0
    1ce7:	ab4c           	movi.n	a11, 74
    1ce9:	46a0c2        	movi	a12, 70
    1cec:	91a4d2        	movi	a13, 0x491
    1cef:	49a2e2        	movi	a14, 0x249
    1cf2:	0aa042        	movi	a4, 10
    1cf5:	440a04        	ae_lp16x2f.i	aep0, a10, 0
    1cf8:	441704        	ae_lp16x2f.i	aep1, a7, 0
    1cfb:	12dbb2        	addmi	a11, a11, 0x1200
    1cfe:	12dcc2        	addmi	a12, a12, 0x1200
    1d01:	11dde0        	slli	a13, a13, 2
    1d04:	11eed0        	slli	a14, a14, 3
    1d07:	fec332        	addi	a3, a3, -2
    1d0a:	fec222        	addi	a2, a2, -2
    1d0d:	538476        	loop	a4, 1d64 <gain_after_ec+0x164>
    1d10:	4146b4        	ae_lp16f.x	aep4, a6, a11
    1d13:	e81099d6cf 	{ ae_lp16f.x	aep5, a6, a12; ae_mulfp24s.hh	aeq0, aep4, aep0 }
    1d18:	ea11eca21f 	{ ae_lp16f.iu	aep2, a2, 2; ae_mulfp24s.ll	aeq1, aep4, aep0 }
    1d1d:	e934ba802f 	{ ae_slliq56	aeq0, aeq0, 2; ae_mulfp24s.hh	aeq2, aep5, aep1 }
    1d22:	eb35fa906f 	{ ae_slliq56	aeq1, aeq1, 2; ae_mulfp24s.ll	aeq3, aep5, aep1 }
    1d27:	fae3ecb31f 	{ ae_lp16f.iu	aep3, a3, 2; ae_roundsp16q48sym	aep5, aeq0 }
    1d2c:	fbebad8a1f 	{ ae_lp16x2f.iu	aep0, a10, 4; ae_roundsp16q48sym	aep6, aeq1 }
    1d31:	42d914        	ae_sp16f.l.iu	aep5, a9, 2
    1d34:	42e914        	ae_sp16f.l.iu	aep6, a9, 2
    1d37:	35a094        	ae_slliq56	aeq2, aeq2, 2
    1d3a:	fbf3d9c6df 	{ ae_lp16f.x	aep4, a6, a13; ae_roundsp16q48sym	aep7, aeq2 }
    1d3f:	eb5199e6ef 	{ ae_lp16f.x	aep6, a6, a14; ae_mulfp24s.ll	aeq2, aep4, aep2 }
    1d44:	eb79fab02f 	{ ae_slliq56	aeq0, aeq3, 2; ae_mulfp24s.ll	aeq3, aep6, aep3 }
    1d49:	fae3faa06f 	{ ae_slliq56	aeq1, aeq2, 2; ae_roundsp16q48sym	aep5, aeq0 }
    1d4e:	fbebbab0ef 	{ ae_slliq56	aeq3, aeq3, 2; ae_roundsp16q48sym	aep6, aeq1 }
    1d53:	449714        	ae_lp16x2f.iu	aep1, a7, 4
    1d56:	fbfbf2f81f 	{ ae_sp16f.l.iu	aep7, a8, 2; ae_roundsp16q48sym	aep7, aeq3 }
    1d5b:	42d814        	ae_sp16f.l.iu	aep5, a8, 2
    1d5e:	42ef14        	ae_sp16f.l.iu	aep6, a15, 2
    1d61:	42f514        	ae_sp16f.l.iu	aep7, a5, 2

00001d64 <gain_after_ec+0x164>:
    1d64:	f01d           	retw.n

00001d66 <gain_after_ec+0x166>:
	...

00001d68 <adjust_phase>:
    1d68:	004136        	entry	a1, 32
    1d6b:	300334        	ae_cvtp24a16x2.ll	aep0, a3, a3
    1d6e:	360234        	ae_cvtq48a32s	aeq0, a2
    1d71:	a10004        	ae_mulzaafq32sp16s.ll	aeq0, aeq0, aep0, aeq0, aep0
    1d74:	1b8f04        	ae_roundsp16q48asym	aep0, aeq0
    1d77:	0002d4        	ae_cvta32p24.l	a2, aep0
    1d7a:	f01d           	retw.n

00001d7c <adjust_bib_state>:
    1d7c:	004136        	entry	a1, 32
    1d7f:	840c           	movi.n	a4, 8
    1d81:	fcc232        	addi	a3, a2, -4
    1d84:	600204        	ae_lq32f.i	aeq0, a2, 0
    1d87:	0a8476        	loop	a4, 1d95 <adjust_bib_state+0x19>
    1d8a:	350074        	ae_sraiq56	aeq0, aeq0, 1
    1d8d:	f867bd121f 	{ ae_lq32f.iu	aeq0, a2, 4; ae_roundsp24q48asym	aep0, aeq0 }
    1d92:	528314        	ae_sp24f.l.iu	aep0, a3, 4

00001d95 <adjust_bib_state+0x19>:
    1d95:	f01d           	retw.n

00001d97 <adjust_bib_state+0x1b>:
	...

00001d98 <gain_ref>:
    1d98:	004136        	entry	a1, 32
    1d9b:	2314a6        	blti	a4, 1, 1dc2 <gain_ref+0x2a>
    1d9e:	fcc222        	addi	a2, a2, -4
    1da1:	300334        	ae_cvtp24a16x2.ll	aep0, a3, a3
    1da4:	449214        	ae_lp16x2f.iu	aep1, a2, 4
    1da7:	178476        	loop	a4, 1dc2 <gain_ref+0x2a>
    1daa:	011054        	ae_mulfp24s.hl	aeq0, aep1, aep0
    1dad:	ea05ed921f 	{ ae_lp16x2f.iu	aep1, a2, 4; ae_mulfp24s.ll	aeq1, aep1, aep0 }
    1db2:	350094        	ae_slliq56	aeq0, aeq0, 2
    1db5:	f963ba906f 	{ ae_slliq56	aeq1, aeq1, 2; ae_roundsp16q48asym	aep2, aeq0 }
    1dba:	f96bf222ef 	{ ae_sp16f.l.i	aep2, a2, -4; ae_roundsp16q48asym	aep3, aeq1 }
    1dbf:	4232f4        	ae_sp16f.l.i	aep3, a2, -2

00001dc2 <gain_ref+0x2a>:
    1dc2:	f01d           	retw.n

00001dc4 <TxRef_VAD>:
    1dc4:	006136        	entry	a1, 48
    1dc7:	f0a052        	movi	a5, 240
    1dca:	00a042        	movi	a4, 0
    1dcd:	088576        	loop	a5, 1dd9 <TxRef_VAD+0x15>
    1dd0:	235d           	ae_l16si.n	a5, a3, 0
    1dd2:	332b           	addi.n	a3, a3, 2
    1dd4:	605150        	abs	a5, a5
    1dd7:	454a           	add.n	a4, a5, a4

00001dd9 <TxRef_VAD+0x15>:
    1dd9:	f57c           	movi.n	a5, -1
    1ddb:	015510        	slli	a5, a5, 31
    1dde:	04bc           	beqz.n	a4, 1e12 <TxRef_VAD+0x4e>
    1de0:	40e430        	nsa	a3, a4
    1de3:	761c           	movi.n	a6, 23
    1de5:	401300        	ssl	a3
    1de8:	c0b630        	sub	a11, a6, a3
    1deb:	f8d531        	l32r	a3, 140 (56c <Log2_norm>)
    1dee:	a1a400        	sll	a10, a4
    1df1:	0003e0        	callx8	a3
    1df4:	d1a432        	movi	a3, 0x4d1
    1df7:	1133c0        	slli	a3, a3, 4
    1dfa:	b26a30        	mulsh	a6, a10, a3
    1dfd:	823a30        	mull	a3, a10, a3
    1e00:	d1a442        	movi	a4, 0x4d1
    1e03:	1144f0        	slli	a4, a4, 1
    1e06:	f35a           	add.n	a15, a3, a5
    1e08:	464a           	add.n	a4, a6, a4
    1e0a:	623f30        	saltu	a3, a15, a3
    1e0d:	334a           	add.n	a3, a3, a4
    1e0f:	000046        	j	1e14 <TxRef_VAD+0x50>

00001e12 <TxRef_VAD+0x4e>:
    1e12:	030c           	movi.n	a3, 0
    1e14:	039262        	l16si	a6, a2, 6
    1e17:	049272        	l16si	a7, a2, 8
    1e1a:	029242        	l16si	a4, a2, 4
    1e1d:	11e600        	slli	a14, a6, 16
    1e20:	11f700        	slli	a15, a7, 16
    1e23:	306650        	xor	a6, a6, a5
    1e26:	307750        	xor	a7, a7, a5
    1e29:	533340        	max	a3, a3, a4
    1e2c:	c046e0        	sub	a4, a6, a14
    1e2f:	c067f0        	sub	a6, a7, a15
    1e32:	2149           	s32i.n	a4, a1, 8
    1e34:	3169           	s32i.n	a6, a1, 12
    1e36:	418b           	addi.n	a4, a1, 8
    1e38:	42a8           	l32i.n	a10, a2, 16
    1e3a:	f8c261        	l32r	a6, 144 (5b0 <siir_safr>)
    1e3d:	03bd           	mov.n	a11, a3
    1e3f:	04cd           	mov.n	a12, a4
    1e41:	0006e0        	callx8	a6
    1e44:	059272        	l16si	a7, a2, 10
    1e47:	069282        	l16si	a8, a2, 12
    1e4a:	42a9           	s32i.n	a10, a2, 16
    1e4c:	119700        	slli	a9, a7, 16
    1e4f:	307750        	xor	a7, a7, a5
    1e52:	30f850        	xor	a15, a8, a5
    1e55:	118800        	slli	a8, a8, 16
    1e58:	52a8           	l32i.n	a10, a2, 20
    1e5a:	c07790        	sub	a7, a7, a9
    1e5d:	c05f80        	sub	a5, a15, a8
    1e60:	03bd           	mov.n	a11, a3
    1e62:	04cd           	mov.n	a12, a4
    1e64:	2179           	s32i.n	a7, a1, 8
    1e66:	3159           	s32i.n	a5, a1, 12
    1e68:	0006e0        	callx8	a6
    1e6b:	4238           	l32i.n	a3, a2, 16
    1e6d:	224d           	ae_l16si.n	a4, a2, 0
    1e6f:	52a9           	s32i.n	a10, a2, 20
    1e71:	0c1272        	l16ui	a7, a2, 24
    1e74:	334a           	add.n	a3, a3, a4
    1e76:	04a3a7        	bge	a3, a10, 1e7e <TxRef_VAD+0xba>
    1e79:	130c           	movi.n	a3, 1
    1e7b:	000386        	j	1e8d <TxRef_VAD+0xc9>

00001e7e <TxRef_VAD+0xba>:
    1e7e:	0d9242        	l16si	a4, a2, 26
    1e81:	073d           	mov.n	a3, a7
    1e83:	0b1766        	bnei	a7, 1, 1e92 <TxRef_VAD+0xce>
    1e86:	325d           	ae_l16si.n	a5, a2, 2
    1e88:	06a547        	bge	a5, a4, 1e92 <TxRef_VAD+0xce>
    1e8b:	030c           	movi.n	a3, 0
    1e8d:	6239           	s32i.n	a3, a2, 24
    1e8f:	000106        	j	1e97 <TxRef_VAD+0xd3>

00001e92 <TxRef_VAD+0xce>:
    1e92:	441b           	addi.n	a4, a4, 1
    1e94:	0d5242        	s16i	a4, a2, 26
    1e97:	832d           	ae_sext16	a2, a3
    1e99:	f01d           	retw.n

00001e9b <TxRef_VAD+0xd7>:
	...

00001e9c <PEC_Switch>:
    1e9c:	004136        	entry	a1, 32
    1e9f:	b48c           	beqz.n	a4, 1eae <PEC_Switch+0x12>
    1ea1:	025d           	mov.n	a5, a2
    1ea3:	092426        	beqi	a4, 2, 1eb0 <PEC_Switch+0x14>
    1ea6:	032d           	mov.n	a2, a3
    1ea8:	021426        	beqi	a4, 1, 1eae <PEC_Switch+0x12>
    1eab:	432530        	min	a2, a5, a3

00001eae <PEC_Switch+0x12>:
    1eae:	f01d           	retw.n

00001eb0 <PEC_Switch+0x14>:
    1eb0:	532530        	max	a2, a5, a3
    1eb3:	f01d           	retw.n

00001eb5 <PEC_Switch+0x19>:
    1eb5:	000000                                        ...

00001eb8 <Voice_EC_Prcs_common>:
    1eb8:	03c136        	entry	a1, 0x1e0
    1ebb:	06ad           	mov.n	a10, a6
    1ebd:	056d           	mov.n	a6, a5
    1ebf:	f85851        	l32r	a5, 20 (8688 <p_ecnr_mem>)
    1ec2:	1d6192        	s32i	a9, a1, 116
    1ec5:	180c           	movi.n	a8, 1
    1ec7:	05b8           	l32i.n	a11, a5, 0
    1ec9:	0d0c           	movi.n	a13, 0
    1ecb:	1c6142        	s32i	a4, a1, 112
    1ece:	12db92        	addmi	a9, a11, 0x1200
    1ed1:	2619c2        	l16ui	a12, a9, 76
    1ed4:	2bdbf2        	addmi	a15, a11, 0x2b00
    1ed7:	286172        	s32i	a7, a1, 160
    1eda:	fecce2        	addi	a14, a12, -2
    1edd:	216132        	s32i	a3, a1, 132
    1ee0:	624d30        	saltu	a4, a13, a3
    1ee3:	627e80        	saltu	a7, a14, a8
    1ee6:	251f32        	l16ui	a3, a15, 74
    1ee9:	104470        	and	a4, a4, a7
    1eec:	f84c71        	l32r	a7, 1c (6c04 <xt_memcpy>)
    1eef:	06c316        	beqz	a3, 1f5f <Voice_EC_Prcs_common+0xa7>
    1ef2:	46dbd2        	addmi	a13, a11, 0x4600
    1ef5:	541d32        	l16ui	a3, a13, 168
    1ef8:	336122        	s32i	a2, a1, 204
    1efb:	3a2d22        	l32i	a2, a13, 232
    1efe:	20dbc2        	addmi	a12, a11, 0x2000
    1f01:	1aa6f2        	movi	a15, 0x61a
    1f04:	416142        	s32i	a4, a1, 0x104
    1f07:	904ff0        	addx2	a4, a15, a15
    1f0a:	3661a2        	s32i	a10, a1, 216
    1f0d:	2261c2        	s32i	a12, a1, 136
    1f10:	1a61b2        	s32i	a11, a1, 104
    1f13:	060316        	beqz	a3, 1f77 <Voice_EC_Prcs_common+0xbf>
    1f16:	a8a032        	movi	a3, 168
    1f19:	46d332        	addmi	a3, a3, 0x4600
    1f1c:	ab3a           	add.n	a10, a11, a3
    1f1e:	f88a31        	l32r	a3, 148 (1dc4 <TxRef_VAD>)
    1f21:	06bd           	mov.n	a11, a6
    1f23:	0003e0        	callx8	a3
    1f26:	05c8           	l32i.n	a12, a5, 0
    1f28:	1a21b2        	l32i	a11, a1, 104
    1f2b:	12dc52        	addmi	a5, a12, 0x1200
    1f2e:	271552        	l16ui	a5, a5, 78
    1f31:	4c4a           	add.n	a4, a12, a4
    1f33:	857d           	ae_sext16	a7, a5
    1f35:	07da16        	beqz	a10, 1fb6 <Voice_EC_Prcs_common+0xfe>

00001f38 <Voice_EC_Prcs_common+0x80>:
    1f38:	858d           	ae_sext16	a8, a5
    1f3a:	196c           	movi.n	a9, -31
    1f3c:	082897        	blt	a8, a9, 1f48 <Voice_EC_Prcs_common+0x90>
    1f3f:	570b           	addi.n	a5, a7, -1
    1f41:	ff7c           	movi.n	a15, -1
    1f43:	4355f0        	min	a5, a5, a15
    1f46:	645d           	ae_s16i.n	a5, a4, 0
    1f48:	29db42        	addmi	a4, a11, 0x2900
    1f4b:	199472        	l16si	a7, a4, 50
    1f4e:	2221a2        	l32i	a10, a1, 136
    1f51:	ffa182        	movi	a8, 0x1ff
    1f54:	6f2877        	blt	a8, a7, 1fc7 <Voice_EC_Prcs_common+0x10f>
    1f57:	771b           	addi.n	a7, a7, 1
    1f59:	195472        	s16i	a7, a4, 50
    1f5c:	0019c6        	j	1fc7 <Voice_EC_Prcs_common+0x10f>

00001f5f <Voice_EC_Prcs_common+0xa7>:
    1f5f:	f0a0c2        	movi	a12, 240
    1f62:	02bd           	mov.n	a11, a2
    1f64:	0007e0        	callx8	a7
    1f67:	a48c           	beqz.n	a4, 1f75 <Voice_EC_Prcs_common+0xbd>
    1f69:	2821a2        	l32i	a10, a1, 160
    1f6c:	2121b2        	l32i	a11, a1, 132
    1f6f:	f0a0c2        	movi	a12, 240
    1f72:	0007e0        	callx8	a7
    1f75:	f01d           	retw.n

00001f77 <Voice_EC_Prcs_common+0xbf>:
    1f77:	8da432        	movi	a3, 0x48d
    1f7a:	1133e0        	slli	a3, a3, 2
    1f7d:	650c           	movi.n	a5, 6
    1f7f:	3b3a           	add.n	a3, a11, a3
    1f81:	058576        	loop	a5, 1f8a <Voice_EC_Prcs_common+0xd2>
    1f84:	335d           	ae_l16si.n	a5, a3, 2
    1f86:	635d           	ae_s16i.n	a5, a3, 0
    1f88:	332b           	addi.n	a3, a3, 2

00001f8a <Voice_EC_Prcs_common+0xd2>:
    1f8a:	12db52        	addmi	a5, a11, 0x1200
    1f8d:	289552        	l16si	a5, a5, 80
    1f90:	46db72        	addmi	a7, a11, 0x4600
    1f93:	12db82        	addmi	a8, a11, 0x1200
    1f96:	115590        	slli	a5, a5, 7
    1f99:	635d           	ae_s16i.n	a5, a3, 0
    1f9b:	521732        	l16ui	a3, a7, 164
    1f9e:	279872        	l16si	a7, a8, 78
    1fa1:	ffa392        	movi	a9, 0x3ff
    1fa4:	9033b0        	addx2	a3, a3, a11
    1fa7:	12d332        	addmi	a3, a3, 0x1200
    1faa:	1a93f2        	l16si	a15, a3, 52
    1fad:	4b4a           	add.n	a4, a11, a4
    1faf:	0bcd           	mov.n	a12, a11
    1fb1:	075d           	mov.n	a5, a7
    1fb3:	8129f7        	blt	a9, a15, 1f38 <Voice_EC_Prcs_common+0x80>

00001fb6 <Voice_EC_Prcs_common+0xfe>:
    1fb6:	2221a2        	l32i	a10, a1, 136
    1fb9:	858d           	ae_sext16	a8, a5
    1fbb:	08c8e6        	bgei	a8, 32, 1fc7 <Voice_EC_Prcs_common+0x10f>
    1fbe:	571b           	addi.n	a5, a7, 1
    1fc0:	1f0c           	movi.n	a15, 1
    1fc2:	5355f0        	max	a5, a5, a15
    1fc5:	645d           	ae_s16i.n	a5, a4, 0
    1fc7:	854d           	ae_sext16	a4, a5
    1fc9:	29db82        	addmi	a8, a11, 0x2900
    1fcc:	030c           	movi.n	a3, 0
    1fce:	29db92        	addmi	a9, a11, 0x2900
    1fd1:	2adb72        	addmi	a7, a11, 0x2a00
    1fd4:	15a4e2        	movi	a14, 0x415
    1fd7:	316142        	s32i	a4, a1, 196
    1fda:	286932        	s32i	a3, a9, 160
    1fdd:	296932        	s32i	a3, a9, 164
    1fe0:	114ee0        	slli	a4, a14, 2
    1fe3:	46dcf2        	addmi	a15, a12, 0x4600
    1fe6:	386932        	s32i	a3, a9, 224
    1fe9:	396832        	s32i	a3, a8, 228
    1fec:	186832        	s32i	a3, a8, 96
    1fef:	8739           	s32i.n	a3, a7, 32
    1ff1:	196832        	s32i	a3, a8, 100
    1ff4:	9739           	s32i.n	a3, a7, 36
    1ff6:	cc4a           	add.n	a12, a12, a4
    1ff8:	531fd2        	l16ui	a13, a15, 166
    1ffb:	f85441        	l32r	a4, 14c (1804 <mic240_delay>)
    1ffe:	06bd           	mov.n	a11, a6
    2000:	446182        	s32i	a8, a1, 0x110
    2003:	0004e0        	callx8	a4
    2006:	f83041        	l32r	a4, c8 (6bf0 <xt_memset>)
    2009:	40c1a2        	addi	a10, a1, 64
    200c:	0b0c           	movi.n	a11, 0
    200e:	ec0c           	movi.n	a12, 14
    2010:	0004e0        	callx8	a4
    2013:	1a21a2        	l32i	a10, a1, 104
    2016:	1c2162        	l32i	a6, a1, 112
    2019:	84a782        	movi	a8, 0x784
    201c:	26da42        	addmi	a4, a10, 0x2600
    201f:	a08880        	addx4	a8, a8, a8
    2022:	385432        	s16i	a3, a4, 112
    2025:	1b6122        	s32i	a2, a1, 108
    2028:	15e616        	beqz	a6, 218a <Voice_EC_Prcs_common+0x2d2>
    202b:	7ac252        	addi	a5, a2, 122
    202e:	ff95f2        	l16si	a15, a5, 0x1fe
    2031:	326232        	s32i	a3, a2, 200
    2034:	426232        	s32i	a3, a2, 0x108
    2037:	526232        	s32i	a3, a2, 0x148
    203a:	626232        	s32i	a3, a2, 0x188
    203d:	336232        	s32i	a3, a2, 204
    2040:	436232        	s32i	a3, a2, 0x10c
    2043:	536232        	s32i	a3, a2, 0x14c
    2046:	636232        	s32i	a3, a2, 0x18c
    2049:	78a042        	movi	a4, 120
    204c:	398ff4        	ae_movpa24x2	aep0, a15, a15
    204f:	203660        	or	a3, a6, a6
    2052:	441604        	ae_lp16x2f.i	aep1, a6, 0
    2055:	188476        	loop	a4, 2071 <Voice_EC_Prcs_common+0x1b9>
    2058:	011054        	ae_mulfp24s.hl	aeq0, aep1, aep0
    205b:	011874        	ae_mulfp24s.ll	aeq1, aep1, aep0
    205e:	350214        	ae_slliq56	aeq0, aeq0, 8
    2061:	fb63fa924f 	{ ae_slliq56	aeq1, aeq1, 8; ae_roundsp16q48asym	aep7, aeq0 }
    2066:	f96bb2730f 	{ ae_sp16f.l.i	aep7, a3, 0; ae_roundsp16q48asym	aep2, aeq1 }
    206b:	422314        	ae_sp16f.l.i	aep2, a3, 2
    206e:	449314        	ae_lp16x2f.iu	aep1, a3, 4

00002071 <Voice_EC_Prcs_common+0x1b9>:
    2071:	f7eb21        	l32r	a2, 20 (8688 <p_ecnr_mem>)
    2074:	1c21f2        	l32i	a15, a1, 112
    2077:	78a072        	movi	a7, 120
    207a:	02a8           	l32i.n	a10, a2, 0
    207c:	fccf32        	addi	a3, a15, -4
    207f:	204330        	or	a4, a3, a3
    2082:	f8ca62        	addi	a6, a10, -8
    2085:	058776        	loop	a7, 208e <Voice_EC_Prcs_common+0x1d6>
    2088:	448414        	ae_lp16x2f.iu	aep0, a4, 4
    208b:	5e8614        	ae_sp24x2f.iu	aep0, a6, 8
    208e:	1b2122        	l32i	a2, a1, 108
    2091:	1c21d2        	l32i	a13, a1, 112
    2094:	f82f41        	l32r	a4, 150 (1b60 <biquad_2cascade_24bitTx>)
    2097:	70c2c2        	addi	a12, a2, 112
    209a:	f0a0e2        	movi	a14, 240
    209d:	02bd           	mov.n	a11, a2
    209f:	0004e0        	callx8	a4
    20a2:	02d242        	addmi	a4, a2, 0x200
    20a5:	451472        	l16ui	a7, a4, 138
    20a8:	1a21a2        	l32i	a10, a1, 104
    20ab:	84a782        	movi	a8, 0x784
    20ae:	a08880        	addx4	a8, a8, a8
    20b1:	02e7c7        	bbsi	a7, 12, 20b7 <Voice_EC_Prcs_common+0x1ff>
    20b4:	003486        	j	218a <Voice_EC_Prcs_common+0x2d2>
    20b7:	f7da21        	l32r	a2, 20 (8688 <p_ecnr_mem>)
    20ba:	c0a3f2        	movi	a15, 0x3c0
    20bd:	78a092        	movi	a9, 120
    20c0:	002242        	l32i	a4, a2, 0
    20c3:	8064f0        	add	a6, a4, a15
    20c6:	f8c482        	addi	a8, a4, -8
    20c9:	058976        	loop	a9, 20d2 <Voice_EC_Prcs_common+0x21a>
    20cc:	448314        	ae_lp16x2f.iu	aep0, a3, 4
    20cf:	5e8814        	ae_sp24x2f.iu	aep0, a8, 8
    20d2:	1b2122        	l32i	a2, a1, 108
    20d5:	f81fc1        	l32r	a12, 154 (7f00 <nc_vad_lpf_coef>)
    20d8:	f81e31        	l32r	a3, 150 (1b60 <biquad_2cascade_24bitTx>)
    20db:	18c2b2        	addi	a11, a2, 24
    20de:	f0a0e2        	movi	a14, 240
    20e1:	04ad           	mov.n	a10, a4
    20e3:	06dd           	mov.n	a13, a6
    20e5:	0003e0        	callx8	a3
    20e8:	fc2483c03f 	{ movi	a3, 0x3c0; ae_zeroq56	aeq0 }
    20ed:	ff1552        	l16ui	a5, a5, 0x1fe
    20f0:	04d282        	addmi	a8, a2, 0x400
    20f3:	fa7c           	movi.n	a10, -1
    20f5:	410434        	ae_lp16f.x	aep0, a4, a3
    20f8:	1c1832        	l16ui	a3, a8, 56
    20fb:	1d9882        	l16si	a8, a8, 58
    20fe:	01aa10        	slli	a10, a10, 31
    2101:	ff0c           	movi.n	a15, 15
    2103:	c25a50        	quou	a5, a10, a5
    2106:	f0a092        	movi	a9, 240
    2109:	364534        	ae_cvtq48a32s	aeq1, a5
    210c:	c04f80        	sub	a4, a15, a8
    210f:	0f8976        	loop	a9, 2122 <Voice_EC_Prcs_common+0x26a>
    2112:	d5e32c861f 	{ ae_lp16f.iu	aep0, a6, 2; ae_mulfq32sp16s.l	aeq2, aeq1, aep0 }
    2117:	fc24fea48f 	{ ae_slaasq56s	aeq2, aeq2, a4; nop }
    211c:	069a64        	ae_absq56	aeq2, aeq2
    211f:	010ac4        	ae_addq56	aeq0, aeq0, aeq2
    2122:	060934        	ae_roundsq32asym	aeq0, aeq0
    2125:	368404        	ae_trunca32q48	a4, aeq0
    2128:	113300        	slli	a3, a3, 16
    212b:	f80b61        	l32r	a6, 158 (7f800080 <_end+0x7f7f79f4>)
    212e:	04d252        	addmi	a5, a2, 0x400
    2131:	1e6132        	s32i	a3, a1, 120
    2134:	8169           	s32i.n	a6, a1, 32
    2136:	20c162        	addi	a6, a1, 32
    2139:	f5a8           	l32i.n	a10, a5, 60
    213b:	f80231        	l32r	a3, 144 (5b0 <siir_safr>)
    213e:	f80781        	l32r	a8, 15c (78000800 <_end+0x77ff8174>)
    2141:	04bd           	mov.n	a11, a4
    2143:	06cd           	mov.n	a12, a6
    2145:	9189           	s32i.n	a8, a1, 36
    2147:	0003e0        	callx8	a3
    214a:	f5a9           	s32i.n	a10, a5, 60
    214c:	1025a2        	l32i	a10, a5, 64
    214f:	f80481        	l32r	a8, 160 (17fff <_end+0xf973>)
    2152:	f80491        	l32r	a9, 164 (7c000400 <_end+0x7bff7d74>)
    2155:	04bd           	mov.n	a11, a4
    2157:	06cd           	mov.n	a12, a6
    2159:	8189           	s32i.n	a8, a1, 32
    215b:	9199           	s32i.n	a9, a1, 36
    215d:	0003e0        	callx8	a3
    2160:	f538           	l32i.n	a3, a5, 60
    2162:	1e2142        	l32i	a4, a1, 120
    2165:	1065a2        	s32i	a10, a5, 64
    2168:	c03a30        	sub	a3, a10, a3
    216b:	022437        	blt	a4, a3, 2171 <Voice_EC_Prcs_common+0x2b9>
    216e:	03c346        	j	307f <Voice_EC_Prcs_common+0x11c7>
    2171:	1a21a2        	l32i	a10, a1, 104
    2174:	84a782        	movi	a8, 0x784
    2177:	140c           	movi.n	a4, 1
    2179:	04d232        	addmi	a3, a2, 0x400
    217c:	0f0c           	movi.n	a15, 0
    217e:	a08880        	addx4	a8, a8, a8
    2181:	464542        	s8i	a4, a5, 70
    2184:	2253f2        	s16i	a15, a3, 68
    2187:	ffffc6        	j	218a <Voice_EC_Prcs_common+0x2d2>

0000218a <Voice_EC_Prcs_common+0x2d2>:
    218a:	1d2132        	l32i	a3, a1, 116
    218d:	782132        	l32i	a3, a1, 0x1e0
    2190:	9da4f2        	movi	a15, 0x49d
    2193:	436132        	s32i	a3, a1, 0x10c
    2196:	113fd0        	slli	a3, a15, 3
    2199:	3a3a           	add.n	a3, a10, a3
    219b:	29a552        	movi	a5, 0x529
    219e:	1f6132        	s32i	a3, a1, 124
    21a1:	1135d0        	slli	a3, a5, 3
    21a4:	3a3a           	add.n	a3, a10, a3
    21a6:	31a562        	movi	a6, 0x531
    21a9:	6e6132        	s32i	a3, a1, 0x1b8
    21ac:	1136d0        	slli	a3, a6, 3
    21af:	3a3a           	add.n	a3, a10, a3
    21b1:	39a592        	movi	a9, 0x539
    21b4:	6d6132        	s32i	a3, a1, 0x1b4
    21b7:	1139d0        	slli	a3, a9, 3
    21ba:	3a3a           	add.n	a3, a10, a3
    21bc:	41a5b2        	movi	a11, 0x541
    21bf:	6c6132        	s32i	a3, a1, 0x1b0
    21c2:	113bd0        	slli	a3, a11, 3
    21c5:	3a3a           	add.n	a3, a10, a3
    21c7:	1d0c           	movi.n	a13, 1
    21c9:	3121e2        	l32i	a14, a1, 196
    21cc:	6b6132        	s32i	a3, a1, 0x1ac
    21cf:	113d40        	slli	a3, a13, 12
    21d2:	ca8a           	add.n	a12, a10, a8
    21d4:	190c           	movi.n	a9, 1
    21d6:	103730        	and	a3, a7, a3
    21d9:	3b0c           	movi.n	a11, 3
    21db:	a4a052        	movi	a5, 164
    21de:	b0a162        	movi	a6, 0x1b0
    21e1:	30a182        	movi	a8, 0x130
    21e4:	0f0c           	movi.n	a15, 0
    21e6:	4761c2        	s32i	a12, a1, 0x11c
    21e9:	696132        	s32i	a3, a1, 0x1a4
    21ec:	723fe0        	salt	a3, a15, a14
    21ef:	624490        	saltu	a4, a4, a9
    21f2:	f25a           	add.n	a15, a2, a5
    21f4:	526a           	add.n	a5, a2, a6
    21f6:	40db72        	addmi	a7, a11, 0x4000
    21f9:	628a           	add.n	a6, a2, a8
    21fb:	b0a0e2        	movi	a14, 176
    21fe:	70a192        	movi	a9, 0x170
    2201:	fca0c2        	movi	a12, 252
    2204:	f0a0d2        	movi	a13, 240
    2207:	103340        	and	a3, a3, a4
    220a:	7fdc42        	addmi	a4, a12, 0x7f00
    220d:	300774        	ae_cvtp24a16x2.ll	aep0, a7, a7
    2210:	82ea           	add.n	a8, a2, a14
    2212:	666162        	s32i	a6, a1, 0x198
    2215:	72da           	add.n	a7, a2, a13
    2217:	b29a           	add.n	a11, a2, a9
    2219:	94a2e2        	movi	a14, 0x294
    221c:	59a562        	movi	a6, 0x559
    221f:	307444        	ae_cvtp24a16x2.ll	aep7, a4, a4
    2222:	6861f2        	s32i	a15, a1, 0x1a0
    2225:	656172        	s32i	a7, a1, 0x194
    2228:	5661b2        	s32i	a11, a1, 0x158
    222b:	98a3c2        	movi	a12, 0x398
    222e:	f2ea           	add.n	a15, a2, a14
    2230:	1146d0        	slli	a4, a6, 3
    2233:	a8a072        	movi	a7, 168
    2236:	51a5b2        	movi	a11, 0x551
    2239:	d2ca           	add.n	a13, a2, a12
    223b:	9a4a           	add.n	a9, a10, a4
    223d:	556132        	s32i	a3, a1, 0x154
    2240:	646182        	s32i	a8, a1, 0x190
    2243:	5361f2        	s32i	a15, a1, 0x14c
    2246:	827a           	add.n	a8, a2, a7
    2248:	f0a132        	movi	a3, 0x1f0
    224b:	114bd0        	slli	a4, a11, 3
    224e:	61a5f2        	movi	a15, 0x561
    2251:	676152        	s32i	a5, a1, 0x19c
    2254:	523a           	add.n	a5, a2, a3
    2256:	5461d2        	s32i	a13, a1, 0x150
    2259:	da4a           	add.n	a13, a10, a4
    225b:	626182        	s32i	a8, a1, 0x188
    225e:	49a5c2        	movi	a12, 0x549
    2261:	114fd0        	slli	a4, a15, 3
    2264:	7ca082        	movi	a8, 124
    2267:	636152        	s32i	a5, a1, 0x18c
    226a:	5a4a           	add.n	a5, a10, a4
    226c:	25d842        	addmi	a4, a8, 0x2500
    226f:	116cd0        	slli	a6, a12, 3
    2272:	64a032        	movi	a3, 100
    2275:	ea6a           	add.n	a14, a10, a6
    2277:	5c6192        	s32i	a9, a1, 0x170
    227a:	25d362        	addmi	a6, a3, 0x2500
    227d:	ba4a           	add.n	a11, a10, a4
    227f:	d1a492        	movi	a9, 0x4d1
    2282:	7a6a           	add.n	a7, a10, a6
    2284:	1169d0        	slli	a6, a9, 3
    2287:	5b61d2        	s32i	a13, a1, 0x16c
    228a:	5a61e2        	s32i	a14, a1, 0x168
    228d:	4e61b2        	s32i	a11, a1, 0x138
    2290:	4d1c           	movi.n	a13, 20
    2292:	2adab2        	addmi	a11, a10, 0x2a00
    2295:	3da1e2        	movi	a14, 0x13d
    2298:	ca6a           	add.n	a12, a10, a6
    229a:	27dd42        	addmi	a4, a13, 0x2700
    229d:	116eb0        	slli	a6, a14, 5
    22a0:	2761b2        	s32i	a11, a1, 156
    22a3:	25dab2        	addmi	a11, a10, 0x2500
    22a6:	fa4a           	add.n	a15, a10, a4
    22a8:	4a6a           	add.n	a4, a10, a6
    22aa:	48c162        	addi	a6, a1, 72
    22ad:	29da82        	addmi	a8, a10, 0x2900
    22b0:	44c1d2        	addi	a13, a1, 68
    22b3:	4b61b2        	s32i	a11, a1, 0x12c
    22b6:	24dab2        	addmi	a11, a10, 0x2400
    22b9:	2561c2        	s32i	a12, a1, 148
    22bc:	3c61f2        	s32i	a15, a1, 240
    22bf:	6a6162        	s32i	a6, a1, 0x1a8
    22c2:	426182        	s32i	a8, a1, 0x108
    22c5:	4cc1c2        	addi	a12, a1, 76
    22c8:	5861d2        	s32i	a13, a1, 0x160
    22cb:	2adae2        	addmi	a14, a10, 0x2a00
    22ce:	2adaf2        	addmi	a15, a10, 0x2a00
    22d1:	28c162        	addi	a6, a1, 40
    22d4:	25da82        	addmi	a8, a10, 0x2500
    22d7:	25dad2        	addmi	a13, a10, 0x2500
    22da:	4961b2        	s32i	a11, a1, 0x124
    22dd:	04d2b2        	addmi	a11, a2, 0x400
    22e0:	596152        	s32i	a5, a1, 0x164
    22e3:	4f6172        	s32i	a7, a1, 0x13c
    22e6:	3b6142        	s32i	a4, a1, 236
    22e9:	29da52        	addmi	a5, a10, 0x2900
    22ec:	29da72        	addmi	a7, a10, 0x2900
    22ef:	3061c2        	s32i	a12, a1, 192
    22f2:	3f61e2        	s32i	a14, a1, 252
    22f5:	4061f2        	s32i	a15, a1, 0x100
    22f8:	2ada42        	addmi	a4, a10, 0x2a00
    22fb:	4d6162        	s32i	a6, a1, 0x134
    22fe:	376182        	s32i	a8, a1, 220
    2301:	24dac2        	addmi	a12, a10, 0x2400
    2304:	2461d2        	s32i	a13, a1, 144
    2307:	25dae2        	addmi	a14, a10, 0x2500
    230a:	25daf2        	addmi	a15, a10, 0x2500
    230d:	27da62        	addmi	a6, a10, 0x2700
    2310:	28da82        	addmi	a8, a10, 0x2800
    2313:	30c2d2        	addi	a13, a2, 48
    2316:	2b61b2        	s32i	a11, a1, 172
    2319:	ffa0b2        	movi	a11, 255
    231c:	236152        	s32i	a5, a1, 140
    231f:	346172        	s32i	a7, a1, 208
    2322:	576142        	s32i	a4, a1, 0x15c
    2325:	2bda52        	addmi	a5, a10, 0x2b00
    2328:	30c172        	addi	a7, a1, 48
    232b:	4a61c2        	s32i	a12, a1, 0x128
    232e:	4661e2        	s32i	a14, a1, 0x118
    2331:	2961f2        	s32i	a15, a1, 164
    2334:	26da42        	addmi	a4, a10, 0x2600
    2337:	206162        	s32i	a6, a1, 128
    233a:	396182        	s32i	a8, a1, 228
    233d:	50c1c2        	addi	a12, a1, 80
    2340:	3d61d2        	s32i	a13, a1, 244
    2343:	54c1e2        	addi	a14, a1, 84
    2346:	04d2f2        	addmi	a15, a2, 0x400
    2349:	04d2d2        	addmi	a13, a2, 0x400
    234c:	58c182        	addi	a8, a1, 88
    234f:	7fdb32        	addmi	a3, a11, 0x7f00
    2352:	18a462        	movi	a6, 0x418
    2355:	2e6152        	s32i	a5, a1, 184
    2358:	4c6172        	s32i	a7, a1, 0x130
    235b:	266142        	s32i	a4, a1, 152
    235e:	27da52        	addmi	a5, a10, 0x2700
    2361:	24da72        	addmi	a7, a10, 0x2400
    2364:	3861c2        	s32i	a12, a1, 224
    2367:	6161e2        	s32i	a14, a1, 0x184
    236a:	6061f2        	s32i	a15, a1, 0x180
    236d:	98a2f2        	movi	a15, 0x298
    2370:	04d242        	addmi	a4, a2, 0x400
    2373:	29dac2        	addmi	a12, a10, 0x2900
    2376:	4861d2        	s32i	a13, a1, 0x120
    2379:	d26a           	add.n	a13, a2, a6
    237b:	04d2e2        	addmi	a14, a2, 0x400
    237e:	5e6182        	s32i	a8, a1, 0x178
    2381:	356132        	s32i	a3, a1, 212
    2384:	362182        	l32i	a8, a1, 216
    2387:	332162        	l32i	a6, a1, 204
    238a:	222132        	l32i	a3, a1, 136
    238d:	29da92        	addmi	a9, a10, 0x2900
    2390:	2a6152        	s32i	a5, a1, 168
    2393:	3a6172        	s32i	a7, a1, 232
    2396:	2d6142        	s32i	a4, a1, 180
    2399:	04d252        	addmi	a5, a2, 0x400
    239c:	5261c2        	s32i	a12, a1, 0x148
    239f:	4561e2        	s32i	a14, a1, 0x114
    23a2:	02d242        	addmi	a4, a2, 0x200
    23a5:	50c272        	addi	a7, a2, 80
    23a8:	02d2a2        	addmi	a10, a2, 0x200
    23ab:	2821c2        	l32i	a12, a1, 160
    23ae:	1c21e2        	l32i	a14, a1, 112
    23b1:	f2fa           	add.n	a15, a2, a15
    23b3:	5f6142        	s32i	a4, a1, 0x17c
    23b6:	3e6172        	s32i	a7, a1, 248
    23b9:	560124        	ae_sp24x2s.i	aep0, a1, 16
    23bc:	567134        	ae_sp24x2s.i	aep7, a1, 24
    23bf:	2c6152        	s32i	a5, a1, 176
    23c2:	5d61a2        	s32i	a10, a1, 0x174
    23c5:	670c           	movi.n	a7, 6
    23c7:	240c           	movi.n	a4, 2
    23c9:	2f61c2        	s32i	a12, a1, 188
    23cc:	5161d2        	s32i	a13, a1, 0x144
    23cf:	3261e2        	s32i	a14, a1, 200
    23d2:	5061f2        	s32i	a15, a1, 0x140
    23d5:	1e6192        	s32i	a9, a1, 120
    23d8:	003d06        	j	24d0 <Voice_EC_Prcs_common+0x618>

000023db <Voice_EC_Prcs_common+0x523>:
	...

000023dd <Voice_EC_Prcs_common+0x525>:
    23dd:	051787        	beq	a7, a8, 23e6 <Voice_EC_Prcs_common+0x52e>
    23e0:	540124        	ae_lp24x2.i	aep0, a1, 16
    23e3:	a10004        	ae_mulzaafq32sp16s.ll	aeq0, aeq0, aep0, aeq0, aep0
    23e6:	060934        	ae_roundsq32asym	aeq0, aeq0
    23e9:	368704        	ae_trunca32q48	a7, aeq0
    23ec:	150c           	movi.n	a5, 1
    23ee:	2b21d2        	l32i	a13, a1, 172
    23f1:	0155b0        	slli	a5, a5, 21
    23f4:	f73ee1        	l32r	a14, ec (7800 <immediate_num>)
    23f7:	537750        	max	a7, a7, a5
    23fa:	7d79           	s32i.n	a7, a13, 28
    23fc:	604d64        	ae_lq32f.i	aeq1, a13, 24
    23ff:	440e54        	ae_lp16x2f.i	aep0, a14, 20
    2402:	0c010418ff 	{ movi	a15, 0x418; ae_mulzaafq32sp16s.lh	aeq0, aeq1, aep0, aeq0, aep0 }
    2407:	060934        	ae_roundsq32asym	aeq0, aeq0
    240a:	6282f4        	ae_sq32f.x	aeq0, a2, a15
    240d:	5f2152        	l32i	a5, a1, 0x17c
    2410:	3b22a2        	l32i	a10, a2, 236
    2413:	5b22b2        	l32i	a11, a2, 0x16c
    2416:	6b22c2        	l32i	a12, a2, 0x1ac
    2419:	4b22d2        	l32i	a13, a2, 0x12c
    241c:	3c95f2        	l16si	a15, a5, 120
    241f:	f75761        	l32r	a6, 17c (1c00 <gain_after_ec>)
    2422:	0e0c           	movi.n	a14, 0
    2424:	0006e0        	callx8	a6
    2427:	3b22a2        	l32i	a10, a2, 236
    242a:	5b22b2        	l32i	a11, a2, 0x16c
    242d:	4b22c2        	l32i	a12, a2, 0x12c
    2430:	a122e2        	l32i	a14, a2, 0x284
    2433:	6321d2        	l32i	a13, a1, 0x18c
    2436:	f75a61        	l32r	a6, 1a0 (1ad4 <synth_3band>)
    2439:	0006e0        	callx8	a6
    243c:	a122a2        	l32i	a10, a2, 0x284
    243f:	6b22b2        	l32i	a11, a2, 0x1ac
    2442:	3e21d2        	l32i	a13, a1, 248
    2445:	5e21e2        	l32i	a14, a1, 0x178
    2448:	f75721        	l32r	a2, 1a4 (18f0 <tx_upsample_by2>)
    244b:	03cd           	mov.n	a12, a3
    244d:	0002e0        	callx8	a2
    2450:	5d2122        	l32i	a2, a1, 0x174
    2453:	8a0582        	l8ui	a8, a5, 138
    2456:	05a162        	movi	a6, 0x105
    2459:	449272        	l16si	a7, a2, 136
    245c:	048380        	extui	a8, a8, 3, 1
    245f:	4f1c           	movi.n	a15, 20
    2461:	609070        	neg	a9, a7
    2464:	839780        	moveqz	a9, a7, a8
    2467:	1189c0        	slli	a8, a9, 4
    246a:	441304        	ae_lp16x2f.i	aep1, a3, 0
    246d:	037d           	mov.n	a7, a3
    246f:	398884        	ae_movpa24x2	aep0, a8, a8
    2472:	1166c0        	slli	a6, a6, 4
    2475:	188f76        	loop	a15, 2491 <Voice_EC_Prcs_common+0x5d9>
    2478:	011054        	ae_mulfp24s.hl	aeq0, aep1, aep0
    247b:	011874        	ae_mulfp24s.ll	aeq1, aep1, aep0
    247e:	350214        	ae_slliq56	aeq0, aeq0, 8
    2481:	fb63fa924f 	{ ae_slliq56	aeq1, aeq1, 8; ae_roundsp16q48asym	aep7, aeq0 }
    2486:	f96bb2770f 	{ ae_sp16f.l.i	aep7, a7, 0; ae_roundsp16q48asym	aep2, aeq1 }
    248b:	422714        	ae_sp16f.l.i	aep2, a7, 2
    248e:	449714        	ae_lp16x2f.iu	aep1, a7, 4

00002491 <Voice_EC_Prcs_common+0x5d9>:
    2491:	f6e321        	l32r	a2, 20 (8688 <p_ecnr_mem>)
    2494:	6221c2        	l32i	a12, a1, 0x188
    2497:	8d2c           	movi.n	a13, 40
    2499:	0278           	l32i.n	a7, a2, 0
    249b:	f74321        	l32r	a2, 1a8 (19ec <deemph_filter_N>)
    249e:	03ad           	mov.n	a10, a3
    24a0:	b76a           	add.n	a11, a7, a6
    24a2:	0002e0        	callx8	a2
    24a5:	322122        	l32i	a2, a1, 200
    24a8:	50c332        	addi	a3, a3, 80
    24ab:	436132        	s32i	a3, a1, 0x10c
    24ae:	50c222        	addi	a2, a2, 80
    24b1:	326122        	s32i	a2, a1, 200

000024b4 <Voice_EC_Prcs_common+0x5fc>:
    24b4:	6f2172        	l32i	a7, a1, 0x1bc
    24b7:	332162        	l32i	a6, a1, 204
    24ba:	222132        	l32i	a3, a1, 136
    24bd:	1d2182        	l32i	a8, a1, 116
    24c0:	770b           	addi.n	a7, a7, -1
    24c2:	50c662        	addi	a6, a6, 80
    24c5:	50c332        	addi	a3, a3, 80
    24c8:	50c882        	addi	a8, a8, 80
    24cb:	17cc           	bnez.n	a7, 24d0 <Voice_EC_Prcs_common+0x618>
    24cd:	026446        	j	2e62 <Voice_EC_Prcs_common+0xfaa>
    24d0:	f6d421        	l32r	a2, 20 (8688 <p_ecnr_mem>)
    24d3:	0da4f2        	movi	a15, 0x40d
    24d6:	05a152        	movi	a5, 0x105
    24d9:	02e8           	l32i.n	a14, a2, 0
    24db:	112fe0        	slli	a2, a15, 2
    24de:	1155c0        	slli	a5, a5, 4
    24e1:	ce2a           	add.n	a12, a14, a2
    24e3:	f72121        	l32r	a2, 168 (19a4 <emph_filter_N>)
    24e6:	be5a           	add.n	a11, a14, a5
    24e8:	8d2c           	movi.n	a13, 40
    24ea:	06ad           	mov.n	a10, a6
    24ec:	1d6182        	s32i	a8, a1, 116
    24ef:	6f6172        	s32i	a7, a1, 0x1bc
    24f2:	0002e0        	callx8	a2
    24f5:	f6ca71        	l32r	a7, 20 (8688 <p_ecnr_mem>)
    24f8:	07a2f2        	movi	a15, 0x207
    24fb:	8d2c           	movi.n	a13, 40
    24fd:	0778           	l32i.n	a7, a7, 0
    24ff:	03ad           	mov.n	a10, a3
    2501:	b75a           	add.n	a11, a7, a5
    2503:	115fd0        	slli	a5, a15, 3
    2506:	c75a           	add.n	a12, a7, a5
    2508:	0002e0        	callx8	a2
    250b:	f6c551        	l32r	a5, 20 (8688 <p_ecnr_mem>)
    250e:	f71721        	l32r	a2, 16c (1838 <tx_downsample_by2>)
    2511:	40c1e2        	addi	a14, a1, 64
    2514:	0578           	l32i.n	a7, a5, 0
    2516:	06cd           	mov.n	a12, a6
    2518:	12d782        	addmi	a8, a7, 0x1200
    251b:	1728a2        	l32i	a10, a8, 92
    251e:	1828b2        	l32i	a11, a8, 96
    2521:	24d7d2        	addmi	a13, a7, 0x2400
    2524:	0002e0        	callx8	a2
    2527:	0578           	l32i.n	a7, a5, 0
    2529:	21a1f2        	movi	a15, 0x121
    252c:	029d           	mov.n	a9, a2
    252e:	12d782        	addmi	a8, a7, 0x1200
    2531:	052d           	mov.n	a2, a5
    2533:	115fb0        	slli	a5, a15, 5
    2536:	1b28a2        	l32i	a10, a8, 108
    2539:	1c28b2        	l32i	a11, a8, 112
    253c:	6a21e2        	l32i	a14, a1, 0x1a8
    253f:	d75a           	add.n	a13, a7, a5
    2541:	03cd           	mov.n	a12, a3
    2543:	226132        	s32i	a3, a1, 136
    2546:	0009e0        	callx8	a9
    2549:	0278           	l32i.n	a7, a2, 0
    254b:	342152        	l32i	a5, a1, 208
    254e:	1e2132        	l32i	a3, a1, 120
    2551:	5ba1f2        	movi	a15, 0x15b
    2554:	12d792        	addmi	a9, a7, 0x1200
    2557:	112fb0        	slli	a2, a15, 5
    255a:	b72a           	add.n	a11, a7, a2
    255c:	3f25d2        	l32i	a13, a5, 252
    255f:	2f23e2        	l32i	a14, a3, 188
    2562:	1729a2        	l32i	a10, a9, 92
    2565:	1629c2        	l32i	a12, a9, 88
    2568:	f70221        	l32r	a2, 170 (1a30 <analy_3band>)
    256b:	0002e0        	callx8	a2
    256e:	f6ac21        	l32r	a2, 20 (8688 <p_ecnr_mem>)
    2571:	25a132        	movi	a3, 0x125
    2574:	1133b0        	slli	a3, a3, 5
    2577:	0278           	l32i.n	a7, a2, 0
    2579:	422122        	l32i	a2, a1, 0x108
    257c:	ae0c           	movi.n	a14, 10
    257e:	12d782        	addmi	a8, a7, 0x1200
    2581:	b73a           	add.n	a11, a7, a3
    2583:	1f22d2        	l32i	a13, a2, 124
    2586:	1628a2        	l32i	a10, a8, 88
    2589:	f6f131        	l32r	a3, 150 (1b60 <biquad_2cascade_24bitTx>)
    258c:	10d7c2        	addmi	a12, a7, 0x1000
    258f:	0003e0        	callx8	a3
    2592:	f6a331        	l32r	a3, 20 (8688 <p_ecnr_mem>)
    2595:	1e21e2        	l32i	a14, a1, 120
    2598:	5da1f2        	movi	a15, 0x15d
    259b:	0378           	l32i.n	a7, a3, 0
    259d:	4025d2        	l32i	a13, a5, 0x100
    25a0:	115fb0        	slli	a5, a15, 5
    25a3:	12d792        	addmi	a9, a7, 0x1200
    25a6:	b75a           	add.n	a11, a7, a5
    25a8:	302ee2        	l32i	a14, a14, 192
    25ab:	1b29a2        	l32i	a10, a9, 108
    25ae:	1629c2        	l32i	a12, a9, 88
    25b1:	f6ef51        	l32r	a5, 170 (1a30 <analy_3band>)
    25b4:	0005e0        	callx8	a5
    25b7:	0378           	l32i.n	a7, a3, 0
    25b9:	202282        	l32i	a8, a2, 128
    25bc:	550c           	movi.n	a5, 5
    25be:	12d772        	addmi	a7, a7, 0x1200
    25c1:	162792        	l32i	a9, a7, 88
    25c4:	fcc872        	addi	a7, a8, -4
    25c7:	f8c982        	addi	a8, a9, -8
    25ca:	088576        	loop	a5, 25d6 <Voice_EC_Prcs_common+0x71e>
    25cd:	5c8814        	ae_lp24x2f.iu	aep0, a8, 8
    25d0:	090184        	ae_roundsp16asym	aep0, aep0
    25d3:	468714        	ae_sp16x2f.iu	aep0, a7, 4

000025d6 <Voice_EC_Prcs_common+0x71e>:
    25d6:	336162        	s32i	a6, a1, 204
    25d9:	232172        	l32i	a7, a1, 140
    25dc:	312162        	l32i	a6, a1, 196
    25df:	6e21b2        	l32i	a11, a1, 0x1b8
    25e2:	f6e451        	l32r	a5, 174 (d84 <subband_aec_block>)
    25e5:	ac0c           	movi.n	a12, 10
    25e7:	1e0c           	movi.n	a14, 1
    25e9:	07ad           	mov.n	a10, a7
    25eb:	06dd           	mov.n	a13, a6
    25ed:	0005e0        	callx8	a5
    25f0:	6c21b2        	l32i	a11, a1, 0x1b0
    25f3:	ac0c           	movi.n	a12, 10
    25f5:	3e0c           	movi.n	a14, 3
    25f7:	07ad           	mov.n	a10, a7
    25f9:	06dd           	mov.n	a13, a6
    25fb:	0005e0        	callx8	a5
    25fe:	6b21b2        	l32i	a11, a1, 0x1ac
    2601:	4c1c           	movi.n	a12, 20
    2603:	4e0c           	movi.n	a14, 4
    2605:	07ad           	mov.n	a10, a7
    2607:	06dd           	mov.n	a13, a6
    2609:	0005e0        	callx8	a5
    260c:	6d21b2        	l32i	a11, a1, 0x1b4
    260f:	f6da51        	l32r	a5, 178 (1060 <subband_aec_mid_channel>)
    2612:	2d0c           	movi.n	a13, 2
    2614:	07ad           	mov.n	a10, a7
    2616:	06cd           	mov.n	a12, a6
    2618:	0005e0        	callx8	a5
    261b:	272152        	l32i	a5, a1, 156
    261e:	342132        	l32i	a3, a1, 208
    2621:	2122a2        	l32i	a10, a2, 132
    2624:	1125c2        	l32i	a12, a5, 68
    2627:	1e2152        	l32i	a5, a1, 120
    262a:	4123b2        	l32i	a11, a3, 0x104
    262d:	f6d371        	l32r	a7, 17c (1c00 <gain_after_ec>)
    2630:	3125d2        	l32i	a13, a5, 196
    2633:	0e0c           	movi.n	a14, 0
    2635:	0f0c           	movi.n	a15, 0
    2637:	0007e0        	callx8	a7
    263a:	4121f2        	l32i	a15, a1, 0x104
    263d:	027d           	mov.n	a7, a2
    263f:	61a122        	movi	a2, 0x161
    2642:	1a8f16        	beqz	a15, 27ee <Voice_EC_Prcs_common+0x936>
    2645:	f67621        	l32r	a2, 20 (8688 <p_ecnr_mem>)
    2648:	212152        	l32i	a5, a1, 132
    264b:	0fa4f2        	movi	a15, 0x40f
    264e:	0278           	l32i.n	a7, a2, 0
    2650:	05a132        	movi	a3, 0x105
    2653:	112fe0        	slli	a2, a15, 2
    2656:	1133c0        	slli	a3, a3, 4
    2659:	c72a           	add.n	a12, a7, a2
    265b:	f6c321        	l32r	a2, 168 (19a4 <emph_filter_N>)
    265e:	b73a           	add.n	a11, a7, a3
    2660:	8d2c           	movi.n	a13, 40
    2662:	05ad           	mov.n	a10, a5
    2664:	0002e0        	callx8	a2
    2667:	f66e21        	l32r	a2, 20 (8688 <p_ecnr_mem>)
    266a:	91a032        	movi	a3, 145
    266d:	1133a0        	slli	a3, a3, 6
    2670:	0278           	l32i.n	a7, a2, 0
    2672:	5821e2        	l32i	a14, a1, 0x160
    2675:	f6bd21        	l32r	a2, 16c (1838 <tx_downsample_by2>)
    2678:	12d782        	addmi	a8, a7, 0x1200
    267b:	1928a2        	l32i	a10, a8, 100
    267e:	1a28b2        	l32i	a11, a8, 104
    2681:	d73a           	add.n	a13, a7, a3
    2683:	05cd           	mov.n	a12, a5
    2685:	216152        	s32i	a5, a1, 132
    2688:	0002e0        	callx8	a2
    268b:	f66521        	l32r	a2, 20 (8688 <p_ecnr_mem>)
    268e:	402132        	l32i	a3, a1, 0x100
    2691:	3f2152        	l32i	a5, a1, 252
    2694:	0278           	l32i.n	a7, a2, 0
    2696:	5fa1f2        	movi	a15, 0x15f
    2699:	2f23e2        	l32i	a14, a3, 188
    269c:	12d792        	addmi	a9, a7, 0x1200
    269f:	113fb0        	slli	a3, a15, 5
    26a2:	b73a           	add.n	a11, a7, a3
    26a4:	3f25d2        	l32i	a13, a5, 252
    26a7:	1929a2        	l32i	a10, a9, 100
    26aa:	1629c2        	l32i	a12, a9, 88
    26ad:	f6b031        	l32r	a3, 170 (1a30 <analy_3band>)
    26b0:	0003e0        	callx8	a3
    26b3:	0278           	l32i.n	a7, a2, 0
    26b5:	2721f2        	l32i	a15, a1, 156
    26b8:	97a432        	movi	a3, 0x497
    26bb:	1133d0        	slli	a3, a3, 3
    26be:	1f2fd2        	l32i	a13, a15, 124
    26c1:	b73a           	add.n	a11, a7, a3
    26c3:	10d7c2        	addmi	a12, a7, 0x1000
    26c6:	962ca2        	l32i	a10, a12, 0x258
    26c9:	f6a171        	l32r	a7, 150 (1b60 <biquad_2cascade_24bitTx>)
    26cc:	ae0c           	movi.n	a14, 10
    26ce:	0007e0        	callx8	a7
    26d1:	232172        	l32i	a7, a1, 140
    26d4:	5a21b2        	l32i	a11, a1, 0x168
    26d7:	f6a731        	l32r	a3, 174 (d84 <subband_aec_block>)
    26da:	ac0c           	movi.n	a12, 10
    26dc:	1e0c           	movi.n	a14, 1
    26de:	07ad           	mov.n	a10, a7
    26e0:	06dd           	mov.n	a13, a6
    26e2:	0003e0        	callx8	a3
    26e5:	5c21b2        	l32i	a11, a1, 0x170
    26e8:	ac0c           	movi.n	a12, 10
    26ea:	3e0c           	movi.n	a14, 3
    26ec:	07ad           	mov.n	a10, a7
    26ee:	06dd           	mov.n	a13, a6
    26f0:	0003e0        	callx8	a3
    26f3:	5921b2        	l32i	a11, a1, 0x164
    26f6:	4c1c           	movi.n	a12, 20
    26f8:	4e0c           	movi.n	a14, 4
    26fa:	07ad           	mov.n	a10, a7
    26fc:	06dd           	mov.n	a13, a6
    26fe:	0003e0        	callx8	a3
    2701:	5b21b2        	l32i	a11, a1, 0x16c
    2704:	f69d31        	l32r	a3, 178 (1060 <subband_aec_mid_channel>)
    2707:	2d0c           	movi.n	a13, 2
    2709:	07ad           	mov.n	a10, a7
    270b:	402122        	l32i	a2, a1, 0x100
    270e:	06cd           	mov.n	a12, a6
    2710:	0003e0        	callx8	a3
    2713:	572162        	l32i	a6, a1, 0x15c
    2716:	2e2132        	l32i	a3, a1, 184
    2719:	4125b2        	l32i	a11, a5, 0x104
    271c:	2126a2        	l32i	a10, a6, 132
    271f:	1123c2        	l32i	a12, a3, 68
    2722:	3122d2        	l32i	a13, a2, 196
    2725:	f69571        	l32r	a7, 17c (1c00 <gain_after_ec>)
    2728:	1e0c           	movi.n	a14, 1
    272a:	0f0c           	movi.n	a15, 0
    272c:	0007e0        	callx8	a7
    272f:	f63c51        	l32r	a5, 20 (8688 <p_ecnr_mem>)
    2732:	20c1b2        	addi	a11, a1, 32
    2735:	c1cb           	addi.n	a12, a1, 12
    2737:	0578           	l32i.n	a7, a5, 0
    2739:	3f21e2        	l32i	a14, a1, 252
    273c:	9ca0f2        	movi	a15, 156
    273f:	12d782        	addmi	a8, a7, 0x1200
    2742:	550882        	l8ui	a8, a8, 85
    2745:	12d752        	addmi	a5, a7, 0x1200
    2748:	2126a2        	l32i	a10, a6, 132
    274b:	026807        	bbci	a8, 0, 2751 <Voice_EC_Prcs_common+0x899>
    274e:	003886        	j	2834 <Voice_EC_Prcs_common+0x97c>
    2751:	3122c2        	l32i	a12, a2, 196
    2754:	2cdf22        	addmi	a2, a15, 0x2c00
    2757:	412eb2        	l32i	a11, a14, 0x104
    275a:	d72a           	add.n	a13, a7, a2
    275c:	1d25e2        	l32i	a14, a5, 116
    275f:	f69021        	l32r	a2, 1a0 (1ad4 <synth_3band>)
    2762:	0002e0        	callx8	a2
    2765:	f62e21        	l32r	a2, 20 (8688 <p_ecnr_mem>)
    2768:	2f2152        	l32i	a5, a1, 188
    276b:	9f4c           	movi.n	a15, 73
    276d:	0278           	l32i.n	a7, a2, 0
    276f:	1123b2        	l32i	a11, a3, 68
    2772:	113f90        	slli	a3, a15, 7
    2775:	12d782        	addmi	a8, a7, 0x1200
    2778:	1d28a2        	l32i	a10, a8, 116
    277b:	3821e2        	l32i	a14, a1, 224
    277e:	f68961        	l32r	a6, 1a4 (18f0 <tx_upsample_by2>)
    2781:	d73a           	add.n	a13, a7, a3
    2783:	05cd           	mov.n	a12, a5
    2785:	0006e0        	callx8	a6
    2788:	0278           	l32i.n	a7, a2, 0
    278a:	05a132        	movi	a3, 0x105
    278d:	1133c0        	slli	a3, a3, 4
    2790:	09a2f2        	movi	a15, 0x209
    2793:	b73a           	add.n	a11, a7, a3
    2795:	113fd0        	slli	a3, a15, 3
    2798:	c73a           	add.n	a12, a7, a3
    279a:	f68331        	l32r	a3, 1a8 (19ec <deemph_filter_N>)
    279d:	8d2c           	movi.n	a13, 40
    279f:	05ad           	mov.n	a10, a5
    27a1:	0003e0        	callx8	a3
    27a4:	422132        	l32i	a3, a1, 0x108
    27a7:	0278           	l32i.n	a7, a2, 0
    27a9:	3421d2        	l32i	a13, a1, 208
    27ac:	1e21e2        	l32i	a14, a1, 120
    27af:	61a1f2        	movi	a15, 0x161
    27b2:	2123a2        	l32i	a10, a3, 132
    27b5:	12d782        	addmi	a8, a7, 0x1200
    27b8:	113fb0        	slli	a3, a15, 5
    27bb:	412db2        	l32i	a11, a13, 0x104
    27be:	312ec2        	l32i	a12, a14, 196
    27c1:	d73a           	add.n	a13, a7, a3
    27c3:	1e28e2        	l32i	a14, a8, 120
    27c6:	f67631        	l32r	a3, 1a0 (1ad4 <synth_3band>)
    27c9:	0003e0        	callx8	a3
    27cc:	0278           	l32i.n	a7, a2, 0
    27ce:	2721e2        	l32i	a14, a1, 156
    27d1:	23a1f2        	movi	a15, 0x123
    27d4:	12d782        	addmi	a8, a7, 0x1200
    27d7:	112eb2        	l32i	a11, a14, 68
    27da:	112fb0        	slli	a2, a15, 5
    27dd:	1e28a2        	l32i	a10, a8, 120
    27e0:	1d21c2        	l32i	a12, a1, 116
    27e3:	3021e2        	l32i	a14, a1, 192
    27e6:	d72a           	add.n	a13, a7, a2
    27e8:	0006e0        	callx8	a6
    27eb:	00f1c6        	j	2bb6 <Voice_EC_Prcs_common+0xcfe>

000027ee <Voice_EC_Prcs_common+0x936>:
    27ee:	f60c61        	l32r	a6, 20 (8688 <p_ecnr_mem>)
    27f1:	1122b0        	slli	a2, a2, 5
    27f4:	2127a2        	l32i	a10, a7, 132
    27f7:	06f8           	l32i.n	a15, a6, 0
    27f9:	4123b2        	l32i	a11, a3, 0x104
    27fc:	3125c2        	l32i	a12, a5, 196
    27ff:	12df82        	addmi	a8, a15, 0x1200
    2802:	df2a           	add.n	a13, a15, a2
    2804:	1e28e2        	l32i	a14, a8, 120
    2807:	f66621        	l32r	a2, 1a0 (1ad4 <synth_3band>)
    280a:	0002e0        	callx8	a2
    280d:	0678           	l32i.n	a7, a6, 0
    280f:	272122        	l32i	a2, a1, 156
    2812:	1d2152        	l32i	a5, a1, 116
    2815:	23a1f2        	movi	a15, 0x123
    2818:	1122b2        	l32i	a11, a2, 68
    281b:	12d782        	addmi	a8, a7, 0x1200
    281e:	112fb0        	slli	a2, a15, 5
    2821:	d72a           	add.n	a13, a7, a2
    2823:	1e28a2        	l32i	a10, a8, 120
    2826:	3021e2        	l32i	a14, a1, 192
    2829:	f65e21        	l32r	a2, 1a4 (18f0 <tx_upsample_by2>)
    282c:	05cd           	mov.n	a12, a5
    282e:	0002e0        	callx8	a2
    2831:	00e586        	j	2bcb <Voice_EC_Prcs_common+0xd13>

00002834 <Voice_EC_Prcs_common+0x97c>:
    2834:	1f2122        	l32i	a2, a1, 124
    2837:	f65231        	l32r	a3, 180 (5590 <prelim_filter>)
    283a:	02ad           	mov.n	a10, a2
    283c:	0003e0        	callx8	a3
    283f:	4f21b2        	l32i	a11, a1, 0x13c
    2842:	4d21d2        	l32i	a13, a1, 0x134
    2845:	f64f31        	l32r	a3, 184 (5814 <prelim_filter3>)
    2848:	3c0c           	movi.n	a12, 3
    284a:	02ad           	mov.n	a10, a2
    284c:	0003e0        	callx8	a3
    284f:	4e21b2        	l32i	a11, a1, 0x138
    2852:	4c21d2        	l32i	a13, a1, 0x130
    2855:	4c0c           	movi.n	a12, 4
    2857:	02ad           	mov.n	a10, a2
    2859:	0003e0        	callx8	a3
    285c:	372132        	l32i	a3, a1, 220
    285f:	8188           	l32i.n	a8, a1, 32
    2861:	a198           	l32i.n	a9, a1, 40
    2863:	1e1372        	l16ui	a7, a3, 60
    2866:	c168           	l32i.n	a6, a1, 48
    2868:	300774        	ae_cvtp24a16x2.ll	aep0, a7, a7
    286b:	4b2172        	l32i	a7, a1, 0x12c
    286e:	4a21b2        	l32i	a11, a1, 0x128
    2871:	360834        	ae_cvtq48a32s	aeq0, a8
    2874:	10003ec97f 	{ ae_cvtq48a32s	aeq1, a9; ae_mulzaafq32sp16s.ll	aeq0, aeq0, aep0, aeq0, aep0 }
    2879:	1001fec6bf 	{ ae_cvtq48a32s	aeq2, a6; ae_mulzaafq32sp16s.ll	aeq1, aeq1, aep0, aeq1, aep0 }
    287e:	13026047ae 	{ l16si	a10, a7, 8; ae_mulzaafq32sp16s.ll	aeq3, aeq2, aep0, aeq2, aep0 }
    2883:	f863e7ebce 	{ l16si	a12, a11, 252; ae_roundsp16q48asym	aep1, aeq0 }
    2888:	fb6bbf1d5f 	{ ae_cvta32p24.l	a13, aep1; ae_roundsp16q48asym	aep6, aeq1 }
    288d:	fb7bff6e5f 	{ ae_cvta32p24.l	a14, aep6; ae_roundsp16q48asym	aep7, aeq3 }
    2892:	007fd4        	ae_cvta32p24.l	a15, aep7
    2895:	81d9           	s32i.n	a13, a1, 32
    2897:	a1e9           	s32i.n	a14, a1, 40
    2899:	c1f9           	s32i.n	a15, a1, 48
    289b:	2baac7        	bge	a10, a12, 28ca <Voice_EC_Prcs_common+0xa12>
    289e:	20c172        	addi	a7, a1, 32
    28a1:	4721b2        	l32i	a11, a1, 0x11c
    28a4:	f63931        	l32r	a3, 188 (5ae0 <cali_power>)
    28a7:	02ad           	mov.n	a10, a2
    28a9:	07cd           	mov.n	a12, a7
    28ab:	0003e0        	callx8	a3
    28ae:	f63731        	l32r	a3, 18c (595c <cali_module_short>)
    28b1:	02ad           	mov.n	a10, a2
    28b3:	07bd           	mov.n	a11, a7
    28b5:	0003e0        	callx8	a3
    28b8:	292162        	l32i	a6, a1, 164
    28bb:	242132        	l32i	a3, a1, 144
    28be:	5d1692        	l16ui	a9, a6, 186
    28c1:	5e1682        	l16ui	a8, a6, 188
    28c4:	5b1372        	l16ui	a7, a3, 182
    28c7:	000746        	j	28e8 <Voice_EC_Prcs_common+0xa30>

000028ca <Voice_EC_Prcs_common+0xa12>:
    28ca:	242132        	l32i	a3, a1, 144
    28cd:	4621f2        	l32i	a15, a1, 0x118
    28d0:	292162        	l32i	a6, a1, 164
    28d3:	d77c           	movi.n	a7, -3
    28d5:	080c           	movi.n	a8, 0
    28d7:	f47070        	extui	a7, a7, 0, 16
    28da:	090c           	movi.n	a9, 0
    28dc:	5b5372        	s16i	a7, a3, 182
    28df:	5f5f82        	s16i	a8, a15, 190
    28e2:	5d5682        	s16i	a8, a6, 186
    28e5:	5e5682        	s16i	a8, a6, 188
    28e8:	262152        	l32i	a5, a1, 152
    28eb:	032c           	movi.n	a3, 32
    28ed:	899d           	ae_sext16	a9, a9
    28ef:	4215a2        	l16ui	a10, a5, 132
    28f2:	888d           	ae_sext16	a8, a8
    28f4:	87dd           	ae_sext16	a13, a7
    28f6:	63fa30        	minu	a15, a10, a3
    28f9:	c073f0        	sub	a7, a3, a15
    28fc:	829f90        	mull	a9, a15, a9
    28ff:	827780        	mull	a7, a7, a8
    2902:	2521b2        	l32i	a11, a1, 148
    2905:	779a           	add.n	a7, a7, a9
    2907:	10c772        	addi	a7, a7, 16
    290a:	2225c2        	l32i	a12, a5, 136
    290d:	f62031        	l32r	a3, 190 (5ec0 <beam1_proc>)
    2910:	417570        	srli	a7, a7, 5
    2913:	0e0c           	movi.n	a14, 0
    2915:	1f0c           	movi.n	a15, 1
    2917:	02ad           	mov.n	a10, a2
    2919:	5e5672        	s16i	a7, a6, 188
    291c:	0003e0        	callx8	a3
    291f:	2a2172        	l32i	a7, a1, 168
    2922:	5d96d2        	l16si	a13, a6, 186
    2925:	3c21b2        	l32i	a11, a1, 240
    2928:	77c8           	l32i.n	a12, a7, 28
    292a:	0e0c           	movi.n	a14, 0
    292c:	0f0c           	movi.n	a15, 0
    292e:	02ad           	mov.n	a10, a2
    2930:	0003e0        	callx8	a3
    2933:	202132        	l32i	a3, a1, 128
    2936:	3b2152        	l32i	a5, a1, 236
    2939:	5e96d2        	l16si	a13, a6, 188
    293c:	2a23c2        	l32i	a12, a3, 168
    293f:	f61481        	l32r	a8, 190 (5ec0 <beam1_proc>)
    2942:	0e0c           	movi.n	a14, 0
    2944:	0f0c           	movi.n	a15, 0
    2946:	02ad           	mov.n	a10, a2
    2948:	05bd           	mov.n	a11, a5
    294a:	0008e0        	callx8	a8
    294d:	02ad           	mov.n	a10, a2
    294f:	2a23c2        	l32i	a12, a3, 168
    2952:	5e96d2        	l16si	a13, a6, 188
    2955:	f60e21        	l32r	a2, 190 (5ec0 <beam1_proc>)
    2958:	ae0c           	movi.n	a14, 10
    295a:	0f0c           	movi.n	a15, 0
    295c:	05bd           	mov.n	a11, a5
    295e:	0002e0        	callx8	a2
    2961:	6778           	l32i.n	a7, a7, 24
    2963:	3a2122        	l32i	a2, a1, 232
    2966:	05a0f2        	movi	a15, 5
    2969:	fcc772        	addi	a7, a7, -4
    296c:	781282        	l16ui	a8, a2, 240
    296f:	300884        	ae_cvtp24a16x2.ll	aep0, a8, a8
    2972:	449714        	ae_lp16x2f.iu	aep1, a7, 4
    2975:	178f76        	loop	a15, 2990 <Voice_EC_Prcs_common+0xad8>
    2978:	011054        	ae_mulfp24s.hl	aeq0, aep1, aep0
    297b:	ea05ed971f 	{ ae_lp16x2f.iu	aep1, a7, 4; ae_mulfp24s.ll	aeq1, aep1, aep0 }
    2980:	350094        	ae_slliq56	aeq0, aeq0, 2
    2983:	f963ba906f 	{ ae_slliq56	aeq1, aeq1, 2; ae_roundsp16q48asym	aep2, aeq0 }
    2988:	f96bf227ef 	{ ae_sp16f.l.i	aep2, a7, -4; ae_roundsp16q48asym	aep3, aeq1 }
    298d:	4237f4        	ae_sp16f.l.i	aep3, a7, -2

00002990 <Voice_EC_Prcs_common+0xad8>:
    2990:	202122        	l32i	a2, a1, 128
    2993:	3a21e2        	l32i	a14, a1, 232
    2996:	af0c           	movi.n	a15, 10
    2998:	292272        	l32i	a7, a2, 164
    299b:	791e82        	l16ui	a8, a14, 242
    299e:	300884        	ae_cvtp24a16x2.ll	aep0, a8, a8
    29a1:	fcc772        	addi	a7, a7, -4
    29a4:	449714        	ae_lp16x2f.iu	aep1, a7, 4
    29a7:	178f76        	loop	a15, 29c2 <Voice_EC_Prcs_common+0xb0a>
    29aa:	011054        	ae_mulfp24s.hl	aeq0, aep1, aep0
    29ad:	ea05ed971f 	{ ae_lp16x2f.iu	aep1, a7, 4; ae_mulfp24s.ll	aeq1, aep1, aep0 }
    29b2:	350094        	ae_slliq56	aeq0, aeq0, 2
    29b5:	f963ba906f 	{ ae_slliq56	aeq1, aeq1, 2; ae_roundsp16q48asym	aep2, aeq0 }
    29ba:	f96bf227ef 	{ ae_sp16f.l.i	aep2, a7, -4; ae_roundsp16q48asym	aep3, aeq1 }
    29bf:	4237f4        	ae_sp16f.l.i	aep3, a7, -2
    29c2:	f59721        	l32r	a2, 20 (8688 <p_ecnr_mem>)
    29c5:	372152        	l32i	a5, a1, 220
    29c8:	262132        	l32i	a3, a1, 152
    29cb:	0278           	l32i.n	a7, a2, 0
    29cd:	ac0c           	movi.n	a12, 10
    29cf:	2421f2        	l32i	a15, a1, 144
    29d2:	2fd782        	addmi	a8, a7, 0x2f00
    29d5:	2b1882        	l16ui	a8, a8, 86
    29d8:	12d792        	addmi	a9, a7, 0x1200
    29db:	1f21a2        	l32i	a10, a1, 124
    29de:	07d816        	beqz	a8, 2a5f <Voice_EC_Prcs_common+0xba7>
    29e1:	262162        	l32i	a6, a1, 152
    29e4:	f58e81        	l32r	a8, 1c (6c04 <xt_memcpy>)
    29e7:	1825a2        	l32i	a10, a5, 96
    29ea:	2226b2        	l32i	a11, a6, 136
    29ed:	0008e0        	callx8	a8
    29f0:	0288           	l32i.n	a8, a2, 0
    29f2:	2421f2        	l32i	a15, a1, 144
    29f5:	2226c2        	l32i	a12, a6, 136
    29f8:	12d882        	addmi	a8, a8, 0x1200
    29fb:	5b9fd2        	l16si	a13, a15, 182
    29fe:	0691f2        	l16si	a15, a1, 12
    2a01:	1f21a2        	l32i	a10, a1, 124
    2a04:	2521b2        	l32i	a11, a1, 148
    2a07:	f5e331        	l32r	a3, 194 (6028 <beam2_proc>)
    2a0a:	8e1c           	movi.n	a14, 24
    2a0c:	279892        	l16si	a9, a8, 78
    2a0f:	020c           	movi.n	a2, 0
    2a11:	1129           	s32i.n	a2, a1, 4
    2a13:	0199           	s32i.n	a9, a1, 0
    2a15:	0003e0        	callx8	a3
    2a18:	2fd782        	addmi	a8, a7, 0x2f00
    2a1b:	2a18a2        	l16ui	a10, a8, 84
    2a1e:	222692        	l32i	a9, a6, 136
    2a21:	fc7c           	movi.n	a12, -1
    2a23:	8aed           	ae_sext16	a14, a10
    2a25:	01cc10        	slli	a12, a12, 31
    2a28:	f5c1f1        	l32r	a15, 12c (7fff0000 <_end+0x7ffe7974>)
    2a2b:	182572        	l32i	a7, a5, 96
    2a2e:	fec982        	addi	a8, a9, -2
    2a31:	11be00        	slli	a11, a14, 16
    2a34:	309ec0        	xor	a9, a14, a12
    2a37:	c099b0        	sub	a9, a9, a11
    2a3a:	292162        	l32i	a6, a1, 164
    2a3d:	839fa0        	moveqz	a9, a15, a10
    2a40:	a30c           	movi.n	a3, 10
    2a42:	409704        	ae_lp16f.iu	aep1, a7, 0
    2a45:	308994        	ae_cvtp24a16x2.lh	aep0, a9, a9
    2a48:	108376        	loop	a3, 2a5c <Voice_EC_Prcs_common+0xba4>
    2a4b:	e820acf81f 	{ ae_lp16f.iu	aep7, a8, 2; ae_mulfp24s.hh	aeq0, aep0, aep1 }
    2a50:	010734        	ae_mulafp24s.ll	aeq0, aep0, aep7
    2a53:	1b8f14        	ae_roundsp16q48asym	aep1, aeq0
    2a56:	421804        	ae_sp16f.l.i	aep1, a8, 0
    2a59:	409714        	ae_lp16f.iu	aep1, a7, 2
    2a5c:	000706        	j	2a7c <Voice_EC_Prcs_common+0xbc4>

00002a5f <Voice_EC_Prcs_common+0xba7>:
    2a5f:	2223c2        	l32i	a12, a3, 136
    2a62:	5b9fd2        	l16si	a13, a15, 182
    2a65:	0691f2        	l16si	a15, a1, 12
    2a68:	2521b2        	l32i	a11, a1, 148
    2a6b:	f5ca31        	l32r	a3, 194 (6028 <beam2_proc>)
    2a6e:	8e1c           	movi.n	a14, 24
    2a70:	279972        	l16si	a7, a9, 78
    2a73:	020c           	movi.n	a2, 0
    2a75:	1129           	s32i.n	a2, a1, 4
    2a77:	0179           	s32i.n	a7, a1, 0
    2a79:	0003e0        	callx8	a3
    2a7c:	2a2132        	l32i	a3, a1, 168
    2a7f:	1f2172        	l32i	a7, a1, 124
    2a82:	ffa0f2        	movi	a15, 255
    2a85:	73c8           	l32i.n	a12, a3, 28
    2a87:	5d96d2        	l16si	a13, a6, 186
    2a8a:	3c21b2        	l32i	a11, a1, 240
    2a8d:	f5c131        	l32r	a3, 194 (6028 <beam2_proc>)
    2a90:	8e1c           	movi.n	a14, 24
    2a92:	07ad           	mov.n	a10, a7
    2a94:	7fdff2        	addmi	a15, a15, 0x7f00
    2a97:	091c           	movi.n	a9, 16
    2a99:	1129           	s32i.n	a2, a1, 4
    2a9b:	065d           	mov.n	a5, a6
    2a9d:	0199           	s32i.n	a9, a1, 0
    2a9f:	0003e0        	callx8	a3
    2aa2:	202162        	l32i	a6, a1, 128
    2aa5:	3b2132        	l32i	a3, a1, 236
    2aa8:	ffa0f2        	movi	a15, 255
    2aab:	081c           	movi.n	a8, 16
    2aad:	2a26c2        	l32i	a12, a6, 168
    2ab0:	5e95d2        	l16si	a13, a5, 188
    2ab3:	1129           	s32i.n	a2, a1, 4
    2ab5:	0189           	s32i.n	a8, a1, 0
    2ab7:	072d           	mov.n	a2, a7
    2ab9:	07ad           	mov.n	a10, a7
    2abb:	7fdf72        	addmi	a7, a15, 0x7f00
    2abe:	f5b581        	l32r	a8, 194 (6028 <beam2_proc>)
    2ac1:	9e1c           	movi.n	a14, 25
    2ac3:	03bd           	mov.n	a11, a3
    2ac5:	07fd           	mov.n	a15, a7
    2ac7:	0008e0        	callx8	a8
    2aca:	03bd           	mov.n	a11, a3
    2acc:	2a26c2        	l32i	a12, a6, 168
    2acf:	5e95d2        	l16si	a13, a5, 188
    2ad2:	f5b031        	l32r	a3, 194 (6028 <beam2_proc>)
    2ad5:	a80c           	movi.n	a8, 10
    2ad7:	9e1c           	movi.n	a14, 25
    2ad9:	02ad           	mov.n	a10, a2
    2adb:	07fd           	mov.n	a15, a7
    2add:	091c           	movi.n	a9, 16
    2adf:	1189           	s32i.n	a8, a1, 4
    2ae1:	0199           	s32i.n	a9, a1, 0
    2ae3:	0003e0        	callx8	a3
    2ae6:	f5ac31        	l32r	a3, 198 (6300 <beam1_mid_band>)
    2ae9:	02ad           	mov.n	a10, a2
    2aeb:	0003e0        	callx8	a3
    2aee:	392132        	l32i	a3, a1, 228
    2af1:	4921e2        	l32i	a14, a1, 0x124
    2af4:	af0c           	movi.n	a15, 10
    2af6:	0c2372        	l32i	a7, a3, 48
    2af9:	771e82        	l16ui	a8, a14, 238
    2afc:	300884        	ae_cvtp24a16x2.ll	aep0, a8, a8
    2aff:	fcc772        	addi	a7, a7, -4
    2b02:	449714        	ae_lp16x2f.iu	aep1, a7, 4
    2b05:	178f76        	loop	a15, 2b20 <Voice_EC_Prcs_common+0xc68>
    2b08:	011054        	ae_mulfp24s.hl	aeq0, aep1, aep0
    2b0b:	ea05ed971f 	{ ae_lp16x2f.iu	aep1, a7, 4; ae_mulfp24s.ll	aeq1, aep1, aep0 }
    2b10:	350094        	ae_slliq56	aeq0, aeq0, 2
    2b13:	f963ba906f 	{ ae_slliq56	aeq1, aeq1, 2; ae_roundsp16q48asym	aep2, aeq0 }
    2b18:	f96bf227ef 	{ ae_sp16f.l.i	aep2, a7, -4; ae_roundsp16q48asym	aep3, aeq1 }
    2b1d:	4237f4        	ae_sp16f.l.i	aep3, a7, -2

00002b20 <Voice_EC_Prcs_common+0xc68>:
    2b20:	02ad           	mov.n	a10, a2
    2b22:	f59e21        	l32r	a2, 19c (6448 <beam2_mid_band>)
    2b25:	0002e0        	callx8	a2
    2b28:	f53e21        	l32r	a2, 20 (8688 <p_ecnr_mem>)
    2b2b:	262152        	l32i	a5, a1, 152
    2b2e:	2a2162        	l32i	a6, a1, 168
    2b31:	0278           	l32i.n	a7, a2, 0
    2b33:	392122        	l32i	a2, a1, 228
    2b36:	61a132        	movi	a3, 0x161
    2b39:	12d782        	addmi	a8, a7, 0x1200
    2b3c:	1133b0        	slli	a3, a3, 5
    2b3f:	d73a           	add.n	a13, a7, a3
    2b41:	2225a2        	l32i	a10, a5, 136
    2b44:	56b8           	l32i.n	a11, a6, 20
    2b46:	b2c8           	l32i.n	a12, a2, 44
    2b48:	1e28e2        	l32i	a14, a8, 120
    2b4b:	f59531        	l32r	a3, 1a0 (1ad4 <synth_3band>)
    2b4e:	0003e0        	callx8	a3
    2b51:	f53331        	l32r	a3, 20 (8688 <p_ecnr_mem>)
    2b54:	2021e2        	l32i	a14, a1, 128
    2b57:	23a1f2        	movi	a15, 0x123
    2b5a:	0378           	l32i.n	a7, a3, 0
    2b5c:	113fb0        	slli	a3, a15, 5
    2b5f:	282eb2        	l32i	a11, a14, 160
    2b62:	12d782        	addmi	a8, a7, 0x1200
    2b65:	d73a           	add.n	a13, a7, a3
    2b67:	1e28a2        	l32i	a10, a8, 120
    2b6a:	1d21c2        	l32i	a12, a1, 116
    2b6d:	3021e2        	l32i	a14, a1, 192
    2b70:	f58d31        	l32r	a3, 1a4 (18f0 <tx_upsample_by2>)
    2b73:	0003e0        	callx8	a3
    2b76:	2425a2        	l32i	a10, a5, 144
    2b79:	f52951        	l32r	a5, 20 (8688 <p_ecnr_mem>)
    2b7c:	9ca0f2        	movi	a15, 156
    2b7f:	d2c8           	l32i.n	a12, a2, 52
    2b81:	0578           	l32i.n	a7, a5, 0
    2b83:	2cdf22        	addmi	a2, a15, 0x2c00
    2b86:	76b8           	l32i.n	a11, a6, 28
    2b88:	12d782        	addmi	a8, a7, 0x1200
    2b8b:	d72a           	add.n	a13, a7, a2
    2b8d:	1d28e2        	l32i	a14, a8, 116
    2b90:	f58421        	l32r	a2, 1a0 (1ad4 <synth_3band>)
    2b93:	0002e0        	callx8	a2
    2b96:	0578           	l32i.n	a7, a5, 0
    2b98:	202122        	l32i	a2, a1, 128
    2b9b:	2f2152        	l32i	a5, a1, 188
    2b9e:	12d782        	addmi	a8, a7, 0x1200
    2ba1:	9f4c           	movi.n	a15, 73
    2ba3:	2a22b2        	l32i	a11, a2, 168
    2ba6:	112f90        	slli	a2, a15, 7
    2ba9:	1d28a2        	l32i	a10, a8, 116
    2bac:	3821e2        	l32i	a14, a1, 224
    2baf:	d72a           	add.n	a13, a7, a2
    2bb1:	05cd           	mov.n	a12, a5
    2bb3:	0003e0        	callx8	a3

00002bb6 <Voice_EC_Prcs_common+0xcfe>:
    2bb6:	212122        	l32i	a2, a1, 132
    2bb9:	50c552        	addi	a5, a5, 80
    2bbc:	2f6152        	s32i	a5, a1, 188
    2bbf:	f51861        	l32r	a6, 20 (8688 <p_ecnr_mem>)
    2bc2:	1d2152        	l32i	a5, a1, 116
    2bc5:	50c222        	addi	a2, a2, 80
    2bc8:	216122        	s32i	a2, a1, 132
    2bcb:	0678           	l32i.n	a7, a6, 0
    2bcd:	124c           	movi.n	a2, 65
    2bcf:	05a132        	movi	a3, 0x105
    2bd2:	1122a0        	slli	a2, a2, 6
    2bd5:	1133c0        	slli	a3, a3, 4
    2bd8:	c72a           	add.n	a12, a7, a2
    2bda:	f57321        	l32r	a2, 1a8 (19ec <deemph_filter_N>)
    2bdd:	b73a           	add.n	a11, a7, a3
    2bdf:	8d2c           	movi.n	a13, 40
    2be1:	05ad           	mov.n	a10, a5
    2be3:	0002e0        	callx8	a2
    2be6:	1c2122        	l32i	a2, a1, 112
    2be9:	0678           	l32i.n	a7, a6, 0
    2beb:	6821c2        	l32i	a12, a1, 0x1a0
    2bee:	8c2216        	beqz	a2, 24b4 <Voice_EC_Prcs_common+0x5fc>
    2bf1:	f55d21        	l32r	a2, 168 (19a4 <emph_filter_N>)
    2bf4:	b73a           	add.n	a11, a7, a3
    2bf6:	322132        	l32i	a3, a1, 200
    2bf9:	8d2c           	movi.n	a13, 40
    2bfb:	03ad           	mov.n	a10, a3
    2bfd:	0002e0        	callx8	a2
    2c00:	1b2122        	l32i	a2, a1, 108
    2c03:	03cd           	mov.n	a12, a3
    2c05:	3d21d2        	l32i	a13, a1, 244
    2c08:	9f22a2        	l32i	a10, a2, 0x27c
    2c0b:	a022b2        	l32i	a11, a2, 0x280
    2c0e:	6121e2        	l32i	a14, a1, 0x184
    2c11:	f55631        	l32r	a3, 16c (1838 <tx_downsample_by2>)
    2c14:	0003e0        	callx8	a3
    2c17:	0678           	l32i.n	a7, a6, 0
    2c19:	9f22a2        	l32i	a10, a2, 0x27c
    2c1c:	5922d2        	l32i	a13, a2, 0x164
    2c1f:	12d772        	addmi	a7, a7, 0x1200
    2c22:	4922e2        	l32i	a14, a2, 0x124
    2c25:	1627c2        	l32i	a12, a7, 88
    2c28:	6721b2        	l32i	a11, a1, 0x19c
    2c2b:	f55131        	l32r	a3, 170 (1a30 <analy_3band>)
    2c2e:	0003e0        	callx8	a3
    2c31:	0678           	l32i.n	a7, a6, 0
    2c33:	392282        	l32i	a8, a2, 228
    2c36:	05a032        	movi	a3, 5
    2c39:	12d772        	addmi	a7, a7, 0x1200
    2c3c:	162792        	l32i	a9, a7, 88
    2c3f:	fcc872        	addi	a7, a8, -4
    2c42:	f8c982        	addi	a8, a9, -8
    2c45:	088376        	loop	a3, 2c51 <Voice_EC_Prcs_common+0xd99>
    2c48:	5c8814        	ae_lp24x2f.iu	aep0, a8, 8
    2c4b:	090184        	ae_roundsp16asym	aep0, aep0
    2c4e:	468714        	ae_sp16x2f.iu	aep0, a7, 4

00002c51 <Voice_EC_Prcs_common+0xd99>:
    2c51:	232162        	l32i	a6, a1, 140
    2c54:	312122        	l32i	a2, a1, 196
    2c57:	6421b2        	l32i	a11, a1, 0x190
    2c5a:	f54651        	l32r	a5, 174 (d84 <subband_aec_block>)
    2c5d:	ac0c           	movi.n	a12, 10
    2c5f:	1e0c           	movi.n	a14, 1
    2c61:	06ad           	mov.n	a10, a6
    2c63:	02dd           	mov.n	a13, a2
    2c65:	0005e0        	callx8	a5
    2c68:	6621b2        	l32i	a11, a1, 0x198
    2c6b:	ac0c           	movi.n	a12, 10
    2c6d:	3e0c           	movi.n	a14, 3
    2c6f:	06ad           	mov.n	a10, a6
    2c71:	02dd           	mov.n	a13, a2
    2c73:	0005e0        	callx8	a5
    2c76:	602132        	l32i	a3, a1, 0x180
    2c79:	5621b2        	l32i	a11, a1, 0x158
    2c7c:	4c1c           	movi.n	a12, 20
    2c7e:	4e0372        	l8ui	a7, a3, 78
    2c81:	4e0c           	movi.n	a14, 4
    2c83:	06ad           	mov.n	a10, a6
    2c85:	678c           	beqz.n	a7, 2c8f <Voice_EC_Prcs_common+0xdd7>
    2c87:	02dd           	mov.n	a13, a2
    2c89:	0005e0        	callx8	a5
    2c8c:	000486        	j	2ca2 <Voice_EC_Prcs_common+0xdea>

00002c8f <Voice_EC_Prcs_common+0xdd7>:
    2c8f:	1b2132        	l32i	a3, a1, 108
    2c92:	f50d61        	l32r	a6, c8 (6bf0 <xt_memset>)
    2c95:	0b0c           	movi.n	a11, 0
    2c97:	6b23a2        	l32i	a10, a3, 0x1ac
    2c9a:	4c1c           	movi.n	a12, 20
    2c9c:	0006e0        	callx8	a6
    2c9f:	232162        	l32i	a6, a1, 140
    2ca2:	f53531        	l32r	a3, 178 (1060 <subband_aec_mid_channel>)
    2ca5:	6521b2        	l32i	a11, a1, 0x194
    2ca8:	2d0c           	movi.n	a13, 2
    2caa:	06ad           	mov.n	a10, a6
    2cac:	02cd           	mov.n	a12, a2
    2cae:	0003e0        	callx8	a3
    2cb1:	692152        	l32i	a5, a1, 0x1a4
    2cb4:	432132        	l32i	a3, a1, 0x10c
    2cb7:	1b2122        	l32i	a2, a1, 108
    2cba:	15cc           	bnez.n	a5, 2cbf <Voice_EC_Prcs_common+0xe07>
    2cbc:	fdd346        	j	240d <Voice_EC_Prcs_common+0x555>
    2cbf:	2d2152        	l32i	a5, a1, 180
    2cc2:	f4d661        	l32r	a6, 1c (6c04 <xt_memcpy>)
    2cc5:	ac0c           	movi.n	a12, 10
    2cc7:	b5a8           	l32i.n	a10, a5, 44
    2cc9:	d5b8           	l32i.n	a11, a5, 52
    2ccb:	0006e0        	callx8	a6
    2cce:	fd24b2e1ce 	{ l32i	a12, a1, 184; ae_zeroq56	aeq1 }
    2cd3:	2c2162        	l32i	a6, a1, 176
    2cd6:	0c2582        	l32i	a8, a5, 48
    2cd9:	142c92        	l32i	a9, a12, 80
    2cdc:	2b21e2        	l32i	a14, a1, 172
    2cdf:	0a2672        	l32i	a7, a6, 40
    2ce2:	5421b2        	l32i	a11, a1, 0x150
    2ce5:	5121d2        	l32i	a13, a1, 0x144
    2ce8:	05a0f2        	movi	a15, 5
    2ceb:	f3f6b0        	wur.ae_cbegin0	a11
    2cee:	f3f7d0        	wur.ae_cend0	a13
    2cf1:	600e64        	ae_lq32f.i	aeq0, a14, 24
    2cf4:	440804        	ae_lp16x2f.i	aep0, a8, 0
    2cf7:	fcc992        	addi	a9, a9, -4
    2cfa:	04a052        	movi	a5, 4
    2cfd:	198f76        	loop	a15, 2d1a <Voice_EC_Prcs_common+0xe62>
    2d00:	09001aa75f 	{ ae_lp16x2f.c	aep2, a7, a5; ae_mulzaafq32sp16s.hh	aeq2, aeq0, aep0, aeq0, aep0 }
    2d05:	11006d881f 	{ ae_lp16x2f.iu	aep0, a8, 4; ae_mulzaafq32sp16s.ll	aeq3, aeq0, aep0, aeq0, aep0 }
    2d0a:	1baf74        	ae_roundsp16q48asym	aep7, aeq2
    2d0d:	1bbf14        	ae_roundsp16q48asym	aep1, aeq3
    2d10:	f04a7e715f 	{ ae_selp24.hl	aep1, aep7, aep1; ae_mulssfp24s.hh.ll	aeq1, aep2, aep2 }
    2d15:	e22473991f 	{ ae_sp16x2f.iu	aep1, a9, 4; ae_mulaafp24s.hh.ll	aeq1, aep1, aep1 }

00002d1a <Voice_EC_Prcs_common+0xe62>:
    2d1a:	522162        	l32i	a6, a1, 0x148
    2d1d:	90a252        	movi	a5, 0x290
    2d20:	351234        	ae_sraiq56	aeq0, aeq1, 8
    2d23:	61a254        	ae_lq56.x	aeq2, a2, a5
    2d26:	f87230967e 	{ l32i	a7, a6, 36; ae_addq56	aeq0, aeq2, aeq0 }
    2d2b:	fc00fec7ff 	{ ae_cvtq48a32s	aeq3, a7; ae_satq48s	aeq0, aeq0 }
    2d30:	f87b35316e 	{ l32i	a6, a1, 0x14c; ae_maxq56s	aeq0, aeq0, aeq3 }
    2d35:	638254        	ae_sq56s.x	aeq0, a2, a5
    2d38:	552152        	l32i	a5, a1, 0x154
    2d3b:	0e4c           	movi.n	a14, 64
    2d3d:	482182        	l32i	a8, a1, 0x120
    2d40:	b5ac           	beqz.n	a5, 2d6f <Voice_EC_Prcs_common+0xeb7>
    2d42:	ffa092        	movi	a9, 255
    2d45:	119872        	l16si	a7, a8, 34
    2d48:	da4c           	movi.n	a10, 77
    2d4a:	11aa00        	slli	a10, a10, 16
    2d4d:	0b2797        	blt	a7, a9, 2d5c <Voice_EC_Prcs_common+0xea4>
    2d50:	452172        	l32i	a7, a1, 0x114
    2d53:	109772        	l16si	a7, a7, 32
    2d56:	11a700        	slli	a10, a7, 16
    2d59:	000106        	j	2d61 <Voice_EC_Prcs_common+0xea9>

00002d5c <Voice_EC_Prcs_common+0xea4>:
    2d5c:	771b           	addi.n	a7, a7, 1
    2d5e:	115872        	s16i	a7, a8, 34
    2d61:	368b04        	ae_trunca32q48	a11, aeq0
    2d64:	f4e471        	l32r	a7, f4 (4630 <airoha_divide>)
    2d67:	0007e0        	callx8	a7
    2d6a:	2e21c2        	l32i	a12, a1, 184
    2d6d:	0e4c           	movi.n	a14, 64
    2d6f:	2d2182        	l32i	a8, a1, 180
    2d72:	2c2172        	l32i	a7, a1, 176
    2d75:	142c92        	l32i	a9, a12, 80
    2d78:	d8d8           	l32i.n	a13, a8, 52
    2d7a:	b8f8           	l32i.n	a15, a8, 44
    2d7c:	a778           	l32i.n	a7, a7, 40
    2d7e:	360b34        	ae_cvtq48a32s	aeq0, a11
    2d81:	a80c           	movi.n	a8, 10
    2d83:	fec992        	addi	a9, a9, -2
    2d86:	fecfb2        	addi	a11, a15, -2
    2d89:	fecdc2        	addi	a12, a13, -2
    2d8c:	408914        	ae_lp16f.iu	aep0, a9, 2
    2d8f:	fc24e2874f 	{ ae_sp16f.l.c	aep0, a7, a4; nop }
    2d94:	408b14        	ae_lp16f.iu	aep0, a11, 2
    2d97:	fd0c13d66f 	{ or	a13, a6, a6; ae_cvtq48p24s.l	aeq1, aep0 }
    2d9c:	508d14        	ae_lp24f.iu	aep0, a13, 4
    2d9f:	098e76        	loop	a14, 2dac <Voice_EC_Prcs_common+0xef4>
    2da2:	fc24d9174f 	{ ae_lp16f.c	aep1, a7, a4; nop }
    2da7:	ee21ee8d1f 	{ ae_lp24f.iu	aep0, a13, 4; ae_mulsfp24s.ll	aeq1, aep0, aep1 }

00002dac <Voice_EC_Prcs_common+0xef4>:
    2dac:	f86b93d66f 	{ or	a13, a6, a6; ae_roundsp16q48asym	aep0, aeq1 }
    2db1:	d4e2728c1f 	{ ae_sp16f.l.iu	aep0, a12, 2; ae_mulfq32sp16s.l	aeq1, aeq0, aep0 }
    2db6:	e59c           	beqz.n	a5, 2dd8 <Voice_EC_Prcs_common+0xf20>
    2db8:	fc24fe9a4f 	{ ae_slaasq56s	aeq1, aeq1, a10; nop }
    2dbd:	f86fae9d1f 	{ ae_lp24f.iu	aep1, a13, 4; ae_roundsp24q48asym	aep0, aeq1 }
    2dc2:	0020f0        	nop
    2dc5:	0f8e76        	loop	a14, 2dd8 <Voice_EC_Prcs_common+0xf20>
    2dc8:	fd2c19774f 	{ ae_lp16f.c	aep7, a7, a4; ae_cvtq48p24s.l	aeq1, aep1 }
    2dcd:	e2e3ee9d1f 	{ ae_lp24f.iu	aep1, a13, 4; ae_mulafp24s.ll	aeq1, aep0, aep7 }
    2dd2:	1b9d24        	ae_roundsp24q48asym	aep2, aeq1
    2dd5:	522df4        	ae_sp24f.l.i	aep2, a13, -4

00002dd8 <Voice_EC_Prcs_common+0xf20>:
    2dd8:	880b           	addi.n	a8, a8, -1
    2dda:	fae856        	bnez	a8, 2d8c <Voice_EC_Prcs_common+0xed4>
    2ddd:	fc24b2d16e 	{ l32i	a6, a1, 180; ae_zeroq56	aeq0 }
    2de2:	fd0472c1ee 	{ l32i	a14, a1, 176; ae_movq56	aeq1, aeq0 }
    2de7:	5f0c           	movi.n	a15, 5
    2de9:	d6a8           	l32i.n	a10, a6, 52
    2deb:	b6b8           	l32i.n	a11, a6, 44
    2ded:	ae79           	s32i.n	a7, a14, 40
    2def:	fcca82        	addi	a8, a10, -4
    2df2:	fccb72        	addi	a7, a11, -4
    2df5:	0a8f76        	loop	a15, 2e03 <Voice_EC_Prcs_common+0xf4b>
    2df8:	448714        	ae_lp16x2f.iu	aep0, a7, 4
    2dfb:	e2002d981f 	{ ae_lp16x2f.iu	aep1, a8, 4; ae_mulaafp24s.hh.ll	aeq0, aep0, aep0 }
    2e00:	051904        	ae_mulaafp24s.hh.ll	aeq1, aep1, aep1

00002e03 <Voice_EC_Prcs_common+0xf4b>:
    2e03:	359134        	ae_sraiq56	aeq2, aeq1, 4
    2e06:	f9aac0007f 	{ movi	a7, 0; ae_subq56	aeq1, aeq1, aeq2 }
    2e0b:	d64800016f 	{ movi	a6, 1; ae_ltq56s	b0, aeq0, aeq1 }
    2e10:	ac0c           	movi.n	a12, 10
    2e12:	d37600        	movt	a7, a6, b0
    2e15:	478c           	beqz.n	a7, 2e1d <Voice_EC_Prcs_common+0xf65>
    2e17:	f48161        	l32r	a6, 1c (6c04 <xt_memcpy>)
    2e1a:	0006e0        	callx8	a6

00002e1d <Voice_EC_Prcs_common+0xf65>:
    2e1d:	fc24b5017e 	{ l32i	a7, a1, 0x140; ae_zeroq56	aeq0 }
    2e22:	98a262        	movi	a6, 0x298
    2e25:	0f2c           	movi.n	a15, 32
    2e27:	5d0264        	ae_lp24x2f.x	aep0, a2, a6
    2e2a:	0020f0        	nop
    2e2d:	048f76        	loop	a15, 2e35 <Voice_EC_Prcs_common+0xf7d>
    2e30:	e2002f871f 	{ ae_lp24x2f.iu	aep0, a7, 8; ae_mulaafp24s.hh.ll	aeq0, aep0, aep0 }

00002e35 <Voice_EC_Prcs_common+0xf7d>:
    2e35:	2b2162        	l32i	a6, a1, 172
    2e38:	3500b4        	ae_sraiq56	aeq0, aeq0, 2
    2e3b:	064934        	ae_roundsq32asym	aeq1, aeq0
    2e3e:	7678           	l32i.n	a7, a6, 28
    2e40:	360734        	ae_cvtq48a32s	aeq0, a7
    2e43:	15cc           	bnez.n	a5, 2e48 <Voice_EC_Prcs_common+0xf90>
    2e45:	fd68c6        	j	23ec <Voice_EC_Prcs_common+0x534>
    2e48:	369704        	ae_trunca32q48	a7, aeq1
    2e4b:	f4d851        	l32r	a5, 1ac (6ffff <_end+0x67973>)
    2e4e:	760c           	movi.n	a6, 7
    2e50:	118600        	slli	a8, a6, 16
    2e53:	02a577        	bge	a5, a7, 2e59 <Voice_EC_Prcs_common+0xfa1>
    2e56:	fd60c6        	j	23dd <Voice_EC_Prcs_common+0x525>
    2e59:	540134        	ae_lp24x2.i	aep0, a1, 24
    2e5c:	030214        	ae_mulfq32sp16s.l	aeq0, aeq0, aep0
    2e5f:	fd60c6        	j	23e6 <Voice_EC_Prcs_common+0x52e>

00002e62 <Voice_EC_Prcs_common+0xfaa>:
    2e62:	102142        	l32i	a4, a1, 64
    2e65:	130c           	movi.n	a3, 1
    2e67:	113320        	slli	a3, a3, 14
    2e6a:	222347        	blt	a3, a4, 2e90 <Voice_EC_Prcs_common+0xfd8>
    2e6d:	f46c21        	l32r	a2, 20 (8688 <p_ecnr_mem>)
    2e70:	24a542        	movi	a4, 0x524
    2e73:	f04440        	subx8	a4, a4, a4
    2e76:	0258           	l32i.n	a5, a2, 0
    2e78:	860c           	movi.n	a6, 8
    2e7a:	454a           	add.n	a4, a5, a4
    2e7c:	24d552        	addmi	a5, a5, 0x2400
    2e7f:	600504        	ae_lq32f.i	aeq0, a5, 0
    2e82:	0a8676        	loop	a6, 2e90 <Voice_EC_Prcs_common+0xfd8>
    2e85:	350074        	ae_sraiq56	aeq0, aeq0, 1
    2e88:	f867bd151f 	{ ae_lq32f.iu	aeq0, a5, 4; ae_roundsp24q48asym	aep0, aeq0 }
    2e8d:	528414        	ae_sp24f.l.iu	aep0, a4, 4

00002e90 <Voice_EC_Prcs_common+0xfd8>:
    2e90:	132142        	l32i	a4, a1, 76
    2e93:	21a182        	movi	a8, 0x121
    2e96:	23a172        	movi	a7, 0x123
    2e99:	1188b0        	slli	a8, a8, 5
    2e9c:	1177b0        	slli	a7, a7, 5
    2e9f:	202347        	blt	a3, a4, 2ec3 <Voice_EC_Prcs_common+0x100b>
    2ea2:	f45f21        	l32r	a2, 20 (8688 <p_ecnr_mem>)
    2ea5:	c45c           	movi.n	a4, 92
    2ea7:	24d442        	addmi	a4, a4, 0x2400
    2eaa:	0258           	l32i.n	a5, a2, 0
    2eac:	08a062        	movi	a6, 8
    2eaf:	804540        	add	a4, a5, a4
    2eb2:	603754        	ae_lq32f.xu	aeq0, a7, a5
    2eb5:	0a8676        	loop	a6, 2ec3 <Voice_EC_Prcs_common+0x100b>
    2eb8:	350074        	ae_sraiq56	aeq0, aeq0, 1
    2ebb:	f867bd171f 	{ ae_lq32f.iu	aeq0, a7, 4; ae_roundsp24q48asym	aep0, aeq0 }
    2ec0:	528414        	ae_sp24f.l.iu	aep0, a4, 4
    2ec3:	122142        	l32i	a4, a1, 72
    2ec6:	f45621        	l32r	a2, 20 (8688 <p_ecnr_mem>)
    2ec9:	1a2172        	l32i	a7, a1, 104
    2ecc:	232347        	blt	a3, a4, 2ef3 <Voice_EC_Prcs_common+0x103b>
    2ecf:	f45421        	l32r	a2, 20 (8688 <p_ecnr_mem>)
    2ed2:	c41c           	movi.n	a4, 28
    2ed4:	24d442        	addmi	a4, a4, 0x2400
    2ed7:	0258           	l32i.n	a5, a2, 0
    2ed9:	f45121        	l32r	a2, 20 (8688 <p_ecnr_mem>)
    2edc:	08a062        	movi	a6, 8
    2edf:	804540        	add	a4, a5, a4
    2ee2:	603854        	ae_lq32f.xu	aeq0, a8, a5
    2ee5:	0a8676        	loop	a6, 2ef3 <Voice_EC_Prcs_common+0x103b>
    2ee8:	350074        	ae_sraiq56	aeq0, aeq0, 1
    2eeb:	f867bd181f 	{ ae_lq32f.iu	aeq0, a8, 4; ae_roundsp24q48asym	aep0, aeq0 }
    2ef0:	528414        	ae_sp24f.l.iu	aep0, a4, 4
    2ef3:	412142        	l32i	a4, a1, 0x104
    2ef6:	112152        	l32i	a5, a1, 68
    2ef9:	91a062        	movi	a6, 145
    2efc:	067416        	beqz	a4, 2f67 <Voice_EC_Prcs_common+0x10af>
    2eff:	1176a0        	slli	a7, a6, 6
    2f02:	1e2357        	blt	a3, a5, 2f24 <Voice_EC_Prcs_common+0x106c>
    2f05:	f44621        	l32r	a2, 20 (8688 <p_ecnr_mem>)
    2f08:	c43c           	movi.n	a4, 60
    2f0a:	24d442        	addmi	a4, a4, 0x2400
    2f0d:	0258           	l32i.n	a5, a2, 0
    2f0f:	860c           	movi.n	a6, 8
    2f11:	454a           	add.n	a4, a5, a4
    2f13:	603754        	ae_lq32f.xu	aeq0, a7, a5
    2f16:	0a8676        	loop	a6, 2f24 <Voice_EC_Prcs_common+0x106c>
    2f19:	350074        	ae_sraiq56	aeq0, aeq0, 1
    2f1c:	f867bd171f 	{ ae_lq32f.iu	aeq0, a7, 4; ae_roundsp24q48asym	aep0, aeq0 }
    2f21:	528414        	ae_sp24f.l.iu	aep0, a4, 4
    2f24:	142142        	l32i	a4, a1, 80
    2f27:	974c           	movi.n	a7, 73
    2f29:	117790        	slli	a7, a7, 7
    2f2c:	1f2347        	blt	a3, a4, 2f4f <Voice_EC_Prcs_common+0x1097>
    2f2f:	f43c21        	l32r	a2, 20 (8688 <p_ecnr_mem>)
    2f32:	4ca742        	movi	a4, 0x74c
    2f35:	a04440        	addx4	a4, a4, a4
    2f38:	0258           	l32i.n	a5, a2, 0
    2f3a:	860c           	movi.n	a6, 8
    2f3c:	454a           	add.n	a4, a5, a4
    2f3e:	603754        	ae_lq32f.xu	aeq0, a7, a5
    2f41:	0a8676        	loop	a6, 2f4f <Voice_EC_Prcs_common+0x1097>
    2f44:	350074        	ae_sraiq56	aeq0, aeq0, 1
    2f47:	f867bd171f 	{ ae_lq32f.iu	aeq0, a7, 4; ae_roundsp24q48asym	aep0, aeq0 }
    2f4c:	528414        	ae_sp24f.l.iu	aep0, a4, 4
    2f4f:	f49841        	l32r	a4, 1b0 (5d70 <mag_calibration>)
    2f52:	1f21a2        	l32i	a10, a1, 124
    2f55:	0004e0        	callx8	a4
    2f58:	1a2172        	l32i	a7, a1, 104
    2f5b:	f43121        	l32r	a2, 20 (8688 <p_ecnr_mem>)
    2f5e:	050c           	movi.n	a5, 0
    2f60:	25d742        	addmi	a4, a7, 0x2500
    2f63:	d459           	s32i.n	a5, a4, 52
    2f65:	e459           	s32i.n	a5, a4, 56

00002f67 <Voice_EC_Prcs_common+0x10af>:
    2f67:	02a8           	l32i.n	a10, a2, 0
    2f69:	05a162        	movi	a6, 0x105
    2f6c:	1166c0        	slli	a6, a6, 4
    2f6f:	12da42        	addmi	a4, a10, 0x1200
    2f72:	550442        	l8ui	a4, a4, 85
    2f75:	282152        	l32i	a5, a1, 160
    2f78:	216407        	bbci	a4, 0, 2f9d <Voice_EC_Prcs_common+0x10e5>
    2f7b:	f48e41        	l32r	a4, 1b4 (3a48 <NC_NOISE_EST_Prcs>)
    2f7e:	05bd           	mov.n	a11, a5
    2f80:	0004e0        	callx8	a4
    2f83:	0248           	l32i.n	a4, a2, 0
    2f85:	09a2f2        	movi	a15, 0x209
    2f88:	f0a0d2        	movi	a13, 240
    2f8b:	b46a           	add.n	a11, a4, a6
    2f8d:	116fd0        	slli	a6, a15, 3
    2f90:	c46a           	add.n	a12, a4, a6
    2f92:	f48541        	l32r	a4, 1a8 (19ec <deemph_filter_N>)
    2f95:	05ad           	mov.n	a10, a5
    2f97:	0004e0        	callx8	a4
    2f9a:	1a2172        	l32i	a7, a1, 104
    2f9d:	92a452        	movi	a5, 0x492
    2fa0:	51a142        	movi	a4, 0x151
    2fa3:	b05550        	addx8	a5, a5, a5
    2fa6:	1144b0        	slli	a4, a4, 5
    2fa9:	602744        	ae_lq32f.x	aeq0, a7, a4
    2fac:	418574        	ae_lp16f.xu	aep0, a5, a7
    2faf:	d4e234416e 	{ l32i	a6, a1, 0x110; ae_mulfq32sp16s.l	aeq0, aeq0, aep0 }
    2fb4:	20c1f2        	addi	a15, a1, 32
    2fb7:	620f04        	ae_sq32f.i	aeq0, a15, 0
    2fba:	182662        	l32i	a6, a6, 96
    2fbd:	8148           	l32i.n	a4, a1, 32
    2fbf:	2321a2        	l32i	a10, a1, 140
    2fc2:	53b640        	max	a11, a6, a4
    2fc5:	f47c41        	l32r	a4, 1b8 (1318 <dt_detect>)
    2fc8:	0004e0        	callx8	a4
    2fcb:	1a2192        	l32i	a9, a1, 104
    2fce:	0248           	l32i.n	a4, a2, 0
    2fd0:	422c           	movi.n	a2, 36
    2fd2:	29d962        	addmi	a6, a9, 0x2900
    2fd5:	12d472        	addmi	a7, a4, 0x1200
    2fd8:	366d           	ae_l16si.n	a6, a6, 2
    2fda:	279772        	l16si	a7, a7, 78
    2fdd:	2ad222        	addmi	a2, a2, 0x2a00
    2fe0:	64a0e2        	movi	a14, 100
    2fe3:	08a677        	bge	a6, a7, 2fef <Voice_EC_Prcs_common+0x1137>
    2fe6:	f45121        	l32r	a2, 12c (7fff0000 <_end+0x7ffe7974>)
    2fe9:	360234        	ae_cvtq48a32s	aeq0, a2
    2fec:	000586        	j	3006 <Voice_EC_Prcs_common+0x114e>

00002fef <Voice_EC_Prcs_common+0x1137>:
    2fef:	400504        	ae_lp16f.i	aep0, a5, 0
    2ff2:	602924        	ae_lq32f.x	aeq0, a9, a2
    2ff5:	d4e20000ff 	{ movi	a15, 0; ae_mulfq32sp16s.l	aeq0, aeq0, aep0 }
    2ffa:	29de22        	addmi	a2, a14, 0x2900
    2ffd:	606924        	ae_lq32f.x	aeq1, a9, a2
    3000:	0110c4        	ae_maxq56s	aeq0, aeq0, aeq1
    3003:	3561f2        	s32i	a15, a1, 212
    3006:	f863b1c12e 	{ l32i	a2, a1, 112; ae_roundsp16q48asym	aep0, aeq0 }
    300b:	c52c           	movi.n	a5, 44
    300d:	1b21a2        	l32i	a10, a1, 108
    3010:	29d552        	addmi	a5, a5, 0x2900
    3013:	430954        	ae_sp16f.l.x	aep0, a9, a5
    3016:	0d9216        	beqz	a2, 30f3 <Voice_EC_Prcs_common+0x123b>
    3019:	152152        	l32i	a5, a1, 84
    301c:	3d2122        	l32i	a2, a1, 244
    301f:	30ca72        	addi	a7, a10, 48
    3022:	152357        	blt	a3, a5, 303b <Voice_EC_Prcs_common+0x1183>
    3025:	860c           	movi.n	a6, 8
    3027:	600704        	ae_lq32f.i	aeq0, a7, 0
    302a:	2cca52        	addi	a5, a10, 44
    302d:	0a8676        	loop	a6, 303b <Voice_EC_Prcs_common+0x1183>
    3030:	350074        	ae_sraiq56	aeq0, aeq0, 1
    3033:	f867bd121f 	{ ae_lq32f.iu	aeq0, a2, 4; ae_roundsp24q48asym	aep0, aeq0 }
    3038:	528514        	ae_sp24f.l.iu	aep0, a5, 4

0000303b <Voice_EC_Prcs_common+0x1183>:
    303b:	162152        	l32i	a5, a1, 88
    303e:	3e2122        	l32i	a2, a1, 248
    3041:	08a062        	movi	a6, 8
    3044:	132357        	blt	a3, a5, 305b <Voice_EC_Prcs_common+0x11a3>
    3047:	4cca32        	addi	a3, a10, 76
    304a:	600204        	ae_lq32f.i	aeq0, a2, 0
    304d:	0a8676        	loop	a6, 305b <Voice_EC_Prcs_common+0x11a3>
    3050:	350074        	ae_sraiq56	aeq0, aeq0, 1
    3053:	f867bd121f 	{ ae_lq32f.iu	aeq0, a2, 4; ae_roundsp24q48asym	aep0, aeq0 }
    3058:	528314        	ae_sp24f.l.iu	aep0, a3, 4
    305b:	12d432        	addmi	a3, a4, 0x1200
    305e:	322a52        	l32i	a5, a10, 200
    3061:	2b1342        	l16ui	a4, a3, 86
    3064:	330c           	movi.n	a3, 3
    3066:	05bd           	mov.n	a11, a5
    3068:	3f0347        	bnone	a3, a4, 30ab <Voice_EC_Prcs_common+0x11f3>
    306b:	522ab2        	l32i	a11, a10, 0x148
    306e:	144040        	extui	a4, a4, 0, 2
    3071:	332426        	beqi	a4, 2, 30a8 <Voice_EC_Prcs_common+0x11f0>
    3074:	331426        	beqi	a4, 1, 30ab <Voice_EC_Prcs_common+0x11f3>
    3077:	43b5b0        	min	a11, a5, a11
    307a:	000b46        	j	30ab <Voice_EC_Prcs_common+0x11f3>

0000307d <Voice_EC_Prcs_common+0x11c5>:
	...

0000307f <Voice_EC_Prcs_common+0x11c7>:
    307f:	04d232        	addmi	a3, a2, 0x400
    3082:	460542        	l8ui	a4, a5, 70
    3085:	221362        	l16ui	a6, a3, 68
    3088:	1a21a2        	l32i	a10, a1, 104
    308b:	84a782        	movi	a8, 0x784
    308e:	a08880        	addx4	a8, a8, a8
    3091:	021426        	beqi	a4, 1, 3097 <Voice_EC_Prcs_common+0x11df>
    3094:	002a86        	j	3142 <Voice_EC_Prcs_common+0x128a>
    3097:	0266f6        	bgeui	a6, 6, 309d <Voice_EC_Prcs_common+0x11e5>
    309a:	002906        	j	3142 <Voice_EC_Prcs_common+0x128a>
    309d:	040c           	movi.n	a4, 0
    309f:	464542        	s8i	a4, a5, 70
    30a2:	225342        	s16i	a4, a3, 68
    30a5:	fc3846        	j	218a <Voice_EC_Prcs_common+0x2d2>

000030a8 <Voice_EC_Prcs_common+0x11f0>:
    30a8:	53b5b0        	max	a11, a5, a11
    30ab:	29d942        	addmi	a4, a9, 0x2900
    30ae:	1994c2        	l16si	a12, a4, 50
    30b1:	f44241        	l32r	a4, 1bc (135c <dt_detect_FB>)
    30b4:	0004e0        	callx8	a4
    30b7:	f3da21        	l32r	a2, 20 (8688 <p_ecnr_mem>)
    30ba:	0248           	l32i.n	a4, a2, 0
    30bc:	1b2122        	l32i	a2, a1, 108
    30bf:	12d452        	addmi	a5, a4, 0x1200
    30c2:	332262        	l32i	a6, a2, 204
    30c5:	2b1572        	l16ui	a7, a5, 86
    30c8:	532282        	l32i	a8, a2, 0x14c
    30cb:	065d           	mov.n	a5, a6
    30cd:	130377        	bnone	a3, a7, 30e4 <Voice_EC_Prcs_common+0x122c>
    30d0:	143070        	extui	a3, a7, 0, 2
    30d3:	085d           	mov.n	a5, a8
    30d5:	082326        	beqi	a3, 2, 30e1 <Voice_EC_Prcs_common+0x1229>
    30d8:	081326        	beqi	a3, 1, 30e4 <Voice_EC_Prcs_common+0x122c>
    30db:	435650        	min	a5, a6, a5
    30de:	000086        	j	30e4 <Voice_EC_Prcs_common+0x122c>

000030e1 <Voice_EC_Prcs_common+0x1229>:
    30e1:	535650        	max	a5, a6, a5
    30e4:	3521f2        	l32i	a15, a1, 212
    30e7:	f53050        	extui	a3, a5, 16, 16
    30ea:	04d222        	addmi	a2, a2, 0x400
    30ed:	933ff0        	movnez	a3, a15, a15
    30f0:	255232        	s16i	a3, a2, 74
    30f3:	46d422        	addmi	a2, a4, 0x4600
    30f6:	fc24b3525e 	{ l32i	a5, a2, 212; ae_zeroq56	aeq0 }
    30fb:	366252        	s32i	a5, a2, 216
    30fe:	362152        	l32i	a5, a1, 216
    3101:	d4a0f2        	movi	a15, 212
    3104:	78a032        	movi	a3, 120
    3107:	46df22        	addmi	a2, a15, 0x4600
    310a:	440504        	ae_lp16x2f.i	aep0, a5, 0
    310d:	048376        	loop	a3, 3115 <Voice_EC_Prcs_common+0x125d>
    3110:	e2002d851f 	{ ae_lp16x2f.iu	aep0, a5, 4; ae_mulaafp24s.hh.ll	aeq0, aep0, aep0 }

00003115 <Voice_EC_Prcs_common+0x125d>:
    3115:	77a032        	movi	a3, 119
    3118:	52d332        	addmi	a3, a3, 0x5200
    311b:	300334        	ae_cvtp24a16x2.ll	aep0, a3, a3
    311e:	350234        	ae_sraiq56	aeq0, aeq0, 8
    3121:	d4e20000af 	{ movi	a10, 0; ae_mulfq32sp16s.l	aeq0, aeq0, aep0 }
    3126:	f3c131        	l32r	a3, 2c (514 <HIFI_sqrt>)
    3129:	060934        	ae_roundsq32asym	aeq0, aeq0
    312c:	368b04        	ae_trunca32q48	a11, aeq0
    312f:	0003e0        	callx8	a3
    3132:	360b34        	ae_cvtq48a32s	aeq0, a11
    3135:	fc24fe8a0f 	{ ae_slaasq56s	aeq0, aeq0, a10; nop }
    313a:	060934        	ae_roundsq32asym	aeq0, aeq0
    313d:	628424        	ae_sq32f.x	aeq0, a4, a2
    3140:	f01d           	retw.n

00003142 <Voice_EC_Prcs_common+0x128a>:
    3142:	561b           	addi.n	a5, a6, 1
    3144:	225352        	s16i	a5, a3, 68
    3147:	fc0fc6        	j	218a <Voice_EC_Prcs_common+0x2d2>

0000314a <Voice_EC_Prcs_common+0x1292>:
	...

0000314c <conv_16_to_24_x2>:
    314c:	004136        	entry	a1, 32
    314f:	0e14a6        	blti	a4, 1, 3161 <conv_16_to_24_x2+0x15>
    3152:	fcc222        	addi	a2, a2, -4
    3155:	f8c332        	addi	a3, a3, -8
    3158:	058476        	loop	a4, 3161 <conv_16_to_24_x2+0x15>
    315b:	448214        	ae_lp16x2f.iu	aep0, a2, 4
    315e:	5e8314        	ae_sp24x2f.iu	aep0, a3, 8

00003161 <conv_16_to_24_x2+0x15>:
    3161:	f01d           	retw.n

00003163 <conv_16_to_24_x2+0x17>:
	...

00003164 <Voice_PostEC_Prcs>:
    3164:	004136        	entry	a1, 32
    3167:	f3ae61        	l32r	a6, 20 (8688 <p_ecnr_mem>)
    316a:	a3a572        	movi	a7, 0x5a3
    316d:	1177d0        	slli	a7, a7, 3
    3170:	0658           	l32i.n	a5, a6, 0
    3172:	02bd           	mov.n	a11, a2
    3174:	a57a           	add.n	a10, a5, a7
    3176:	f41271        	l32r	a7, 1c0 (6a8c <NOISE_GEN_Prcs>)
    3179:	05cd           	mov.n	a12, a5
    317b:	0007e0        	callx8	a7
    317e:	2bd572        	addmi	a7, a5, 0x2b00
    3181:	251772        	l16ui	a7, a7, 74
    3184:	25a582        	movi	a8, 0x525
    3187:	1198d0        	slli	a9, a8, 3
    318a:	579c           	beqz.n	a7, 31a3 <Voice_PostEC_Prcs+0x3f>
    318c:	29d582        	addmi	a8, a5, 0x2900
    318f:	a59a           	add.n	a10, a5, a9
    3191:	1698e2        	l16si	a14, a8, 44
    3194:	f40c71        	l32r	a7, 1c4 (6954 <aec_post_prcs>)
    3197:	02bd           	mov.n	a11, a2
    3199:	03cd           	mov.n	a12, a3
    319b:	05dd           	mov.n	a13, a5
    319d:	0007e0        	callx8	a7
    31a0:	000306        	j	31b0 <Voice_PostEC_Prcs+0x4c>

000031a3 <Voice_PostEC_Prcs+0x3f>:
    31a3:	f39e51        	l32r	a5, 1c (6c04 <xt_memcpy>)
    31a6:	f0a0c2        	movi	a12, 240
    31a9:	03ad           	mov.n	a10, a3
    31ab:	02bd           	mov.n	a11, a2
    31ad:	0005e0        	callx8	a5
    31b0:	0628           	l32i.n	a2, a6, 0
    31b2:	f40551        	l32r	a5, 1c8 (4ec4ec4f <_end+0x4ec465c3>)
    31b5:	c4a0f2        	movi	a15, 196
    31b8:	2dd232        	addmi	a3, a2, 0x2d00
    31bb:	201332        	l16ui	a3, a3, 64
    31be:	46d272        	addmi	a7, a2, 0x4600
    31c1:	903330        	addx2	a3, a3, a3
    31c4:	a03330        	addx4	a3, a3, a3
    31c7:	336b           	addi.n	a3, a3, 6
    31c9:	a23350        	muluh	a3, a3, a5
    31cc:	e10752        	l8ui	a5, a7, 225
    31cf:	413230        	srli	a3, a3, 2
    31d2:	837d           	ae_sext16	a7, a3
    31d4:	46df32        	addmi	a3, a15, 0x4600
    31d7:	33a757        	bge	a7, a5, 320e <Voice_PostEC_Prcs+0xaa>
    31da:	46d282        	addmi	a8, a2, 0x4600
    31dd:	e00882        	l8ui	a8, a8, 224
    31e0:	46d292        	addmi	a9, a2, 0x4600
    31e3:	46d2a2        	addmi	a10, a2, 0x4600
    31e6:	2da877        	bge	a8, a7, 3217 <Voice_PostEC_Prcs+0xb3>
    31e9:	6f9a92        	l16si	a9, a10, 222
    31ec:	6e9aa2        	l16si	a10, a10, 220
    31ef:	c07780        	sub	a7, a7, a8
    31f2:	c05580        	sub	a5, a5, a8
    31f5:	c0e9a0        	sub	a14, a9, a10
    31f8:	8277e0        	mull	a7, a7, a14
    31fb:	80a0f2        	movi	a15, 128
    31fe:	117780        	slli	a7, a7, 8
    3201:	d25750        	quos	a5, a7, a5
    3204:	55fa           	add.n	a5, a5, a15
    3206:	215850        	srai	a5, a5, 8
    3209:	55aa           	add.n	a5, a5, a10
    320b:	0002c6        	j	321a <Voice_PostEC_Prcs+0xb6>

0000320e <Voice_PostEC_Prcs+0xaa>:
    320e:	46d252        	addmi	a5, a2, 0x4600
    3211:	6f9552        	l16si	a5, a5, 222
    3214:	000086        	j	321a <Voice_PostEC_Prcs+0xb6>

00003217 <Voice_PostEC_Prcs+0xb3>:
    3217:	6e9952        	l16si	a5, a9, 220
    321a:	170c           	movi.n	a7, 1
    321c:	117710        	slli	a7, a7, 15
    321f:	c07750        	sub	a7, a7, a5
    3222:	d8a0c2        	movi	a12, 216
    3225:	6da4d2        	movi	a13, 0x46d
    3228:	300574        	ae_cvtp24a16x2.ll	aep0, a5, a7
    322b:	117dc0        	slli	a7, a13, 4
    322e:	46dc52        	addmi	a5, a12, 0x4600
    3231:	602254        	ae_lq32f.x	aeq0, a2, a5
    3234:	607724        	ae_lq32f.xu	aeq1, a7, a2
    3237:	0c0100ccef 	{ movi	a14, 204; ae_mulzaafq32sp16s.lh	aeq0, aeq1, aep0, aeq0, aep0 }
    323c:	457234        	ae_lp16x2f.x	aep7, a2, a3
    323f:	46de32        	addmi	a3, a14, 0x4600
    3242:	fc447c432f 	{ ae_lq32f.xu	aeq2, a3, a2; ae_roundsq32sym	aeq0, aeq0 }
    3247:	46d252        	addmi	a5, a2, 0x4600
    324a:	0cfe6645fe 	{ l16si	a15, a5, 200; ae_mulzaafq32sp16s.lh	aeq1, aeq0, aep7, aeq2, aep7 }
    324f:	f3a921        	l32r	a2, f4 (4630 <airoha_divide>)
    3252:	ff2c79870f 	{ ae_sq32f.i	aeq0, a7, 0; ae_roundsq32asym	aeq3, aeq1 }
    3257:	36ba04        	ae_trunca32q48	a10, aeq3
    325a:	11bf00        	slli	a11, a15, 16
    325d:	03a9           	s32i.n	a10, a3, 0
    325f:	0002e0        	callx8	a2
    3262:	360b34        	ae_cvtq48a32s	aeq0, a11
    3265:	fecae2        	addi	a14, a10, -2
    3268:	fc24fe8e0f 	{ ae_slaasq56s	aeq0, aeq0, a14; nop }
    326d:	f863b0063e 	{ l32i	a3, a6, 0; ae_roundsp16q48asym	aep0, aeq0 }
    3272:	360f24        	ae_trunca16p24s.l	a15, aep0
    3275:	020c           	movi.n	a2, 0
    3277:	1d0c           	movi.n	a13, 1
    3279:	659552        	l16si	a5, a5, 202
    327c:	742d           	ae_s16i.n	a2, a4, 2
    327e:	112d30        	slli	a2, a13, 13
    3281:	29d332        	addmi	a3, a3, 0x2900
    3284:	532f20        	max	a2, a15, a2
    3287:	233d           	ae_l16si.n	a3, a3, 0
    3289:	432250        	min	a2, a2, a5
    328c:	643d           	ae_s16i.n	a3, a4, 0
    328e:	025422        	s16i	a2, a4, 4
    3291:	f01d           	retw.n

00003293 <Voice_PostEC_Prcs+0x12f>:
	...

00003294 <PostEC_Info>:
    3294:	004136        	entry	a1, 32
    3297:	f36231        	l32r	a3, 20 (8688 <p_ecnr_mem>)
    329a:	ffa062        	movi	a6, 255
    329d:	040c           	movi.n	a4, 0
    329f:	0338           	l32i.n	a3, a3, 0
    32a1:	116690        	slli	a6, a6, 7
    32a4:	150c           	movi.n	a5, 1
    32a6:	29d3d2        	addmi	a13, a3, 0x2900
    32a9:	161de2        	l16ui	a14, a13, 44
    32ac:	724d           	ae_s16i.n	a4, a2, 2
    32ae:	2d4d           	ae_l16si.n	a4, a13, 0
    32b0:	10fe60        	and	a15, a14, a6
    32b3:	115530        	slli	a5, a5, 13
    32b6:	624d           	ae_s16i.n	a4, a2, 0
    32b8:	2bd332        	addmi	a3, a3, 0x2b00
    32bb:	7fcf42        	addi	a4, a15, 127
    32be:	025252        	s16i	a5, a2, 4
    32c1:	7427e0        	extui	a2, a14, 7, 8
    32c4:	245342        	s16i	a4, a3, 72
    32c7:	f01d           	retw.n

000032c9 <PostEC_Info+0x35>:
    32c9:	000000                                        ...

000032cc <Voice_EC_Prcs>:
    32cc:	006136        	entry	a1, 48
    32cf:	f3bf81        	l32r	a8, 1cc (1eb8 <Voice_EC_Prcs_common>)
    32d2:	070c           	movi.n	a7, 0
    32d4:	0c0c           	movi.n	a12, 0
    32d6:	02ad           	mov.n	a10, a2
    32d8:	03bd           	mov.n	a11, a3
    32da:	04dd           	mov.n	a13, a4
    32dc:	05ed           	mov.n	a14, a5
    32de:	06fd           	mov.n	a15, a6
    32e0:	0179           	s32i.n	a7, a1, 0
    32e2:	0008e0        	callx8	a8
    32e5:	f01d           	retw.n

000032e7 <Voice_EC_Prcs+0x1b>:
	...

000032e8 <Voice_EC_Inear_Prcs>:
    32e8:	006136        	entry	a1, 48
    32eb:	f3b881        	l32r	a8, 1cc (1eb8 <Voice_EC_Prcs_common>)
    32ee:	c198           	l32i.n	a9, a1, 48
    32f0:	02ad           	mov.n	a10, a2
    32f2:	03bd           	mov.n	a11, a3
    32f4:	04cd           	mov.n	a12, a4
    32f6:	05dd           	mov.n	a13, a5
    32f8:	06ed           	mov.n	a14, a6
    32fa:	07fd           	mov.n	a15, a7
    32fc:	0199           	s32i.n	a9, a1, 0
    32fe:	0008e0        	callx8	a8
    3301:	f01d           	retw.n

00003303 <Voice_EC_Inear_Prcs+0x1b>:
	...

00003304 <Voice_NB_RX_Prcs>:
    3304:	004136        	entry	a1, 32
    3307:	f34631        	l32r	a3, 20 (8688 <p_ecnr_mem>)
    330a:	03a8           	l32i.n	a10, a3, 0
    330c:	2bda42        	addmi	a4, a10, 0x2b00
    330f:	251442        	l16ui	a4, a4, 74
    3312:	848c           	beqz.n	a4, 331e <Voice_NB_RX_Prcs+0x1a>
    3314:	f3af41        	l32r	a4, 1d0 (3978 <NB_RX_NR_frame_process>)
    3317:	02ad           	mov.n	a10, a2
    3319:	0004e0        	callx8	a4
    331c:	03a8           	l32i.n	a10, a3, 0

0000331e <Voice_NB_RX_Prcs+0x1a>:
    331e:	45da32        	addmi	a3, a10, 0x4500
    3321:	12da42        	addmi	a4, a10, 0x1200
    3324:	349332        	l16si	a3, a3, 104
    3327:	285432        	s16i	a3, a4, 80
    332a:	550432        	l8ui	a3, a4, 85
    332d:	3ca052        	movi	a5, 60
    3330:	f8ca42        	addi	a4, a10, -8
    3333:	266357        	bbci	a3, 5, 335d <Voice_NB_RX_Prcs+0x59>
    3336:	fcc232        	addi	a3, a2, -4
    3339:	058576        	loop	a5, 3342 <Voice_NB_RX_Prcs+0x3e>
    333c:	448314        	ae_lp16x2f.iu	aep0, a3, 4
    333f:	5e8414        	ae_sp24x2f.iu	aep0, a4, 8

00003342 <Voice_NB_RX_Prcs+0x3e>:
    3342:	4da232        	movi	a3, 0x24d
    3345:	33a242        	movi	a4, 0x233
    3348:	1133c0        	slli	a3, a3, 4
    334b:	1144b0        	slli	a4, a4, 5
    334e:	ba3a           	add.n	a11, a10, a3
    3350:	f38031        	l32r	a3, 150 (1b60 <biquad_2cascade_24bitTx>)
    3353:	ca4a           	add.n	a12, a10, a4
    3355:	78a0e2        	movi	a14, 120
    3358:	02dd           	mov.n	a13, a2
    335a:	0003e0        	callx8	a3

0000335d <Voice_NB_RX_Prcs+0x59>:
    335d:	f01d           	retw.n

0000335f <Voice_NB_RX_Prcs+0x5b>:
	...

00003360 <Voice_WB_RX_Prcs>:
    3360:	004136        	entry	a1, 32
    3363:	f32f31        	l32r	a3, 20 (8688 <p_ecnr_mem>)
    3366:	03a8           	l32i.n	a10, a3, 0
    3368:	2bda42        	addmi	a4, a10, 0x2b00
    336b:	251442        	l16ui	a4, a4, 74
    336e:	848c           	beqz.n	a4, 337a <Voice_WB_RX_Prcs+0x1a>
    3370:	f39941        	l32r	a4, 1d4 (36f4 <WB_RX_NR_frame_process>)
    3373:	02ad           	mov.n	a10, a2
    3375:	0004e0        	callx8	a4
    3378:	03a8           	l32i.n	a10, a3, 0

0000337a <Voice_WB_RX_Prcs+0x1a>:
    337a:	45da32        	addmi	a3, a10, 0x4500
    337d:	12da42        	addmi	a4, a10, 0x1200
    3380:	349332        	l16si	a3, a3, 104
    3383:	285432        	s16i	a3, a4, 80
    3386:	550432        	l8ui	a3, a4, 85
    3389:	78a052        	movi	a5, 120
    338c:	f8ca42        	addi	a4, a10, -8
    338f:	266357        	bbci	a3, 5, 33b9 <Voice_WB_RX_Prcs+0x59>
    3392:	fcc232        	addi	a3, a2, -4
    3395:	058576        	loop	a5, 339e <Voice_WB_RX_Prcs+0x3e>
    3398:	448314        	ae_lp16x2f.iu	aep0, a3, 4
    339b:	5e8414        	ae_sp24x2f.iu	aep0, a4, 8

0000339e <Voice_WB_RX_Prcs+0x3e>:
    339e:	4da232        	movi	a3, 0x24d
    33a1:	33a242        	movi	a4, 0x233
    33a4:	1133c0        	slli	a3, a3, 4
    33a7:	1144b0        	slli	a4, a4, 5
    33aa:	ba3a           	add.n	a11, a10, a3
    33ac:	f36931        	l32r	a3, 150 (1b60 <biquad_2cascade_24bitTx>)
    33af:	ca4a           	add.n	a12, a10, a4
    33b1:	f0a0e2        	movi	a14, 240
    33b4:	02dd           	mov.n	a13, a2
    33b6:	0003e0        	callx8	a3

000033b9 <Voice_WB_RX_Prcs+0x59>:
    33b9:	f01d           	retw.n

000033bb <Voice_WB_RX_Prcs+0x5b>:
	...

000033bc <EC_REF_GAIN_READBACK>:
    33bc:	004136        	entry	a1, 32
    33bf:	f31831        	l32r	a3, 20 (8688 <p_ecnr_mem>)
    33c2:	040c           	movi.n	a4, 0
    33c4:	0338           	l32i.n	a3, a3, 0
    33c6:	29d362        	addmi	a6, a3, 0x2900
    33c9:	29d372        	addmi	a7, a3, 0x2900
    33cc:	2ad382        	addmi	a8, a3, 0x2a00
    33cf:	2d1652        	l16ui	a5, a6, 90
    33d2:	4d1662        	l16ui	a6, a6, 154
    33d5:	6d1772        	l16ui	a7, a7, 218
    33d8:	0d1882        	l16ui	a8, a8, 26
    33db:	625d           	ae_s16i.n	a5, a2, 0
    33dd:	726d           	ae_s16i.n	a6, a2, 2
    33df:	025272        	s16i	a7, a2, 4
    33e2:	12d3f2        	addmi	a15, a3, 0x1200
    33e5:	035282        	s16i	a8, a2, 6
    33e8:	261f82        	l16ui	a8, a15, 76
    33eb:	050c           	movi.n	a5, 0
    33ed:	060c           	movi.n	a6, 0
    33ef:	070c           	movi.n	a7, 0
    33f1:	142866        	bnei	a8, 2, 3409 <EC_REF_GAIN_READBACK+0x4d>
    33f4:	2ad352        	addmi	a5, a3, 0x2a00
    33f7:	2ad362        	addmi	a6, a3, 0x2a00
    33fa:	2bd3f2        	addmi	a15, a3, 0x2b00
    33fd:	2d1542        	l16ui	a4, a5, 90
    3400:	4d1552        	l16ui	a5, a5, 154
    3403:	6d1662        	l16ui	a6, a6, 218
    3406:	0d1f72        	l16ui	a7, a15, 26

00003409 <EC_REF_GAIN_READBACK+0x4d>:
    3409:	045242        	s16i	a4, a2, 8
    340c:	055252        	s16i	a5, a2, 10
    340f:	065262        	s16i	a6, a2, 12
    3412:	075272        	s16i	a7, a2, 14
    3415:	f01d           	retw.n

00003417 <EC_REF_GAIN_READBACK+0x5b>:
	...

00003418 <EC_Inear_REF_GAIN_READBACK>:
    3418:	004136        	entry	a1, 32
    341b:	f30131        	l32r	a3, 20 (8688 <p_ecnr_mem>)
    341e:	0338           	l32i.n	a3, a3, 0
    3420:	46d332        	addmi	a3, a3, 0x4600
    3423:	3a2332        	l32i	a3, a3, 232
    3426:	611342        	l16ui	a4, a3, 194
    3429:	8113e2        	l16ui	a14, a3, 0x102
    342c:	a113f2        	l16ui	a15, a3, 0x142
    342f:	c11332        	l16ui	a3, a3, 0x182
    3432:	624d           	ae_s16i.n	a4, a2, 0
    3434:	72ed           	ae_s16i.n	a14, a2, 2
    3436:	0252f2        	s16i	a15, a2, 4
    3439:	035232        	s16i	a3, a2, 6
    343c:	f01d           	retw.n

0000343e <EC_Inear_REF_GAIN_READBACK+0x26>:
	...

00003440 <EC_PreLim_Coef_READBACK>:
    3440:	004136        	entry	a1, 32
    3443:	f2f731        	l32r	a3, 20 (8688 <p_ecnr_mem>)
    3446:	c50c           	movi.n	a5, 12
    3448:	25d552        	addmi	a5, a5, 0x2500
    344b:	0338           	l32i.n	a3, a3, 0
    344d:	360c           	movi.n	a6, 3
    344f:	024d           	mov.n	a4, a2
    3451:	535a           	add.n	a5, a3, a5
    3453:	078676        	loop	a6, 345e <EC_PreLim_Coef_READBACK+0x1e>
    3456:	556d           	ae_l16ui.n	a6, a5, 2
    3458:	646d           	ae_s16i.n	a6, a4, 0
    345a:	554b           	addi.n	a5, a5, 4
    345c:	442b           	addi.n	a4, a4, 2

0000345e <EC_PreLim_Coef_READBACK+0x1e>:
    345e:	ada452        	movi	a5, 0x4ad
    3461:	1155d0        	slli	a5, a5, 3
    3464:	360c           	movi.n	a6, 3
    3466:	426b           	addi.n	a4, a2, 6
    3468:	535a           	add.n	a5, a3, a5
    346a:	078676        	loop	a6, 3475 <EC_PreLim_Coef_READBACK+0x35>
    346d:	556d           	ae_l16ui.n	a6, a5, 2
    346f:	646d           	ae_s16i.n	a6, a4, 0
    3471:	554b           	addi.n	a5, a5, 4
    3473:	442b           	addi.n	a4, a4, 2
    3475:	b44c           	movi.n	a4, 75
    3477:	114490        	slli	a4, a4, 7
    347a:	350c           	movi.n	a5, 3
    347c:	334a           	add.n	a3, a3, a4
    347e:	0cc222        	addi	a2, a2, 12
    3481:	078576        	loop	a5, 348c <EC_PreLim_Coef_READBACK+0x4c>
    3484:	534d           	ae_l16ui.n	a4, a3, 2
    3486:	624d           	ae_s16i.n	a4, a2, 0
    3488:	334b           	addi.n	a3, a3, 4
    348a:	222b           	addi.n	a2, a2, 2
    348c:	f01d           	retw.n

0000348e <EC_PreLim_Coef_READBACK+0x4e>:
	...

00003490 <DaulMIC_power_Coef_READBACK>:
    3490:	004136        	entry	a1, 32
    3493:	f2e321        	l32r	a2, 20 (8688 <p_ecnr_mem>)
    3496:	0228           	l32i.n	a2, a2, 0
    3498:	26d222        	addmi	a2, a2, 0x2600
    349b:	3a9222        	l16si	a2, a2, 116
    349e:	f01d           	retw.n

000034a0 <PF_GAIN_FB_READBACK>:
    34a0:	004136        	entry	a1, 32
    34a3:	f2df21        	l32r	a2, 20 (8688 <p_ecnr_mem>)
    34a6:	ffa032        	movi	a3, 255
    34a9:	0228           	l32i.n	a2, a2, 0
    34ab:	46d222        	addmi	a2, a2, 0x4600
    34ae:	3a2222        	l32i	a2, a2, 232
    34b1:	728c           	beqz.n	a2, 34bc <PF_GAIN_FB_READBACK+0x1c>
    34b3:	04d222        	addmi	a2, a2, 0x400
    34b6:	251222        	l16ui	a2, a2, 74
    34b9:	000086        	j	34bf <PF_GAIN_FB_READBACK+0x1f>

000034bc <PF_GAIN_FB_READBACK+0x1c>:
    34bc:	7fd322        	addmi	a2, a3, 0x7f00
    34bf:	822d           	ae_sext16	a2, a2
    34c1:	f01d           	retw.n

000034c3 <PF_GAIN_FB_READBACK+0x23>:
    34c3:	00000000                                 .....

000034c8 <fill_EQ_gain>:
    34c8:	004136        	entry	a1, 32
    34cb:	0a14a6        	blti	a4, 1, 34d9 <fill_EQ_gain+0x11>
    34ce:	078476        	loop	a4, 34d9 <fill_EQ_gain+0x11>
    34d1:	234d           	ae_l16si.n	a4, a3, 0
    34d3:	624d           	ae_s16i.n	a4, a2, 0
    34d5:	332b           	addi.n	a3, a3, 2
    34d7:	222b           	addi.n	a2, a2, 2

000034d9 <fill_EQ_gain+0x11>:
    34d9:	f01d           	retw.n

000034db <fill_EQ_gain+0x13>:
	...

000034dc <WB_NR_init>:
    34dc:	004136        	entry	a1, 32
    34df:	f2fa61        	l32r	a6, c8 (6bf0 <xt_memset>)
    34e2:	0b0c           	movi.n	a11, 0
    34e4:	8ea0c2        	movi	a12, 142
    34e7:	02ad           	mov.n	a10, a2
    34e9:	070c           	movi.n	a7, 0
    34eb:	0006e0        	callx8	a6
    34ee:	f2cc51        	l32r	a5, 20 (8688 <p_ecnr_mem>)
    34f1:	342326        	beqi	a3, 2, 3529 <WB_NR_init+0x4d>
    34f4:	0d4356        	bnez	a3, 35cc <WB_NR_init+0xf0>
    34f7:	f33861        	l32r	a6, 1d8 (6778 <common_noise_gen_init>)
    34fa:	02ad           	mov.n	a10, a2
    34fc:	04bd           	mov.n	a11, a4
    34fe:	0006e0        	callx8	a6
    3501:	0578           	l32i.n	a7, a5, 0
    3503:	f9a162        	movi	a6, 0x1f9
    3506:	e9a182        	movi	a8, 0x1e9
    3509:	893c           	movi.n	a9, 56
    350b:	1188b0        	slli	a8, a8, 5
    350e:	1166b0        	slli	a6, a6, 5
    3511:	44d992        	addmi	a9, a9, 0x4400
    3514:	a76a           	add.n	a10, a7, a6
    3516:	878a           	add.n	a8, a7, a8
    3518:	679a           	add.n	a6, a7, a9
    351a:	3fd772        	addmi	a7, a7, 0x3f00
    351d:	3e6272        	s32i	a7, a2, 248
    3520:	3f62a2        	s32i	a10, a2, 252
    3523:	406282        	s32i	a8, a2, 0x100
    3526:	005b06        	j	3696 <WB_NR_init+0x1ba>

00003529 <WB_NR_init+0x4d>:
    3529:	501492        	l16ui	a9, a4, 160
    352c:	2d9482        	l16si	a8, a4, 90
    352f:	bc0c           	movi.n	a12, 11
    3531:	105282        	s16i	a8, a2, 32
    3534:	d8a0f2        	movi	a15, 216
    3537:	2c94b2        	l16si	a11, a4, 88
    353a:	f32881        	l32r	a8, 1dc (6764 <complement_para>)
    353d:	2494e2        	l16si	a14, a4, 72
    3540:	93c990        	movnez	a12, a9, a9
    3543:	a2fa           	add.n	a10, a2, a15
    3545:	0352e2        	s16i	a14, a2, 6
    3548:	0252c2        	s16i	a12, a2, 4
    354b:	0008e0        	callx8	a8
    354e:	f32481        	l32r	a8, 1e0 (6740 <fill_vad_thrd_Nbands>)
    3551:	a28b           	addi.n	a10, a2, 8
    3553:	70c4b2        	addi	a11, a4, 112
    3556:	4c0c           	movi.n	a12, 4
    3558:	0008e0        	callx8	a8
    355b:	0598           	l32i.n	a9, a5, 0
    355d:	fda0a2        	movi	a10, 253
    3560:	f32181        	l32r	a8, 1e4 (7f40 <win_512_v3_nc>)
    3563:	11aaa0        	slli	a10, a10, 6
    3566:	4f5c           	movi.n	a15, 84
    3568:	3d6282        	s32i	a8, a2, 244
    356b:	b9aa           	add.n	a11, a9, a10
    356d:	2fdf82        	addmi	a8, a15, 0x2f00
    3570:	a98a           	add.n	a10, a9, a8
    3572:	3e62b2        	s32i	a11, a2, 248
    3575:	0b0c           	movi.n	a11, 0
    3577:	eea0c2        	movi	a12, 238
    357a:	4262a2        	s32i	a10, a2, 0x108
    357d:	0006e0        	callx8	a6
    3580:	dca662        	movi	a6, 0x6dc
    3583:	f06660        	subx8	a6, a6, a6
    3586:	175262        	s16i	a6, a2, 46
    3589:	422262        	l32i	a6, a2, 0x108
    358c:	0588           	l32i.n	a8, a5, 0
    358e:	27a292        	movi	a9, 0x227
    3591:	1199b0        	slli	a9, a9, 5
    3594:	40a3f2        	movi	a15, 0x340
    3597:	667d           	ae_s16i.n	a7, a6, 0
    3599:	f2a071        	l32r	a7, 1c (6c04 <xt_memcpy>)
    359c:	889a           	add.n	a8, a8, a9
    359e:	b4fa           	add.n	a11, a4, a15
    35a0:	a62b           	addi.n	a10, a6, 2
    35a2:	3c0c           	movi.n	a12, 3
    35a4:	c289           	s32i.n	a8, a2, 48
    35a6:	0007e0        	callx8	a7
    35a9:	986c           	movi.n	a8, -23
    35ab:	f30f71        	l32r	a7, 1e8 (ffe9ffe9 <_end+0xffe9795d>)
    35ae:	f48080        	extui	a8, a8, 0, 16
    35b1:	44a1d2        	movi	a13, 0x144
    35b4:	6e2c           	movi.n	a14, 38
    35b6:	1f0c           	movi.n	a15, 1
    35b8:	3679           	s32i.n	a7, a6, 12
    35ba:	085682        	s16i	a8, a6, 16
    35bd:	66da           	add.n	a6, a6, a13
    35bf:	017f20        	slli	a7, a15, 30
    35c2:	038e76        	loop	a14, 35c9 <WB_NR_init+0xed>
    35c5:	0679           	s32i.n	a7, a6, 0
    35c7:	664b           	addi.n	a6, a6, 4

000035c9 <WB_NR_init+0xed>:
    35c9:	0032c6        	j	3698 <WB_NR_init+0x1bc>

000035cc <WB_NR_init+0xf0>:
    35cc:	0578           	l32i.n	a7, a5, 0
    35ce:	0ba282        	movi	a8, 0x20b
    35d1:	1188b0        	slli	a8, a8, 5
    35d4:	4d9492        	l16si	a9, a4, 154
    35d7:	4294c2        	l16si	a12, a4, 132
    35da:	4394d2        	l16si	a13, a4, 134
    35dd:	4494e2        	l16si	a14, a4, 136
    35e0:	778a           	add.n	a7, a7, a8
    35e2:	105292        	s16i	a9, a2, 32
    35e5:	0252c2        	s16i	a12, a2, 4
    35e8:	1152d2        	s16i	a13, a2, 34
    35eb:	0352e2        	s16i	a14, a2, 6
    35ee:	396272        	s32i	a7, a2, 228
    35f1:	252472        	l32i	a7, a4, 148
    35f4:	7279           	s32i.n	a7, a2, 28
    35f6:	d8a0f2        	movi	a15, 216
    35f9:	4c94b2        	l16si	a11, a4, 152
    35fc:	f2f871        	l32r	a7, 1dc (6764 <complement_para>)
    35ff:	a2fa           	add.n	a10, a2, a15
    3601:	0007e0        	callx8	a7
    3604:	8aa072        	movi	a7, 138
    3607:	b47a           	add.n	a11, a4, a7
    3609:	f2f571        	l32r	a7, 1e0 (6740 <fill_vad_thrd_Nbands>)
    360c:	a28b           	addi.n	a10, a2, 8
    360e:	5c0c           	movi.n	a12, 5
    3610:	0007e0        	callx8	a7
    3613:	392272        	l32i	a7, a2, 228
    3616:	46a382        	movi	a8, 0x346
    3619:	00a192        	movi	a9, 0x100
    361c:	848a           	add.n	a8, a4, a8
    361e:	078976        	loop	a9, 3629 <WB_NR_init+0x14d>
    3621:	289d           	ae_l16si.n	a9, a8, 0
    3623:	679d           	ae_s16i.n	a9, a7, 0
    3625:	882b           	addi.n	a8, a8, 2
    3627:	772b           	addi.n	a7, a7, 2

00003629 <WB_NR_init+0x14d>:
    3629:	0588           	l32i.n	a8, a5, 0
    362b:	c5a192        	movi	a9, 0x1c5
    362e:	1199b0        	slli	a9, a9, 5
    3631:	2c02a2        	l8ui	a10, a2, 44
    3634:	989a           	add.n	a9, a8, a9
    3636:	9da6d2        	movi	a13, 0x69d
    3639:	f2ec71        	l32r	a7, 1ec (7bd0 <win_rx_512_v3>)
    363c:	3e6292        	s32i	a9, a2, 248
    363f:	119dd0        	slli	a9, a13, 3
    3642:	1b0c           	movi.n	a11, 1
    3644:	eba0c2        	movi	a12, 235
    3647:	3d6272        	s32i	a7, a2, 244
    364a:	207ab0        	or	a7, a10, a11
    364d:	11aca0        	slli	a10, a12, 6
    3650:	989a           	add.n	a9, a8, a9
    3652:	d8a7e2        	movi	a14, 0x7d8
    3655:	a8aa           	add.n	a10, a8, a10
    3657:	406292        	s32i	a9, a2, 0x100
    365a:	b09ee0        	addx8	a9, a14, a14
    365d:	3f62a2        	s32i	a10, a2, 252
    3660:	a89a           	add.n	a10, a8, a9
    3662:	4e94f2        	l16si	a15, a4, 156
    3665:	46d882        	addmi	a8, a8, 0x4600
    3668:	4a58f2        	s16i	a15, a8, 148
    366b:	2c4272        	s8i	a7, a2, 44
    366e:	4f9472        	l16si	a7, a4, 158
    3671:	0b0c           	movi.n	a11, 0
    3673:	6c0c           	movi.n	a12, 6
    3675:	4b5872        	s16i	a7, a8, 150
    3678:	0006e0        	callx8	a6
    367b:	0568           	l32i.n	a6, a5, 0
    367d:	13a382        	movi	a8, 0x313
    3680:	1188c0        	slli	a8, a8, 4
    3683:	f2db71        	l32r	a7, 1f0 (ee09 <_end+0x677d>)
    3686:	1ba2f2        	movi	a15, 0x21b
    3689:	175272        	s16i	a7, a2, 46
    368c:	868a           	add.n	a8, a6, a8
    368e:	117fb0        	slli	a7, a15, 5
    3691:	667a           	add.n	a6, a6, a7
    3693:	416282        	s32i	a8, a2, 0x104

00003696 <WB_NR_init+0x1ba>:
    3696:	c269           	s32i.n	a6, a2, 48
    3698:	f2d761        	l32r	a6, 1f4 (67d4 <common_NR_init>)
    369b:	02ad           	mov.n	a10, a2
    369d:	04bd           	mov.n	a11, a4
    369f:	03cd           	mov.n	a12, a3
    36a1:	0006e0        	callx8	a6
    36a4:	0538           	l32i.n	a3, a5, 0
    36a6:	1cd332        	addmi	a3, a3, 0x1c00
    36a9:	3a6232        	s32i	a3, a2, 232
    36ac:	f01d           	retw.n

000036ae <WB_NR_init+0x1d2>:
	...

000036b0 <WB_RX_NR_init>:
    36b0:	004136        	entry	a1, 32
    36b3:	f25b51        	l32r	a5, 20 (8688 <p_ecnr_mem>)
    36b6:	0a0c           	movi.n	a10, 0
    36b8:	03bd           	mov.n	a11, a3
    36ba:	0529           	s32i.n	a2, a5, 0
    36bc:	f2cf21        	l32r	a2, 1f8 (3ec <RX_ECNR_PARA_init>)
    36bf:	04cd           	mov.n	a12, a4
    36c1:	0002e0        	callx8	a2
    36c4:	f25821        	l32r	a2, 24 (8680 <aec_nr_para>)
    36c7:	0538           	l32i.n	a3, a5, 0
    36c9:	33a242        	movi	a4, 0x233
    36cc:	0268           	l32i.n	a6, a2, 0
    36ce:	1144b0        	slli	a4, a4, 5
    36d1:	a34a           	add.n	a10, a3, a4
    36d3:	34a1f2        	movi	a15, 0x134
    36d6:	f28e31        	l32r	a3, 110 (13f0 <HP_coef_setup>)
    36d9:	b6fa           	add.n	a11, a6, a15
    36db:	0003e0        	callx8	a3
    36de:	0538           	l32i.n	a3, a5, 0
    36e0:	15a142        	movi	a4, 0x115
    36e3:	1144a0        	slli	a4, a4, 6
    36e6:	02c8           	l32i.n	a12, a2, 0
    36e8:	f2c521        	l32r	a2, 1fc (34dc <WB_NR_init>)
    36eb:	a34a           	add.n	a10, a3, a4
    36ed:	1b0c           	movi.n	a11, 1
    36ef:	0002e0        	callx8	a2
    36f2:	f01d           	retw.n

000036f4 <WB_RX_NR_frame_process>:
    36f4:	004136        	entry	a1, 32
    36f7:	f24a31        	l32r	a3, 20 (8688 <p_ecnr_mem>)
    36fa:	94a052        	movi	a5, 148
    36fd:	d8a762        	movi	a6, 0x7d8
    3700:	0348           	l32i.n	a4, a3, 0
    3702:	46d552        	addmi	a5, a5, 0x4600
    3705:	b06660        	addx8	a6, a6, a6
    3708:	b45a           	add.n	a11, a4, a5
    370a:	c46a           	add.n	a12, a4, a6
    370c:	f29741        	l32r	a4, 168 (19a4 <emph_filter_N>)
    370f:	f0a0d2        	movi	a13, 240
    3712:	02ad           	mov.n	a10, a2
    3714:	0004e0        	callx8	a4
    3717:	0348           	l32i.n	a4, a3, 0
    3719:	15a162        	movi	a6, 0x115
    371c:	1166a0        	slli	a6, a6, 6
    371f:	a46a           	add.n	a10, a4, a6
    3721:	f2b741        	l32r	a4, 200 (3744 <WB_NR_frame_process>)
    3724:	02bd           	mov.n	a11, a2
    3726:	02cd           	mov.n	a12, a2
    3728:	0004e0        	callx8	a4
    372b:	0338           	l32i.n	a3, a3, 0
    372d:	9ca042        	movi	a4, 156
    3730:	46d442        	addmi	a4, a4, 0x4600
    3733:	b35a           	add.n	a11, a3, a5
    3735:	c34a           	add.n	a12, a3, a4
    3737:	f29c31        	l32r	a3, 1a8 (19ec <deemph_filter_N>)
    373a:	f0a0d2        	movi	a13, 240
    373d:	02ad           	mov.n	a10, a2
    373f:	0003e0        	callx8	a3
    3742:	f01d           	retw.n

00003744 <WB_NR_frame_process>:
    3744:	004136        	entry	a1, 32
    3747:	f2af51        	l32r	a5, 204 (3cb0 <fft_wo>)
    374a:	02ad           	mov.n	a10, a2
    374c:	03bd           	mov.n	a11, a3
    374e:	0005e0        	callx8	a5
    3751:	f2ad31        	l32r	a3, 208 (3e04 <NR_vad1>)
    3754:	02ad           	mov.n	a10, a2
    3756:	0003e0        	callx8	a3
    3759:	f2ac31        	l32r	a3, 20c (3f20 <NR_vad2>)
    375c:	02ad           	mov.n	a10, a2
    375e:	0003e0        	callx8	a3
    3761:	f2ab31        	l32r	a3, 210 (4098 <NR_NoiseEstimate>)
    3764:	02ad           	mov.n	a10, a2
    3766:	0003e0        	callx8	a3
    3769:	f2aa31        	l32r	a3, 214 (41bc <NR_NoiseWithGain>)
    376c:	02ad           	mov.n	a10, a2
    376e:	0003e0        	callx8	a3
    3771:	f2a931        	l32r	a3, 218 (4278 <NR_WienerFilter>)
    3774:	02ad           	mov.n	a10, a2
    3776:	0003e0        	callx8	a3
    3779:	f2a831        	l32r	a3, 21c (4504 <ifft_wo_single>)
    377c:	02ad           	mov.n	a10, a2
    377e:	04bd           	mov.n	a11, a4
    3780:	0003e0        	callx8	a3
    3783:	f01d           	retw.n

00003785 <WB_NR_frame_process+0x41>:
    3785:	000000                                        ...

00003788 <NB_NR_init>:
    3788:	004136        	entry	a1, 32
    378b:	f24f61        	l32r	a6, c8 (6bf0 <xt_memset>)
    378e:	0b0c           	movi.n	a11, 0
    3790:	8ea0c2        	movi	a12, 142
    3793:	02ad           	mov.n	a10, a2
    3795:	0006e0        	callx8	a6
    3798:	f22231        	l32r	a3, 20 (8688 <p_ecnr_mem>)
    379b:	f22241        	l32r	a4, 24 (8680 <aec_nr_para>)
    379e:	0ba272        	movi	a7, 0x20b
    37a1:	0358           	l32i.n	a5, a3, 0
    37a3:	0488           	l32i.n	a8, a4, 0
    37a5:	1177b0        	slli	a7, a7, 5
    37a8:	557a           	add.n	a5, a5, a7
    37aa:	3f98c2        	l16si	a12, a8, 126
    37ad:	3598d2        	l16si	a13, a8, 106
    37b0:	3698e2        	l16si	a14, a8, 108
    37b3:	3798f2        	l16si	a15, a8, 110
    37b6:	396252        	s32i	a5, a2, 228
    37b9:	1052c2        	s16i	a12, a2, 32
    37bc:	0252d2        	s16i	a13, a2, 4
    37bf:	1152e2        	s16i	a14, a2, 34
    37c2:	0352f2        	s16i	a15, a2, 6
    37c5:	1e2852        	l32i	a5, a8, 120
    37c8:	7259           	s32i.n	a5, a2, 28
    37ca:	d8a0a2        	movi	a10, 216
    37cd:	3e98b2        	l16si	a11, a8, 124
    37d0:	f28351        	l32r	a5, 1dc (6764 <complement_para>)
    37d3:	a2aa           	add.n	a10, a2, a10
    37d5:	0005e0        	callx8	a5
    37d8:	0478           	l32i.n	a7, a4, 0
    37da:	a28b           	addi.n	a10, a2, 8
    37dc:	4c0c           	movi.n	a12, 4
    37de:	70c7b2        	addi	a11, a7, 112
    37e1:	f27f71        	l32r	a7, 1e0 (6740 <fill_vad_thrd_Nbands>)
    37e4:	0007e0        	callx8	a7
    37e7:	0478           	l32i.n	a7, a4, 0
    37e9:	392282        	l32i	a8, a2, 228
    37ec:	46a392        	movi	a9, 0x346
    37ef:	80a0a2        	movi	a10, 128
    37f2:	809790        	add	a9, a7, a9
    37f5:	078a76        	loop	a10, 3800 <NB_NR_init+0x78>
    37f8:	29ad           	ae_l16si.n	a10, a9, 0
    37fa:	68ad           	ae_s16i.n	a10, a8, 0
    37fc:	992b           	addi.n	a9, a9, 2
    37fe:	882b           	addi.n	a8, a8, 2

00003800 <NB_NR_init+0x78>:
    3800:	0398           	l32i.n	a9, a3, 0
    3802:	c5a1a2        	movi	a10, 0x1c5
    3805:	11aab0        	slli	a10, a10, 5
    3808:	a9aa           	add.n	a10, a9, a10
    380a:	2c02b2        	l8ui	a11, a2, 44
    380d:	9da6c2        	movi	a12, 0x69d
    3810:	3e62a2        	s32i	a10, a2, 248
    3813:	11acd0        	slli	a10, a12, 3
    3816:	f28281        	l32r	a8, 220 (7df0 <win_rx_256_v3>)
    3819:	a9aa           	add.n	a10, a9, a10
    381b:	1e0c           	movi.n	a14, 1
    381d:	eba0f2        	movi	a15, 235
    3820:	d8a7d2        	movi	a13, 0x7d8
    3823:	3d6282        	s32i	a8, a2, 244
    3826:	208be0        	or	a8, a11, a14
    3829:	11bfa0        	slli	a11, a15, 6
    382c:	4062a2        	s32i	a10, a2, 0x100
    382f:	b0add0        	addx8	a10, a13, a13
    3832:	b9ba           	add.n	a11, a9, a11
    3834:	a9aa           	add.n	a10, a9, a10
    3836:	4097e2        	l16si	a14, a7, 128
    3839:	46d992        	addmi	a9, a9, 0x4600
    383c:	4a59e2        	s16i	a14, a9, 148
    383f:	4197f2        	l16si	a15, a7, 130
    3842:	3f62b2        	s32i	a11, a2, 252
    3845:	0b0c           	movi.n	a11, 0
    3847:	6c0c           	movi.n	a12, 6
    3849:	2c4282        	s8i	a8, a2, 44
    384c:	4b59f2        	s16i	a15, a9, 150
    384f:	0006e0        	callx8	a6
    3852:	0388           	l32i.n	a8, a3, 0
    3854:	13a392        	movi	a9, 0x313
    3857:	1ba2a2        	movi	a10, 0x21b
    385a:	1199c0        	slli	a9, a9, 4
    385d:	11aab0        	slli	a10, a10, 5
    3860:	a0a0b2        	movi	a11, 160
    3863:	777c           	movi.n	a7, -9
    3865:	c89a           	add.n	a12, a8, a9
    3867:	88aa           	add.n	a8, a8, a10
    3869:	760c           	movi.n	a6, 7
    386b:	7f1c           	movi.n	a15, 23
    386d:	017750        	slli	a7, a7, 27
    3870:	119f50        	slli	a9, a15, 11
    3873:	4162c2        	s32i	a12, a2, 0x104
    3876:	ca0c           	movi.n	a10, 12
    3878:	b2ba           	add.n	a11, a2, a11
    387a:	2e4262        	s8i	a6, a2, 46
    387d:	c289           	s32i.n	a8, a2, 48

0000387f <NB_NR_init+0xf7>:
    387f:	08cd           	mov.n	a12, a8
    3881:	0b79           	s32i.n	a7, a11, 0
    3883:	038a76        	loop	a10, 388a <NB_NR_init+0x102>
    3886:	6c9d           	ae_s16i.n	a9, a12, 0
    3888:	cc2b           	addi.n	a12, a12, 2

0000388a <NB_NR_init+0x102>:
    388a:	660b           	addi.n	a6, a6, -1
    388c:	18c882        	addi	a8, a8, 24
    388f:	bb4b           	addi.n	a11, a11, 4
    3891:	fea656        	bnez	a6, 387f <NB_NR_init+0xf7>
    3894:	0468           	l32i.n	a6, a4, 0
    3896:	c4a072        	movi	a7, 196
    3899:	a27a           	add.n	a10, a2, a7
    389b:	2e96b2        	l16si	a11, a6, 92
    389e:	0005e0        	callx8	a5
    38a1:	0468           	l32i.n	a6, a4, 0
    38a3:	c8a072        	movi	a7, 200
    38a6:	a27a           	add.n	a10, a2, a7
    38a8:	2f96b2        	l16si	a11, a6, 94
    38ab:	0005e0        	callx8	a5
    38ae:	0468           	l32i.n	a6, a4, 0
    38b0:	cca072        	movi	a7, 204
    38b3:	a27a           	add.n	a10, a2, a7
    38b5:	3096b2        	l16si	a11, a6, 96
    38b8:	0005e0        	callx8	a5
    38bb:	0468           	l32i.n	a6, a4, 0
    38bd:	d0a072        	movi	a7, 208
    38c0:	a27a           	add.n	a10, a2, a7
    38c2:	3196b2        	l16si	a11, a6, 98
    38c5:	0005e0        	callx8	a5
    38c8:	0468           	l32i.n	a6, a4, 0
    38ca:	d4a072        	movi	a7, 212
    38cd:	a27a           	add.n	a10, a2, a7
    38cf:	3296b2        	l16si	a11, a6, 100
    38d2:	0005e0        	callx8	a5
    38d5:	0448           	l32i.n	a4, a4, 0
    38d7:	78a052        	movi	a5, 120
    38da:	160c           	movi.n	a6, 1
    38dc:	0448           	l32i.n	a4, a4, 0
    38de:	0249           	s32i.n	a4, a2, 0
    38e0:	ffa782        	movi	a8, 0x7ff
    38e3:	9a6c           	movi.n	a10, -23
    38e5:	0338           	l32i.n	a3, a3, 0
    38e7:	2f4252        	s8i	a5, a2, 47
    38ea:	1158b0        	slli	a5, a8, 5
    38ed:	155262        	s16i	a6, a2, 42
    38f0:	f460a0        	extui	a6, a10, 0, 16
    38f3:	f7a1c2        	movi	a12, 0x1f7
    38f6:	f7a3d2        	movi	a13, 0x3f7
    38f9:	715252        	s16i	a5, a2, 226
    38fc:	115de0        	slli	a5, a13, 2
    38ff:	6f5262        	s16i	a6, a2, 222
    3902:	116cd0        	slli	a6, a12, 3
    3905:	646a           	add.n	a6, a4, a6
    3907:	545a           	add.n	a5, a4, a5
    3909:	402242        	l32i	a4, a2, 0x100
    390c:	00a192        	movi	a9, 0x100
    390f:	f207b1        	l32r	a11, 12c (7fff0000 <_end+0x7ffe7974>)
    3912:	1cd332        	addmi	a3, a3, 0x1c00
    3915:	78a0e2        	movi	a14, 120
    3918:	01a0f2        	movi	a15, 1
    391b:	125292        	s16i	a9, a2, 36
    391e:	4462b2        	s32i	a11, a2, 0x110
    3921:	3b6262        	s32i	a6, a2, 236
    3924:	3c6252        	s32i	a5, a2, 240
    3927:	3a6232        	s32i	a3, a2, 232
    392a:	012f20        	slli	a2, a15, 30
    392d:	038e76        	loop	a14, 3934 <NB_NR_init+0x1ac>
    3930:	0429           	s32i.n	a2, a4, 0
    3932:	444b           	addi.n	a4, a4, 4
    3934:	f01d           	retw.n

00003936 <NB_NR_init+0x1ae>:
	...

00003938 <NB_RX_NR_init>:
    3938:	004136        	entry	a1, 32
    393b:	f1b951        	l32r	a5, 20 (8688 <p_ecnr_mem>)
    393e:	1a0c           	movi.n	a10, 1
    3940:	03bd           	mov.n	a11, a3
    3942:	0529           	s32i.n	a2, a5, 0
    3944:	f22d21        	l32r	a2, 1f8 (3ec <RX_ECNR_PARA_init>)
    3947:	04cd           	mov.n	a12, a4
    3949:	0002e0        	callx8	a2
    394c:	f1b621        	l32r	a2, 24 (8680 <aec_nr_para>)
    394f:	0538           	l32i.n	a3, a5, 0
    3951:	33a242        	movi	a4, 0x233
    3954:	0228           	l32i.n	a2, a2, 0
    3956:	60a1f2        	movi	a15, 0x160
    3959:	1144b0        	slli	a4, a4, 5
    395c:	b2fa           	add.n	a11, a2, a15
    395e:	f1ec21        	l32r	a2, 110 (13f0 <HP_coef_setup>)
    3961:	a34a           	add.n	a10, a3, a4
    3963:	0002e0        	callx8	a2
    3966:	0528           	l32i.n	a2, a5, 0
    3968:	15a132        	movi	a3, 0x115
    396b:	1133a0        	slli	a3, a3, 6
    396e:	a23a           	add.n	a10, a2, a3
    3970:	f22d21        	l32r	a2, 224 (3788 <NB_NR_init>)
    3973:	0002e0        	callx8	a2
    3976:	f01d           	retw.n

00003978 <NB_RX_NR_frame_process>:
    3978:	004136        	entry	a1, 32
    397b:	f1a931        	l32r	a3, 20 (8688 <p_ecnr_mem>)
    397e:	94a052        	movi	a5, 148
    3981:	d8a762        	movi	a6, 0x7d8
    3984:	0348           	l32i.n	a4, a3, 0
    3986:	46d552        	addmi	a5, a5, 0x4600
    3989:	b06660        	addx8	a6, a6, a6
    398c:	b45a           	add.n	a11, a4, a5
    398e:	c46a           	add.n	a12, a4, a6
    3990:	f1f641        	l32r	a4, 168 (19a4 <emph_filter_N>)
    3993:	78a0d2        	movi	a13, 120
    3996:	02ad           	mov.n	a10, a2
    3998:	0004e0        	callx8	a4
    399b:	0348           	l32i.n	a4, a3, 0
    399d:	15a162        	movi	a6, 0x115
    39a0:	1166a0        	slli	a6, a6, 6
    39a3:	a46a           	add.n	a10, a4, a6
    39a5:	f22041        	l32r	a4, 228 (39c8 <NB_NR_frame_process>)
    39a8:	02bd           	mov.n	a11, a2
    39aa:	02cd           	mov.n	a12, a2
    39ac:	0004e0        	callx8	a4
    39af:	0338           	l32i.n	a3, a3, 0
    39b1:	9ca042        	movi	a4, 156
    39b4:	46d442        	addmi	a4, a4, 0x4600
    39b7:	b35a           	add.n	a11, a3, a5
    39b9:	c34a           	add.n	a12, a3, a4
    39bb:	f1fb31        	l32r	a3, 1a8 (19ec <deemph_filter_N>)
    39be:	78a0d2        	movi	a13, 120
    39c1:	02ad           	mov.n	a10, a2
    39c3:	0003e0        	callx8	a3
    39c6:	f01d           	retw.n

000039c8 <NB_NR_frame_process>:
    39c8:	004136        	entry	a1, 32
    39cb:	f20e51        	l32r	a5, 204 (3cb0 <fft_wo>)
    39ce:	02ad           	mov.n	a10, a2
    39d0:	03bd           	mov.n	a11, a3
    39d2:	0005e0        	callx8	a5
    39d5:	f20c31        	l32r	a3, 208 (3e04 <NR_vad1>)
    39d8:	02ad           	mov.n	a10, a2
    39da:	0003e0        	callx8	a3
    39dd:	f20b31        	l32r	a3, 20c (3f20 <NR_vad2>)
    39e0:	02ad           	mov.n	a10, a2
    39e2:	0003e0        	callx8	a3
    39e5:	f20a31        	l32r	a3, 210 (4098 <NR_NoiseEstimate>)
    39e8:	02ad           	mov.n	a10, a2
    39ea:	0003e0        	callx8	a3
    39ed:	f20931        	l32r	a3, 214 (41bc <NR_NoiseWithGain>)
    39f0:	02ad           	mov.n	a10, a2
    39f2:	0003e0        	callx8	a3
    39f5:	f20831        	l32r	a3, 218 (4278 <NR_WienerFilter>)
    39f8:	02ad           	mov.n	a10, a2
    39fa:	0003e0        	callx8	a3
    39fd:	f20731        	l32r	a3, 21c (4504 <ifft_wo_single>)
    3a00:	02ad           	mov.n	a10, a2
    3a02:	04bd           	mov.n	a11, a4
    3a04:	0003e0        	callx8	a3
    3a07:	f01d           	retw.n

00003a09 <NB_NR_frame_process+0x41>:
    3a09:	000000                                        ...

00003a0c <NOISE_GEN_init>:
    3a0c:	004136        	entry	a1, 32
    3a0f:	f18421        	l32r	a2, 20 (8688 <p_ecnr_mem>)
    3a12:	f18431        	l32r	a3, 24 (8680 <aec_nr_para>)
    3a15:	a3a542        	movi	a4, 0x5a3
    3a18:	0228           	l32i.n	a2, a2, 0
    3a1a:	1144d0        	slli	a4, a4, 3
    3a1d:	03c8           	l32i.n	a12, a3, 0
    3a1f:	a24a           	add.n	a10, a2, a4
    3a21:	f1f621        	l32r	a2, 1fc (34dc <WB_NR_init>)
    3a24:	0b0c           	movi.n	a11, 0
    3a26:	0002e0        	callx8	a2
    3a29:	f01d           	retw.n

00003a2b <NOISE_GEN_init+0x1f>:
	...

00003a2c <NC_NOISE_EST_init>:
    3a2c:	004136        	entry	a1, 32
    3a2f:	f17c31        	l32r	a3, 20 (8688 <p_ecnr_mem>)
    3a32:	c7a542        	movi	a4, 0x5c7
    3a35:	1144d0        	slli	a4, a4, 3
    3a38:	0338           	l32i.n	a3, a3, 0
    3a3a:	2b0c           	movi.n	a11, 2
    3a3c:	02cd           	mov.n	a12, a2
    3a3e:	a34a           	add.n	a10, a3, a4
    3a40:	f1ef31        	l32r	a3, 1fc (34dc <WB_NR_init>)
    3a43:	0003e0        	callx8	a3
    3a46:	f01d           	retw.n

00003a48 <NC_NOISE_EST_Prcs>:
    3a48:	006136        	entry	a1, 48
    3a4b:	c7a542        	movi	a4, 0x5c7
    3a4e:	1144d0        	slli	a4, a4, 3
    3a51:	424a           	add.n	a4, a2, a4
    3a53:	f1ec51        	l32r	a5, 204 (3cb0 <fft_wo>)
    3a56:	04ad           	mov.n	a10, a4
    3a58:	03bd           	mov.n	a11, a3
    3a5a:	0005e0        	callx8	a5
    3a5d:	f1ea31        	l32r	a3, 208 (3e04 <NR_vad1>)
    3a60:	04ad           	mov.n	a10, a4
    3a62:	0003e0        	callx8	a3
    3a65:	f1e931        	l32r	a3, 20c (3f20 <NR_vad2>)
    3a68:	04ad           	mov.n	a10, a4
    3a6a:	0003e0        	callx8	a3
    3a6d:	2fd232        	addmi	a3, a2, 0x2f00
    3a70:	a338           	l32i.n	a3, a3, 40
    3a72:	2fd242        	addmi	a4, a2, 0x2f00
    3a75:	102452        	l32i	a5, a4, 64
    3a78:	0368           	l32i.n	a6, a3, 0
    3a7a:	0d0c           	movi.n	a13, 0
    3a7c:	1116e6        	bgei	a6, 1, 3a91 <NC_NOISE_EST_Prcs+0x49>
    3a7f:	1348           	l32i.n	a4, a3, 4
    3a81:	0c14e6        	bgei	a4, 1, 3a91 <NC_NOISE_EST_Prcs+0x49>
    3a84:	2348           	l32i.n	a4, a3, 8
    3a86:	0714e6        	bgei	a4, 1, 3a91 <NC_NOISE_EST_Prcs+0x49>
    3a89:	3338           	l32i.n	a3, a3, 12
    3a8b:	0213e6        	bgei	a3, 1, 3a91 <NC_NOISE_EST_Prcs+0x49>
    3a8e:	0050c6        	j	3bd5 <NC_NOISE_EST_Prcs+0x18d>

00003a91 <NC_NOISE_EST_Prcs+0x49>:
    3a91:	1d0c           	movi.n	a13, 1
    3a93:	090532        	l8ui	a3, a5, 9
    3a96:	66a672        	movi	a7, 0x666
